ARM GAS  /tmp/ccIEh1dP.s 			page 1


   1              		.cpu cortex-m4
   2              		.eabi_attribute 20, 1
   3              		.eabi_attribute 21, 1
   4              		.eabi_attribute 23, 3
   5              		.eabi_attribute 24, 1
   6              		.eabi_attribute 25, 1
   7              		.eabi_attribute 26, 1
   8              		.eabi_attribute 30, 1
   9              		.eabi_attribute 34, 1
  10              		.eabi_attribute 18, 4
  11              		.file	"LmHandler.c"
  12              		.text
  13              	.Ltext0:
  14              		.cfi_sections	.debug_frame
  15              		.section	.text.LmHandlerPackageIsInitialized,"ax",%progbits
  16              		.align	1
  17              		.arch armv7e-m
  18              		.syntax unified
  19              		.thumb
  20              		.thumb_func
  21              		.fpu softvfp
  23              	LmHandlerPackageIsInitialized:
  24              	.LVL0:
  25              	.LFB124:
  26              		.file 1 "Middlewares/Third_Party/LoRaWAN/LmHandler/LmHandler.c"
   1:Middlewares/Third_Party/LoRaWAN/LmHandler/LmHandler.c **** /*!
   2:Middlewares/Third_Party/LoRaWAN/LmHandler/LmHandler.c ****  * \file      LmHandler.c
   3:Middlewares/Third_Party/LoRaWAN/LmHandler/LmHandler.c ****  *
   4:Middlewares/Third_Party/LoRaWAN/LmHandler/LmHandler.c ****  * \brief     Implements the LoRaMac layer handling.
   5:Middlewares/Third_Party/LoRaWAN/LmHandler/LmHandler.c ****  *            Provides the possibility to register applicative packages.
   6:Middlewares/Third_Party/LoRaWAN/LmHandler/LmHandler.c ****  *
   7:Middlewares/Third_Party/LoRaWAN/LmHandler/LmHandler.c ****  * \remark    Inspired by the examples provided on the en.i-cube_lrwan fork.
   8:Middlewares/Third_Party/LoRaWAN/LmHandler/LmHandler.c ****  *            MCD Application Team ( STMicroelectronics International )
   9:Middlewares/Third_Party/LoRaWAN/LmHandler/LmHandler.c ****  *
  10:Middlewares/Third_Party/LoRaWAN/LmHandler/LmHandler.c ****  * \copyright Revised BSD License, see section \ref LICENSE.
  11:Middlewares/Third_Party/LoRaWAN/LmHandler/LmHandler.c ****  *
  12:Middlewares/Third_Party/LoRaWAN/LmHandler/LmHandler.c ****  * \code
  13:Middlewares/Third_Party/LoRaWAN/LmHandler/LmHandler.c ****  *                ______                              _
  14:Middlewares/Third_Party/LoRaWAN/LmHandler/LmHandler.c ****  *               / _____)             _              | |
  15:Middlewares/Third_Party/LoRaWAN/LmHandler/LmHandler.c ****  *              ( (____  _____ ____ _| |_ _____  ____| |__
  16:Middlewares/Third_Party/LoRaWAN/LmHandler/LmHandler.c ****  *               \____ \| ___ |    (_   _) ___ |/ ___)  _ \
  17:Middlewares/Third_Party/LoRaWAN/LmHandler/LmHandler.c ****  *               _____) ) ____| | | || |_| ____( (___| | | |
  18:Middlewares/Third_Party/LoRaWAN/LmHandler/LmHandler.c ****  *              (______/|_____)_|_|_| \__)_____)\____)_| |_|
  19:Middlewares/Third_Party/LoRaWAN/LmHandler/LmHandler.c ****  *              (C)2013-2018 Semtech
  20:Middlewares/Third_Party/LoRaWAN/LmHandler/LmHandler.c ****  *
  21:Middlewares/Third_Party/LoRaWAN/LmHandler/LmHandler.c ****  * \endcode
  22:Middlewares/Third_Party/LoRaWAN/LmHandler/LmHandler.c ****  *
  23:Middlewares/Third_Party/LoRaWAN/LmHandler/LmHandler.c ****  * \author    Miguel Luis ( Semtech )
  24:Middlewares/Third_Party/LoRaWAN/LmHandler/LmHandler.c ****  */
  25:Middlewares/Third_Party/LoRaWAN/LmHandler/LmHandler.c **** /**
  26:Middlewares/Third_Party/LoRaWAN/LmHandler/LmHandler.c ****   ******************************************************************************
  27:Middlewares/Third_Party/LoRaWAN/LmHandler/LmHandler.c ****   *
  28:Middlewares/Third_Party/LoRaWAN/LmHandler/LmHandler.c ****   *          Portions COPYRIGHT 2020 STMicroelectronics
  29:Middlewares/Third_Party/LoRaWAN/LmHandler/LmHandler.c ****   *
  30:Middlewares/Third_Party/LoRaWAN/LmHandler/LmHandler.c ****   * @file    LmHandler.c
  31:Middlewares/Third_Party/LoRaWAN/LmHandler/LmHandler.c ****   * @author  MCD Application Team
  32:Middlewares/Third_Party/LoRaWAN/LmHandler/LmHandler.c ****   * @brief   LoRaMAC Layer handling definition
ARM GAS  /tmp/ccIEh1dP.s 			page 2


  33:Middlewares/Third_Party/LoRaWAN/LmHandler/LmHandler.c ****   ******************************************************************************
  34:Middlewares/Third_Party/LoRaWAN/LmHandler/LmHandler.c ****   */
  35:Middlewares/Third_Party/LoRaWAN/LmHandler/LmHandler.c **** /* Includes ------------------------------------------------------------------*/
  36:Middlewares/Third_Party/LoRaWAN/LmHandler/LmHandler.c **** #include <stdlib.h>
  37:Middlewares/Third_Party/LoRaWAN/LmHandler/LmHandler.c **** #include <stdint.h>
  38:Middlewares/Third_Party/LoRaWAN/LmHandler/LmHandler.c **** #include <stdbool.h>
  39:Middlewares/Third_Party/LoRaWAN/LmHandler/LmHandler.c **** #include "utilities.h"
  40:Middlewares/Third_Party/LoRaWAN/LmHandler/LmHandler.c **** #include "timer.h"
  41:Middlewares/Third_Party/LoRaWAN/LmHandler/LmHandler.c **** #include "Commissioning.h"
  42:Middlewares/Third_Party/LoRaWAN/LmHandler/LmHandler.c **** #include "NvmDataMgmt.h"
  43:Middlewares/Third_Party/LoRaWAN/LmHandler/LmHandler.c **** #include "radio.h"
  44:Middlewares/Third_Party/LoRaWAN/LmHandler/LmHandler.c **** #include "Region.h"
  45:Middlewares/Third_Party/LoRaWAN/LmHandler/LmHandler.c **** #include "LoRaMacTest.h"
  46:Middlewares/Third_Party/LoRaWAN/LmHandler/LmHandler.c **** #include "LmHandler.h"
  47:Middlewares/Third_Party/LoRaWAN/LmHandler/LmHandler.c **** #include "LmhPackage.h"
  48:Middlewares/Third_Party/LoRaWAN/LmHandler/LmHandler.c **** #include "LmhpCompliance.h"
  49:Middlewares/Third_Party/LoRaWAN/LmHandler/LmHandler.c **** #include "secure-element.h"
  50:Middlewares/Third_Party/LoRaWAN/LmHandler/LmHandler.c **** #include "mw_log_conf.h"  /* needed for MW_LOG */
  51:Middlewares/Third_Party/LoRaWAN/LmHandler/LmHandler.c **** #include "lorawan_version.h"
  52:Middlewares/Third_Party/LoRaWAN/LmHandler/LmHandler.c **** #include "lora_info.h"
  53:Middlewares/Third_Party/LoRaWAN/LmHandler/LmHandler.c **** #if (!defined (LORAWAN_KMS) || (LORAWAN_KMS == 0))
  54:Middlewares/Third_Party/LoRaWAN/LmHandler/LmHandler.c **** #else /* LORAWAN_KMS == 1 */
  55:Middlewares/Third_Party/LoRaWAN/LmHandler/LmHandler.c **** #include "kms.h"
  56:Middlewares/Third_Party/LoRaWAN/LmHandler/LmHandler.c **** #include "kms_platf_objects_interface.h"
  57:Middlewares/Third_Party/LoRaWAN/LmHandler/LmHandler.c **** #endif /* LORAWAN_KMS */
  58:Middlewares/Third_Party/LoRaWAN/LmHandler/LmHandler.c **** #if (!defined (LORAWAN_DATA_DISTRIB_MGT) || (LORAWAN_DATA_DISTRIB_MGT == 0))
  59:Middlewares/Third_Party/LoRaWAN/LmHandler/LmHandler.c **** #else /* LORAWAN_DATA_DISTRIB_MGT == 1 */
  60:Middlewares/Third_Party/LoRaWAN/LmHandler/LmHandler.c **** #include "LmhpPackagesRegistration.h"
  61:Middlewares/Third_Party/LoRaWAN/LmHandler/LmHandler.c **** #endif /* LORAWAN_DATA_DISTRIB_MGT */
  62:Middlewares/Third_Party/LoRaWAN/LmHandler/LmHandler.c **** 
  63:Middlewares/Third_Party/LoRaWAN/LmHandler/LmHandler.c **** /* Private typedef -----------------------------------------------------------*/
  64:Middlewares/Third_Party/LoRaWAN/LmHandler/LmHandler.c **** /*!
  65:Middlewares/Third_Party/LoRaWAN/LmHandler/LmHandler.c ****  * MAC notification type
  66:Middlewares/Third_Party/LoRaWAN/LmHandler/LmHandler.c ****  */
  67:Middlewares/Third_Party/LoRaWAN/LmHandler/LmHandler.c **** typedef enum PackageNotifyTypes_e
  68:Middlewares/Third_Party/LoRaWAN/LmHandler/LmHandler.c **** {
  69:Middlewares/Third_Party/LoRaWAN/LmHandler/LmHandler.c ****     PACKAGE_MCPS_CONFIRM,
  70:Middlewares/Third_Party/LoRaWAN/LmHandler/LmHandler.c ****     PACKAGE_MCPS_INDICATION,
  71:Middlewares/Third_Party/LoRaWAN/LmHandler/LmHandler.c ****     PACKAGE_MLME_CONFIRM
  72:Middlewares/Third_Party/LoRaWAN/LmHandler/LmHandler.c **** } PackageNotifyTypes_t;
  73:Middlewares/Third_Party/LoRaWAN/LmHandler/LmHandler.c **** 
  74:Middlewares/Third_Party/LoRaWAN/LmHandler/LmHandler.c **** /* Private define ------------------------------------------------------------*/
  75:Middlewares/Third_Party/LoRaWAN/LmHandler/LmHandler.c **** /*!
  76:Middlewares/Third_Party/LoRaWAN/LmHandler/LmHandler.c ****  * Package application data buffer size
  77:Middlewares/Third_Party/LoRaWAN/LmHandler/LmHandler.c ****  */
  78:Middlewares/Third_Party/LoRaWAN/LmHandler/LmHandler.c **** #define LORAWAN_APP_DATA_BUFFER_MAX_SIZE            242
  79:Middlewares/Third_Party/LoRaWAN/LmHandler/LmHandler.c **** 
  80:Middlewares/Third_Party/LoRaWAN/LmHandler/LmHandler.c **** /* Private macro -------------------------------------------------------------*/
  81:Middlewares/Third_Party/LoRaWAN/LmHandler/LmHandler.c **** /*!
  82:Middlewares/Third_Party/LoRaWAN/LmHandler/LmHandler.c ****  * Hex 8 split buffer
  83:Middlewares/Third_Party/LoRaWAN/LmHandler/LmHandler.c ****  */
  84:Middlewares/Third_Party/LoRaWAN/LmHandler/LmHandler.c **** #define HEX8(X)   X[0], X[1], X[2], X[3], X[4], X[5], X[6], X[7]
  85:Middlewares/Third_Party/LoRaWAN/LmHandler/LmHandler.c **** 
  86:Middlewares/Third_Party/LoRaWAN/LmHandler/LmHandler.c **** /*!
  87:Middlewares/Third_Party/LoRaWAN/LmHandler/LmHandler.c ****  * Hex 16 split buffer
  88:Middlewares/Third_Party/LoRaWAN/LmHandler/LmHandler.c ****  */
  89:Middlewares/Third_Party/LoRaWAN/LmHandler/LmHandler.c **** #define HEX16(X)  HEX8(X), X[8], X[9], X[10], X[11], X[12], X[13], X[14], X[15]
ARM GAS  /tmp/ccIEh1dP.s 			page 3


  90:Middlewares/Third_Party/LoRaWAN/LmHandler/LmHandler.c **** 
  91:Middlewares/Third_Party/LoRaWAN/LmHandler/LmHandler.c **** /* Private variables ---------------------------------------------------------*/
  92:Middlewares/Third_Party/LoRaWAN/LmHandler/LmHandler.c **** static CommissioningParams_t CommissioningParams =
  93:Middlewares/Third_Party/LoRaWAN/LmHandler/LmHandler.c **** {
  94:Middlewares/Third_Party/LoRaWAN/LmHandler/LmHandler.c ****     .DevEui = { 0 },  // Automatically filed from secure-element
  95:Middlewares/Third_Party/LoRaWAN/LmHandler/LmHandler.c ****     .JoinEui = { 0 }, // Automatically filed from secure-element
  96:Middlewares/Third_Party/LoRaWAN/LmHandler/LmHandler.c ****     .NetworkId = LORAWAN_NETWORK_ID,
  97:Middlewares/Third_Party/LoRaWAN/LmHandler/LmHandler.c ****     .DevAddr = LORAWAN_DEVICE_ADDRESS,
  98:Middlewares/Third_Party/LoRaWAN/LmHandler/LmHandler.c **** };
  99:Middlewares/Third_Party/LoRaWAN/LmHandler/LmHandler.c **** 
 100:Middlewares/Third_Party/LoRaWAN/LmHandler/LmHandler.c **** /*!
 101:Middlewares/Third_Party/LoRaWAN/LmHandler/LmHandler.c ****  * LoRaWAN compliance tests handler parameters
 102:Middlewares/Third_Party/LoRaWAN/LmHandler/LmHandler.c ****  */
 103:Middlewares/Third_Party/LoRaWAN/LmHandler/LmHandler.c **** static LmhpComplianceParams_t LmhpComplianceParams =
 104:Middlewares/Third_Party/LoRaWAN/LmHandler/LmHandler.c **** {
 105:Middlewares/Third_Party/LoRaWAN/LmHandler/LmHandler.c ****     .AdrEnabled =       LORAMAC_HANDLER_ADR_ON,
 106:Middlewares/Third_Party/LoRaWAN/LmHandler/LmHandler.c ****     .DutyCycleEnabled = false,
 107:Middlewares/Third_Party/LoRaWAN/LmHandler/LmHandler.c ****     .StopPeripherals =  NULL,
 108:Middlewares/Third_Party/LoRaWAN/LmHandler/LmHandler.c ****     .StartPeripherals = NULL,
 109:Middlewares/Third_Party/LoRaWAN/LmHandler/LmHandler.c **** };
 110:Middlewares/Third_Party/LoRaWAN/LmHandler/LmHandler.c **** 
 111:Middlewares/Third_Party/LoRaWAN/LmHandler/LmHandler.c **** static LmhPackage_t *LmHandlerPackages[PKG_MAX_NUMBER];
 112:Middlewares/Third_Party/LoRaWAN/LmHandler/LmHandler.c **** 
 113:Middlewares/Third_Party/LoRaWAN/LmHandler/LmHandler.c **** /*!
 114:Middlewares/Third_Party/LoRaWAN/LmHandler/LmHandler.c ****  * Upper layer LoRaMac parameters
 115:Middlewares/Third_Party/LoRaWAN/LmHandler/LmHandler.c ****  */
 116:Middlewares/Third_Party/LoRaWAN/LmHandler/LmHandler.c **** static LmHandlerParams_t LmHandlerParams;
 117:Middlewares/Third_Party/LoRaWAN/LmHandler/LmHandler.c **** 
 118:Middlewares/Third_Party/LoRaWAN/LmHandler/LmHandler.c **** /*!
 119:Middlewares/Third_Party/LoRaWAN/LmHandler/LmHandler.c ****  * Upper layer callbacks
 120:Middlewares/Third_Party/LoRaWAN/LmHandler/LmHandler.c ****  */
 121:Middlewares/Third_Party/LoRaWAN/LmHandler/LmHandler.c **** static LmHandlerCallbacks_t *LmHandlerCallbacks;
 122:Middlewares/Third_Party/LoRaWAN/LmHandler/LmHandler.c **** 
 123:Middlewares/Third_Party/LoRaWAN/LmHandler/LmHandler.c **** /*!
 124:Middlewares/Third_Party/LoRaWAN/LmHandler/LmHandler.c ****  * Used to notify LmHandler of LoRaMac events
 125:Middlewares/Third_Party/LoRaWAN/LmHandler/LmHandler.c ****  */
 126:Middlewares/Third_Party/LoRaWAN/LmHandler/LmHandler.c **** static LoRaMacPrimitives_t LoRaMacPrimitives;
 127:Middlewares/Third_Party/LoRaWAN/LmHandler/LmHandler.c **** 
 128:Middlewares/Third_Party/LoRaWAN/LmHandler/LmHandler.c **** /*!
 129:Middlewares/Third_Party/LoRaWAN/LmHandler/LmHandler.c ****  * LoRaMac callbacks
 130:Middlewares/Third_Party/LoRaWAN/LmHandler/LmHandler.c ****  */
 131:Middlewares/Third_Party/LoRaWAN/LmHandler/LmHandler.c **** static LoRaMacCallback_t LoRaMacCallbacks;
 132:Middlewares/Third_Party/LoRaWAN/LmHandler/LmHandler.c **** 
 133:Middlewares/Third_Party/LoRaWAN/LmHandler/LmHandler.c **** static LmHandlerJoinParams_t JoinParams =
 134:Middlewares/Third_Party/LoRaWAN/LmHandler/LmHandler.c **** {
 135:Middlewares/Third_Party/LoRaWAN/LmHandler/LmHandler.c ****     .Mode = ACTIVATION_TYPE_NONE,
 136:Middlewares/Third_Party/LoRaWAN/LmHandler/LmHandler.c ****     .Datarate = DR_0,
 137:Middlewares/Third_Party/LoRaWAN/LmHandler/LmHandler.c ****     .Status = LORAMAC_HANDLER_ERROR
 138:Middlewares/Third_Party/LoRaWAN/LmHandler/LmHandler.c **** };
 139:Middlewares/Third_Party/LoRaWAN/LmHandler/LmHandler.c **** 
 140:Middlewares/Third_Party/LoRaWAN/LmHandler/LmHandler.c **** static LmHandlerTxParams_t TxParams =
 141:Middlewares/Third_Party/LoRaWAN/LmHandler/LmHandler.c **** {
 142:Middlewares/Third_Party/LoRaWAN/LmHandler/LmHandler.c ****     .MsgType = LORAMAC_HANDLER_UNCONFIRMED_MSG,
 143:Middlewares/Third_Party/LoRaWAN/LmHandler/LmHandler.c ****     .AckReceived = 0,
 144:Middlewares/Third_Party/LoRaWAN/LmHandler/LmHandler.c ****     .Datarate = DR_0,
 145:Middlewares/Third_Party/LoRaWAN/LmHandler/LmHandler.c ****     .UplinkCounter = 0,
 146:Middlewares/Third_Party/LoRaWAN/LmHandler/LmHandler.c ****     .AppData =
ARM GAS  /tmp/ccIEh1dP.s 			page 4


 147:Middlewares/Third_Party/LoRaWAN/LmHandler/LmHandler.c ****     {
 148:Middlewares/Third_Party/LoRaWAN/LmHandler/LmHandler.c ****         .Port = 0,
 149:Middlewares/Third_Party/LoRaWAN/LmHandler/LmHandler.c ****         .BufferSize = 0,
 150:Middlewares/Third_Party/LoRaWAN/LmHandler/LmHandler.c ****         .Buffer = NULL
 151:Middlewares/Third_Party/LoRaWAN/LmHandler/LmHandler.c ****     },
 152:Middlewares/Third_Party/LoRaWAN/LmHandler/LmHandler.c ****     .TxPower = TX_POWER_0,
 153:Middlewares/Third_Party/LoRaWAN/LmHandler/LmHandler.c ****     .Channel = 0
 154:Middlewares/Third_Party/LoRaWAN/LmHandler/LmHandler.c **** };
 155:Middlewares/Third_Party/LoRaWAN/LmHandler/LmHandler.c **** 
 156:Middlewares/Third_Party/LoRaWAN/LmHandler/LmHandler.c **** static LmHandlerRxParams_t RxParams =
 157:Middlewares/Third_Party/LoRaWAN/LmHandler/LmHandler.c **** {
 158:Middlewares/Third_Party/LoRaWAN/LmHandler/LmHandler.c ****     .Rssi = 0,
 159:Middlewares/Third_Party/LoRaWAN/LmHandler/LmHandler.c ****     .Snr = 0,
 160:Middlewares/Third_Party/LoRaWAN/LmHandler/LmHandler.c ****     .DownlinkCounter = 0,
 161:Middlewares/Third_Party/LoRaWAN/LmHandler/LmHandler.c ****     .RxSlot = -1,
 162:Middlewares/Third_Party/LoRaWAN/LmHandler/LmHandler.c ****     .LinkCheck = false,
 163:Middlewares/Third_Party/LoRaWAN/LmHandler/LmHandler.c ****     .DemodMargin = 0,
 164:Middlewares/Third_Party/LoRaWAN/LmHandler/LmHandler.c ****     .NbGateways = 0
 165:Middlewares/Third_Party/LoRaWAN/LmHandler/LmHandler.c **** };
 166:Middlewares/Third_Party/LoRaWAN/LmHandler/LmHandler.c **** 
 167:Middlewares/Third_Party/LoRaWAN/LmHandler/LmHandler.c **** #if ( LORAMAC_CLASSB_ENABLED == 1 )
 168:Middlewares/Third_Party/LoRaWAN/LmHandler/LmHandler.c **** static LmHandlerBeaconParams_t BeaconParams =
 169:Middlewares/Third_Party/LoRaWAN/LmHandler/LmHandler.c **** {
 170:Middlewares/Third_Party/LoRaWAN/LmHandler/LmHandler.c ****     .State = LORAMAC_HANDLER_BEACON_ACQUIRING,
 171:Middlewares/Third_Party/LoRaWAN/LmHandler/LmHandler.c ****     .Info =
 172:Middlewares/Third_Party/LoRaWAN/LmHandler/LmHandler.c ****     {
 173:Middlewares/Third_Party/LoRaWAN/LmHandler/LmHandler.c ****         .Time = { .Seconds = 0, .SubSeconds = 0 },
 174:Middlewares/Third_Party/LoRaWAN/LmHandler/LmHandler.c ****         .Frequency = 0,
 175:Middlewares/Third_Party/LoRaWAN/LmHandler/LmHandler.c ****         .Datarate = 0,
 176:Middlewares/Third_Party/LoRaWAN/LmHandler/LmHandler.c ****         .Rssi = 0,
 177:Middlewares/Third_Party/LoRaWAN/LmHandler/LmHandler.c ****         .Snr = 0,
 178:Middlewares/Third_Party/LoRaWAN/LmHandler/LmHandler.c ****         .GwSpecific =
 179:Middlewares/Third_Party/LoRaWAN/LmHandler/LmHandler.c ****         {
 180:Middlewares/Third_Party/LoRaWAN/LmHandler/LmHandler.c ****             .InfoDesc = 0,
 181:Middlewares/Third_Party/LoRaWAN/LmHandler/LmHandler.c ****             .Info = { 0 }
 182:Middlewares/Third_Party/LoRaWAN/LmHandler/LmHandler.c ****         }
 183:Middlewares/Third_Party/LoRaWAN/LmHandler/LmHandler.c ****     }
 184:Middlewares/Third_Party/LoRaWAN/LmHandler/LmHandler.c **** };
 185:Middlewares/Third_Party/LoRaWAN/LmHandler/LmHandler.c **** #endif /* LORAMAC_CLASSB_ENABLED == 1 */
 186:Middlewares/Third_Party/LoRaWAN/LmHandler/LmHandler.c **** 
 187:Middlewares/Third_Party/LoRaWAN/LmHandler/LmHandler.c **** /*!
 188:Middlewares/Third_Party/LoRaWAN/LmHandler/LmHandler.c ****  * Package Application buffer
 189:Middlewares/Third_Party/LoRaWAN/LmHandler/LmHandler.c ****  */
 190:Middlewares/Third_Party/LoRaWAN/LmHandler/LmHandler.c **** static uint8_t AppDataBuffer[LORAWAN_APP_DATA_BUFFER_MAX_SIZE];
 191:Middlewares/Third_Party/LoRaWAN/LmHandler/LmHandler.c **** 
 192:Middlewares/Third_Party/LoRaWAN/LmHandler/LmHandler.c **** /*!
 193:Middlewares/Third_Party/LoRaWAN/LmHandler/LmHandler.c ****  * Package application data structure
 194:Middlewares/Third_Party/LoRaWAN/LmHandler/LmHandler.c ****  */
 195:Middlewares/Third_Party/LoRaWAN/LmHandler/LmHandler.c **** static LmHandlerAppData_t AppData = { 0, LORAWAN_APP_DATA_BUFFER_MAX_SIZE, AppDataBuffer };
 196:Middlewares/Third_Party/LoRaWAN/LmHandler/LmHandler.c **** 
 197:Middlewares/Third_Party/LoRaWAN/LmHandler/LmHandler.c **** #if ( LORAMAC_CLASSB_ENABLED == 1 )
 198:Middlewares/Third_Party/LoRaWAN/LmHandler/LmHandler.c **** /*!
 199:Middlewares/Third_Party/LoRaWAN/LmHandler/LmHandler.c ****  * Indicates if a switch to Class B operation is pending or not.
 200:Middlewares/Third_Party/LoRaWAN/LmHandler/LmHandler.c ****  */
 201:Middlewares/Third_Party/LoRaWAN/LmHandler/LmHandler.c **** static bool IsClassBSwitchPending = false;
 202:Middlewares/Third_Party/LoRaWAN/LmHandler/LmHandler.c **** #endif /* LORAMAC_CLASSB_ENABLED == 1 */
 203:Middlewares/Third_Party/LoRaWAN/LmHandler/LmHandler.c **** 
ARM GAS  /tmp/ccIEh1dP.s 			page 5


 204:Middlewares/Third_Party/LoRaWAN/LmHandler/LmHandler.c **** static bool CtxRestoreDone = false;
 205:Middlewares/Third_Party/LoRaWAN/LmHandler/LmHandler.c **** 
 206:Middlewares/Third_Party/LoRaWAN/LmHandler/LmHandler.c **** /* Private function prototypes -----------------------------------------------*/
 207:Middlewares/Third_Party/LoRaWAN/LmHandler/LmHandler.c **** /*!
 208:Middlewares/Third_Party/LoRaWAN/LmHandler/LmHandler.c ****  * \brief   MCPS-Confirm event function
 209:Middlewares/Third_Party/LoRaWAN/LmHandler/LmHandler.c ****  *
 210:Middlewares/Third_Party/LoRaWAN/LmHandler/LmHandler.c ****  * \param   [IN] mcpsConfirm - Pointer to the confirm structure,
 211:Middlewares/Third_Party/LoRaWAN/LmHandler/LmHandler.c ****  *                             containing confirm attributes.
 212:Middlewares/Third_Party/LoRaWAN/LmHandler/LmHandler.c ****  */
 213:Middlewares/Third_Party/LoRaWAN/LmHandler/LmHandler.c **** static void McpsConfirm( McpsConfirm_t *mcpsConfirm );
 214:Middlewares/Third_Party/LoRaWAN/LmHandler/LmHandler.c **** 
 215:Middlewares/Third_Party/LoRaWAN/LmHandler/LmHandler.c **** /*!
 216:Middlewares/Third_Party/LoRaWAN/LmHandler/LmHandler.c ****  * \brief   MCPS-Indication event function
 217:Middlewares/Third_Party/LoRaWAN/LmHandler/LmHandler.c ****  *
 218:Middlewares/Third_Party/LoRaWAN/LmHandler/LmHandler.c ****  * \param   [IN] mcpsIndication - Pointer to the indication structure,
 219:Middlewares/Third_Party/LoRaWAN/LmHandler/LmHandler.c ****  *               containing indication attributes.
 220:Middlewares/Third_Party/LoRaWAN/LmHandler/LmHandler.c ****  */
 221:Middlewares/Third_Party/LoRaWAN/LmHandler/LmHandler.c **** static void McpsIndication( McpsIndication_t *mcpsIndication, LoRaMacRxStatus_t *RxStatus );
 222:Middlewares/Third_Party/LoRaWAN/LmHandler/LmHandler.c **** 
 223:Middlewares/Third_Party/LoRaWAN/LmHandler/LmHandler.c **** /*!
 224:Middlewares/Third_Party/LoRaWAN/LmHandler/LmHandler.c ****  * \brief   MLME-Confirm event function
 225:Middlewares/Third_Party/LoRaWAN/LmHandler/LmHandler.c ****  *
 226:Middlewares/Third_Party/LoRaWAN/LmHandler/LmHandler.c ****  * \param   [IN] MlmeConfirm - Pointer to the confirm structure,
 227:Middlewares/Third_Party/LoRaWAN/LmHandler/LmHandler.c ****  *               containing confirm attributes.
 228:Middlewares/Third_Party/LoRaWAN/LmHandler/LmHandler.c ****  */
 229:Middlewares/Third_Party/LoRaWAN/LmHandler/LmHandler.c **** static void MlmeConfirm( MlmeConfirm_t *mlmeConfirm );
 230:Middlewares/Third_Party/LoRaWAN/LmHandler/LmHandler.c **** 
 231:Middlewares/Third_Party/LoRaWAN/LmHandler/LmHandler.c **** /*!
 232:Middlewares/Third_Party/LoRaWAN/LmHandler/LmHandler.c ****  * \brief   MLME-Indication event function
 233:Middlewares/Third_Party/LoRaWAN/LmHandler/LmHandler.c ****  *
 234:Middlewares/Third_Party/LoRaWAN/LmHandler/LmHandler.c ****  * \param   [IN] mlmeIndication - Pointer to the indication structure,
 235:Middlewares/Third_Party/LoRaWAN/LmHandler/LmHandler.c ****  *               containing indication attributes.
 236:Middlewares/Third_Party/LoRaWAN/LmHandler/LmHandler.c ****  */
 237:Middlewares/Third_Party/LoRaWAN/LmHandler/LmHandler.c **** static void MlmeIndication( MlmeIndication_t *mlmeIndication, LoRaMacRxStatus_t *RxStatus );
 238:Middlewares/Third_Party/LoRaWAN/LmHandler/LmHandler.c **** 
 239:Middlewares/Third_Party/LoRaWAN/LmHandler/LmHandler.c **** #if ( LORAMAC_CLASSB_ENABLED == 1 )
 240:Middlewares/Third_Party/LoRaWAN/LmHandler/LmHandler.c **** /*!
 241:Middlewares/Third_Party/LoRaWAN/LmHandler/LmHandler.c ****  * Starts the beacon search
 242:Middlewares/Third_Party/LoRaWAN/LmHandler/LmHandler.c ****  *
 243:Middlewares/Third_Party/LoRaWAN/LmHandler/LmHandler.c ****  * \retval  status Returns \ref LORAMAC_HANDLER_SUCCESS if request has been
 244:Middlewares/Third_Party/LoRaWAN/LmHandler/LmHandler.c ****  *                 processed else \ref LORAMAC_HANDLER_ERROR
 245:Middlewares/Third_Party/LoRaWAN/LmHandler/LmHandler.c ****  */
 246:Middlewares/Third_Party/LoRaWAN/LmHandler/LmHandler.c **** static LmHandlerErrorStatus_t LmHandlerBeaconReq( void );
 247:Middlewares/Third_Party/LoRaWAN/LmHandler/LmHandler.c **** 
 248:Middlewares/Third_Party/LoRaWAN/LmHandler/LmHandler.c **** /*!
 249:Middlewares/Third_Party/LoRaWAN/LmHandler/LmHandler.c ****  * \brief   Informs the server on the ping-slot periodicity to use
 250:Middlewares/Third_Party/LoRaWAN/LmHandler/LmHandler.c ****  *
 251:Middlewares/Third_Party/LoRaWAN/LmHandler/LmHandler.c ****  * \param   [IN] periodicity Is equal to 2^periodicity seconds.
 252:Middlewares/Third_Party/LoRaWAN/LmHandler/LmHandler.c ****  *                           Example: 2^3 = 8 seconds. The end-device will open an Rx slot every 8 
 253:Middlewares/Third_Party/LoRaWAN/LmHandler/LmHandler.c ****  *
 254:Middlewares/Third_Party/LoRaWAN/LmHandler/LmHandler.c ****  * \retval  status Returns \ref LORAMAC_HANDLER_SUCCESS if request has been
 255:Middlewares/Third_Party/LoRaWAN/LmHandler/LmHandler.c ****  *                 processed else \ref LORAMAC_HANDLER_ERROR
 256:Middlewares/Third_Party/LoRaWAN/LmHandler/LmHandler.c ****  */
 257:Middlewares/Third_Party/LoRaWAN/LmHandler/LmHandler.c **** static LmHandlerErrorStatus_t LmHandlerPingSlotReq(uint8_t periodicity);
 258:Middlewares/Third_Party/LoRaWAN/LmHandler/LmHandler.c **** #endif /* LORAMAC_CLASSB_ENABLED == 1 */
 259:Middlewares/Third_Party/LoRaWAN/LmHandler/LmHandler.c **** 
 260:Middlewares/Third_Party/LoRaWAN/LmHandler/LmHandler.c **** /*!
ARM GAS  /tmp/ccIEh1dP.s 			page 6


 261:Middlewares/Third_Party/LoRaWAN/LmHandler/LmHandler.c ****  * Notifies the package to process the LoRaMac callbacks.
 262:Middlewares/Third_Party/LoRaWAN/LmHandler/LmHandler.c ****  *
 263:Middlewares/Third_Party/LoRaWAN/LmHandler/LmHandler.c ****  * \param [IN] notifyType MAC notification type [PACKAGE_MCPS_CONFIRM,
 264:Middlewares/Third_Party/LoRaWAN/LmHandler/LmHandler.c ****  *                                               PACKAGE_MCPS_INDICATION,
 265:Middlewares/Third_Party/LoRaWAN/LmHandler/LmHandler.c ****  *                                               PACKAGE_MLME_CONFIRM,
 266:Middlewares/Third_Party/LoRaWAN/LmHandler/LmHandler.c ****  *                                               PACKAGE_MLME_INDICATION]
 267:Middlewares/Third_Party/LoRaWAN/LmHandler/LmHandler.c ****  * \param[IN] params      Notification parameters. The params type can be
 268:Middlewares/Third_Party/LoRaWAN/LmHandler/LmHandler.c ****  *                        [McpsConfirm_t, McpsIndication_t, MlmeConfirm_t, MlmeIndication_t]
 269:Middlewares/Third_Party/LoRaWAN/LmHandler/LmHandler.c ****  */
 270:Middlewares/Third_Party/LoRaWAN/LmHandler/LmHandler.c **** static void LmHandlerPackagesNotify( PackageNotifyTypes_t notifyType, void *params );
 271:Middlewares/Third_Party/LoRaWAN/LmHandler/LmHandler.c **** 
 272:Middlewares/Third_Party/LoRaWAN/LmHandler/LmHandler.c **** static void LmHandlerPackagesProcess( void );
 273:Middlewares/Third_Party/LoRaWAN/LmHandler/LmHandler.c **** 
 274:Middlewares/Third_Party/LoRaWAN/LmHandler/LmHandler.c **** /*!
 275:Middlewares/Third_Party/LoRaWAN/LmHandler/LmHandler.c ****  * \brief   Check if the package ID is initialized
 276:Middlewares/Third_Party/LoRaWAN/LmHandler/LmHandler.c ****  *
 277:Middlewares/Third_Party/LoRaWAN/LmHandler/LmHandler.c ****  * \param   [IN] id package identifier
 278:Middlewares/Third_Party/LoRaWAN/LmHandler/LmHandler.c ****  *
 279:Middlewares/Third_Party/LoRaWAN/LmHandler/LmHandler.c ****  * \retval  status Returns true if initialized else false
 280:Middlewares/Third_Party/LoRaWAN/LmHandler/LmHandler.c ****  */
 281:Middlewares/Third_Party/LoRaWAN/LmHandler/LmHandler.c **** static bool LmHandlerPackageIsInitialized(uint8_t id);
 282:Middlewares/Third_Party/LoRaWAN/LmHandler/LmHandler.c **** 
 283:Middlewares/Third_Party/LoRaWAN/LmHandler/LmHandler.c **** /*!
 284:Middlewares/Third_Party/LoRaWAN/LmHandler/LmHandler.c ****  * \brief   Displays end-device class update
 285:Middlewares/Third_Party/LoRaWAN/LmHandler/LmHandler.c ****  *
 286:Middlewares/Third_Party/LoRaWAN/LmHandler/LmHandler.c ****  * \param   [IN] deviceClass Current end-device class
 287:Middlewares/Third_Party/LoRaWAN/LmHandler/LmHandler.c ****  */
 288:Middlewares/Third_Party/LoRaWAN/LmHandler/LmHandler.c **** static void DisplayClassUpdate(DeviceClass_t deviceClass);
 289:Middlewares/Third_Party/LoRaWAN/LmHandler/LmHandler.c **** 
 290:Middlewares/Third_Party/LoRaWAN/LmHandler/LmHandler.c **** #if ( LORAMAC_CLASSB_ENABLED == 1 )
 291:Middlewares/Third_Party/LoRaWAN/LmHandler/LmHandler.c **** /*!
 292:Middlewares/Third_Party/LoRaWAN/LmHandler/LmHandler.c ****  * \brief   Displays beacon status update
 293:Middlewares/Third_Party/LoRaWAN/LmHandler/LmHandler.c ****  *
 294:Middlewares/Third_Party/LoRaWAN/LmHandler/LmHandler.c ****  * \param   [IN] params Beacon parameters
 295:Middlewares/Third_Party/LoRaWAN/LmHandler/LmHandler.c ****  */
 296:Middlewares/Third_Party/LoRaWAN/LmHandler/LmHandler.c **** static void DisplayBeaconUpdate(LmHandlerBeaconParams_t *params);
 297:Middlewares/Third_Party/LoRaWAN/LmHandler/LmHandler.c **** #endif /* LORAMAC_CLASSB_ENABLED == 1 */
 298:Middlewares/Third_Party/LoRaWAN/LmHandler/LmHandler.c **** 
 299:Middlewares/Third_Party/LoRaWAN/LmHandler/LmHandler.c **** static LmHandlerErrorStatus_t LmHandlerSetSystemMaxRxError( uint32_t maxErrorInMs );
 300:Middlewares/Third_Party/LoRaWAN/LmHandler/LmHandler.c **** 
 301:Middlewares/Third_Party/LoRaWAN/LmHandler/LmHandler.c **** /* Exported functions ---------------------------------------------------------*/
 302:Middlewares/Third_Party/LoRaWAN/LmHandler/LmHandler.c **** LmHandlerErrorStatus_t LmHandlerInit( LmHandlerCallbacks_t *handlerCallbacks )
 303:Middlewares/Third_Party/LoRaWAN/LmHandler/LmHandler.c **** {
 304:Middlewares/Third_Party/LoRaWAN/LmHandler/LmHandler.c ****     LmHandlerCallbacks = handlerCallbacks;
 305:Middlewares/Third_Party/LoRaWAN/LmHandler/LmHandler.c **** 
 306:Middlewares/Third_Party/LoRaWAN/LmHandler/LmHandler.c ****     LoRaMacPrimitives.MacMcpsConfirm = McpsConfirm;
 307:Middlewares/Third_Party/LoRaWAN/LmHandler/LmHandler.c ****     LoRaMacPrimitives.MacMcpsIndication = McpsIndication;
 308:Middlewares/Third_Party/LoRaWAN/LmHandler/LmHandler.c ****     LoRaMacPrimitives.MacMlmeConfirm = MlmeConfirm;
 309:Middlewares/Third_Party/LoRaWAN/LmHandler/LmHandler.c ****     LoRaMacPrimitives.MacMlmeIndication = MlmeIndication;
 310:Middlewares/Third_Party/LoRaWAN/LmHandler/LmHandler.c ****     LoRaMacCallbacks.GetBatteryLevel = LmHandlerCallbacks->GetBatteryLevel;
 311:Middlewares/Third_Party/LoRaWAN/LmHandler/LmHandler.c ****     LoRaMacCallbacks.GetTemperatureLevel = LmHandlerCallbacks->GetTemperature;
 312:Middlewares/Third_Party/LoRaWAN/LmHandler/LmHandler.c ****     LoRaMacCallbacks.GetUniqueId = LmHandlerCallbacks->GetUniqueId;
 313:Middlewares/Third_Party/LoRaWAN/LmHandler/LmHandler.c ****     LoRaMacCallbacks.NvmDataChange  = NvmDataMgmtEvent;
 314:Middlewares/Third_Party/LoRaWAN/LmHandler/LmHandler.c ****     LoRaMacCallbacks.MacProcessNotify = LmHandlerCallbacks->OnMacProcess;
 315:Middlewares/Third_Party/LoRaWAN/LmHandler/LmHandler.c **** 
 316:Middlewares/Third_Party/LoRaWAN/LmHandler/LmHandler.c ****     /*The LoRa-Alliance Compliance protocol package should always be initialized and activated.*/
 317:Middlewares/Third_Party/LoRaWAN/LmHandler/LmHandler.c ****     if (LmHandlerPackageRegister(PACKAGE_ID_COMPLIANCE, &LmhpComplianceParams) != LORAMAC_HANDLER_S
ARM GAS  /tmp/ccIEh1dP.s 			page 7


 318:Middlewares/Third_Party/LoRaWAN/LmHandler/LmHandler.c ****     {
 319:Middlewares/Third_Party/LoRaWAN/LmHandler/LmHandler.c ****         return LORAMAC_HANDLER_ERROR;
 320:Middlewares/Third_Party/LoRaWAN/LmHandler/LmHandler.c ****     }
 321:Middlewares/Third_Party/LoRaWAN/LmHandler/LmHandler.c **** #if (!defined (LORAWAN_DATA_DISTRIB_MGT) || (LORAWAN_DATA_DISTRIB_MGT == 0))
 322:Middlewares/Third_Party/LoRaWAN/LmHandler/LmHandler.c **** #else /*LORAWAN_DATA_DISTRIB_MGT == 1*/
 323:Middlewares/Third_Party/LoRaWAN/LmHandler/LmHandler.c ****     if (LmhpPackagesRegistrationInit() != LORAMAC_HANDLER_SUCCESS)
 324:Middlewares/Third_Party/LoRaWAN/LmHandler/LmHandler.c ****     {
 325:Middlewares/Third_Party/LoRaWAN/LmHandler/LmHandler.c ****         return LORAMAC_HANDLER_ERROR;
 326:Middlewares/Third_Party/LoRaWAN/LmHandler/LmHandler.c ****     }
 327:Middlewares/Third_Party/LoRaWAN/LmHandler/LmHandler.c **** #endif /*LORAWAN_DATA_DISTRIB_MGT*/
 328:Middlewares/Third_Party/LoRaWAN/LmHandler/LmHandler.c ****     return LORAMAC_HANDLER_SUCCESS;
 329:Middlewares/Third_Party/LoRaWAN/LmHandler/LmHandler.c **** }
 330:Middlewares/Third_Party/LoRaWAN/LmHandler/LmHandler.c **** 
 331:Middlewares/Third_Party/LoRaWAN/LmHandler/LmHandler.c **** LmHandlerErrorStatus_t LmHandlerConfigure( LmHandlerParams_t *handlerParams )
 332:Middlewares/Third_Party/LoRaWAN/LmHandler/LmHandler.c **** {
 333:Middlewares/Third_Party/LoRaWAN/LmHandler/LmHandler.c ****     uint16_t nbNvmData = 0;
 334:Middlewares/Third_Party/LoRaWAN/LmHandler/LmHandler.c ****     MibRequestConfirm_t mibReq;
 335:Middlewares/Third_Party/LoRaWAN/LmHandler/LmHandler.c ****     LoraInfo_t *loraInfo;
 336:Middlewares/Third_Party/LoRaWAN/LmHandler/LmHandler.c **** 
 337:Middlewares/Third_Party/LoRaWAN/LmHandler/LmHandler.c ****     UTIL_MEM_cpy_8((void *)&LmHandlerParams, (const void *)handlerParams, sizeof(LmHandlerParams_t)
 338:Middlewares/Third_Party/LoRaWAN/LmHandler/LmHandler.c **** 
 339:Middlewares/Third_Party/LoRaWAN/LmHandler/LmHandler.c **** #if ( LORAMAC_CLASSB_ENABLED == 1 )
 340:Middlewares/Third_Party/LoRaWAN/LmHandler/LmHandler.c ****     IsClassBSwitchPending = false;
 341:Middlewares/Third_Party/LoRaWAN/LmHandler/LmHandler.c **** #endif /* LORAMAC_CLASSB_ENABLED == 1 */
 342:Middlewares/Third_Party/LoRaWAN/LmHandler/LmHandler.c **** 
 343:Middlewares/Third_Party/LoRaWAN/LmHandler/LmHandler.c ****     loraInfo = LoraInfo_GetPtr();
 344:Middlewares/Third_Party/LoRaWAN/LmHandler/LmHandler.c **** 
 345:Middlewares/Third_Party/LoRaWAN/LmHandler/LmHandler.c ****     if (0U != ((1 << (LmHandlerParams.ActiveRegion)) & (loraInfo->Region)))
 346:Middlewares/Third_Party/LoRaWAN/LmHandler/LmHandler.c ****     {
 347:Middlewares/Third_Party/LoRaWAN/LmHandler/LmHandler.c ****         if (LoRaMacInitialization(&LoRaMacPrimitives, &LoRaMacCallbacks, LmHandlerParams.ActiveRegi
 348:Middlewares/Third_Party/LoRaWAN/LmHandler/LmHandler.c ****         {
 349:Middlewares/Third_Party/LoRaWAN/LmHandler/LmHandler.c ****             return LORAMAC_HANDLER_ERROR;
 350:Middlewares/Third_Party/LoRaWAN/LmHandler/LmHandler.c ****         }
 351:Middlewares/Third_Party/LoRaWAN/LmHandler/LmHandler.c ****     }
 352:Middlewares/Third_Party/LoRaWAN/LmHandler/LmHandler.c ****     else
 353:Middlewares/Third_Party/LoRaWAN/LmHandler/LmHandler.c ****     {
 354:Middlewares/Third_Party/LoRaWAN/LmHandler/LmHandler.c ****         MW_LOG(TS_ON, VLEVEL_ALWAYS, "error: Region is not defined in the MW: set lorawan_conf.h ac
 355:Middlewares/Third_Party/LoRaWAN/LmHandler/LmHandler.c ****         while (1) {}  /* error: Region is not defined in the MW */
 356:Middlewares/Third_Party/LoRaWAN/LmHandler/LmHandler.c ****     }
 357:Middlewares/Third_Party/LoRaWAN/LmHandler/LmHandler.c **** 
 358:Middlewares/Third_Party/LoRaWAN/LmHandler/LmHandler.c ****     // Restore data if required
 359:Middlewares/Third_Party/LoRaWAN/LmHandler/LmHandler.c ****     nbNvmData = NvmDataMgmtRestore( );
 360:Middlewares/Third_Party/LoRaWAN/LmHandler/LmHandler.c **** 
 361:Middlewares/Third_Party/LoRaWAN/LmHandler/LmHandler.c ****     // Try to restore from NVM and query the mac if possible.
 362:Middlewares/Third_Party/LoRaWAN/LmHandler/LmHandler.c ****     if( nbNvmData > 0 )
 363:Middlewares/Third_Party/LoRaWAN/LmHandler/LmHandler.c ****     {
 364:Middlewares/Third_Party/LoRaWAN/LmHandler/LmHandler.c ****         CtxRestoreDone = true;
 365:Middlewares/Third_Party/LoRaWAN/LmHandler/LmHandler.c ****     }
 366:Middlewares/Third_Party/LoRaWAN/LmHandler/LmHandler.c ****     else
 367:Middlewares/Third_Party/LoRaWAN/LmHandler/LmHandler.c ****     {
 368:Middlewares/Third_Party/LoRaWAN/LmHandler/LmHandler.c ****         CtxRestoreDone = false;
 369:Middlewares/Third_Party/LoRaWAN/LmHandler/LmHandler.c ****     }
 370:Middlewares/Third_Party/LoRaWAN/LmHandler/LmHandler.c **** 
 371:Middlewares/Third_Party/LoRaWAN/LmHandler/LmHandler.c ****     // Read secure-element DEV_EUI and JOIN_EUI values.
 372:Middlewares/Third_Party/LoRaWAN/LmHandler/LmHandler.c ****     mibReq.Type = MIB_DEV_EUI;
 373:Middlewares/Third_Party/LoRaWAN/LmHandler/LmHandler.c ****     LoRaMacMibGetRequestConfirm( &mibReq );
 374:Middlewares/Third_Party/LoRaWAN/LmHandler/LmHandler.c ****     memcpy1( CommissioningParams.DevEui, mibReq.Param.DevEui, 8 );
ARM GAS  /tmp/ccIEh1dP.s 			page 8


 375:Middlewares/Third_Party/LoRaWAN/LmHandler/LmHandler.c **** 
 376:Middlewares/Third_Party/LoRaWAN/LmHandler/LmHandler.c ****     mibReq.Type = MIB_JOIN_EUI;
 377:Middlewares/Third_Party/LoRaWAN/LmHandler/LmHandler.c ****     LoRaMacMibGetRequestConfirm( &mibReq );
 378:Middlewares/Third_Party/LoRaWAN/LmHandler/LmHandler.c ****     memcpy1( CommissioningParams.JoinEui, mibReq.Param.JoinEui, 8 );
 379:Middlewares/Third_Party/LoRaWAN/LmHandler/LmHandler.c **** 
 380:Middlewares/Third_Party/LoRaWAN/LmHandler/LmHandler.c **** #if ( STATIC_DEVICE_ADDRESS != 1 )
 381:Middlewares/Third_Party/LoRaWAN/LmHandler/LmHandler.c ****     CommissioningParams.DevAddr = LmHandlerCallbacks->GetDevAddr();
 382:Middlewares/Third_Party/LoRaWAN/LmHandler/LmHandler.c **** #endif /* STATIC_DEVICE_ADDRESS != 1 */
 383:Middlewares/Third_Party/LoRaWAN/LmHandler/LmHandler.c **** 
 384:Middlewares/Third_Party/LoRaWAN/LmHandler/LmHandler.c ****     mibReq.Type = MIB_DEV_ADDR;
 385:Middlewares/Third_Party/LoRaWAN/LmHandler/LmHandler.c ****     mibReq.Param.DevAddr = CommissioningParams.DevAddr;
 386:Middlewares/Third_Party/LoRaWAN/LmHandler/LmHandler.c ****     LoRaMacMibSetRequestConfirm(&mibReq);
 387:Middlewares/Third_Party/LoRaWAN/LmHandler/LmHandler.c **** 
 388:Middlewares/Third_Party/LoRaWAN/LmHandler/LmHandler.c ****     MW_LOG(TS_OFF, VLEVEL_M, "###### DevEui:  %02X:%02X:%02X:%02X:%02X:%02X:%02X:%02X\r\n",
 389:Middlewares/Third_Party/LoRaWAN/LmHandler/LmHandler.c ****            HEX8(CommissioningParams.DevEui));
 390:Middlewares/Third_Party/LoRaWAN/LmHandler/LmHandler.c ****     MW_LOG(TS_OFF, VLEVEL_M, "###### AppEui:  %02X:%02X:%02X:%02X:%02X:%02X:%02X:%02X\r\n",
 391:Middlewares/Third_Party/LoRaWAN/LmHandler/LmHandler.c ****            HEX8(CommissioningParams.JoinEui));
 392:Middlewares/Third_Party/LoRaWAN/LmHandler/LmHandler.c ****     MW_LOG(TS_OFF, VLEVEL_M, "###### DevAddr: %02X:%02X:%02X:%02X\r\n",
 393:Middlewares/Third_Party/LoRaWAN/LmHandler/LmHandler.c ****            (unsigned)((unsigned char *)(&CommissioningParams.DevAddr))[3],
 394:Middlewares/Third_Party/LoRaWAN/LmHandler/LmHandler.c ****            (unsigned)((unsigned char *)(&CommissioningParams.DevAddr))[2],
 395:Middlewares/Third_Party/LoRaWAN/LmHandler/LmHandler.c ****            (unsigned)((unsigned char *)(&CommissioningParams.DevAddr))[1],
 396:Middlewares/Third_Party/LoRaWAN/LmHandler/LmHandler.c ****            (unsigned)((unsigned char *)(&CommissioningParams.DevAddr))[0]);
 397:Middlewares/Third_Party/LoRaWAN/LmHandler/LmHandler.c **** 
 398:Middlewares/Third_Party/LoRaWAN/LmHandler/LmHandler.c **** #if (defined (LORAWAN_KMS) && (LORAWAN_KMS == 1))
 399:Middlewares/Third_Party/LoRaWAN/LmHandler/LmHandler.c ****     MW_LOG(TS_OFF, VLEVEL_L, "###### KMS ENABLED \r\n");
 400:Middlewares/Third_Party/LoRaWAN/LmHandler/LmHandler.c **** #endif /* LORAWAN_KMS == 1 */
 401:Middlewares/Third_Party/LoRaWAN/LmHandler/LmHandler.c **** 
 402:Middlewares/Third_Party/LoRaWAN/LmHandler/LmHandler.c ****     mibReq.Type = MIB_PUBLIC_NETWORK;
 403:Middlewares/Third_Party/LoRaWAN/LmHandler/LmHandler.c ****     mibReq.Param.EnablePublicNetwork = LORAWAN_PUBLIC_NETWORK;
 404:Middlewares/Third_Party/LoRaWAN/LmHandler/LmHandler.c ****     LoRaMacMibSetRequestConfirm(&mibReq);
 405:Middlewares/Third_Party/LoRaWAN/LmHandler/LmHandler.c **** 
 406:Middlewares/Third_Party/LoRaWAN/LmHandler/LmHandler.c ****     mibReq.Type = MIB_NET_ID;
 407:Middlewares/Third_Party/LoRaWAN/LmHandler/LmHandler.c ****     mibReq.Param.NetID = LORAWAN_NETWORK_ID;
 408:Middlewares/Third_Party/LoRaWAN/LmHandler/LmHandler.c ****     LoRaMacMibSetRequestConfirm(&mibReq);
 409:Middlewares/Third_Party/LoRaWAN/LmHandler/LmHandler.c **** 
 410:Middlewares/Third_Party/LoRaWAN/LmHandler/LmHandler.c ****     mibReq.Type = MIB_REPEATER_SUPPORT;
 411:Middlewares/Third_Party/LoRaWAN/LmHandler/LmHandler.c ****     mibReq.Param.EnableRepeaterSupport = LORAWAN_REPEATER_SUPPORT;
 412:Middlewares/Third_Party/LoRaWAN/LmHandler/LmHandler.c ****     LoRaMacMibSetRequestConfirm( &mibReq );
 413:Middlewares/Third_Party/LoRaWAN/LmHandler/LmHandler.c **** 
 414:Middlewares/Third_Party/LoRaWAN/LmHandler/LmHandler.c ****     mibReq.Type = MIB_ADR;
 415:Middlewares/Third_Party/LoRaWAN/LmHandler/LmHandler.c ****     mibReq.Param.AdrEnable = LmHandlerParams.AdrEnable;
 416:Middlewares/Third_Party/LoRaWAN/LmHandler/LmHandler.c ****     LoRaMacMibSetRequestConfirm( &mibReq );
 417:Middlewares/Third_Party/LoRaWAN/LmHandler/LmHandler.c **** 
 418:Middlewares/Third_Party/LoRaWAN/LmHandler/LmHandler.c ****     GetPhyParams_t getPhy;
 419:Middlewares/Third_Party/LoRaWAN/LmHandler/LmHandler.c ****     PhyParam_t phyParam;
 420:Middlewares/Third_Party/LoRaWAN/LmHandler/LmHandler.c ****     getPhy.Attribute = PHY_DUTY_CYCLE;
 421:Middlewares/Third_Party/LoRaWAN/LmHandler/LmHandler.c ****     phyParam = RegionGetPhyParam( LmHandlerParams.ActiveRegion, &getPhy );
 422:Middlewares/Third_Party/LoRaWAN/LmHandler/LmHandler.c ****     LmHandlerParams.DutyCycleEnabled = (bool) phyParam.Value;
 423:Middlewares/Third_Party/LoRaWAN/LmHandler/LmHandler.c **** 
 424:Middlewares/Third_Party/LoRaWAN/LmHandler/LmHandler.c ****     LmHandlerSetSystemMaxRxError( 20 );
 425:Middlewares/Third_Party/LoRaWAN/LmHandler/LmHandler.c **** 
 426:Middlewares/Third_Party/LoRaWAN/LmHandler/LmHandler.c ****     /* override previous value if reconfigure new region */
 427:Middlewares/Third_Party/LoRaWAN/LmHandler/LmHandler.c ****     LoRaMacTestSetDutyCycleOn( LmHandlerParams.DutyCycleEnabled );
 428:Middlewares/Third_Party/LoRaWAN/LmHandler/LmHandler.c **** 
 429:Middlewares/Third_Party/LoRaWAN/LmHandler/LmHandler.c ****     return LORAMAC_HANDLER_SUCCESS;
 430:Middlewares/Third_Party/LoRaWAN/LmHandler/LmHandler.c **** }
 431:Middlewares/Third_Party/LoRaWAN/LmHandler/LmHandler.c **** 
ARM GAS  /tmp/ccIEh1dP.s 			page 9


 432:Middlewares/Third_Party/LoRaWAN/LmHandler/LmHandler.c **** bool LmHandlerIsBusy( void )
 433:Middlewares/Third_Party/LoRaWAN/LmHandler/LmHandler.c **** {
 434:Middlewares/Third_Party/LoRaWAN/LmHandler/LmHandler.c ****     if( LoRaMacIsBusy( ) == true )
 435:Middlewares/Third_Party/LoRaWAN/LmHandler/LmHandler.c ****     {
 436:Middlewares/Third_Party/LoRaWAN/LmHandler/LmHandler.c ****         return true;
 437:Middlewares/Third_Party/LoRaWAN/LmHandler/LmHandler.c ****     }
 438:Middlewares/Third_Party/LoRaWAN/LmHandler/LmHandler.c ****     if( LmHandlerJoinStatus( ) != LORAMAC_HANDLER_SET )
 439:Middlewares/Third_Party/LoRaWAN/LmHandler/LmHandler.c ****     {
 440:Middlewares/Third_Party/LoRaWAN/LmHandler/LmHandler.c ****         // The network isn't yet joined, try again later.
 441:Middlewares/Third_Party/LoRaWAN/LmHandler/LmHandler.c ****         LmHandlerJoin( JoinParams.Mode );
 442:Middlewares/Third_Party/LoRaWAN/LmHandler/LmHandler.c ****         return true;
 443:Middlewares/Third_Party/LoRaWAN/LmHandler/LmHandler.c ****     }
 444:Middlewares/Third_Party/LoRaWAN/LmHandler/LmHandler.c **** 
 445:Middlewares/Third_Party/LoRaWAN/LmHandler/LmHandler.c ****     if( LmHandlerPackages[PACKAGE_ID_COMPLIANCE]->IsRunning( ) == true )
 446:Middlewares/Third_Party/LoRaWAN/LmHandler/LmHandler.c ****     {
 447:Middlewares/Third_Party/LoRaWAN/LmHandler/LmHandler.c ****         return true;
 448:Middlewares/Third_Party/LoRaWAN/LmHandler/LmHandler.c ****     }
 449:Middlewares/Third_Party/LoRaWAN/LmHandler/LmHandler.c ****     return false;
 450:Middlewares/Third_Party/LoRaWAN/LmHandler/LmHandler.c **** }
 451:Middlewares/Third_Party/LoRaWAN/LmHandler/LmHandler.c **** 
 452:Middlewares/Third_Party/LoRaWAN/LmHandler/LmHandler.c **** void LmHandlerProcess( void )
 453:Middlewares/Third_Party/LoRaWAN/LmHandler/LmHandler.c **** {
 454:Middlewares/Third_Party/LoRaWAN/LmHandler/LmHandler.c ****     /* Call at first the LoRaMAC process before to run all package process features */
 455:Middlewares/Third_Party/LoRaWAN/LmHandler/LmHandler.c ****     // Processes the LoRaMac events
 456:Middlewares/Third_Party/LoRaWAN/LmHandler/LmHandler.c ****     LoRaMacProcess( );
 457:Middlewares/Third_Party/LoRaWAN/LmHandler/LmHandler.c **** 
 458:Middlewares/Third_Party/LoRaWAN/LmHandler/LmHandler.c ****     // Call all packages process functions
 459:Middlewares/Third_Party/LoRaWAN/LmHandler/LmHandler.c ****     LmHandlerPackagesProcess( );
 460:Middlewares/Third_Party/LoRaWAN/LmHandler/LmHandler.c **** 
 461:Middlewares/Third_Party/LoRaWAN/LmHandler/LmHandler.c ****     // Store to NVM if required
 462:Middlewares/Third_Party/LoRaWAN/LmHandler/LmHandler.c ****     NvmDataMgmtStore( );
 463:Middlewares/Third_Party/LoRaWAN/LmHandler/LmHandler.c **** }
 464:Middlewares/Third_Party/LoRaWAN/LmHandler/LmHandler.c **** 
 465:Middlewares/Third_Party/LoRaWAN/LmHandler/LmHandler.c **** void LmHandlerJoin( ActivationType_t mode )
 466:Middlewares/Third_Party/LoRaWAN/LmHandler/LmHandler.c **** {
 467:Middlewares/Third_Party/LoRaWAN/LmHandler/LmHandler.c ****     MibRequestConfirm_t mibReq;
 468:Middlewares/Third_Party/LoRaWAN/LmHandler/LmHandler.c **** 
 469:Middlewares/Third_Party/LoRaWAN/LmHandler/LmHandler.c **** #if (!defined (LORAWAN_KMS) || (LORAWAN_KMS == 0))
 470:Middlewares/Third_Party/LoRaWAN/LmHandler/LmHandler.c **** #else /* LORAWAN_KMS == 1 */
 471:Middlewares/Third_Party/LoRaWAN/LmHandler/LmHandler.c **** #if (OVER_THE_AIR_ACTIVATION == 0)
 472:Middlewares/Third_Party/LoRaWAN/LmHandler/LmHandler.c ****     if ( mode == ACTIVATION_TYPE_OTAA )
 473:Middlewares/Third_Party/LoRaWAN/LmHandler/LmHandler.c ****     {
 474:Middlewares/Third_Party/LoRaWAN/LmHandler/LmHandler.c ****         MW_LOG(TS_OFF, VLEVEL_M, "ERROR: OTAA mode not implemented\r\n");
 475:Middlewares/Third_Party/LoRaWAN/LmHandler/LmHandler.c ****         while (1);
 476:Middlewares/Third_Party/LoRaWAN/LmHandler/LmHandler.c ****     }
 477:Middlewares/Third_Party/LoRaWAN/LmHandler/LmHandler.c **** #endif /* OVER_THE_AIR_ACTIVATION */
 478:Middlewares/Third_Party/LoRaWAN/LmHandler/LmHandler.c **** #if (ACTIVATION_BY_PERSONALIZATION == 0)
 479:Middlewares/Third_Party/LoRaWAN/LmHandler/LmHandler.c ****     if ( mode == ACTIVATION_TYPE_ABP )
 480:Middlewares/Third_Party/LoRaWAN/LmHandler/LmHandler.c ****     {
 481:Middlewares/Third_Party/LoRaWAN/LmHandler/LmHandler.c ****         MW_LOG(TS_OFF, VLEVEL_M, "ERROR: ABP mode not implemented\r\n");
 482:Middlewares/Third_Party/LoRaWAN/LmHandler/LmHandler.c ****         while (1);
 483:Middlewares/Third_Party/LoRaWAN/LmHandler/LmHandler.c ****     }
 484:Middlewares/Third_Party/LoRaWAN/LmHandler/LmHandler.c **** #endif /* ACTIVATION_BY_PERSONALIZATION */
 485:Middlewares/Third_Party/LoRaWAN/LmHandler/LmHandler.c **** #endif /* LORAWAN_KMS */
 486:Middlewares/Third_Party/LoRaWAN/LmHandler/LmHandler.c **** 
 487:Middlewares/Third_Party/LoRaWAN/LmHandler/LmHandler.c ****     if ( mode == ACTIVATION_TYPE_OTAA )
 488:Middlewares/Third_Party/LoRaWAN/LmHandler/LmHandler.c ****     {
ARM GAS  /tmp/ccIEh1dP.s 			page 10


 489:Middlewares/Third_Party/LoRaWAN/LmHandler/LmHandler.c ****         MlmeReq_t mlmeReq;
 490:Middlewares/Third_Party/LoRaWAN/LmHandler/LmHandler.c ****         JoinParams.Mode = ACTIVATION_TYPE_OTAA;
 491:Middlewares/Third_Party/LoRaWAN/LmHandler/LmHandler.c **** 
 492:Middlewares/Third_Party/LoRaWAN/LmHandler/LmHandler.c ****         LoRaMacStart();
 493:Middlewares/Third_Party/LoRaWAN/LmHandler/LmHandler.c **** 
 494:Middlewares/Third_Party/LoRaWAN/LmHandler/LmHandler.c ****         mlmeReq.Type = MLME_JOIN;
 495:Middlewares/Third_Party/LoRaWAN/LmHandler/LmHandler.c ****         mlmeReq.Req.Join.Datarate = LmHandlerParams.TxDatarate;
 496:Middlewares/Third_Party/LoRaWAN/LmHandler/LmHandler.c **** 
 497:Middlewares/Third_Party/LoRaWAN/LmHandler/LmHandler.c ****         // Starts the OTAA join procedure
 498:Middlewares/Third_Party/LoRaWAN/LmHandler/LmHandler.c ****         LoRaMacMlmeRequest( &mlmeReq );
 499:Middlewares/Third_Party/LoRaWAN/LmHandler/LmHandler.c ****     }
 500:Middlewares/Third_Party/LoRaWAN/LmHandler/LmHandler.c ****     else
 501:Middlewares/Third_Party/LoRaWAN/LmHandler/LmHandler.c ****     {
 502:Middlewares/Third_Party/LoRaWAN/LmHandler/LmHandler.c ****         JoinParams.Mode = ACTIVATION_TYPE_ABP;
 503:Middlewares/Third_Party/LoRaWAN/LmHandler/LmHandler.c ****         JoinParams.Datarate = LmHandlerParams.TxDatarate;
 504:Middlewares/Third_Party/LoRaWAN/LmHandler/LmHandler.c ****         JoinParams.Status = LORAMAC_HANDLER_SUCCESS;
 505:Middlewares/Third_Party/LoRaWAN/LmHandler/LmHandler.c **** 
 506:Middlewares/Third_Party/LoRaWAN/LmHandler/LmHandler.c ****         if (CtxRestoreDone == false)
 507:Middlewares/Third_Party/LoRaWAN/LmHandler/LmHandler.c ****         {
 508:Middlewares/Third_Party/LoRaWAN/LmHandler/LmHandler.c ****             /* Tell the MAC layer which network server version are we connecting too. */
 509:Middlewares/Third_Party/LoRaWAN/LmHandler/LmHandler.c ****             mibReq.Type = MIB_ABP_LORAWAN_VERSION;
 510:Middlewares/Third_Party/LoRaWAN/LmHandler/LmHandler.c ****             mibReq.Param.AbpLrWanVersion.Value = ABP_ACTIVATION_LRWAN_VERSION;
 511:Middlewares/Third_Party/LoRaWAN/LmHandler/LmHandler.c ****             LoRaMacMibSetRequestConfirm(&mibReq);
 512:Middlewares/Third_Party/LoRaWAN/LmHandler/LmHandler.c **** 
 513:Middlewares/Third_Party/LoRaWAN/LmHandler/LmHandler.c **** #if (defined (LORAWAN_KMS) && (LORAWAN_KMS == 1))
 514:Middlewares/Third_Party/LoRaWAN/LmHandler/LmHandler.c **** #if ( USE_LRWAN_1_1_X_CRYPTO == 1 )
 515:Middlewares/Third_Party/LoRaWAN/LmHandler/LmHandler.c ****             SecureElementSetObjHandler(F_NWK_S_INT_KEY, KMS_F_NWK_S_INT_KEY_OBJECT_HANDLE);
 516:Middlewares/Third_Party/LoRaWAN/LmHandler/LmHandler.c ****             SecureElementSetObjHandler(S_NWK_S_INT_KEY, KMS_S_NWK_S_INT_KEY_OBJECT_HANDLE);
 517:Middlewares/Third_Party/LoRaWAN/LmHandler/LmHandler.c ****             SecureElementSetObjHandler(NWK_S_ENC_KEY, KMS_NWK_S_ENC_KEY_OBJECT_HANDLE);
 518:Middlewares/Third_Party/LoRaWAN/LmHandler/LmHandler.c **** #else /* USE_LRWAN_1_1_X_CRYPTO == 0 */
 519:Middlewares/Third_Party/LoRaWAN/LmHandler/LmHandler.c ****             SecureElementSetObjHandler(NWK_S_KEY, KMS_NWK_S_KEY_OBJECT_HANDLE);
 520:Middlewares/Third_Party/LoRaWAN/LmHandler/LmHandler.c **** #endif /* USE_LRWAN_1_1_X_CRYPTO */
 521:Middlewares/Third_Party/LoRaWAN/LmHandler/LmHandler.c ****             SecureElementSetObjHandler(APP_S_KEY, KMS_APP_S_KEY_OBJECT_HANDLE);
 522:Middlewares/Third_Party/LoRaWAN/LmHandler/LmHandler.c **** #endif  /* LORAWAN_KMS == 1 */
 523:Middlewares/Third_Party/LoRaWAN/LmHandler/LmHandler.c ****         }
 524:Middlewares/Third_Party/LoRaWAN/LmHandler/LmHandler.c **** 
 525:Middlewares/Third_Party/LoRaWAN/LmHandler/LmHandler.c ****         LoRaMacStart();
 526:Middlewares/Third_Party/LoRaWAN/LmHandler/LmHandler.c ****         mibReq.Type = MIB_NETWORK_ACTIVATION;
 527:Middlewares/Third_Party/LoRaWAN/LmHandler/LmHandler.c ****         mibReq.Param.NetworkActivation = ACTIVATION_TYPE_ABP;
 528:Middlewares/Third_Party/LoRaWAN/LmHandler/LmHandler.c ****         LoRaMacMibSetRequestConfirm( &mibReq );
 529:Middlewares/Third_Party/LoRaWAN/LmHandler/LmHandler.c **** 
 530:Middlewares/Third_Party/LoRaWAN/LmHandler/LmHandler.c ****         // Notify upper layer
 531:Middlewares/Third_Party/LoRaWAN/LmHandler/LmHandler.c ****         LmHandlerCallbacks->OnJoinRequest( &JoinParams );
 532:Middlewares/Third_Party/LoRaWAN/LmHandler/LmHandler.c ****         LmHandlerRequestClass(LmHandlerParams.DefaultClass);
 533:Middlewares/Third_Party/LoRaWAN/LmHandler/LmHandler.c ****     }
 534:Middlewares/Third_Party/LoRaWAN/LmHandler/LmHandler.c **** }
 535:Middlewares/Third_Party/LoRaWAN/LmHandler/LmHandler.c **** 
 536:Middlewares/Third_Party/LoRaWAN/LmHandler/LmHandler.c **** LmHandlerFlagStatus_t LmHandlerJoinStatus( void )
 537:Middlewares/Third_Party/LoRaWAN/LmHandler/LmHandler.c **** {
 538:Middlewares/Third_Party/LoRaWAN/LmHandler/LmHandler.c ****     MibRequestConfirm_t mibReq;
 539:Middlewares/Third_Party/LoRaWAN/LmHandler/LmHandler.c ****     LoRaMacStatus_t status;
 540:Middlewares/Third_Party/LoRaWAN/LmHandler/LmHandler.c **** 
 541:Middlewares/Third_Party/LoRaWAN/LmHandler/LmHandler.c ****     mibReq.Type = MIB_NETWORK_ACTIVATION;
 542:Middlewares/Third_Party/LoRaWAN/LmHandler/LmHandler.c ****     status = LoRaMacMibGetRequestConfirm( &mibReq );
 543:Middlewares/Third_Party/LoRaWAN/LmHandler/LmHandler.c **** 
 544:Middlewares/Third_Party/LoRaWAN/LmHandler/LmHandler.c ****     if( status == LORAMAC_STATUS_OK )
 545:Middlewares/Third_Party/LoRaWAN/LmHandler/LmHandler.c ****     {
ARM GAS  /tmp/ccIEh1dP.s 			page 11


 546:Middlewares/Third_Party/LoRaWAN/LmHandler/LmHandler.c ****         if( mibReq.Param.NetworkActivation == ACTIVATION_TYPE_NONE )
 547:Middlewares/Third_Party/LoRaWAN/LmHandler/LmHandler.c ****         {
 548:Middlewares/Third_Party/LoRaWAN/LmHandler/LmHandler.c ****             return LORAMAC_HANDLER_RESET;
 549:Middlewares/Third_Party/LoRaWAN/LmHandler/LmHandler.c ****         }
 550:Middlewares/Third_Party/LoRaWAN/LmHandler/LmHandler.c ****         else
 551:Middlewares/Third_Party/LoRaWAN/LmHandler/LmHandler.c ****         {
 552:Middlewares/Third_Party/LoRaWAN/LmHandler/LmHandler.c ****             return LORAMAC_HANDLER_SET;
 553:Middlewares/Third_Party/LoRaWAN/LmHandler/LmHandler.c ****         }
 554:Middlewares/Third_Party/LoRaWAN/LmHandler/LmHandler.c ****     }
 555:Middlewares/Third_Party/LoRaWAN/LmHandler/LmHandler.c ****     else
 556:Middlewares/Third_Party/LoRaWAN/LmHandler/LmHandler.c ****     {
 557:Middlewares/Third_Party/LoRaWAN/LmHandler/LmHandler.c ****         return LORAMAC_HANDLER_RESET;
 558:Middlewares/Third_Party/LoRaWAN/LmHandler/LmHandler.c ****     }
 559:Middlewares/Third_Party/LoRaWAN/LmHandler/LmHandler.c **** }
 560:Middlewares/Third_Party/LoRaWAN/LmHandler/LmHandler.c **** 
 561:Middlewares/Third_Party/LoRaWAN/LmHandler/LmHandler.c **** LmHandlerErrorStatus_t LmHandlerStop(void)
 562:Middlewares/Third_Party/LoRaWAN/LmHandler/LmHandler.c **** {
 563:Middlewares/Third_Party/LoRaWAN/LmHandler/LmHandler.c ****     if (LoRaMacDeInitialization() == LORAMAC_STATUS_OK)
 564:Middlewares/Third_Party/LoRaWAN/LmHandler/LmHandler.c ****     {
 565:Middlewares/Third_Party/LoRaWAN/LmHandler/LmHandler.c ****         return LORAMAC_HANDLER_SUCCESS;
 566:Middlewares/Third_Party/LoRaWAN/LmHandler/LmHandler.c ****     }
 567:Middlewares/Third_Party/LoRaWAN/LmHandler/LmHandler.c ****     else
 568:Middlewares/Third_Party/LoRaWAN/LmHandler/LmHandler.c ****     {
 569:Middlewares/Third_Party/LoRaWAN/LmHandler/LmHandler.c ****         return LORAMAC_HANDLER_BUSY_ERROR;
 570:Middlewares/Third_Party/LoRaWAN/LmHandler/LmHandler.c ****     }
 571:Middlewares/Third_Party/LoRaWAN/LmHandler/LmHandler.c **** }
 572:Middlewares/Third_Party/LoRaWAN/LmHandler/LmHandler.c **** 
 573:Middlewares/Third_Party/LoRaWAN/LmHandler/LmHandler.c **** LmHandlerErrorStatus_t LmHandlerSend( LmHandlerAppData_t *appData, LmHandlerMsgTypes_t isTxConfirme
 574:Middlewares/Third_Party/LoRaWAN/LmHandler/LmHandler.c ****                                       TimerTime_t *nextTxIn, bool allowDelayedTx )
 575:Middlewares/Third_Party/LoRaWAN/LmHandler/LmHandler.c **** {
 576:Middlewares/Third_Party/LoRaWAN/LmHandler/LmHandler.c ****     LoRaMacStatus_t status;
 577:Middlewares/Third_Party/LoRaWAN/LmHandler/LmHandler.c ****     LmHandlerErrorStatus_t lmhStatus = LORAMAC_HANDLER_ERROR;
 578:Middlewares/Third_Party/LoRaWAN/LmHandler/LmHandler.c ****     McpsReq_t mcpsReq;
 579:Middlewares/Third_Party/LoRaWAN/LmHandler/LmHandler.c ****     LoRaMacTxInfo_t txInfo;
 580:Middlewares/Third_Party/LoRaWAN/LmHandler/LmHandler.c **** 
 581:Middlewares/Third_Party/LoRaWAN/LmHandler/LmHandler.c ****     if (LoRaMacIsBusy() == true)
 582:Middlewares/Third_Party/LoRaWAN/LmHandler/LmHandler.c ****     {
 583:Middlewares/Third_Party/LoRaWAN/LmHandler/LmHandler.c ****         return LORAMAC_HANDLER_BUSY_ERROR;
 584:Middlewares/Third_Party/LoRaWAN/LmHandler/LmHandler.c ****     }
 585:Middlewares/Third_Party/LoRaWAN/LmHandler/LmHandler.c **** 
 586:Middlewares/Third_Party/LoRaWAN/LmHandler/LmHandler.c ****     if( LmHandlerJoinStatus( ) != LORAMAC_HANDLER_SET )
 587:Middlewares/Third_Party/LoRaWAN/LmHandler/LmHandler.c ****     {
 588:Middlewares/Third_Party/LoRaWAN/LmHandler/LmHandler.c ****         // The network isn't joined, try again.
 589:Middlewares/Third_Party/LoRaWAN/LmHandler/LmHandler.c ****         LmHandlerJoin(JoinParams.Mode);
 590:Middlewares/Third_Party/LoRaWAN/LmHandler/LmHandler.c ****         return LORAMAC_HANDLER_NO_NETWORK_JOINED;
 591:Middlewares/Third_Party/LoRaWAN/LmHandler/LmHandler.c ****     }
 592:Middlewares/Third_Party/LoRaWAN/LmHandler/LmHandler.c **** 
 593:Middlewares/Third_Party/LoRaWAN/LmHandler/LmHandler.c ****     if( ( LmHandlerPackages[PACKAGE_ID_COMPLIANCE]->IsRunning( ) == true ) && ( appData->Port != Lm
 594:Middlewares/Third_Party/LoRaWAN/LmHandler/LmHandler.c ****     {
 595:Middlewares/Third_Party/LoRaWAN/LmHandler/LmHandler.c ****         return LORAMAC_HANDLER_COMPLIANCE_RUNNING;
 596:Middlewares/Third_Party/LoRaWAN/LmHandler/LmHandler.c ****     }
 597:Middlewares/Third_Party/LoRaWAN/LmHandler/LmHandler.c **** 
 598:Middlewares/Third_Party/LoRaWAN/LmHandler/LmHandler.c ****     mcpsReq.Req.Unconfirmed.Datarate = LmHandlerParams.TxDatarate;
 599:Middlewares/Third_Party/LoRaWAN/LmHandler/LmHandler.c ****     if( LoRaMacQueryTxPossible( appData->BufferSize, &txInfo ) != LORAMAC_STATUS_OK )
 600:Middlewares/Third_Party/LoRaWAN/LmHandler/LmHandler.c ****     {
 601:Middlewares/Third_Party/LoRaWAN/LmHandler/LmHandler.c ****         // Send empty frame in order to flush MAC commands
 602:Middlewares/Third_Party/LoRaWAN/LmHandler/LmHandler.c ****         TxParams.MsgType = LORAMAC_HANDLER_UNCONFIRMED_MSG;
ARM GAS  /tmp/ccIEh1dP.s 			page 12


 603:Middlewares/Third_Party/LoRaWAN/LmHandler/LmHandler.c ****         mcpsReq.Type = MCPS_UNCONFIRMED;
 604:Middlewares/Third_Party/LoRaWAN/LmHandler/LmHandler.c ****         mcpsReq.Req.Unconfirmed.fBuffer = NULL;
 605:Middlewares/Third_Party/LoRaWAN/LmHandler/LmHandler.c ****         mcpsReq.Req.Unconfirmed.fBufferSize = 0;
 606:Middlewares/Third_Party/LoRaWAN/LmHandler/LmHandler.c ****     }
 607:Middlewares/Third_Party/LoRaWAN/LmHandler/LmHandler.c ****     else
 608:Middlewares/Third_Party/LoRaWAN/LmHandler/LmHandler.c ****     {
 609:Middlewares/Third_Party/LoRaWAN/LmHandler/LmHandler.c ****         TxParams.MsgType = isTxConfirmed;
 610:Middlewares/Third_Party/LoRaWAN/LmHandler/LmHandler.c ****         mcpsReq.Req.Unconfirmed.fPort = appData->Port;
 611:Middlewares/Third_Party/LoRaWAN/LmHandler/LmHandler.c ****         mcpsReq.Req.Unconfirmed.fBufferSize = appData->BufferSize;
 612:Middlewares/Third_Party/LoRaWAN/LmHandler/LmHandler.c ****         mcpsReq.Req.Unconfirmed.fBuffer = appData->Buffer;
 613:Middlewares/Third_Party/LoRaWAN/LmHandler/LmHandler.c ****         if( isTxConfirmed == LORAMAC_HANDLER_UNCONFIRMED_MSG )
 614:Middlewares/Third_Party/LoRaWAN/LmHandler/LmHandler.c ****         {
 615:Middlewares/Third_Party/LoRaWAN/LmHandler/LmHandler.c ****             mcpsReq.Type = MCPS_UNCONFIRMED;
 616:Middlewares/Third_Party/LoRaWAN/LmHandler/LmHandler.c ****         }
 617:Middlewares/Third_Party/LoRaWAN/LmHandler/LmHandler.c ****         else
 618:Middlewares/Third_Party/LoRaWAN/LmHandler/LmHandler.c ****         {
 619:Middlewares/Third_Party/LoRaWAN/LmHandler/LmHandler.c ****             mcpsReq.Type = MCPS_CONFIRMED;
 620:Middlewares/Third_Party/LoRaWAN/LmHandler/LmHandler.c ****             mcpsReq.Req.Confirmed.NbTrials = 8;
 621:Middlewares/Third_Party/LoRaWAN/LmHandler/LmHandler.c ****         }
 622:Middlewares/Third_Party/LoRaWAN/LmHandler/LmHandler.c ****     }
 623:Middlewares/Third_Party/LoRaWAN/LmHandler/LmHandler.c **** 
 624:Middlewares/Third_Party/LoRaWAN/LmHandler/LmHandler.c ****     TxParams.AppData = *appData;
 625:Middlewares/Third_Party/LoRaWAN/LmHandler/LmHandler.c ****     TxParams.Datarate = LmHandlerParams.TxDatarate;
 626:Middlewares/Third_Party/LoRaWAN/LmHandler/LmHandler.c **** 
 627:Middlewares/Third_Party/LoRaWAN/LmHandler/LmHandler.c ****     status = LoRaMacMcpsRequest(&mcpsReq, allowDelayedTx);
 628:Middlewares/Third_Party/LoRaWAN/LmHandler/LmHandler.c ****     if (nextTxIn != NULL)
 629:Middlewares/Third_Party/LoRaWAN/LmHandler/LmHandler.c ****     {
 630:Middlewares/Third_Party/LoRaWAN/LmHandler/LmHandler.c ****         *nextTxIn = mcpsReq.ReqReturn.DutyCycleWaitTime;
 631:Middlewares/Third_Party/LoRaWAN/LmHandler/LmHandler.c ****     }
 632:Middlewares/Third_Party/LoRaWAN/LmHandler/LmHandler.c **** 
 633:Middlewares/Third_Party/LoRaWAN/LmHandler/LmHandler.c ****     switch (status)
 634:Middlewares/Third_Party/LoRaWAN/LmHandler/LmHandler.c ****     {
 635:Middlewares/Third_Party/LoRaWAN/LmHandler/LmHandler.c ****         case LORAMAC_STATUS_OK:
 636:Middlewares/Third_Party/LoRaWAN/LmHandler/LmHandler.c ****             lmhStatus = LORAMAC_HANDLER_SUCCESS;
 637:Middlewares/Third_Party/LoRaWAN/LmHandler/LmHandler.c ****             break;
 638:Middlewares/Third_Party/LoRaWAN/LmHandler/LmHandler.c ****         case LORAMAC_STATUS_BUSY:
 639:Middlewares/Third_Party/LoRaWAN/LmHandler/LmHandler.c ****         case LORAMAC_STATUS_BUSY_UPLINK_COLLISION:
 640:Middlewares/Third_Party/LoRaWAN/LmHandler/LmHandler.c ****         case LORAMAC_STATUS_BUSY_BEACON_RESERVED_TIME:
 641:Middlewares/Third_Party/LoRaWAN/LmHandler/LmHandler.c ****         case LORAMAC_STATUS_BUSY_PING_SLOT_WINDOW_TIME:
 642:Middlewares/Third_Party/LoRaWAN/LmHandler/LmHandler.c ****             lmhStatus = LORAMAC_HANDLER_BUSY_ERROR;
 643:Middlewares/Third_Party/LoRaWAN/LmHandler/LmHandler.c ****             break;
 644:Middlewares/Third_Party/LoRaWAN/LmHandler/LmHandler.c ****         case LORAMAC_STATUS_NO_NETWORK_JOINED:
 645:Middlewares/Third_Party/LoRaWAN/LmHandler/LmHandler.c ****             lmhStatus = LORAMAC_HANDLER_NO_NETWORK_JOINED;
 646:Middlewares/Third_Party/LoRaWAN/LmHandler/LmHandler.c ****             break;
 647:Middlewares/Third_Party/LoRaWAN/LmHandler/LmHandler.c ****         case LORAMAC_STATUS_CRYPTO_ERROR:
 648:Middlewares/Third_Party/LoRaWAN/LmHandler/LmHandler.c ****             lmhStatus = LORAMAC_HANDLER_CRYPTO_ERROR;
 649:Middlewares/Third_Party/LoRaWAN/LmHandler/LmHandler.c ****             break;
 650:Middlewares/Third_Party/LoRaWAN/LmHandler/LmHandler.c ****         case LORAMAC_STATUS_DUTYCYCLE_RESTRICTED:
 651:Middlewares/Third_Party/LoRaWAN/LmHandler/LmHandler.c ****             lmhStatus = LORAMAC_HANDLER_DUTYCYCLE_RESTRICTED;
 652:Middlewares/Third_Party/LoRaWAN/LmHandler/LmHandler.c ****             break;
 653:Middlewares/Third_Party/LoRaWAN/LmHandler/LmHandler.c ****         case LORAMAC_STATUS_SERVICE_UNKNOWN:
 654:Middlewares/Third_Party/LoRaWAN/LmHandler/LmHandler.c ****         case LORAMAC_STATUS_PARAMETER_INVALID:
 655:Middlewares/Third_Party/LoRaWAN/LmHandler/LmHandler.c ****         case LORAMAC_STATUS_MAC_COMMAD_ERROR:
 656:Middlewares/Third_Party/LoRaWAN/LmHandler/LmHandler.c ****         case LORAMAC_STATUS_FCNT_HANDLER_ERROR:
 657:Middlewares/Third_Party/LoRaWAN/LmHandler/LmHandler.c ****         case LORAMAC_STATUS_REGION_NOT_SUPPORTED:
 658:Middlewares/Third_Party/LoRaWAN/LmHandler/LmHandler.c ****         case LORAMAC_STATUS_NO_FREE_CHANNEL_FOUND:
 659:Middlewares/Third_Party/LoRaWAN/LmHandler/LmHandler.c ****         case LORAMAC_STATUS_NO_CHANNEL_FOUND:
ARM GAS  /tmp/ccIEh1dP.s 			page 13


 660:Middlewares/Third_Party/LoRaWAN/LmHandler/LmHandler.c ****         case LORAMAC_STATUS_LENGTH_ERROR:
 661:Middlewares/Third_Party/LoRaWAN/LmHandler/LmHandler.c ****         default:
 662:Middlewares/Third_Party/LoRaWAN/LmHandler/LmHandler.c ****             lmhStatus = LORAMAC_HANDLER_ERROR;
 663:Middlewares/Third_Party/LoRaWAN/LmHandler/LmHandler.c ****             break;
 664:Middlewares/Third_Party/LoRaWAN/LmHandler/LmHandler.c ****     }
 665:Middlewares/Third_Party/LoRaWAN/LmHandler/LmHandler.c **** 
 666:Middlewares/Third_Party/LoRaWAN/LmHandler/LmHandler.c ****     return lmhStatus;
 667:Middlewares/Third_Party/LoRaWAN/LmHandler/LmHandler.c **** }
 668:Middlewares/Third_Party/LoRaWAN/LmHandler/LmHandler.c **** 
 669:Middlewares/Third_Party/LoRaWAN/LmHandler/LmHandler.c **** LmHandlerErrorStatus_t LmHandlerLinkCheckReq( void )
 670:Middlewares/Third_Party/LoRaWAN/LmHandler/LmHandler.c **** {
 671:Middlewares/Third_Party/LoRaWAN/LmHandler/LmHandler.c ****     LoRaMacStatus_t status;
 672:Middlewares/Third_Party/LoRaWAN/LmHandler/LmHandler.c ****     MlmeReq_t mlmeReq;
 673:Middlewares/Third_Party/LoRaWAN/LmHandler/LmHandler.c **** 
 674:Middlewares/Third_Party/LoRaWAN/LmHandler/LmHandler.c ****     mlmeReq.Type = MLME_LINK_CHECK;
 675:Middlewares/Third_Party/LoRaWAN/LmHandler/LmHandler.c **** 
 676:Middlewares/Third_Party/LoRaWAN/LmHandler/LmHandler.c ****     status = LoRaMacMlmeRequest( &mlmeReq );
 677:Middlewares/Third_Party/LoRaWAN/LmHandler/LmHandler.c **** 
 678:Middlewares/Third_Party/LoRaWAN/LmHandler/LmHandler.c ****     if( status == LORAMAC_STATUS_OK )
 679:Middlewares/Third_Party/LoRaWAN/LmHandler/LmHandler.c ****     {
 680:Middlewares/Third_Party/LoRaWAN/LmHandler/LmHandler.c ****         return LORAMAC_HANDLER_SUCCESS;
 681:Middlewares/Third_Party/LoRaWAN/LmHandler/LmHandler.c ****     }
 682:Middlewares/Third_Party/LoRaWAN/LmHandler/LmHandler.c ****     else
 683:Middlewares/Third_Party/LoRaWAN/LmHandler/LmHandler.c ****     {
 684:Middlewares/Third_Party/LoRaWAN/LmHandler/LmHandler.c ****         return LORAMAC_HANDLER_ERROR;
 685:Middlewares/Third_Party/LoRaWAN/LmHandler/LmHandler.c ****     }
 686:Middlewares/Third_Party/LoRaWAN/LmHandler/LmHandler.c **** }
 687:Middlewares/Third_Party/LoRaWAN/LmHandler/LmHandler.c **** 
 688:Middlewares/Third_Party/LoRaWAN/LmHandler/LmHandler.c **** LmHandlerErrorStatus_t LmHandlerDeviceTimeReq( void )
 689:Middlewares/Third_Party/LoRaWAN/LmHandler/LmHandler.c **** {
 690:Middlewares/Third_Party/LoRaWAN/LmHandler/LmHandler.c ****     LoRaMacStatus_t status;
 691:Middlewares/Third_Party/LoRaWAN/LmHandler/LmHandler.c ****     MlmeReq_t mlmeReq;
 692:Middlewares/Third_Party/LoRaWAN/LmHandler/LmHandler.c **** 
 693:Middlewares/Third_Party/LoRaWAN/LmHandler/LmHandler.c ****     mlmeReq.Type = MLME_DEVICE_TIME;
 694:Middlewares/Third_Party/LoRaWAN/LmHandler/LmHandler.c **** 
 695:Middlewares/Third_Party/LoRaWAN/LmHandler/LmHandler.c ****     status = LoRaMacMlmeRequest( &mlmeReq );
 696:Middlewares/Third_Party/LoRaWAN/LmHandler/LmHandler.c **** 
 697:Middlewares/Third_Party/LoRaWAN/LmHandler/LmHandler.c ****     if( status == LORAMAC_STATUS_OK )
 698:Middlewares/Third_Party/LoRaWAN/LmHandler/LmHandler.c ****     {
 699:Middlewares/Third_Party/LoRaWAN/LmHandler/LmHandler.c ****         return LORAMAC_HANDLER_SUCCESS;
 700:Middlewares/Third_Party/LoRaWAN/LmHandler/LmHandler.c ****     }
 701:Middlewares/Third_Party/LoRaWAN/LmHandler/LmHandler.c ****     else
 702:Middlewares/Third_Party/LoRaWAN/LmHandler/LmHandler.c ****     {
 703:Middlewares/Third_Party/LoRaWAN/LmHandler/LmHandler.c ****         return LORAMAC_HANDLER_ERROR;
 704:Middlewares/Third_Party/LoRaWAN/LmHandler/LmHandler.c ****     }
 705:Middlewares/Third_Party/LoRaWAN/LmHandler/LmHandler.c **** }
 706:Middlewares/Third_Party/LoRaWAN/LmHandler/LmHandler.c **** 
 707:Middlewares/Third_Party/LoRaWAN/LmHandler/LmHandler.c **** #if ( LORAMAC_CLASSB_ENABLED == 1 )
 708:Middlewares/Third_Party/LoRaWAN/LmHandler/LmHandler.c **** static LmHandlerErrorStatus_t LmHandlerBeaconReq( void )
 709:Middlewares/Third_Party/LoRaWAN/LmHandler/LmHandler.c **** {
 710:Middlewares/Third_Party/LoRaWAN/LmHandler/LmHandler.c ****     LoRaMacStatus_t status;
 711:Middlewares/Third_Party/LoRaWAN/LmHandler/LmHandler.c ****     MlmeReq_t mlmeReq;
 712:Middlewares/Third_Party/LoRaWAN/LmHandler/LmHandler.c **** 
 713:Middlewares/Third_Party/LoRaWAN/LmHandler/LmHandler.c ****     mlmeReq.Type = MLME_BEACON_ACQUISITION;
 714:Middlewares/Third_Party/LoRaWAN/LmHandler/LmHandler.c **** 
 715:Middlewares/Third_Party/LoRaWAN/LmHandler/LmHandler.c ****     status = LoRaMacMlmeRequest( &mlmeReq );
 716:Middlewares/Third_Party/LoRaWAN/LmHandler/LmHandler.c **** 
ARM GAS  /tmp/ccIEh1dP.s 			page 14


 717:Middlewares/Third_Party/LoRaWAN/LmHandler/LmHandler.c ****     if( status == LORAMAC_STATUS_OK )
 718:Middlewares/Third_Party/LoRaWAN/LmHandler/LmHandler.c ****     {
 719:Middlewares/Third_Party/LoRaWAN/LmHandler/LmHandler.c ****         return LORAMAC_HANDLER_SUCCESS;
 720:Middlewares/Third_Party/LoRaWAN/LmHandler/LmHandler.c ****     }
 721:Middlewares/Third_Party/LoRaWAN/LmHandler/LmHandler.c ****     else
 722:Middlewares/Third_Party/LoRaWAN/LmHandler/LmHandler.c ****     {
 723:Middlewares/Third_Party/LoRaWAN/LmHandler/LmHandler.c ****         return LORAMAC_HANDLER_ERROR;
 724:Middlewares/Third_Party/LoRaWAN/LmHandler/LmHandler.c ****     }
 725:Middlewares/Third_Party/LoRaWAN/LmHandler/LmHandler.c **** }
 726:Middlewares/Third_Party/LoRaWAN/LmHandler/LmHandler.c **** 
 727:Middlewares/Third_Party/LoRaWAN/LmHandler/LmHandler.c **** static LmHandlerErrorStatus_t LmHandlerPingSlotReq( uint8_t periodicity )
 728:Middlewares/Third_Party/LoRaWAN/LmHandler/LmHandler.c **** {
 729:Middlewares/Third_Party/LoRaWAN/LmHandler/LmHandler.c ****     LoRaMacStatus_t status;
 730:Middlewares/Third_Party/LoRaWAN/LmHandler/LmHandler.c ****     MlmeReq_t mlmeReq;
 731:Middlewares/Third_Party/LoRaWAN/LmHandler/LmHandler.c **** 
 732:Middlewares/Third_Party/LoRaWAN/LmHandler/LmHandler.c ****     mlmeReq.Type = MLME_PING_SLOT_INFO;
 733:Middlewares/Third_Party/LoRaWAN/LmHandler/LmHandler.c ****     mlmeReq.Req.PingSlotInfo.PingSlot.Fields.Periodicity = periodicity;
 734:Middlewares/Third_Party/LoRaWAN/LmHandler/LmHandler.c ****     mlmeReq.Req.PingSlotInfo.PingSlot.Fields.RFU = 0;
 735:Middlewares/Third_Party/LoRaWAN/LmHandler/LmHandler.c **** 
 736:Middlewares/Third_Party/LoRaWAN/LmHandler/LmHandler.c ****     status = LoRaMacMlmeRequest( &mlmeReq );
 737:Middlewares/Third_Party/LoRaWAN/LmHandler/LmHandler.c **** 
 738:Middlewares/Third_Party/LoRaWAN/LmHandler/LmHandler.c ****     if( status == LORAMAC_STATUS_OK )
 739:Middlewares/Third_Party/LoRaWAN/LmHandler/LmHandler.c ****     {
 740:Middlewares/Third_Party/LoRaWAN/LmHandler/LmHandler.c ****         LmHandlerParams.PingPeriodicity = periodicity;
 741:Middlewares/Third_Party/LoRaWAN/LmHandler/LmHandler.c ****         // Send an empty message
 742:Middlewares/Third_Party/LoRaWAN/LmHandler/LmHandler.c ****         LmHandlerAppData_t appData =
 743:Middlewares/Third_Party/LoRaWAN/LmHandler/LmHandler.c ****         {
 744:Middlewares/Third_Party/LoRaWAN/LmHandler/LmHandler.c ****             .Buffer = NULL,
 745:Middlewares/Third_Party/LoRaWAN/LmHandler/LmHandler.c ****             .BufferSize = 0,
 746:Middlewares/Third_Party/LoRaWAN/LmHandler/LmHandler.c ****             .Port = 0
 747:Middlewares/Third_Party/LoRaWAN/LmHandler/LmHandler.c ****         };
 748:Middlewares/Third_Party/LoRaWAN/LmHandler/LmHandler.c ****         return LmHandlerSend( &appData, LORAMAC_HANDLER_UNCONFIRMED_MSG, NULL, false );
 749:Middlewares/Third_Party/LoRaWAN/LmHandler/LmHandler.c ****     }
 750:Middlewares/Third_Party/LoRaWAN/LmHandler/LmHandler.c ****     else
 751:Middlewares/Third_Party/LoRaWAN/LmHandler/LmHandler.c ****     {
 752:Middlewares/Third_Party/LoRaWAN/LmHandler/LmHandler.c ****         return LORAMAC_HANDLER_ERROR;
 753:Middlewares/Third_Party/LoRaWAN/LmHandler/LmHandler.c ****     }
 754:Middlewares/Third_Party/LoRaWAN/LmHandler/LmHandler.c **** }
 755:Middlewares/Third_Party/LoRaWAN/LmHandler/LmHandler.c **** #endif /* LORAMAC_CLASSB_ENABLED == 1 */
 756:Middlewares/Third_Party/LoRaWAN/LmHandler/LmHandler.c **** 
 757:Middlewares/Third_Party/LoRaWAN/LmHandler/LmHandler.c **** LmHandlerErrorStatus_t LmHandlerRequestClass( DeviceClass_t newClass )
 758:Middlewares/Third_Party/LoRaWAN/LmHandler/LmHandler.c **** {
 759:Middlewares/Third_Party/LoRaWAN/LmHandler/LmHandler.c ****     MibRequestConfirm_t mibReq;
 760:Middlewares/Third_Party/LoRaWAN/LmHandler/LmHandler.c ****     DeviceClass_t currentClass;
 761:Middlewares/Third_Party/LoRaWAN/LmHandler/LmHandler.c ****     LmHandlerErrorStatus_t errorStatus = LORAMAC_HANDLER_SUCCESS;
 762:Middlewares/Third_Party/LoRaWAN/LmHandler/LmHandler.c **** 
 763:Middlewares/Third_Party/LoRaWAN/LmHandler/LmHandler.c ****     if (LoRaMacIsBusy() == true)
 764:Middlewares/Third_Party/LoRaWAN/LmHandler/LmHandler.c ****     {
 765:Middlewares/Third_Party/LoRaWAN/LmHandler/LmHandler.c ****         return LORAMAC_HANDLER_BUSY_ERROR;
 766:Middlewares/Third_Party/LoRaWAN/LmHandler/LmHandler.c ****     }
 767:Middlewares/Third_Party/LoRaWAN/LmHandler/LmHandler.c **** 
 768:Middlewares/Third_Party/LoRaWAN/LmHandler/LmHandler.c ****     if (LmHandlerJoinStatus() != LORAMAC_HANDLER_SET)
 769:Middlewares/Third_Party/LoRaWAN/LmHandler/LmHandler.c ****     {
 770:Middlewares/Third_Party/LoRaWAN/LmHandler/LmHandler.c ****         return LORAMAC_HANDLER_NO_NETWORK_JOINED;
 771:Middlewares/Third_Party/LoRaWAN/LmHandler/LmHandler.c ****     }
 772:Middlewares/Third_Party/LoRaWAN/LmHandler/LmHandler.c **** 
 773:Middlewares/Third_Party/LoRaWAN/LmHandler/LmHandler.c ****     mibReq.Type = MIB_DEVICE_CLASS;
ARM GAS  /tmp/ccIEh1dP.s 			page 15


 774:Middlewares/Third_Party/LoRaWAN/LmHandler/LmHandler.c ****     if ( LoRaMacMibGetRequestConfirm( &mibReq ) != LORAMAC_STATUS_OK )
 775:Middlewares/Third_Party/LoRaWAN/LmHandler/LmHandler.c ****     {
 776:Middlewares/Third_Party/LoRaWAN/LmHandler/LmHandler.c ****         return LORAMAC_HANDLER_ERROR;
 777:Middlewares/Third_Party/LoRaWAN/LmHandler/LmHandler.c ****     }
 778:Middlewares/Third_Party/LoRaWAN/LmHandler/LmHandler.c ****     currentClass = mibReq.Param.Class;
 779:Middlewares/Third_Party/LoRaWAN/LmHandler/LmHandler.c **** 
 780:Middlewares/Third_Party/LoRaWAN/LmHandler/LmHandler.c ****     // Attempt to switch only if class update
 781:Middlewares/Third_Party/LoRaWAN/LmHandler/LmHandler.c ****     if( currentClass != newClass )
 782:Middlewares/Third_Party/LoRaWAN/LmHandler/LmHandler.c ****     {
 783:Middlewares/Third_Party/LoRaWAN/LmHandler/LmHandler.c ****         switch( newClass )
 784:Middlewares/Third_Party/LoRaWAN/LmHandler/LmHandler.c ****         {
 785:Middlewares/Third_Party/LoRaWAN/LmHandler/LmHandler.c ****         case CLASS_A:
 786:Middlewares/Third_Party/LoRaWAN/LmHandler/LmHandler.c ****             {
 787:Middlewares/Third_Party/LoRaWAN/LmHandler/LmHandler.c ****                 if( currentClass != CLASS_A )
 788:Middlewares/Third_Party/LoRaWAN/LmHandler/LmHandler.c ****                 {
 789:Middlewares/Third_Party/LoRaWAN/LmHandler/LmHandler.c ****                     mibReq.Param.Class = newClass;
 790:Middlewares/Third_Party/LoRaWAN/LmHandler/LmHandler.c ****                     if( LoRaMacMibSetRequestConfirm( &mibReq ) == LORAMAC_STATUS_OK )
 791:Middlewares/Third_Party/LoRaWAN/LmHandler/LmHandler.c ****                     {
 792:Middlewares/Third_Party/LoRaWAN/LmHandler/LmHandler.c ****                         // Switch is instantaneous
 793:Middlewares/Third_Party/LoRaWAN/LmHandler/LmHandler.c ****                         DisplayClassUpdate(newClass);
 794:Middlewares/Third_Party/LoRaWAN/LmHandler/LmHandler.c ****                         if (LmHandlerCallbacks->OnClassChange != NULL)
 795:Middlewares/Third_Party/LoRaWAN/LmHandler/LmHandler.c ****                         {
 796:Middlewares/Third_Party/LoRaWAN/LmHandler/LmHandler.c ****                             LmHandlerCallbacks->OnClassChange( newClass );
 797:Middlewares/Third_Party/LoRaWAN/LmHandler/LmHandler.c ****                         }
 798:Middlewares/Third_Party/LoRaWAN/LmHandler/LmHandler.c ****                     }
 799:Middlewares/Third_Party/LoRaWAN/LmHandler/LmHandler.c ****                     else
 800:Middlewares/Third_Party/LoRaWAN/LmHandler/LmHandler.c ****                     {
 801:Middlewares/Third_Party/LoRaWAN/LmHandler/LmHandler.c ****                         errorStatus = LORAMAC_HANDLER_ERROR;
 802:Middlewares/Third_Party/LoRaWAN/LmHandler/LmHandler.c ****                     }
 803:Middlewares/Third_Party/LoRaWAN/LmHandler/LmHandler.c ****                 }
 804:Middlewares/Third_Party/LoRaWAN/LmHandler/LmHandler.c ****             }
 805:Middlewares/Third_Party/LoRaWAN/LmHandler/LmHandler.c ****             break;
 806:Middlewares/Third_Party/LoRaWAN/LmHandler/LmHandler.c ****         case CLASS_B:
 807:Middlewares/Third_Party/LoRaWAN/LmHandler/LmHandler.c ****             {
 808:Middlewares/Third_Party/LoRaWAN/LmHandler/LmHandler.c **** #if ( LORAMAC_CLASSB_ENABLED == 1 )
 809:Middlewares/Third_Party/LoRaWAN/LmHandler/LmHandler.c ****                 if( currentClass != CLASS_A )
 810:Middlewares/Third_Party/LoRaWAN/LmHandler/LmHandler.c ****                 {
 811:Middlewares/Third_Party/LoRaWAN/LmHandler/LmHandler.c ****                     errorStatus = LORAMAC_HANDLER_ERROR;
 812:Middlewares/Third_Party/LoRaWAN/LmHandler/LmHandler.c ****                 }
 813:Middlewares/Third_Party/LoRaWAN/LmHandler/LmHandler.c ****                 else
 814:Middlewares/Third_Party/LoRaWAN/LmHandler/LmHandler.c ****                 {
 815:Middlewares/Third_Party/LoRaWAN/LmHandler/LmHandler.c ****                     // Beacon must first be acquired
 816:Middlewares/Third_Party/LoRaWAN/LmHandler/LmHandler.c ****                     errorStatus = LmHandlerDeviceTimeReq( );
 817:Middlewares/Third_Party/LoRaWAN/LmHandler/LmHandler.c ****                     IsClassBSwitchPending = true;
 818:Middlewares/Third_Party/LoRaWAN/LmHandler/LmHandler.c ****                 }
 819:Middlewares/Third_Party/LoRaWAN/LmHandler/LmHandler.c **** #else /* LORAMAC_CLASSB_ENABLED == 0 */
 820:Middlewares/Third_Party/LoRaWAN/LmHandler/LmHandler.c ****                 errorStatus = LORAMAC_HANDLER_ERROR;
 821:Middlewares/Third_Party/LoRaWAN/LmHandler/LmHandler.c **** #endif /* LORAMAC_CLASSB_ENABLED */
 822:Middlewares/Third_Party/LoRaWAN/LmHandler/LmHandler.c ****             }
 823:Middlewares/Third_Party/LoRaWAN/LmHandler/LmHandler.c ****             break;
 824:Middlewares/Third_Party/LoRaWAN/LmHandler/LmHandler.c ****         case CLASS_C:
 825:Middlewares/Third_Party/LoRaWAN/LmHandler/LmHandler.c ****             {
 826:Middlewares/Third_Party/LoRaWAN/LmHandler/LmHandler.c ****                 if( currentClass != CLASS_A )
 827:Middlewares/Third_Party/LoRaWAN/LmHandler/LmHandler.c ****                 {
 828:Middlewares/Third_Party/LoRaWAN/LmHandler/LmHandler.c ****                     errorStatus = LORAMAC_HANDLER_ERROR;
 829:Middlewares/Third_Party/LoRaWAN/LmHandler/LmHandler.c ****                 }
 830:Middlewares/Third_Party/LoRaWAN/LmHandler/LmHandler.c ****                 else
ARM GAS  /tmp/ccIEh1dP.s 			page 16


 831:Middlewares/Third_Party/LoRaWAN/LmHandler/LmHandler.c ****                 {
 832:Middlewares/Third_Party/LoRaWAN/LmHandler/LmHandler.c ****                     // Switch is instantaneous
 833:Middlewares/Third_Party/LoRaWAN/LmHandler/LmHandler.c ****                     mibReq.Param.Class = newClass;
 834:Middlewares/Third_Party/LoRaWAN/LmHandler/LmHandler.c ****                     if (LoRaMacMibSetRequestConfirm( &mibReq ) == LORAMAC_STATUS_OK)
 835:Middlewares/Third_Party/LoRaWAN/LmHandler/LmHandler.c ****                     {
 836:Middlewares/Third_Party/LoRaWAN/LmHandler/LmHandler.c ****                         DisplayClassUpdate(newClass);
 837:Middlewares/Third_Party/LoRaWAN/LmHandler/LmHandler.c ****                         if (LmHandlerCallbacks->OnClassChange != NULL)
 838:Middlewares/Third_Party/LoRaWAN/LmHandler/LmHandler.c ****                         {
 839:Middlewares/Third_Party/LoRaWAN/LmHandler/LmHandler.c ****                             LmHandlerCallbacks->OnClassChange( newClass );
 840:Middlewares/Third_Party/LoRaWAN/LmHandler/LmHandler.c ****                         }
 841:Middlewares/Third_Party/LoRaWAN/LmHandler/LmHandler.c ****                     }
 842:Middlewares/Third_Party/LoRaWAN/LmHandler/LmHandler.c ****                     else
 843:Middlewares/Third_Party/LoRaWAN/LmHandler/LmHandler.c ****                     {
 844:Middlewares/Third_Party/LoRaWAN/LmHandler/LmHandler.c ****                         errorStatus = LORAMAC_HANDLER_ERROR;
 845:Middlewares/Third_Party/LoRaWAN/LmHandler/LmHandler.c ****                     }
 846:Middlewares/Third_Party/LoRaWAN/LmHandler/LmHandler.c ****                 }
 847:Middlewares/Third_Party/LoRaWAN/LmHandler/LmHandler.c ****             }
 848:Middlewares/Third_Party/LoRaWAN/LmHandler/LmHandler.c ****             break;
 849:Middlewares/Third_Party/LoRaWAN/LmHandler/LmHandler.c ****         default:
 850:Middlewares/Third_Party/LoRaWAN/LmHandler/LmHandler.c ****             break;
 851:Middlewares/Third_Party/LoRaWAN/LmHandler/LmHandler.c ****         }
 852:Middlewares/Third_Party/LoRaWAN/LmHandler/LmHandler.c ****     }
 853:Middlewares/Third_Party/LoRaWAN/LmHandler/LmHandler.c ****     return errorStatus;
 854:Middlewares/Third_Party/LoRaWAN/LmHandler/LmHandler.c **** }
 855:Middlewares/Third_Party/LoRaWAN/LmHandler/LmHandler.c **** 
 856:Middlewares/Third_Party/LoRaWAN/LmHandler/LmHandler.c **** LmHandlerErrorStatus_t LmHandlerGetCurrentClass( DeviceClass_t *deviceClass )
 857:Middlewares/Third_Party/LoRaWAN/LmHandler/LmHandler.c **** {
 858:Middlewares/Third_Party/LoRaWAN/LmHandler/LmHandler.c ****     MibRequestConfirm_t mibReq;
 859:Middlewares/Third_Party/LoRaWAN/LmHandler/LmHandler.c ****     if (deviceClass == NULL)
 860:Middlewares/Third_Party/LoRaWAN/LmHandler/LmHandler.c ****     {
 861:Middlewares/Third_Party/LoRaWAN/LmHandler/LmHandler.c ****         return LORAMAC_HANDLER_ERROR;
 862:Middlewares/Third_Party/LoRaWAN/LmHandler/LmHandler.c ****     }
 863:Middlewares/Third_Party/LoRaWAN/LmHandler/LmHandler.c **** 
 864:Middlewares/Third_Party/LoRaWAN/LmHandler/LmHandler.c ****     mibReq.Type = MIB_DEVICE_CLASS;
 865:Middlewares/Third_Party/LoRaWAN/LmHandler/LmHandler.c ****     if (LoRaMacMibGetRequestConfirm( &mibReq ) != LORAMAC_STATUS_OK)
 866:Middlewares/Third_Party/LoRaWAN/LmHandler/LmHandler.c ****     {
 867:Middlewares/Third_Party/LoRaWAN/LmHandler/LmHandler.c ****         return LORAMAC_HANDLER_ERROR;
 868:Middlewares/Third_Party/LoRaWAN/LmHandler/LmHandler.c ****     }
 869:Middlewares/Third_Party/LoRaWAN/LmHandler/LmHandler.c **** 
 870:Middlewares/Third_Party/LoRaWAN/LmHandler/LmHandler.c ****     *deviceClass = mibReq.Param.Class;
 871:Middlewares/Third_Party/LoRaWAN/LmHandler/LmHandler.c ****     return LORAMAC_HANDLER_SUCCESS;
 872:Middlewares/Third_Party/LoRaWAN/LmHandler/LmHandler.c **** }
 873:Middlewares/Third_Party/LoRaWAN/LmHandler/LmHandler.c **** 
 874:Middlewares/Third_Party/LoRaWAN/LmHandler/LmHandler.c **** LmHandlerErrorStatus_t LmHandlerGetTxDatarate( int8_t *txDatarate )
 875:Middlewares/Third_Party/LoRaWAN/LmHandler/LmHandler.c **** {
 876:Middlewares/Third_Party/LoRaWAN/LmHandler/LmHandler.c ****     MibRequestConfirm_t mibGet;
 877:Middlewares/Third_Party/LoRaWAN/LmHandler/LmHandler.c ****     if (txDatarate == NULL)
 878:Middlewares/Third_Party/LoRaWAN/LmHandler/LmHandler.c ****     {
 879:Middlewares/Third_Party/LoRaWAN/LmHandler/LmHandler.c ****         return LORAMAC_HANDLER_ERROR;
 880:Middlewares/Third_Party/LoRaWAN/LmHandler/LmHandler.c ****     }
 881:Middlewares/Third_Party/LoRaWAN/LmHandler/LmHandler.c **** 
 882:Middlewares/Third_Party/LoRaWAN/LmHandler/LmHandler.c ****     mibGet.Type = MIB_CHANNELS_DATARATE;
 883:Middlewares/Third_Party/LoRaWAN/LmHandler/LmHandler.c ****     if (LoRaMacMibGetRequestConfirm( &mibGet ) != LORAMAC_STATUS_OK)
 884:Middlewares/Third_Party/LoRaWAN/LmHandler/LmHandler.c ****     {
 885:Middlewares/Third_Party/LoRaWAN/LmHandler/LmHandler.c ****         return LORAMAC_HANDLER_ERROR;
 886:Middlewares/Third_Party/LoRaWAN/LmHandler/LmHandler.c ****     }
 887:Middlewares/Third_Party/LoRaWAN/LmHandler/LmHandler.c **** 
ARM GAS  /tmp/ccIEh1dP.s 			page 17


 888:Middlewares/Third_Party/LoRaWAN/LmHandler/LmHandler.c ****     *txDatarate = mibGet.Param.ChannelsDatarate;
 889:Middlewares/Third_Party/LoRaWAN/LmHandler/LmHandler.c ****     LmHandlerParams.TxDatarate = *txDatarate;
 890:Middlewares/Third_Party/LoRaWAN/LmHandler/LmHandler.c ****     return LORAMAC_HANDLER_SUCCESS;
 891:Middlewares/Third_Party/LoRaWAN/LmHandler/LmHandler.c **** }
 892:Middlewares/Third_Party/LoRaWAN/LmHandler/LmHandler.c **** 
 893:Middlewares/Third_Party/LoRaWAN/LmHandler/LmHandler.c **** LmHandlerErrorStatus_t LmHandlerGetActiveRegion( LoRaMacRegion_t *region )
 894:Middlewares/Third_Party/LoRaWAN/LmHandler/LmHandler.c **** {
 895:Middlewares/Third_Party/LoRaWAN/LmHandler/LmHandler.c ****     if (region == NULL)
 896:Middlewares/Third_Party/LoRaWAN/LmHandler/LmHandler.c ****     {
 897:Middlewares/Third_Party/LoRaWAN/LmHandler/LmHandler.c ****         return LORAMAC_HANDLER_ERROR;
 898:Middlewares/Third_Party/LoRaWAN/LmHandler/LmHandler.c ****     }
 899:Middlewares/Third_Party/LoRaWAN/LmHandler/LmHandler.c **** 
 900:Middlewares/Third_Party/LoRaWAN/LmHandler/LmHandler.c ****     *region = LmHandlerParams.ActiveRegion;
 901:Middlewares/Third_Party/LoRaWAN/LmHandler/LmHandler.c ****     return LORAMAC_HANDLER_SUCCESS;
 902:Middlewares/Third_Party/LoRaWAN/LmHandler/LmHandler.c **** }
 903:Middlewares/Third_Party/LoRaWAN/LmHandler/LmHandler.c **** 
 904:Middlewares/Third_Party/LoRaWAN/LmHandler/LmHandler.c **** static LmHandlerErrorStatus_t LmHandlerSetSystemMaxRxError( uint32_t maxErrorInMs )
 905:Middlewares/Third_Party/LoRaWAN/LmHandler/LmHandler.c **** {
 906:Middlewares/Third_Party/LoRaWAN/LmHandler/LmHandler.c ****     MibRequestConfirm_t mibReq;
 907:Middlewares/Third_Party/LoRaWAN/LmHandler/LmHandler.c **** 
 908:Middlewares/Third_Party/LoRaWAN/LmHandler/LmHandler.c ****     mibReq.Type = MIB_SYSTEM_MAX_RX_ERROR;
 909:Middlewares/Third_Party/LoRaWAN/LmHandler/LmHandler.c ****     mibReq.Param.SystemMaxRxError = maxErrorInMs;
 910:Middlewares/Third_Party/LoRaWAN/LmHandler/LmHandler.c ****     if( LoRaMacMibSetRequestConfirm( &mibReq ) != LORAMAC_STATUS_OK )
 911:Middlewares/Third_Party/LoRaWAN/LmHandler/LmHandler.c ****     {
 912:Middlewares/Third_Party/LoRaWAN/LmHandler/LmHandler.c ****         return LORAMAC_HANDLER_ERROR;
 913:Middlewares/Third_Party/LoRaWAN/LmHandler/LmHandler.c ****     }
 914:Middlewares/Third_Party/LoRaWAN/LmHandler/LmHandler.c ****     return LORAMAC_HANDLER_SUCCESS;
 915:Middlewares/Third_Party/LoRaWAN/LmHandler/LmHandler.c **** }
 916:Middlewares/Third_Party/LoRaWAN/LmHandler/LmHandler.c **** 
 917:Middlewares/Third_Party/LoRaWAN/LmHandler/LmHandler.c **** /*
 918:Middlewares/Third_Party/LoRaWAN/LmHandler/LmHandler.c ****  *=============================================================================
 919:Middlewares/Third_Party/LoRaWAN/LmHandler/LmHandler.c ****  * LORAMAC NOTIFICATIONS HANDLING
 920:Middlewares/Third_Party/LoRaWAN/LmHandler/LmHandler.c ****  *=============================================================================
 921:Middlewares/Third_Party/LoRaWAN/LmHandler/LmHandler.c ****  */
 922:Middlewares/Third_Party/LoRaWAN/LmHandler/LmHandler.c **** 
 923:Middlewares/Third_Party/LoRaWAN/LmHandler/LmHandler.c **** static void McpsConfirm( McpsConfirm_t *mcpsConfirm )
 924:Middlewares/Third_Party/LoRaWAN/LmHandler/LmHandler.c **** {
 925:Middlewares/Third_Party/LoRaWAN/LmHandler/LmHandler.c ****     TxParams.IsMcpsConfirm = 1;
 926:Middlewares/Third_Party/LoRaWAN/LmHandler/LmHandler.c ****     TxParams.Status = mcpsConfirm->Status;
 927:Middlewares/Third_Party/LoRaWAN/LmHandler/LmHandler.c ****     TxParams.Datarate = mcpsConfirm->Datarate;
 928:Middlewares/Third_Party/LoRaWAN/LmHandler/LmHandler.c ****     TxParams.UplinkCounter = mcpsConfirm->UpLinkCounter;
 929:Middlewares/Third_Party/LoRaWAN/LmHandler/LmHandler.c ****     TxParams.TxPower = mcpsConfirm->TxPower;
 930:Middlewares/Third_Party/LoRaWAN/LmHandler/LmHandler.c ****     TxParams.Channel = mcpsConfirm->Channel;
 931:Middlewares/Third_Party/LoRaWAN/LmHandler/LmHandler.c ****     TxParams.AckReceived = mcpsConfirm->AckReceived;
 932:Middlewares/Third_Party/LoRaWAN/LmHandler/LmHandler.c **** 
 933:Middlewares/Third_Party/LoRaWAN/LmHandler/LmHandler.c ****     LmHandlerCallbacks->OnTxData( &TxParams );
 934:Middlewares/Third_Party/LoRaWAN/LmHandler/LmHandler.c **** 
 935:Middlewares/Third_Party/LoRaWAN/LmHandler/LmHandler.c ****     LmHandlerPackagesNotify( PACKAGE_MCPS_CONFIRM, mcpsConfirm );
 936:Middlewares/Third_Party/LoRaWAN/LmHandler/LmHandler.c **** }
 937:Middlewares/Third_Party/LoRaWAN/LmHandler/LmHandler.c **** 
 938:Middlewares/Third_Party/LoRaWAN/LmHandler/LmHandler.c **** static void McpsIndication( McpsIndication_t *mcpsIndication, LoRaMacRxStatus_t *RxStatus )
 939:Middlewares/Third_Party/LoRaWAN/LmHandler/LmHandler.c **** {
 940:Middlewares/Third_Party/LoRaWAN/LmHandler/LmHandler.c ****     LmHandlerAppData_t appData;
 941:Middlewares/Third_Party/LoRaWAN/LmHandler/LmHandler.c ****     DeviceClass_t deviceClass = CLASS_A;
 942:Middlewares/Third_Party/LoRaWAN/LmHandler/LmHandler.c ****     RxParams.IsMcpsIndication = 1;
 943:Middlewares/Third_Party/LoRaWAN/LmHandler/LmHandler.c ****     RxParams.Status = mcpsIndication->Status;
 944:Middlewares/Third_Party/LoRaWAN/LmHandler/LmHandler.c **** 
ARM GAS  /tmp/ccIEh1dP.s 			page 18


 945:Middlewares/Third_Party/LoRaWAN/LmHandler/LmHandler.c ****     if( RxParams.Status != LORAMAC_EVENT_INFO_STATUS_OK )
 946:Middlewares/Third_Party/LoRaWAN/LmHandler/LmHandler.c ****     {
 947:Middlewares/Third_Party/LoRaWAN/LmHandler/LmHandler.c ****         return;
 948:Middlewares/Third_Party/LoRaWAN/LmHandler/LmHandler.c ****     }
 949:Middlewares/Third_Party/LoRaWAN/LmHandler/LmHandler.c **** 
 950:Middlewares/Third_Party/LoRaWAN/LmHandler/LmHandler.c ****     RxParams.Datarate = mcpsIndication->RxDatarate;
 951:Middlewares/Third_Party/LoRaWAN/LmHandler/LmHandler.c ****     RxParams.Rssi = RxStatus->Rssi;
 952:Middlewares/Third_Party/LoRaWAN/LmHandler/LmHandler.c ****     RxParams.Snr = RxStatus->Snr;
 953:Middlewares/Third_Party/LoRaWAN/LmHandler/LmHandler.c ****     RxParams.RxSlot = RxStatus->RxSlot;
 954:Middlewares/Third_Party/LoRaWAN/LmHandler/LmHandler.c ****     RxParams.DownlinkCounter = mcpsIndication->DownLinkCounter;
 955:Middlewares/Third_Party/LoRaWAN/LmHandler/LmHandler.c **** 
 956:Middlewares/Third_Party/LoRaWAN/LmHandler/LmHandler.c ****     appData.Port = mcpsIndication->Port;
 957:Middlewares/Third_Party/LoRaWAN/LmHandler/LmHandler.c ****     appData.BufferSize = mcpsIndication->BufferSize;
 958:Middlewares/Third_Party/LoRaWAN/LmHandler/LmHandler.c ****     appData.Buffer = mcpsIndication->Buffer;
 959:Middlewares/Third_Party/LoRaWAN/LmHandler/LmHandler.c **** 
 960:Middlewares/Third_Party/LoRaWAN/LmHandler/LmHandler.c ****     LmHandlerCallbacks->OnRxData(&appData, &RxParams);
 961:Middlewares/Third_Party/LoRaWAN/LmHandler/LmHandler.c **** 
 962:Middlewares/Third_Party/LoRaWAN/LmHandler/LmHandler.c ****     if ((LmHandlerCallbacks->OnSysTimeUpdate != NULL) && (mcpsIndication->DeviceTimeAnsReceived == 
 963:Middlewares/Third_Party/LoRaWAN/LmHandler/LmHandler.c ****     {
 964:Middlewares/Third_Party/LoRaWAN/LmHandler/LmHandler.c ****         LmHandlerCallbacks->OnSysTimeUpdate( );
 965:Middlewares/Third_Party/LoRaWAN/LmHandler/LmHandler.c ****     }
 966:Middlewares/Third_Party/LoRaWAN/LmHandler/LmHandler.c **** 
 967:Middlewares/Third_Party/LoRaWAN/LmHandler/LmHandler.c ****     // Call packages RxProcess function
 968:Middlewares/Third_Party/LoRaWAN/LmHandler/LmHandler.c ****     LmHandlerPackagesNotify( PACKAGE_MCPS_INDICATION, mcpsIndication );
 969:Middlewares/Third_Party/LoRaWAN/LmHandler/LmHandler.c **** 
 970:Middlewares/Third_Party/LoRaWAN/LmHandler/LmHandler.c ****     LmHandlerGetCurrentClass(&deviceClass);
 971:Middlewares/Third_Party/LoRaWAN/LmHandler/LmHandler.c ****     if ((mcpsIndication->FramePending == true) && (deviceClass == CLASS_A))
 972:Middlewares/Third_Party/LoRaWAN/LmHandler/LmHandler.c ****     {
 973:Middlewares/Third_Party/LoRaWAN/LmHandler/LmHandler.c ****         // The server signals that it has pending data to be sent.
 974:Middlewares/Third_Party/LoRaWAN/LmHandler/LmHandler.c ****         // We schedule an uplink as soon as possible to flush the server.
 975:Middlewares/Third_Party/LoRaWAN/LmHandler/LmHandler.c **** 
 976:Middlewares/Third_Party/LoRaWAN/LmHandler/LmHandler.c ****         // Send an empty message
 977:Middlewares/Third_Party/LoRaWAN/LmHandler/LmHandler.c ****         LmHandlerAppData_t appData =
 978:Middlewares/Third_Party/LoRaWAN/LmHandler/LmHandler.c ****         {
 979:Middlewares/Third_Party/LoRaWAN/LmHandler/LmHandler.c ****             .Buffer = NULL,
 980:Middlewares/Third_Party/LoRaWAN/LmHandler/LmHandler.c ****             .BufferSize = 0,
 981:Middlewares/Third_Party/LoRaWAN/LmHandler/LmHandler.c ****             .Port = 0
 982:Middlewares/Third_Party/LoRaWAN/LmHandler/LmHandler.c ****         };
 983:Middlewares/Third_Party/LoRaWAN/LmHandler/LmHandler.c ****         LmHandlerSend(&appData, LORAMAC_HANDLER_UNCONFIRMED_MSG, NULL, true);
 984:Middlewares/Third_Party/LoRaWAN/LmHandler/LmHandler.c ****     }
 985:Middlewares/Third_Party/LoRaWAN/LmHandler/LmHandler.c **** }
 986:Middlewares/Third_Party/LoRaWAN/LmHandler/LmHandler.c **** 
 987:Middlewares/Third_Party/LoRaWAN/LmHandler/LmHandler.c **** static void MlmeConfirm( MlmeConfirm_t *mlmeConfirm )
 988:Middlewares/Third_Party/LoRaWAN/LmHandler/LmHandler.c **** {
 989:Middlewares/Third_Party/LoRaWAN/LmHandler/LmHandler.c ****     TxParams.IsMcpsConfirm = 0;
 990:Middlewares/Third_Party/LoRaWAN/LmHandler/LmHandler.c ****     TxParams.Status = mlmeConfirm->Status;
 991:Middlewares/Third_Party/LoRaWAN/LmHandler/LmHandler.c ****     LmHandlerCallbacks->OnTxData( &TxParams );
 992:Middlewares/Third_Party/LoRaWAN/LmHandler/LmHandler.c **** 
 993:Middlewares/Third_Party/LoRaWAN/LmHandler/LmHandler.c ****     LmHandlerPackagesNotify( PACKAGE_MLME_CONFIRM, mlmeConfirm );
 994:Middlewares/Third_Party/LoRaWAN/LmHandler/LmHandler.c **** 
 995:Middlewares/Third_Party/LoRaWAN/LmHandler/LmHandler.c ****     switch( mlmeConfirm->MlmeRequest )
 996:Middlewares/Third_Party/LoRaWAN/LmHandler/LmHandler.c ****     {
 997:Middlewares/Third_Party/LoRaWAN/LmHandler/LmHandler.c ****     case MLME_JOIN:
 998:Middlewares/Third_Party/LoRaWAN/LmHandler/LmHandler.c ****         {
 999:Middlewares/Third_Party/LoRaWAN/LmHandler/LmHandler.c ****             MibRequestConfirm_t mibReq;
1000:Middlewares/Third_Party/LoRaWAN/LmHandler/LmHandler.c ****             mibReq.Type = MIB_DEV_ADDR;
1001:Middlewares/Third_Party/LoRaWAN/LmHandler/LmHandler.c ****             LoRaMacMibGetRequestConfirm( &mibReq );
ARM GAS  /tmp/ccIEh1dP.s 			page 19


1002:Middlewares/Third_Party/LoRaWAN/LmHandler/LmHandler.c ****             CommissioningParams.DevAddr = mibReq.Param.DevAddr;
1003:Middlewares/Third_Party/LoRaWAN/LmHandler/LmHandler.c ****             LmHandlerGetTxDatarate( &JoinParams.Datarate );
1004:Middlewares/Third_Party/LoRaWAN/LmHandler/LmHandler.c **** 
1005:Middlewares/Third_Party/LoRaWAN/LmHandler/LmHandler.c ****             if( mlmeConfirm->Status == LORAMAC_EVENT_INFO_STATUS_OK )
1006:Middlewares/Third_Party/LoRaWAN/LmHandler/LmHandler.c ****             {
1007:Middlewares/Third_Party/LoRaWAN/LmHandler/LmHandler.c ****                 // Status is OK, node has joined the network
1008:Middlewares/Third_Party/LoRaWAN/LmHandler/LmHandler.c ****                 JoinParams.Status = LORAMAC_HANDLER_SUCCESS;
1009:Middlewares/Third_Party/LoRaWAN/LmHandler/LmHandler.c ****                 LmHandlerRequestClass(LmHandlerParams.DefaultClass);
1010:Middlewares/Third_Party/LoRaWAN/LmHandler/LmHandler.c ****             }
1011:Middlewares/Third_Party/LoRaWAN/LmHandler/LmHandler.c ****             else
1012:Middlewares/Third_Party/LoRaWAN/LmHandler/LmHandler.c ****             {
1013:Middlewares/Third_Party/LoRaWAN/LmHandler/LmHandler.c ****                 // Join was not successful. Try to join again
1014:Middlewares/Third_Party/LoRaWAN/LmHandler/LmHandler.c ****                 JoinParams.Status = LORAMAC_HANDLER_ERROR;
1015:Middlewares/Third_Party/LoRaWAN/LmHandler/LmHandler.c ****             }
1016:Middlewares/Third_Party/LoRaWAN/LmHandler/LmHandler.c ****             // Notify upper layer
1017:Middlewares/Third_Party/LoRaWAN/LmHandler/LmHandler.c ****             LmHandlerCallbacks->OnJoinRequest( &JoinParams );
1018:Middlewares/Third_Party/LoRaWAN/LmHandler/LmHandler.c ****         }
1019:Middlewares/Third_Party/LoRaWAN/LmHandler/LmHandler.c ****         break;
1020:Middlewares/Third_Party/LoRaWAN/LmHandler/LmHandler.c ****     case MLME_LINK_CHECK:
1021:Middlewares/Third_Party/LoRaWAN/LmHandler/LmHandler.c ****         {
1022:Middlewares/Third_Party/LoRaWAN/LmHandler/LmHandler.c ****             RxParams.LinkCheck = true;
1023:Middlewares/Third_Party/LoRaWAN/LmHandler/LmHandler.c ****             RxParams.DemodMargin = mlmeConfirm->DemodMargin;
1024:Middlewares/Third_Party/LoRaWAN/LmHandler/LmHandler.c ****             RxParams.NbGateways = mlmeConfirm->NbGateways;
1025:Middlewares/Third_Party/LoRaWAN/LmHandler/LmHandler.c ****         }
1026:Middlewares/Third_Party/LoRaWAN/LmHandler/LmHandler.c ****         break;
1027:Middlewares/Third_Party/LoRaWAN/LmHandler/LmHandler.c ****     case MLME_DEVICE_TIME:
1028:Middlewares/Third_Party/LoRaWAN/LmHandler/LmHandler.c ****         {
1029:Middlewares/Third_Party/LoRaWAN/LmHandler/LmHandler.c **** #if ( LORAMAC_CLASSB_ENABLED == 1 )
1030:Middlewares/Third_Party/LoRaWAN/LmHandler/LmHandler.c ****             if( IsClassBSwitchPending == true )
1031:Middlewares/Third_Party/LoRaWAN/LmHandler/LmHandler.c ****             {
1032:Middlewares/Third_Party/LoRaWAN/LmHandler/LmHandler.c ****                 LmHandlerBeaconReq( );
1033:Middlewares/Third_Party/LoRaWAN/LmHandler/LmHandler.c ****             }
1034:Middlewares/Third_Party/LoRaWAN/LmHandler/LmHandler.c **** #endif /* LORAMAC_CLASSB_ENABLED == 1 */
1035:Middlewares/Third_Party/LoRaWAN/LmHandler/LmHandler.c ****         }
1036:Middlewares/Third_Party/LoRaWAN/LmHandler/LmHandler.c ****         break;
1037:Middlewares/Third_Party/LoRaWAN/LmHandler/LmHandler.c **** #if ( LORAMAC_CLASSB_ENABLED == 1 )
1038:Middlewares/Third_Party/LoRaWAN/LmHandler/LmHandler.c ****     case MLME_BEACON_ACQUISITION:
1039:Middlewares/Third_Party/LoRaWAN/LmHandler/LmHandler.c ****         {
1040:Middlewares/Third_Party/LoRaWAN/LmHandler/LmHandler.c ****             if( mlmeConfirm->Status == LORAMAC_EVENT_INFO_STATUS_OK )
1041:Middlewares/Third_Party/LoRaWAN/LmHandler/LmHandler.c ****             {
1042:Middlewares/Third_Party/LoRaWAN/LmHandler/LmHandler.c ****                 // Beacon has been acquired
1043:Middlewares/Third_Party/LoRaWAN/LmHandler/LmHandler.c ****                 // Request server for ping slot
1044:Middlewares/Third_Party/LoRaWAN/LmHandler/LmHandler.c ****                 LmHandlerPingSlotReq( LmHandlerParams.PingPeriodicity );
1045:Middlewares/Third_Party/LoRaWAN/LmHandler/LmHandler.c ****             }
1046:Middlewares/Third_Party/LoRaWAN/LmHandler/LmHandler.c ****             else
1047:Middlewares/Third_Party/LoRaWAN/LmHandler/LmHandler.c ****             {
1048:Middlewares/Third_Party/LoRaWAN/LmHandler/LmHandler.c ****                 // Beacon not acquired
1049:Middlewares/Third_Party/LoRaWAN/LmHandler/LmHandler.c ****                 // Request Device Time again.
1050:Middlewares/Third_Party/LoRaWAN/LmHandler/LmHandler.c ****                 LmHandlerDeviceTimeReq( );
1051:Middlewares/Third_Party/LoRaWAN/LmHandler/LmHandler.c ****             }
1052:Middlewares/Third_Party/LoRaWAN/LmHandler/LmHandler.c ****         }
1053:Middlewares/Third_Party/LoRaWAN/LmHandler/LmHandler.c ****         break;
1054:Middlewares/Third_Party/LoRaWAN/LmHandler/LmHandler.c ****     case MLME_PING_SLOT_INFO:
1055:Middlewares/Third_Party/LoRaWAN/LmHandler/LmHandler.c ****         {
1056:Middlewares/Third_Party/LoRaWAN/LmHandler/LmHandler.c ****             if( mlmeConfirm->Status == LORAMAC_EVENT_INFO_STATUS_OK )
1057:Middlewares/Third_Party/LoRaWAN/LmHandler/LmHandler.c ****             {
1058:Middlewares/Third_Party/LoRaWAN/LmHandler/LmHandler.c ****                 MibRequestConfirm_t mibReq;
ARM GAS  /tmp/ccIEh1dP.s 			page 20


1059:Middlewares/Third_Party/LoRaWAN/LmHandler/LmHandler.c **** 
1060:Middlewares/Third_Party/LoRaWAN/LmHandler/LmHandler.c ****                 // Class B is now activated
1061:Middlewares/Third_Party/LoRaWAN/LmHandler/LmHandler.c ****                 mibReq.Type = MIB_DEVICE_CLASS;
1062:Middlewares/Third_Party/LoRaWAN/LmHandler/LmHandler.c ****                 mibReq.Param.Class = CLASS_B;
1063:Middlewares/Third_Party/LoRaWAN/LmHandler/LmHandler.c ****                 LoRaMacMibSetRequestConfirm( &mibReq );
1064:Middlewares/Third_Party/LoRaWAN/LmHandler/LmHandler.c ****                 // Notify upper layer
1065:Middlewares/Third_Party/LoRaWAN/LmHandler/LmHandler.c ****                 DisplayClassUpdate( CLASS_B );
1066:Middlewares/Third_Party/LoRaWAN/LmHandler/LmHandler.c ****                 if (LmHandlerCallbacks->OnClassChange != NULL)
1067:Middlewares/Third_Party/LoRaWAN/LmHandler/LmHandler.c ****                 {
1068:Middlewares/Third_Party/LoRaWAN/LmHandler/LmHandler.c ****                     LmHandlerCallbacks->OnClassChange( CLASS_B );
1069:Middlewares/Third_Party/LoRaWAN/LmHandler/LmHandler.c ****                 }
1070:Middlewares/Third_Party/LoRaWAN/LmHandler/LmHandler.c ****                 IsClassBSwitchPending = false;
1071:Middlewares/Third_Party/LoRaWAN/LmHandler/LmHandler.c ****             }
1072:Middlewares/Third_Party/LoRaWAN/LmHandler/LmHandler.c ****             else
1073:Middlewares/Third_Party/LoRaWAN/LmHandler/LmHandler.c ****             {
1074:Middlewares/Third_Party/LoRaWAN/LmHandler/LmHandler.c ****                 LmHandlerPingSlotReq( LmHandlerParams.PingPeriodicity );
1075:Middlewares/Third_Party/LoRaWAN/LmHandler/LmHandler.c ****             }
1076:Middlewares/Third_Party/LoRaWAN/LmHandler/LmHandler.c ****         }
1077:Middlewares/Third_Party/LoRaWAN/LmHandler/LmHandler.c ****         break;
1078:Middlewares/Third_Party/LoRaWAN/LmHandler/LmHandler.c **** #endif /* LORAMAC_CLASSB_ENABLED == 1 */
1079:Middlewares/Third_Party/LoRaWAN/LmHandler/LmHandler.c ****     default:
1080:Middlewares/Third_Party/LoRaWAN/LmHandler/LmHandler.c ****         break;
1081:Middlewares/Third_Party/LoRaWAN/LmHandler/LmHandler.c ****     }
1082:Middlewares/Third_Party/LoRaWAN/LmHandler/LmHandler.c **** }
1083:Middlewares/Third_Party/LoRaWAN/LmHandler/LmHandler.c **** 
1084:Middlewares/Third_Party/LoRaWAN/LmHandler/LmHandler.c **** static void MlmeIndication( MlmeIndication_t *mlmeIndication, LoRaMacRxStatus_t *RxStatus )
1085:Middlewares/Third_Party/LoRaWAN/LmHandler/LmHandler.c **** {
1086:Middlewares/Third_Party/LoRaWAN/LmHandler/LmHandler.c ****     RxParams.IsMcpsIndication = 0;
1087:Middlewares/Third_Party/LoRaWAN/LmHandler/LmHandler.c ****     RxParams.Status = mlmeIndication->Status;
1088:Middlewares/Third_Party/LoRaWAN/LmHandler/LmHandler.c ****     RxParams.Rssi = RxStatus->Rssi;
1089:Middlewares/Third_Party/LoRaWAN/LmHandler/LmHandler.c ****     RxParams.Snr = RxStatus->Snr;
1090:Middlewares/Third_Party/LoRaWAN/LmHandler/LmHandler.c ****     RxParams.RxSlot = RxStatus->RxSlot;
1091:Middlewares/Third_Party/LoRaWAN/LmHandler/LmHandler.c ****     if( RxParams.Status != LORAMAC_EVENT_INFO_STATUS_BEACON_LOCKED )
1092:Middlewares/Third_Party/LoRaWAN/LmHandler/LmHandler.c ****     {
1093:Middlewares/Third_Party/LoRaWAN/LmHandler/LmHandler.c ****         LmHandlerCallbacks->OnRxData( NULL, &RxParams );
1094:Middlewares/Third_Party/LoRaWAN/LmHandler/LmHandler.c ****     }
1095:Middlewares/Third_Party/LoRaWAN/LmHandler/LmHandler.c **** 
1096:Middlewares/Third_Party/LoRaWAN/LmHandler/LmHandler.c ****     switch( mlmeIndication->MlmeIndication )
1097:Middlewares/Third_Party/LoRaWAN/LmHandler/LmHandler.c ****     {
1098:Middlewares/Third_Party/LoRaWAN/LmHandler/LmHandler.c ****     case MLME_SCHEDULE_UPLINK:
1099:Middlewares/Third_Party/LoRaWAN/LmHandler/LmHandler.c ****         {// The MAC signals that we shall provide an uplink as soon as possible
1100:Middlewares/Third_Party/LoRaWAN/LmHandler/LmHandler.c ****             // Send an empty message
1101:Middlewares/Third_Party/LoRaWAN/LmHandler/LmHandler.c ****             LmHandlerAppData_t appData =
1102:Middlewares/Third_Party/LoRaWAN/LmHandler/LmHandler.c ****             {
1103:Middlewares/Third_Party/LoRaWAN/LmHandler/LmHandler.c ****                 .Buffer = NULL,
1104:Middlewares/Third_Party/LoRaWAN/LmHandler/LmHandler.c ****                 .BufferSize = 0,
1105:Middlewares/Third_Party/LoRaWAN/LmHandler/LmHandler.c ****                 .Port = 0
1106:Middlewares/Third_Party/LoRaWAN/LmHandler/LmHandler.c ****             };
1107:Middlewares/Third_Party/LoRaWAN/LmHandler/LmHandler.c **** 
1108:Middlewares/Third_Party/LoRaWAN/LmHandler/LmHandler.c ****             if( LmHandlerPackages[PACKAGE_ID_COMPLIANCE]->IsRunning( ) == false )
1109:Middlewares/Third_Party/LoRaWAN/LmHandler/LmHandler.c ****             {
1110:Middlewares/Third_Party/LoRaWAN/LmHandler/LmHandler.c ****                 LmHandlerSend( &appData, LORAMAC_HANDLER_UNCONFIRMED_MSG, NULL, true );
1111:Middlewares/Third_Party/LoRaWAN/LmHandler/LmHandler.c ****             }
1112:Middlewares/Third_Party/LoRaWAN/LmHandler/LmHandler.c ****         }
1113:Middlewares/Third_Party/LoRaWAN/LmHandler/LmHandler.c ****         break;
1114:Middlewares/Third_Party/LoRaWAN/LmHandler/LmHandler.c **** #if ( LORAMAC_CLASSB_ENABLED == 1 )
1115:Middlewares/Third_Party/LoRaWAN/LmHandler/LmHandler.c ****     case MLME_BEACON_LOST:
ARM GAS  /tmp/ccIEh1dP.s 			page 21


1116:Middlewares/Third_Party/LoRaWAN/LmHandler/LmHandler.c ****         {
1117:Middlewares/Third_Party/LoRaWAN/LmHandler/LmHandler.c ****             MibRequestConfirm_t mibReq;
1118:Middlewares/Third_Party/LoRaWAN/LmHandler/LmHandler.c ****             // Switch to class A again
1119:Middlewares/Third_Party/LoRaWAN/LmHandler/LmHandler.c ****             mibReq.Type = MIB_DEVICE_CLASS;
1120:Middlewares/Third_Party/LoRaWAN/LmHandler/LmHandler.c ****             mibReq.Param.Class = CLASS_A;
1121:Middlewares/Third_Party/LoRaWAN/LmHandler/LmHandler.c ****             LoRaMacMibSetRequestConfirm( &mibReq );
1122:Middlewares/Third_Party/LoRaWAN/LmHandler/LmHandler.c **** 
1123:Middlewares/Third_Party/LoRaWAN/LmHandler/LmHandler.c ****             BeaconParams.State = LORAMAC_HANDLER_BEACON_LOST;
1124:Middlewares/Third_Party/LoRaWAN/LmHandler/LmHandler.c ****             BeaconParams.Info.Time.Seconds = 0;
1125:Middlewares/Third_Party/LoRaWAN/LmHandler/LmHandler.c ****             BeaconParams.Info.GwSpecific.InfoDesc = 0;
1126:Middlewares/Third_Party/LoRaWAN/LmHandler/LmHandler.c ****             UTIL_MEM_set_8(BeaconParams.Info.GwSpecific.Info, 0, 6);
1127:Middlewares/Third_Party/LoRaWAN/LmHandler/LmHandler.c **** 
1128:Middlewares/Third_Party/LoRaWAN/LmHandler/LmHandler.c ****             DisplayClassUpdate( CLASS_A );
1129:Middlewares/Third_Party/LoRaWAN/LmHandler/LmHandler.c ****             if (LmHandlerCallbacks->OnClassChange != NULL)
1130:Middlewares/Third_Party/LoRaWAN/LmHandler/LmHandler.c ****             {
1131:Middlewares/Third_Party/LoRaWAN/LmHandler/LmHandler.c ****                 LmHandlerCallbacks->OnClassChange( CLASS_A );
1132:Middlewares/Third_Party/LoRaWAN/LmHandler/LmHandler.c ****             }
1133:Middlewares/Third_Party/LoRaWAN/LmHandler/LmHandler.c ****             DisplayBeaconUpdate( &BeaconParams );
1134:Middlewares/Third_Party/LoRaWAN/LmHandler/LmHandler.c **** 
1135:Middlewares/Third_Party/LoRaWAN/LmHandler/LmHandler.c ****             LmHandlerDeviceTimeReq( );
1136:Middlewares/Third_Party/LoRaWAN/LmHandler/LmHandler.c ****         }
1137:Middlewares/Third_Party/LoRaWAN/LmHandler/LmHandler.c ****         break;
1138:Middlewares/Third_Party/LoRaWAN/LmHandler/LmHandler.c ****     case MLME_BEACON:
1139:Middlewares/Third_Party/LoRaWAN/LmHandler/LmHandler.c ****         {
1140:Middlewares/Third_Party/LoRaWAN/LmHandler/LmHandler.c ****             if( mlmeIndication->Status == LORAMAC_EVENT_INFO_STATUS_BEACON_LOCKED )
1141:Middlewares/Third_Party/LoRaWAN/LmHandler/LmHandler.c ****             {
1142:Middlewares/Third_Party/LoRaWAN/LmHandler/LmHandler.c ****                 BeaconParams.State = LORAMAC_HANDLER_BEACON_RX;
1143:Middlewares/Third_Party/LoRaWAN/LmHandler/LmHandler.c ****                 BeaconParams.Info = mlmeIndication->BeaconInfo;
1144:Middlewares/Third_Party/LoRaWAN/LmHandler/LmHandler.c **** 
1145:Middlewares/Third_Party/LoRaWAN/LmHandler/LmHandler.c ****                 DisplayBeaconUpdate( &BeaconParams );
1146:Middlewares/Third_Party/LoRaWAN/LmHandler/LmHandler.c ****             }
1147:Middlewares/Third_Party/LoRaWAN/LmHandler/LmHandler.c ****             else
1148:Middlewares/Third_Party/LoRaWAN/LmHandler/LmHandler.c ****             {
1149:Middlewares/Third_Party/LoRaWAN/LmHandler/LmHandler.c ****                 BeaconParams.State = LORAMAC_HANDLER_BEACON_NRX;
1150:Middlewares/Third_Party/LoRaWAN/LmHandler/LmHandler.c ****                 BeaconParams.Info = mlmeIndication->BeaconInfo;
1151:Middlewares/Third_Party/LoRaWAN/LmHandler/LmHandler.c **** 
1152:Middlewares/Third_Party/LoRaWAN/LmHandler/LmHandler.c ****                 DisplayBeaconUpdate( &BeaconParams );
1153:Middlewares/Third_Party/LoRaWAN/LmHandler/LmHandler.c ****             }
1154:Middlewares/Third_Party/LoRaWAN/LmHandler/LmHandler.c ****         }
1155:Middlewares/Third_Party/LoRaWAN/LmHandler/LmHandler.c ****         break;
1156:Middlewares/Third_Party/LoRaWAN/LmHandler/LmHandler.c **** #endif /* LORAMAC_CLASSB_ENABLED == 1 */
1157:Middlewares/Third_Party/LoRaWAN/LmHandler/LmHandler.c ****     default:
1158:Middlewares/Third_Party/LoRaWAN/LmHandler/LmHandler.c ****         break;
1159:Middlewares/Third_Party/LoRaWAN/LmHandler/LmHandler.c ****     }
1160:Middlewares/Third_Party/LoRaWAN/LmHandler/LmHandler.c **** }
1161:Middlewares/Third_Party/LoRaWAN/LmHandler/LmHandler.c **** 
1162:Middlewares/Third_Party/LoRaWAN/LmHandler/LmHandler.c **** /*
1163:Middlewares/Third_Party/LoRaWAN/LmHandler/LmHandler.c ****  *=============================================================================
1164:Middlewares/Third_Party/LoRaWAN/LmHandler/LmHandler.c ****  * PACKAGES HANDLING
1165:Middlewares/Third_Party/LoRaWAN/LmHandler/LmHandler.c ****  *=============================================================================
1166:Middlewares/Third_Party/LoRaWAN/LmHandler/LmHandler.c ****  */
1167:Middlewares/Third_Party/LoRaWAN/LmHandler/LmHandler.c **** 
1168:Middlewares/Third_Party/LoRaWAN/LmHandler/LmHandler.c **** LmHandlerErrorStatus_t LmHandlerPackageRegister( uint8_t id, void *params )
1169:Middlewares/Third_Party/LoRaWAN/LmHandler/LmHandler.c **** {
1170:Middlewares/Third_Party/LoRaWAN/LmHandler/LmHandler.c ****     LmhPackage_t *package = NULL;
1171:Middlewares/Third_Party/LoRaWAN/LmHandler/LmHandler.c ****     switch( id )
1172:Middlewares/Third_Party/LoRaWAN/LmHandler/LmHandler.c ****     {
ARM GAS  /tmp/ccIEh1dP.s 			page 22


1173:Middlewares/Third_Party/LoRaWAN/LmHandler/LmHandler.c ****         case PACKAGE_ID_COMPLIANCE:
1174:Middlewares/Third_Party/LoRaWAN/LmHandler/LmHandler.c ****         {
1175:Middlewares/Third_Party/LoRaWAN/LmHandler/LmHandler.c ****             package = LmhpCompliancePackageFactory( );
1176:Middlewares/Third_Party/LoRaWAN/LmHandler/LmHandler.c ****             break;
1177:Middlewares/Third_Party/LoRaWAN/LmHandler/LmHandler.c ****         }
1178:Middlewares/Third_Party/LoRaWAN/LmHandler/LmHandler.c ****         default:
1179:Middlewares/Third_Party/LoRaWAN/LmHandler/LmHandler.c ****         {
1180:Middlewares/Third_Party/LoRaWAN/LmHandler/LmHandler.c **** #if (!defined (LORAWAN_DATA_DISTRIB_MGT) || (LORAWAN_DATA_DISTRIB_MGT == 0))
1181:Middlewares/Third_Party/LoRaWAN/LmHandler/LmHandler.c **** #else /*LORAWAN_DATA_DISTRIB_MGT == 1*/
1182:Middlewares/Third_Party/LoRaWAN/LmHandler/LmHandler.c ****             LmhpPackagesRegister(id, &package);
1183:Middlewares/Third_Party/LoRaWAN/LmHandler/LmHandler.c **** #endif /*LORAWAN_DATA_DISTRIB_MGT*/
1184:Middlewares/Third_Party/LoRaWAN/LmHandler/LmHandler.c ****             break;
1185:Middlewares/Third_Party/LoRaWAN/LmHandler/LmHandler.c ****         }
1186:Middlewares/Third_Party/LoRaWAN/LmHandler/LmHandler.c ****     }
1187:Middlewares/Third_Party/LoRaWAN/LmHandler/LmHandler.c ****     if( package != NULL )
1188:Middlewares/Third_Party/LoRaWAN/LmHandler/LmHandler.c ****     {
1189:Middlewares/Third_Party/LoRaWAN/LmHandler/LmHandler.c ****         LmHandlerPackages[id] = package;
1190:Middlewares/Third_Party/LoRaWAN/LmHandler/LmHandler.c ****         LmHandlerPackages[id]->OnJoinRequest = LmHandlerJoin;
1191:Middlewares/Third_Party/LoRaWAN/LmHandler/LmHandler.c ****         LmHandlerPackages[id]->OnSendRequest = LmHandlerSend;
1192:Middlewares/Third_Party/LoRaWAN/LmHandler/LmHandler.c ****         LmHandlerPackages[id]->OnDeviceTimeRequest = LmHandlerDeviceTimeReq;
1193:Middlewares/Third_Party/LoRaWAN/LmHandler/LmHandler.c ****         LmHandlerPackages[id]->OnPackageProcessEvent = LmHandlerCallbacks->OnMacProcess;
1194:Middlewares/Third_Party/LoRaWAN/LmHandler/LmHandler.c ****         LmHandlerPackages[id]->Init( params, AppData.Buffer, AppData.BufferSize );
1195:Middlewares/Third_Party/LoRaWAN/LmHandler/LmHandler.c **** 
1196:Middlewares/Third_Party/LoRaWAN/LmHandler/LmHandler.c ****         return LORAMAC_HANDLER_SUCCESS;
1197:Middlewares/Third_Party/LoRaWAN/LmHandler/LmHandler.c ****     }
1198:Middlewares/Third_Party/LoRaWAN/LmHandler/LmHandler.c ****     else
1199:Middlewares/Third_Party/LoRaWAN/LmHandler/LmHandler.c ****     {
1200:Middlewares/Third_Party/LoRaWAN/LmHandler/LmHandler.c ****         return LORAMAC_HANDLER_ERROR;
1201:Middlewares/Third_Party/LoRaWAN/LmHandler/LmHandler.c ****     }
1202:Middlewares/Third_Party/LoRaWAN/LmHandler/LmHandler.c **** }
1203:Middlewares/Third_Party/LoRaWAN/LmHandler/LmHandler.c **** 
1204:Middlewares/Third_Party/LoRaWAN/LmHandler/LmHandler.c **** static bool LmHandlerPackageIsInitialized( uint8_t id )
1205:Middlewares/Third_Party/LoRaWAN/LmHandler/LmHandler.c **** {
  27              		.loc 1 1205 1 view -0
  28              		.cfi_startproc
  29              		@ args = 0, pretend = 0, frame = 0
  30              		@ frame_needed = 0, uses_anonymous_args = 0
1206:Middlewares/Third_Party/LoRaWAN/LmHandler/LmHandler.c ****     if (( id < PKG_MAX_NUMBER ) && ( LmHandlerPackages[id]->IsInitialized != NULL ))
  31              		.loc 1 1206 5 view .LVU1
  32              		.loc 1 1206 8 is_stmt 0 view .LVU2
  33 0000 0428     		cmp	r0, #4
  34 0002 07D8     		bhi	.L3
1205:Middlewares/Third_Party/LoRaWAN/LmHandler/LmHandler.c ****     if (( id < PKG_MAX_NUMBER ) && ( LmHandlerPackages[id]->IsInitialized != NULL ))
  35              		.loc 1 1205 1 discriminator 1 view .LVU3
  36 0004 08B5     		push	{r3, lr}
  37              	.LCFI0:
  38              		.cfi_def_cfa_offset 8
  39              		.cfi_offset 3, -8
  40              		.cfi_offset 14, -4
  41              		.loc 1 1206 55 discriminator 1 view .LVU4
  42 0006 054B     		ldr	r3, .L9
  43 0008 53F82030 		ldr	r3, [r3, r0, lsl #2]
  44              		.loc 1 1206 59 discriminator 1 view .LVU5
  45 000c 9B68     		ldr	r3, [r3, #8]
  46              		.loc 1 1206 33 discriminator 1 view .LVU6
  47 000e 1BB1     		cbz	r3, .L4
1207:Middlewares/Third_Party/LoRaWAN/LmHandler/LmHandler.c ****     {
ARM GAS  /tmp/ccIEh1dP.s 			page 23


1208:Middlewares/Third_Party/LoRaWAN/LmHandler/LmHandler.c ****         return LmHandlerPackages[id]->IsInitialized( );
  48              		.loc 1 1208 9 is_stmt 1 view .LVU7
  49              		.loc 1 1208 16 is_stmt 0 view .LVU8
  50 0010 9847     		blx	r3
  51              	.LVL1:
  52              	.L2:
1209:Middlewares/Third_Party/LoRaWAN/LmHandler/LmHandler.c ****     }
1210:Middlewares/Third_Party/LoRaWAN/LmHandler/LmHandler.c ****     else
1211:Middlewares/Third_Party/LoRaWAN/LmHandler/LmHandler.c ****     {
1212:Middlewares/Third_Party/LoRaWAN/LmHandler/LmHandler.c ****         return false;
1213:Middlewares/Third_Party/LoRaWAN/LmHandler/LmHandler.c ****     }
1214:Middlewares/Third_Party/LoRaWAN/LmHandler/LmHandler.c **** }
  53              		.loc 1 1214 1 view .LVU9
  54 0012 08BD     		pop	{r3, pc}
  55              	.LVL2:
  56              	.L3:
  57              	.LCFI1:
  58              		.cfi_def_cfa_offset 0
  59              		.cfi_restore 3
  60              		.cfi_restore 14
1212:Middlewares/Third_Party/LoRaWAN/LmHandler/LmHandler.c ****     }
  61              		.loc 1 1212 16 view .LVU10
  62 0014 0020     		movs	r0, #0
  63              	.LVL3:
  64              		.loc 1 1214 1 view .LVU11
  65 0016 7047     		bx	lr
  66              	.LVL4:
  67              	.L4:
  68              	.LCFI2:
  69              		.cfi_def_cfa_offset 8
  70              		.cfi_offset 3, -8
  71              		.cfi_offset 14, -4
1212:Middlewares/Third_Party/LoRaWAN/LmHandler/LmHandler.c ****     }
  72              		.loc 1 1212 16 view .LVU12
  73 0018 0020     		movs	r0, #0
  74              	.LVL5:
1212:Middlewares/Third_Party/LoRaWAN/LmHandler/LmHandler.c ****     }
  75              		.loc 1 1212 16 view .LVU13
  76 001a FAE7     		b	.L2
  77              	.L10:
  78              		.align	2
  79              	.L9:
  80 001c 00000000 		.word	.LANCHOR0
  81              		.cfi_endproc
  82              	.LFE124:
  84              		.section	.text.LmHandlerPackagesNotify,"ax",%progbits
  85              		.align	1
  86              		.syntax unified
  87              		.thumb
  88              		.thumb_func
  89              		.fpu softvfp
  91              	LmHandlerPackagesNotify:
  92              	.LVL6:
  93              	.LFB125:
1215:Middlewares/Third_Party/LoRaWAN/LmHandler/LmHandler.c **** 
1216:Middlewares/Third_Party/LoRaWAN/LmHandler/LmHandler.c **** static void LmHandlerPackagesNotify( PackageNotifyTypes_t notifyType, void *params )
1217:Middlewares/Third_Party/LoRaWAN/LmHandler/LmHandler.c **** {
ARM GAS  /tmp/ccIEh1dP.s 			page 24


  94              		.loc 1 1217 1 is_stmt 1 view -0
  95              		.cfi_startproc
  96              		@ args = 0, pretend = 0, frame = 0
  97              		@ frame_needed = 0, uses_anonymous_args = 0
  98              		.loc 1 1217 1 is_stmt 0 view .LVU15
  99 0000 F8B5     		push	{r3, r4, r5, r6, r7, lr}
 100              	.LCFI3:
 101              		.cfi_def_cfa_offset 24
 102              		.cfi_offset 3, -24
 103              		.cfi_offset 4, -20
 104              		.cfi_offset 5, -16
 105              		.cfi_offset 6, -12
 106              		.cfi_offset 7, -8
 107              		.cfi_offset 14, -4
 108 0002 0546     		mov	r5, r0
 109 0004 0F46     		mov	r7, r1
1218:Middlewares/Third_Party/LoRaWAN/LmHandler/LmHandler.c ****     for( int8_t i = 0; i < PKG_MAX_NUMBER; i++ )
 110              		.loc 1 1218 5 is_stmt 1 view .LVU16
 111              	.LBB2:
 112              		.loc 1 1218 10 view .LVU17
 113              	.LVL7:
 114              		.loc 1 1218 17 is_stmt 0 view .LVU18
 115 0006 0024     		movs	r4, #0
 116              		.loc 1 1218 5 view .LVU19
 117 0008 18E0     		b	.L12
 118              	.LVL8:
 119              	.L14:
1219:Middlewares/Third_Party/LoRaWAN/LmHandler/LmHandler.c ****     {
1220:Middlewares/Third_Party/LoRaWAN/LmHandler/LmHandler.c ****         if( LmHandlerPackages[i] != NULL )
1221:Middlewares/Third_Party/LoRaWAN/LmHandler/LmHandler.c ****         {
1222:Middlewares/Third_Party/LoRaWAN/LmHandler/LmHandler.c ****             switch( notifyType )
1223:Middlewares/Third_Party/LoRaWAN/LmHandler/LmHandler.c ****             {
1224:Middlewares/Third_Party/LoRaWAN/LmHandler/LmHandler.c ****                 case PACKAGE_MCPS_CONFIRM:
1225:Middlewares/Third_Party/LoRaWAN/LmHandler/LmHandler.c ****                 {
1226:Middlewares/Third_Party/LoRaWAN/LmHandler/LmHandler.c ****                     if( LmHandlerPackages[i]->OnMcpsConfirmProcess != NULL )
1227:Middlewares/Third_Party/LoRaWAN/LmHandler/LmHandler.c ****                     {
1228:Middlewares/Third_Party/LoRaWAN/LmHandler/LmHandler.c ****                         LmHandlerPackages[i]->OnMcpsConfirmProcess( ( McpsConfirm_t* ) params );
1229:Middlewares/Third_Party/LoRaWAN/LmHandler/LmHandler.c ****                     }
1230:Middlewares/Third_Party/LoRaWAN/LmHandler/LmHandler.c ****                     break;
1231:Middlewares/Third_Party/LoRaWAN/LmHandler/LmHandler.c ****                 }
1232:Middlewares/Third_Party/LoRaWAN/LmHandler/LmHandler.c ****                 case PACKAGE_MCPS_INDICATION:
1233:Middlewares/Third_Party/LoRaWAN/LmHandler/LmHandler.c ****                 {
1234:Middlewares/Third_Party/LoRaWAN/LmHandler/LmHandler.c ****                     if( ( LmHandlerPackages[i]->OnMcpsIndicationProcess != NULL ) &&
 120              		.loc 1 1234 21 is_stmt 1 view .LVU20
 121              		.loc 1 1234 47 is_stmt 0 view .LVU21
 122 000a DA69     		ldr	r2, [r3, #28]
 123              		.loc 1 1234 23 view .LVU22
 124 000c A2B1     		cbz	r2, .L13
1235:Middlewares/Third_Party/LoRaWAN/LmHandler/LmHandler.c ****                         ( ( LmHandlerPackages[i]->Port == ((McpsIndication_t* )params)->Port ) ||
 125              		.loc 1 1235 49 discriminator 1 view .LVU23
 126 000e 1A78     		ldrb	r2, [r3]	@ zero_extendqisi2
 127              		.loc 1 1235 87 discriminator 1 view .LVU24
 128 0010 FB78     		ldrb	r3, [r7, #3]	@ zero_extendqisi2
1234:Middlewares/Third_Party/LoRaWAN/LmHandler/LmHandler.c ****                         ( ( LmHandlerPackages[i]->Port == ((McpsIndication_t* )params)->Port ) ||
 129              		.loc 1 1234 83 discriminator 1 view .LVU25
 130 0012 9A42     		cmp	r2, r3
 131 0014 05D0     		beq	.L16
ARM GAS  /tmp/ccIEh1dP.s 			page 25


 132              		.loc 1 1235 96 view .LVU26
 133 0016 7CB9     		cbnz	r4, .L13
1236:Middlewares/Third_Party/LoRaWAN/LmHandler/LmHandler.c ****                           ( ( i == PACKAGE_ID_COMPLIANCE ) && ( LmHandlerPackages[PACKAGE_ID_COMPLI
 134              		.loc 1 1236 82 view .LVU27
 135 0018 134B     		ldr	r3, .L20
 136 001a 1B68     		ldr	r3, [r3]
 137              		.loc 1 1236 105 view .LVU28
 138 001c DB68     		ldr	r3, [r3, #12]
 139              		.loc 1 1236 65 view .LVU29
 140 001e 9847     		blx	r3
 141              	.LVL9:
 142              		.loc 1 1236 60 view .LVU30
 143 0020 50B1     		cbz	r0, .L13
 144              	.L16:
1237:Middlewares/Third_Party/LoRaWAN/LmHandler/LmHandler.c ****                     {
1238:Middlewares/Third_Party/LoRaWAN/LmHandler/LmHandler.c ****                         LmHandlerPackages[i]->OnMcpsIndicationProcess( ( McpsIndication_t* )params 
 145              		.loc 1 1238 25 is_stmt 1 view .LVU31
 146              		.loc 1 1238 42 is_stmt 0 view .LVU32
 147 0022 114B     		ldr	r3, .L20
 148 0024 53F82630 		ldr	r3, [r3, r6, lsl #2]
 149              		.loc 1 1238 45 view .LVU33
 150 0028 DB69     		ldr	r3, [r3, #28]
 151              		.loc 1 1238 25 view .LVU34
 152 002a 3846     		mov	r0, r7
 153 002c 9847     		blx	r3
 154              	.LVL10:
 155 002e 03E0     		b	.L13
 156              	.L15:
1239:Middlewares/Third_Party/LoRaWAN/LmHandler/LmHandler.c ****                     }
1240:Middlewares/Third_Party/LoRaWAN/LmHandler/LmHandler.c ****                     break;
1241:Middlewares/Third_Party/LoRaWAN/LmHandler/LmHandler.c ****                 }
1242:Middlewares/Third_Party/LoRaWAN/LmHandler/LmHandler.c ****                 case PACKAGE_MLME_CONFIRM:
1243:Middlewares/Third_Party/LoRaWAN/LmHandler/LmHandler.c ****                 {
1244:Middlewares/Third_Party/LoRaWAN/LmHandler/LmHandler.c ****                     if( LmHandlerPackages[i]->OnMlmeConfirmProcess != NULL )
 157              		.loc 1 1244 21 is_stmt 1 view .LVU35
 158              		.loc 1 1244 45 is_stmt 0 view .LVU36
 159 0030 1B6A     		ldr	r3, [r3, #32]
 160              		.loc 1 1244 23 view .LVU37
 161 0032 0BB1     		cbz	r3, .L13
1245:Middlewares/Third_Party/LoRaWAN/LmHandler/LmHandler.c ****                     {
1246:Middlewares/Third_Party/LoRaWAN/LmHandler/LmHandler.c ****                         LmHandlerPackages[i]->OnMlmeConfirmProcess( ( MlmeConfirm_t* )params );
 162              		.loc 1 1246 25 is_stmt 1 view .LVU38
 163 0034 3846     		mov	r0, r7
 164 0036 9847     		blx	r3
 165              	.LVL11:
 166              	.L13:
1218:Middlewares/Third_Party/LoRaWAN/LmHandler/LmHandler.c ****     {
 167              		.loc 1 1218 44 discriminator 2 view .LVU39
1218:Middlewares/Third_Party/LoRaWAN/LmHandler/LmHandler.c ****     {
 168              		.loc 1 1218 45 is_stmt 0 discriminator 2 view .LVU40
 169 0038 0134     		adds	r4, r4, #1
 170              	.LVL12:
1218:Middlewares/Third_Party/LoRaWAN/LmHandler/LmHandler.c ****     {
 171              		.loc 1 1218 45 discriminator 2 view .LVU41
 172 003a 64B2     		sxtb	r4, r4
 173              	.LVL13:
 174              	.L12:
ARM GAS  /tmp/ccIEh1dP.s 			page 26


1218:Middlewares/Third_Party/LoRaWAN/LmHandler/LmHandler.c ****     {
 175              		.loc 1 1218 24 is_stmt 1 discriminator 1 view .LVU42
1218:Middlewares/Third_Party/LoRaWAN/LmHandler/LmHandler.c ****     {
 176              		.loc 1 1218 5 is_stmt 0 discriminator 1 view .LVU43
 177 003c 042C     		cmp	r4, #4
 178 003e 11DC     		bgt	.L19
1220:Middlewares/Third_Party/LoRaWAN/LmHandler/LmHandler.c ****         {
 179              		.loc 1 1220 9 is_stmt 1 view .LVU44
1220:Middlewares/Third_Party/LoRaWAN/LmHandler/LmHandler.c ****         {
 180              		.loc 1 1220 30 is_stmt 0 view .LVU45
 181 0040 2646     		mov	r6, r4
 182 0042 094B     		ldr	r3, .L20
 183 0044 53F82430 		ldr	r3, [r3, r4, lsl #2]
1220:Middlewares/Third_Party/LoRaWAN/LmHandler/LmHandler.c ****         {
 184              		.loc 1 1220 11 view .LVU46
 185 0048 002B     		cmp	r3, #0
 186 004a F5D0     		beq	.L13
1222:Middlewares/Third_Party/LoRaWAN/LmHandler/LmHandler.c ****             {
 187              		.loc 1 1222 13 is_stmt 1 view .LVU47
 188 004c 012D     		cmp	r5, #1
 189 004e DCD0     		beq	.L14
 190 0050 022D     		cmp	r5, #2
 191 0052 EDD0     		beq	.L15
 192 0054 002D     		cmp	r5, #0
 193 0056 EFD1     		bne	.L13
1226:Middlewares/Third_Party/LoRaWAN/LmHandler/LmHandler.c ****                     {
 194              		.loc 1 1226 21 view .LVU48
1226:Middlewares/Third_Party/LoRaWAN/LmHandler/LmHandler.c ****                     {
 195              		.loc 1 1226 45 is_stmt 0 view .LVU49
 196 0058 9B69     		ldr	r3, [r3, #24]
1226:Middlewares/Third_Party/LoRaWAN/LmHandler/LmHandler.c ****                     {
 197              		.loc 1 1226 23 view .LVU50
 198 005a 002B     		cmp	r3, #0
 199 005c ECD0     		beq	.L13
1228:Middlewares/Third_Party/LoRaWAN/LmHandler/LmHandler.c ****                     }
 200              		.loc 1 1228 25 is_stmt 1 view .LVU51
 201 005e 3846     		mov	r0, r7
 202 0060 9847     		blx	r3
 203              	.LVL14:
 204 0062 E9E7     		b	.L13
 205              	.L19:
1228:Middlewares/Third_Party/LoRaWAN/LmHandler/LmHandler.c ****                     }
 206              		.loc 1 1228 25 is_stmt 0 view .LVU52
 207              	.LBE2:
1247:Middlewares/Third_Party/LoRaWAN/LmHandler/LmHandler.c ****                     }
1248:Middlewares/Third_Party/LoRaWAN/LmHandler/LmHandler.c ****                     break;
1249:Middlewares/Third_Party/LoRaWAN/LmHandler/LmHandler.c ****                 }
1250:Middlewares/Third_Party/LoRaWAN/LmHandler/LmHandler.c ****                 default:
1251:Middlewares/Third_Party/LoRaWAN/LmHandler/LmHandler.c ****                 {
1252:Middlewares/Third_Party/LoRaWAN/LmHandler/LmHandler.c ****                     break;
1253:Middlewares/Third_Party/LoRaWAN/LmHandler/LmHandler.c ****                 }
1254:Middlewares/Third_Party/LoRaWAN/LmHandler/LmHandler.c ****             }
1255:Middlewares/Third_Party/LoRaWAN/LmHandler/LmHandler.c ****         }
1256:Middlewares/Third_Party/LoRaWAN/LmHandler/LmHandler.c ****     }
1257:Middlewares/Third_Party/LoRaWAN/LmHandler/LmHandler.c **** }
 208              		.loc 1 1257 1 view .LVU53
 209 0064 F8BD     		pop	{r3, r4, r5, r6, r7, pc}
ARM GAS  /tmp/ccIEh1dP.s 			page 27


 210              	.LVL15:
 211              	.L21:
 212              		.loc 1 1257 1 view .LVU54
 213 0066 00BF     		.align	2
 214              	.L20:
 215 0068 00000000 		.word	.LANCHOR0
 216              		.cfi_endproc
 217              	.LFE125:
 219              		.section	.text.McpsConfirm,"ax",%progbits
 220              		.align	1
 221              		.syntax unified
 222              		.thumb
 223              		.thumb_func
 224              		.fpu softvfp
 226              	McpsConfirm:
 227              	.LVL16:
 228              	.LFB119:
 924:Middlewares/Third_Party/LoRaWAN/LmHandler/LmHandler.c ****     TxParams.IsMcpsConfirm = 1;
 229              		.loc 1 924 1 is_stmt 1 view -0
 230              		.cfi_startproc
 231              		@ args = 0, pretend = 0, frame = 0
 232              		@ frame_needed = 0, uses_anonymous_args = 0
 924:Middlewares/Third_Party/LoRaWAN/LmHandler/LmHandler.c ****     TxParams.IsMcpsConfirm = 1;
 233              		.loc 1 924 1 is_stmt 0 view .LVU56
 234 0000 10B5     		push	{r4, lr}
 235              	.LCFI4:
 236              		.cfi_def_cfa_offset 8
 237              		.cfi_offset 4, -8
 238              		.cfi_offset 14, -4
 239 0002 0446     		mov	r4, r0
 925:Middlewares/Third_Party/LoRaWAN/LmHandler/LmHandler.c ****     TxParams.Status = mcpsConfirm->Status;
 240              		.loc 1 925 5 is_stmt 1 view .LVU57
 925:Middlewares/Third_Party/LoRaWAN/LmHandler/LmHandler.c ****     TxParams.Status = mcpsConfirm->Status;
 241              		.loc 1 925 28 is_stmt 0 view .LVU58
 242 0004 0C48     		ldr	r0, .L24
 243              	.LVL17:
 925:Middlewares/Third_Party/LoRaWAN/LmHandler/LmHandler.c ****     TxParams.Status = mcpsConfirm->Status;
 244              		.loc 1 925 28 view .LVU59
 245 0006 0123     		movs	r3, #1
 246 0008 0370     		strb	r3, [r0]
 926:Middlewares/Third_Party/LoRaWAN/LmHandler/LmHandler.c ****     TxParams.Datarate = mcpsConfirm->Datarate;
 247              		.loc 1 926 5 is_stmt 1 view .LVU60
 926:Middlewares/Third_Party/LoRaWAN/LmHandler/LmHandler.c ****     TxParams.Datarate = mcpsConfirm->Datarate;
 248              		.loc 1 926 34 is_stmt 0 view .LVU61
 249 000a 6378     		ldrb	r3, [r4, #1]	@ zero_extendqisi2
 926:Middlewares/Third_Party/LoRaWAN/LmHandler/LmHandler.c ****     TxParams.Datarate = mcpsConfirm->Datarate;
 250              		.loc 1 926 21 view .LVU62
 251 000c 4370     		strb	r3, [r0, #1]
 927:Middlewares/Third_Party/LoRaWAN/LmHandler/LmHandler.c ****     TxParams.UplinkCounter = mcpsConfirm->UpLinkCounter;
 252              		.loc 1 927 5 is_stmt 1 view .LVU63
 927:Middlewares/Third_Party/LoRaWAN/LmHandler/LmHandler.c ****     TxParams.UplinkCounter = mcpsConfirm->UpLinkCounter;
 253              		.loc 1 927 36 is_stmt 0 view .LVU64
 254 000e 94F90230 		ldrsb	r3, [r4, #2]
 927:Middlewares/Third_Party/LoRaWAN/LmHandler/LmHandler.c ****     TxParams.UplinkCounter = mcpsConfirm->UpLinkCounter;
 255              		.loc 1 927 23 view .LVU65
 256 0012 0371     		strb	r3, [r0, #4]
 928:Middlewares/Third_Party/LoRaWAN/LmHandler/LmHandler.c ****     TxParams.TxPower = mcpsConfirm->TxPower;
ARM GAS  /tmp/ccIEh1dP.s 			page 28


 257              		.loc 1 928 5 is_stmt 1 view .LVU66
 928:Middlewares/Third_Party/LoRaWAN/LmHandler/LmHandler.c ****     TxParams.TxPower = mcpsConfirm->TxPower;
 258              		.loc 1 928 41 is_stmt 0 view .LVU67
 259 0014 E368     		ldr	r3, [r4, #12]
 928:Middlewares/Third_Party/LoRaWAN/LmHandler/LmHandler.c ****     TxParams.TxPower = mcpsConfirm->TxPower;
 260              		.loc 1 928 28 view .LVU68
 261 0016 8360     		str	r3, [r0, #8]
 929:Middlewares/Third_Party/LoRaWAN/LmHandler/LmHandler.c ****     TxParams.Channel = mcpsConfirm->Channel;
 262              		.loc 1 929 5 is_stmt 1 view .LVU69
 929:Middlewares/Third_Party/LoRaWAN/LmHandler/LmHandler.c ****     TxParams.Channel = mcpsConfirm->Channel;
 263              		.loc 1 929 35 is_stmt 0 view .LVU70
 264 0018 94F90330 		ldrsb	r3, [r4, #3]
 929:Middlewares/Third_Party/LoRaWAN/LmHandler/LmHandler.c ****     TxParams.Channel = mcpsConfirm->Channel;
 265              		.loc 1 929 22 view .LVU71
 266 001c 0375     		strb	r3, [r0, #20]
 930:Middlewares/Third_Party/LoRaWAN/LmHandler/LmHandler.c ****     TxParams.AckReceived = mcpsConfirm->AckReceived;
 267              		.loc 1 930 5 is_stmt 1 view .LVU72
 930:Middlewares/Third_Party/LoRaWAN/LmHandler/LmHandler.c ****     TxParams.AckReceived = mcpsConfirm->AckReceived;
 268              		.loc 1 930 35 is_stmt 0 view .LVU73
 269 001e 2369     		ldr	r3, [r4, #16]
 930:Middlewares/Third_Party/LoRaWAN/LmHandler/LmHandler.c ****     TxParams.AckReceived = mcpsConfirm->AckReceived;
 270              		.loc 1 930 22 view .LVU74
 271 0020 4375     		strb	r3, [r0, #21]
 931:Middlewares/Third_Party/LoRaWAN/LmHandler/LmHandler.c **** 
 272              		.loc 1 931 5 is_stmt 1 view .LVU75
 931:Middlewares/Third_Party/LoRaWAN/LmHandler/LmHandler.c **** 
 273              		.loc 1 931 39 is_stmt 0 view .LVU76
 274 0022 2379     		ldrb	r3, [r4, #4]	@ zero_extendqisi2
 931:Middlewares/Third_Party/LoRaWAN/LmHandler/LmHandler.c **** 
 275              		.loc 1 931 26 view .LVU77
 276 0024 C370     		strb	r3, [r0, #3]
 933:Middlewares/Third_Party/LoRaWAN/LmHandler/LmHandler.c **** 
 277              		.loc 1 933 5 is_stmt 1 view .LVU78
 933:Middlewares/Third_Party/LoRaWAN/LmHandler/LmHandler.c **** 
 278              		.loc 1 933 23 is_stmt 0 view .LVU79
 279 0026 054B     		ldr	r3, .L24+4
 280 0028 1B68     		ldr	r3, [r3]
 281 002a 1B6A     		ldr	r3, [r3, #32]
 933:Middlewares/Third_Party/LoRaWAN/LmHandler/LmHandler.c **** 
 282              		.loc 1 933 5 view .LVU80
 283 002c 9847     		blx	r3
 284              	.LVL18:
 935:Middlewares/Third_Party/LoRaWAN/LmHandler/LmHandler.c **** }
 285              		.loc 1 935 5 is_stmt 1 view .LVU81
 286 002e 2146     		mov	r1, r4
 287 0030 0020     		movs	r0, #0
 288 0032 FFF7FEFF 		bl	LmHandlerPackagesNotify
 289              	.LVL19:
 936:Middlewares/Third_Party/LoRaWAN/LmHandler/LmHandler.c **** 
 290              		.loc 1 936 1 is_stmt 0 view .LVU82
 291 0036 10BD     		pop	{r4, pc}
 292              	.LVL20:
 293              	.L25:
 936:Middlewares/Third_Party/LoRaWAN/LmHandler/LmHandler.c **** 
 294              		.loc 1 936 1 view .LVU83
 295              		.align	2
 296              	.L24:
ARM GAS  /tmp/ccIEh1dP.s 			page 29


 297 0038 00000000 		.word	.LANCHOR1
 298 003c 00000000 		.word	.LANCHOR2
 299              		.cfi_endproc
 300              	.LFE119:
 302              		.section	.text.LmHandlerPackagesProcess,"ax",%progbits
 303              		.align	1
 304              		.syntax unified
 305              		.thumb
 306              		.thumb_func
 307              		.fpu softvfp
 309              	LmHandlerPackagesProcess:
 310              	.LFB126:
1258:Middlewares/Third_Party/LoRaWAN/LmHandler/LmHandler.c **** 
1259:Middlewares/Third_Party/LoRaWAN/LmHandler/LmHandler.c **** static void LmHandlerPackagesProcess( void )
1260:Middlewares/Third_Party/LoRaWAN/LmHandler/LmHandler.c **** {
 311              		.loc 1 1260 1 is_stmt 1 view -0
 312              		.cfi_startproc
 313              		@ args = 0, pretend = 0, frame = 0
 314              		@ frame_needed = 0, uses_anonymous_args = 0
 315 0000 38B5     		push	{r3, r4, r5, lr}
 316              	.LCFI5:
 317              		.cfi_def_cfa_offset 16
 318              		.cfi_offset 3, -16
 319              		.cfi_offset 4, -12
 320              		.cfi_offset 5, -8
 321              		.cfi_offset 14, -4
1261:Middlewares/Third_Party/LoRaWAN/LmHandler/LmHandler.c ****     for( int8_t i = 0; i < PKG_MAX_NUMBER; i++ )
 322              		.loc 1 1261 5 view .LVU85
 323              	.LBB3:
 324              		.loc 1 1261 10 view .LVU86
 325              	.LVL21:
 326              		.loc 1 1261 17 is_stmt 0 view .LVU87
 327 0002 0024     		movs	r4, #0
 328              		.loc 1 1261 5 view .LVU88
 329 0004 01E0     		b	.L27
 330              	.LVL22:
 331              	.L28:
 332              		.loc 1 1261 44 is_stmt 1 discriminator 2 view .LVU89
 333              		.loc 1 1261 45 is_stmt 0 discriminator 2 view .LVU90
 334 0006 0134     		adds	r4, r4, #1
 335              	.LVL23:
 336              		.loc 1 1261 45 discriminator 2 view .LVU91
 337 0008 64B2     		sxtb	r4, r4
 338              	.LVL24:
 339              	.L27:
 340              		.loc 1 1261 24 is_stmt 1 discriminator 1 view .LVU92
 341              		.loc 1 1261 5 is_stmt 0 discriminator 1 view .LVU93
 342 000a 042C     		cmp	r4, #4
 343 000c 12DC     		bgt	.L31
1262:Middlewares/Third_Party/LoRaWAN/LmHandler/LmHandler.c ****     {
1263:Middlewares/Third_Party/LoRaWAN/LmHandler/LmHandler.c ****         if( ( LmHandlerPackages[i] != NULL ) &&
 344              		.loc 1 1263 9 is_stmt 1 view .LVU94
 345              		.loc 1 1263 32 is_stmt 0 view .LVU95
 346 000e 0A4B     		ldr	r3, .L32
 347 0010 53F82430 		ldr	r3, [r3, r4, lsl #2]
 348              		.loc 1 1263 11 view .LVU96
 349 0014 002B     		cmp	r3, #0
ARM GAS  /tmp/ccIEh1dP.s 			page 30


 350 0016 F6D0     		beq	.L28
1264:Middlewares/Third_Party/LoRaWAN/LmHandler/LmHandler.c ****             ( LmHandlerPackages[i]->Process != NULL ) &&
 351              		.loc 1 1264 35 discriminator 1 view .LVU97
 352 0018 1B69     		ldr	r3, [r3, #16]
1263:Middlewares/Third_Party/LoRaWAN/LmHandler/LmHandler.c ****             ( LmHandlerPackages[i]->Process != NULL ) &&
 353              		.loc 1 1263 46 discriminator 1 view .LVU98
 354 001a 002B     		cmp	r3, #0
 355 001c F3D0     		beq	.L28
1265:Middlewares/Third_Party/LoRaWAN/LmHandler/LmHandler.c ****             ( LmHandlerPackageIsInitialized( i ) != false ) )
 356              		.loc 1 1265 15 view .LVU99
 357 001e E0B2     		uxtb	r0, r4
 358 0020 FFF7FEFF 		bl	LmHandlerPackageIsInitialized
 359              	.LVL25:
1264:Middlewares/Third_Party/LoRaWAN/LmHandler/LmHandler.c ****             ( LmHandlerPackages[i]->Process != NULL ) &&
 360              		.loc 1 1264 55 view .LVU100
 361 0024 0028     		cmp	r0, #0
 362 0026 EED0     		beq	.L28
1266:Middlewares/Third_Party/LoRaWAN/LmHandler/LmHandler.c ****         {
1267:Middlewares/Third_Party/LoRaWAN/LmHandler/LmHandler.c ****             LmHandlerPackages[i]->Process( );
 363              		.loc 1 1267 13 is_stmt 1 view .LVU101
 364              		.loc 1 1267 30 is_stmt 0 view .LVU102
 365 0028 034B     		ldr	r3, .L32
 366 002a 53F82430 		ldr	r3, [r3, r4, lsl #2]
 367              		.loc 1 1267 33 view .LVU103
 368 002e 1B69     		ldr	r3, [r3, #16]
 369              		.loc 1 1267 13 view .LVU104
 370 0030 9847     		blx	r3
 371              	.LVL26:
 372 0032 E8E7     		b	.L28
 373              	.L31:
 374              	.LBE3:
1268:Middlewares/Third_Party/LoRaWAN/LmHandler/LmHandler.c ****         }
1269:Middlewares/Third_Party/LoRaWAN/LmHandler/LmHandler.c ****     }
1270:Middlewares/Third_Party/LoRaWAN/LmHandler/LmHandler.c **** }
 375              		.loc 1 1270 1 view .LVU105
 376 0034 38BD     		pop	{r3, r4, r5, pc}
 377              	.LVL27:
 378              	.L33:
 379              		.loc 1 1270 1 view .LVU106
 380 0036 00BF     		.align	2
 381              	.L32:
 382 0038 00000000 		.word	.LANCHOR0
 383              		.cfi_endproc
 384              	.LFE126:
 386              		.section	.text.LmHandlerSetSystemMaxRxError,"ax",%progbits
 387              		.align	1
 388              		.syntax unified
 389              		.thumb
 390              		.thumb_func
 391              		.fpu softvfp
 393              	LmHandlerSetSystemMaxRxError:
 394              	.LVL28:
 395              	.LFB118:
 905:Middlewares/Third_Party/LoRaWAN/LmHandler/LmHandler.c ****     MibRequestConfirm_t mibReq;
 396              		.loc 1 905 1 is_stmt 1 view -0
 397              		.cfi_startproc
 398              		@ args = 0, pretend = 0, frame = 40
ARM GAS  /tmp/ccIEh1dP.s 			page 31


 399              		@ frame_needed = 0, uses_anonymous_args = 0
 905:Middlewares/Third_Party/LoRaWAN/LmHandler/LmHandler.c ****     MibRequestConfirm_t mibReq;
 400              		.loc 1 905 1 is_stmt 0 view .LVU108
 401 0000 00B5     		push	{lr}
 402              	.LCFI6:
 403              		.cfi_def_cfa_offset 4
 404              		.cfi_offset 14, -4
 405 0002 8BB0     		sub	sp, sp, #44
 406              	.LCFI7:
 407              		.cfi_def_cfa_offset 48
 906:Middlewares/Third_Party/LoRaWAN/LmHandler/LmHandler.c **** 
 408              		.loc 1 906 5 is_stmt 1 view .LVU109
 908:Middlewares/Third_Party/LoRaWAN/LmHandler/LmHandler.c ****     mibReq.Param.SystemMaxRxError = maxErrorInMs;
 409              		.loc 1 908 5 view .LVU110
 908:Middlewares/Third_Party/LoRaWAN/LmHandler/LmHandler.c ****     mibReq.Param.SystemMaxRxError = maxErrorInMs;
 410              		.loc 1 908 17 is_stmt 0 view .LVU111
 411 0004 2223     		movs	r3, #34
 412 0006 8DF80430 		strb	r3, [sp, #4]
 909:Middlewares/Third_Party/LoRaWAN/LmHandler/LmHandler.c ****     if( LoRaMacMibSetRequestConfirm( &mibReq ) != LORAMAC_STATUS_OK )
 413              		.loc 1 909 5 is_stmt 1 view .LVU112
 909:Middlewares/Third_Party/LoRaWAN/LmHandler/LmHandler.c ****     if( LoRaMacMibSetRequestConfirm( &mibReq ) != LORAMAC_STATUS_OK )
 414              		.loc 1 909 35 is_stmt 0 view .LVU113
 415 000a 0290     		str	r0, [sp, #8]
 910:Middlewares/Third_Party/LoRaWAN/LmHandler/LmHandler.c ****     {
 416              		.loc 1 910 5 is_stmt 1 view .LVU114
 910:Middlewares/Third_Party/LoRaWAN/LmHandler/LmHandler.c ****     {
 417              		.loc 1 910 9 is_stmt 0 view .LVU115
 418 000c 01A8     		add	r0, sp, #4
 419              	.LVL29:
 910:Middlewares/Third_Party/LoRaWAN/LmHandler/LmHandler.c ****     {
 420              		.loc 1 910 9 view .LVU116
 421 000e FFF7FEFF 		bl	LoRaMacMibSetRequestConfirm
 422              	.LVL30:
 910:Middlewares/Third_Party/LoRaWAN/LmHandler/LmHandler.c ****     {
 423              		.loc 1 910 7 view .LVU117
 424 0012 10B9     		cbnz	r0, .L38
 425              	.L35:
 915:Middlewares/Third_Party/LoRaWAN/LmHandler/LmHandler.c **** 
 426              		.loc 1 915 1 view .LVU118
 427 0014 0BB0     		add	sp, sp, #44
 428              	.LCFI8:
 429              		.cfi_remember_state
 430              		.cfi_def_cfa_offset 4
 431              		@ sp needed
 432 0016 5DF804FB 		ldr	pc, [sp], #4
 433              	.L38:
 434              	.LCFI9:
 435              		.cfi_restore_state
 912:Middlewares/Third_Party/LoRaWAN/LmHandler/LmHandler.c ****     }
 436              		.loc 1 912 16 view .LVU119
 437 001a 4FF0FF30 		mov	r0, #-1
 438 001e F9E7     		b	.L35
 439              		.cfi_endproc
 440              	.LFE118:
 442              		.section	.text.LmHandlerDeviceTimeReq,"ax",%progbits
 443              		.align	1
 444              		.global	LmHandlerDeviceTimeReq
ARM GAS  /tmp/ccIEh1dP.s 			page 32


 445              		.syntax unified
 446              		.thumb
 447              		.thumb_func
 448              		.fpu softvfp
 450              	LmHandlerDeviceTimeReq:
 451              	.LFB113:
 689:Middlewares/Third_Party/LoRaWAN/LmHandler/LmHandler.c ****     LoRaMacStatus_t status;
 452              		.loc 1 689 1 is_stmt 1 view -0
 453              		.cfi_startproc
 454              		@ args = 0, pretend = 0, frame = 24
 455              		@ frame_needed = 0, uses_anonymous_args = 0
 456 0000 00B5     		push	{lr}
 457              	.LCFI10:
 458              		.cfi_def_cfa_offset 4
 459              		.cfi_offset 14, -4
 460 0002 87B0     		sub	sp, sp, #28
 461              	.LCFI11:
 462              		.cfi_def_cfa_offset 32
 690:Middlewares/Third_Party/LoRaWAN/LmHandler/LmHandler.c ****     MlmeReq_t mlmeReq;
 463              		.loc 1 690 5 view .LVU121
 691:Middlewares/Third_Party/LoRaWAN/LmHandler/LmHandler.c **** 
 464              		.loc 1 691 5 view .LVU122
 693:Middlewares/Third_Party/LoRaWAN/LmHandler/LmHandler.c **** 
 465              		.loc 1 693 5 view .LVU123
 693:Middlewares/Third_Party/LoRaWAN/LmHandler/LmHandler.c **** 
 466              		.loc 1 693 18 is_stmt 0 view .LVU124
 467 0004 0A23     		movs	r3, #10
 468 0006 8DF80430 		strb	r3, [sp, #4]
 695:Middlewares/Third_Party/LoRaWAN/LmHandler/LmHandler.c **** 
 469              		.loc 1 695 5 is_stmt 1 view .LVU125
 695:Middlewares/Third_Party/LoRaWAN/LmHandler/LmHandler.c **** 
 470              		.loc 1 695 14 is_stmt 0 view .LVU126
 471 000a 01A8     		add	r0, sp, #4
 472 000c FFF7FEFF 		bl	LoRaMacMlmeRequest
 473              	.LVL31:
 697:Middlewares/Third_Party/LoRaWAN/LmHandler/LmHandler.c ****     {
 474              		.loc 1 697 5 is_stmt 1 view .LVU127
 697:Middlewares/Third_Party/LoRaWAN/LmHandler/LmHandler.c ****     {
 475              		.loc 1 697 7 is_stmt 0 view .LVU128
 476 0010 10B9     		cbnz	r0, .L43
 477              	.LVL32:
 478              	.L40:
 705:Middlewares/Third_Party/LoRaWAN/LmHandler/LmHandler.c **** 
 479              		.loc 1 705 1 view .LVU129
 480 0012 07B0     		add	sp, sp, #28
 481              	.LCFI12:
 482              		.cfi_remember_state
 483              		.cfi_def_cfa_offset 4
 484              		@ sp needed
 485 0014 5DF804FB 		ldr	pc, [sp], #4
 486              	.LVL33:
 487              	.L43:
 488              	.LCFI13:
 489              		.cfi_restore_state
 703:Middlewares/Third_Party/LoRaWAN/LmHandler/LmHandler.c ****     }
 490              		.loc 1 703 16 view .LVU130
 491 0018 4FF0FF30 		mov	r0, #-1
ARM GAS  /tmp/ccIEh1dP.s 			page 33


 492              	.LVL34:
 703:Middlewares/Third_Party/LoRaWAN/LmHandler/LmHandler.c ****     }
 493              		.loc 1 703 16 view .LVU131
 494 001c F9E7     		b	.L40
 495              		.cfi_endproc
 496              	.LFE113:
 498              		.section	.text.LmHandlerConfigure,"ax",%progbits
 499              		.align	1
 500              		.global	LmHandlerConfigure
 501              		.syntax unified
 502              		.thumb
 503              		.thumb_func
 504              		.fpu softvfp
 506              	LmHandlerConfigure:
 507              	.LVL35:
 508              	.LFB105:
 332:Middlewares/Third_Party/LoRaWAN/LmHandler/LmHandler.c ****     uint16_t nbNvmData = 0;
 509              		.loc 1 332 1 is_stmt 1 view -0
 510              		.cfi_startproc
 511              		@ args = 0, pretend = 0, frame = 48
 512              		@ frame_needed = 0, uses_anonymous_args = 0
 332:Middlewares/Third_Party/LoRaWAN/LmHandler/LmHandler.c ****     uint16_t nbNvmData = 0;
 513              		.loc 1 332 1 is_stmt 0 view .LVU133
 514 0000 70B5     		push	{r4, r5, r6, lr}
 515              	.LCFI14:
 516              		.cfi_def_cfa_offset 16
 517              		.cfi_offset 4, -16
 518              		.cfi_offset 5, -12
 519              		.cfi_offset 6, -8
 520              		.cfi_offset 14, -4
 521 0002 8CB0     		sub	sp, sp, #48
 522              	.LCFI15:
 523              		.cfi_def_cfa_offset 64
 524 0004 0146     		mov	r1, r0
 333:Middlewares/Third_Party/LoRaWAN/LmHandler/LmHandler.c ****     MibRequestConfirm_t mibReq;
 525              		.loc 1 333 5 is_stmt 1 view .LVU134
 526              	.LVL36:
 334:Middlewares/Third_Party/LoRaWAN/LmHandler/LmHandler.c ****     LoraInfo_t *loraInfo;
 527              		.loc 1 334 5 view .LVU135
 335:Middlewares/Third_Party/LoRaWAN/LmHandler/LmHandler.c **** 
 528              		.loc 1 335 5 view .LVU136
 337:Middlewares/Third_Party/LoRaWAN/LmHandler/LmHandler.c **** 
 529              		.loc 1 337 5 view .LVU137
 530 0006 3E4C     		ldr	r4, .L55
 531 0008 1022     		movs	r2, #16
 532 000a 2046     		mov	r0, r4
 533              	.LVL37:
 337:Middlewares/Third_Party/LoRaWAN/LmHandler/LmHandler.c **** 
 534              		.loc 1 337 5 is_stmt 0 view .LVU138
 535 000c FFF7FEFF 		bl	UTIL_MEM_cpy_8
 536              	.LVL38:
 343:Middlewares/Third_Party/LoRaWAN/LmHandler/LmHandler.c **** 
 537              		.loc 1 343 5 is_stmt 1 view .LVU139
 343:Middlewares/Third_Party/LoRaWAN/LmHandler/LmHandler.c **** 
 538              		.loc 1 343 16 is_stmt 0 view .LVU140
 539 0010 FFF7FEFF 		bl	LoraInfo_GetPtr
 540              	.LVL39:
ARM GAS  /tmp/ccIEh1dP.s 			page 34


 345:Middlewares/Third_Party/LoRaWAN/LmHandler/LmHandler.c ****     {
 541              		.loc 1 345 5 is_stmt 1 view .LVU141
 345:Middlewares/Third_Party/LoRaWAN/LmHandler/LmHandler.c ****     {
 542              		.loc 1 345 38 is_stmt 0 view .LVU142
 543 0014 2278     		ldrb	r2, [r4]	@ zero_extendqisi2
 345:Middlewares/Third_Party/LoRaWAN/LmHandler/LmHandler.c ****     {
 544              		.loc 1 345 19 view .LVU143
 545 0016 0123     		movs	r3, #1
 546 0018 9340     		lsls	r3, r3, r2
 345:Middlewares/Third_Party/LoRaWAN/LmHandler/LmHandler.c ****     {
 547              		.loc 1 345 65 view .LVU144
 548 001a 4168     		ldr	r1, [r0, #4]
 345:Middlewares/Third_Party/LoRaWAN/LmHandler/LmHandler.c ****     {
 549              		.loc 1 345 8 view .LVU145
 550 001c 0B42     		tst	r3, r1
 551 001e 00D1     		bne	.L53
 552              	.L45:
 354:Middlewares/Third_Party/LoRaWAN/LmHandler/LmHandler.c ****         while (1) {}  /* error: Region is not defined in the MW */
 553              		.loc 1 354 115 is_stmt 1 discriminator 1 view .LVU146
 355:Middlewares/Third_Party/LoRaWAN/LmHandler/LmHandler.c ****     }
 554              		.loc 1 355 9 discriminator 1 view .LVU147
 355:Middlewares/Third_Party/LoRaWAN/LmHandler/LmHandler.c ****     }
 555              		.loc 1 355 20 discriminator 1 view .LVU148
 355:Middlewares/Third_Party/LoRaWAN/LmHandler/LmHandler.c ****     }
 556              		.loc 1 355 15 discriminator 1 view .LVU149
 557 0020 FEE7     		b	.L45
 558              	.L53:
 347:Middlewares/Third_Party/LoRaWAN/LmHandler/LmHandler.c ****         {
 559              		.loc 1 347 9 view .LVU150
 347:Middlewares/Third_Party/LoRaWAN/LmHandler/LmHandler.c ****         {
 560              		.loc 1 347 13 is_stmt 0 view .LVU151
 561 0022 3849     		ldr	r1, .L55+4
 562 0024 3848     		ldr	r0, .L55+8
 563              	.LVL40:
 347:Middlewares/Third_Party/LoRaWAN/LmHandler/LmHandler.c ****         {
 564              		.loc 1 347 13 view .LVU152
 565 0026 FFF7FEFF 		bl	LoRaMacInitialization
 566              	.LVL41:
 347:Middlewares/Third_Party/LoRaWAN/LmHandler/LmHandler.c ****         {
 567              		.loc 1 347 12 view .LVU153
 568 002a 0028     		cmp	r0, #0
 569 002c 64D1     		bne	.L54
 359:Middlewares/Third_Party/LoRaWAN/LmHandler/LmHandler.c **** 
 570              		.loc 1 359 5 is_stmt 1 view .LVU154
 359:Middlewares/Third_Party/LoRaWAN/LmHandler/LmHandler.c **** 
 571              		.loc 1 359 17 is_stmt 0 view .LVU155
 572 002e FFF7FEFF 		bl	NvmDataMgmtRestore
 573              	.LVL42:
 362:Middlewares/Third_Party/LoRaWAN/LmHandler/LmHandler.c ****     {
 574              		.loc 1 362 5 is_stmt 1 view .LVU156
 362:Middlewares/Third_Party/LoRaWAN/LmHandler/LmHandler.c ****     {
 575              		.loc 1 362 7 is_stmt 0 view .LVU157
 576 0032 0028     		cmp	r0, #0
 577 0034 5CD0     		beq	.L48
 364:Middlewares/Third_Party/LoRaWAN/LmHandler/LmHandler.c ****     }
 578              		.loc 1 364 9 is_stmt 1 view .LVU158
 364:Middlewares/Third_Party/LoRaWAN/LmHandler/LmHandler.c ****     }
ARM GAS  /tmp/ccIEh1dP.s 			page 35


 579              		.loc 1 364 24 is_stmt 0 view .LVU159
 580 0036 354B     		ldr	r3, .L55+12
 581 0038 0122     		movs	r2, #1
 582 003a 1A70     		strb	r2, [r3]
 583              	.L49:
 372:Middlewares/Third_Party/LoRaWAN/LmHandler/LmHandler.c ****     LoRaMacMibGetRequestConfirm( &mibReq );
 584              		.loc 1 372 5 is_stmt 1 view .LVU160
 372:Middlewares/Third_Party/LoRaWAN/LmHandler/LmHandler.c ****     LoRaMacMibGetRequestConfirm( &mibReq );
 585              		.loc 1 372 17 is_stmt 0 view .LVU161
 586 003c 0223     		movs	r3, #2
 587 003e 8DF80C30 		strb	r3, [sp, #12]
 373:Middlewares/Third_Party/LoRaWAN/LmHandler/LmHandler.c ****     memcpy1( CommissioningParams.DevEui, mibReq.Param.DevEui, 8 );
 588              		.loc 1 373 5 is_stmt 1 view .LVU162
 589 0042 03A8     		add	r0, sp, #12
 590              	.LVL43:
 373:Middlewares/Third_Party/LoRaWAN/LmHandler/LmHandler.c ****     memcpy1( CommissioningParams.DevEui, mibReq.Param.DevEui, 8 );
 591              		.loc 1 373 5 is_stmt 0 view .LVU163
 592 0044 FFF7FEFF 		bl	LoRaMacMibGetRequestConfirm
 593              	.LVL44:
 374:Middlewares/Third_Party/LoRaWAN/LmHandler/LmHandler.c **** 
 594              		.loc 1 374 5 is_stmt 1 view .LVU164
 595 0048 314C     		ldr	r4, .L55+16
 596 004a 0822     		movs	r2, #8
 597 004c 0499     		ldr	r1, [sp, #16]
 598 004e 2046     		mov	r0, r4
 599 0050 FFF7FEFF 		bl	memcpy1
 600              	.LVL45:
 376:Middlewares/Third_Party/LoRaWAN/LmHandler/LmHandler.c ****     LoRaMacMibGetRequestConfirm( &mibReq );
 601              		.loc 1 376 5 view .LVU165
 376:Middlewares/Third_Party/LoRaWAN/LmHandler/LmHandler.c ****     LoRaMacMibGetRequestConfirm( &mibReq );
 602              		.loc 1 376 17 is_stmt 0 view .LVU166
 603 0054 0323     		movs	r3, #3
 604 0056 8DF80C30 		strb	r3, [sp, #12]
 377:Middlewares/Third_Party/LoRaWAN/LmHandler/LmHandler.c ****     memcpy1( CommissioningParams.JoinEui, mibReq.Param.JoinEui, 8 );
 605              		.loc 1 377 5 is_stmt 1 view .LVU167
 606 005a 03A8     		add	r0, sp, #12
 607 005c FFF7FEFF 		bl	LoRaMacMibGetRequestConfirm
 608              	.LVL46:
 378:Middlewares/Third_Party/LoRaWAN/LmHandler/LmHandler.c **** 
 609              		.loc 1 378 5 view .LVU168
 610 0060 0822     		movs	r2, #8
 611 0062 0499     		ldr	r1, [sp, #16]
 612 0064 A018     		adds	r0, r4, r2
 613 0066 FFF7FEFF 		bl	memcpy1
 614              	.LVL47:
 381:Middlewares/Third_Party/LoRaWAN/LmHandler/LmHandler.c **** #endif /* STATIC_DEVICE_ADDRESS != 1 */
 615              		.loc 1 381 5 view .LVU169
 381:Middlewares/Third_Party/LoRaWAN/LmHandler/LmHandler.c **** #endif /* STATIC_DEVICE_ADDRESS != 1 */
 616              		.loc 1 381 53 is_stmt 0 view .LVU170
 617 006a 2A4B     		ldr	r3, .L55+20
 618 006c 1B68     		ldr	r3, [r3]
 619 006e DB68     		ldr	r3, [r3, #12]
 381:Middlewares/Third_Party/LoRaWAN/LmHandler/LmHandler.c **** #endif /* STATIC_DEVICE_ADDRESS != 1 */
 620              		.loc 1 381 35 view .LVU171
 621 0070 9847     		blx	r3
 622              	.LVL48:
 381:Middlewares/Third_Party/LoRaWAN/LmHandler/LmHandler.c **** #endif /* STATIC_DEVICE_ADDRESS != 1 */
ARM GAS  /tmp/ccIEh1dP.s 			page 36


 623              		.loc 1 381 33 view .LVU172
 624 0072 6061     		str	r0, [r4, #20]
 384:Middlewares/Third_Party/LoRaWAN/LmHandler/LmHandler.c ****     mibReq.Param.DevAddr = CommissioningParams.DevAddr;
 625              		.loc 1 384 5 is_stmt 1 view .LVU173
 384:Middlewares/Third_Party/LoRaWAN/LmHandler/LmHandler.c ****     mibReq.Param.DevAddr = CommissioningParams.DevAddr;
 626              		.loc 1 384 17 is_stmt 0 view .LVU174
 627 0074 0623     		movs	r3, #6
 628 0076 8DF80C30 		strb	r3, [sp, #12]
 385:Middlewares/Third_Party/LoRaWAN/LmHandler/LmHandler.c ****     LoRaMacMibSetRequestConfirm(&mibReq);
 629              		.loc 1 385 5 is_stmt 1 view .LVU175
 385:Middlewares/Third_Party/LoRaWAN/LmHandler/LmHandler.c ****     LoRaMacMibSetRequestConfirm(&mibReq);
 630              		.loc 1 385 26 is_stmt 0 view .LVU176
 631 007a 0490     		str	r0, [sp, #16]
 386:Middlewares/Third_Party/LoRaWAN/LmHandler/LmHandler.c **** 
 632              		.loc 1 386 5 is_stmt 1 view .LVU177
 633 007c 03A8     		add	r0, sp, #12
 634 007e FFF7FEFF 		bl	LoRaMacMibSetRequestConfirm
 635              	.LVL49:
 389:Middlewares/Third_Party/LoRaWAN/LmHandler/LmHandler.c ****     MW_LOG(TS_OFF, VLEVEL_M, "###### AppEui:  %02X:%02X:%02X:%02X:%02X:%02X:%02X:%02X\r\n",
 636              		.loc 1 389 45 view .LVU178
 391:Middlewares/Third_Party/LoRaWAN/LmHandler/LmHandler.c ****     MW_LOG(TS_OFF, VLEVEL_M, "###### DevAddr: %02X:%02X:%02X:%02X\r\n",
 637              		.loc 1 391 46 view .LVU179
 396:Middlewares/Third_Party/LoRaWAN/LmHandler/LmHandler.c **** 
 638              		.loc 1 396 75 view .LVU180
 402:Middlewares/Third_Party/LoRaWAN/LmHandler/LmHandler.c ****     mibReq.Param.EnablePublicNetwork = LORAWAN_PUBLIC_NETWORK;
 639              		.loc 1 402 5 view .LVU181
 402:Middlewares/Third_Party/LoRaWAN/LmHandler/LmHandler.c ****     mibReq.Param.EnablePublicNetwork = LORAWAN_PUBLIC_NETWORK;
 640              		.loc 1 402 17 is_stmt 0 view .LVU182
 641 0082 0F26     		movs	r6, #15
 642 0084 8DF80C60 		strb	r6, [sp, #12]
 403:Middlewares/Third_Party/LoRaWAN/LmHandler/LmHandler.c ****     LoRaMacMibSetRequestConfirm(&mibReq);
 643              		.loc 1 403 5 is_stmt 1 view .LVU183
 403:Middlewares/Third_Party/LoRaWAN/LmHandler/LmHandler.c ****     LoRaMacMibSetRequestConfirm(&mibReq);
 644              		.loc 1 403 38 is_stmt 0 view .LVU184
 645 0088 0123     		movs	r3, #1
 646 008a 8DF81030 		strb	r3, [sp, #16]
 404:Middlewares/Third_Party/LoRaWAN/LmHandler/LmHandler.c **** 
 647              		.loc 1 404 5 is_stmt 1 view .LVU185
 648 008e 03A8     		add	r0, sp, #12
 649 0090 FFF7FEFF 		bl	LoRaMacMibSetRequestConfirm
 650              	.LVL50:
 406:Middlewares/Third_Party/LoRaWAN/LmHandler/LmHandler.c ****     mibReq.Param.NetID = LORAWAN_NETWORK_ID;
 651              		.loc 1 406 5 view .LVU186
 406:Middlewares/Third_Party/LoRaWAN/LmHandler/LmHandler.c ****     mibReq.Param.NetID = LORAWAN_NETWORK_ID;
 652              		.loc 1 406 17 is_stmt 0 view .LVU187
 653 0094 0523     		movs	r3, #5
 654 0096 8DF80C30 		strb	r3, [sp, #12]
 407:Middlewares/Third_Party/LoRaWAN/LmHandler/LmHandler.c ****     LoRaMacMibSetRequestConfirm(&mibReq);
 655              		.loc 1 407 5 is_stmt 1 view .LVU188
 407:Middlewares/Third_Party/LoRaWAN/LmHandler/LmHandler.c ****     LoRaMacMibSetRequestConfirm(&mibReq);
 656              		.loc 1 407 24 is_stmt 0 view .LVU189
 657 009a 0024     		movs	r4, #0
 658 009c 0494     		str	r4, [sp, #16]
 408:Middlewares/Third_Party/LoRaWAN/LmHandler/LmHandler.c **** 
 659              		.loc 1 408 5 is_stmt 1 view .LVU190
 660 009e 03A8     		add	r0, sp, #12
 661 00a0 FFF7FEFF 		bl	LoRaMacMibSetRequestConfirm
ARM GAS  /tmp/ccIEh1dP.s 			page 37


 662              	.LVL51:
 410:Middlewares/Third_Party/LoRaWAN/LmHandler/LmHandler.c ****     mibReq.Param.EnableRepeaterSupport = LORAWAN_REPEATER_SUPPORT;
 663              		.loc 1 410 5 view .LVU191
 410:Middlewares/Third_Party/LoRaWAN/LmHandler/LmHandler.c ****     mibReq.Param.EnableRepeaterSupport = LORAWAN_REPEATER_SUPPORT;
 664              		.loc 1 410 17 is_stmt 0 view .LVU192
 665 00a4 1023     		movs	r3, #16
 666 00a6 8DF80C30 		strb	r3, [sp, #12]
 411:Middlewares/Third_Party/LoRaWAN/LmHandler/LmHandler.c ****     LoRaMacMibSetRequestConfirm( &mibReq );
 667              		.loc 1 411 5 is_stmt 1 view .LVU193
 411:Middlewares/Third_Party/LoRaWAN/LmHandler/LmHandler.c ****     LoRaMacMibSetRequestConfirm( &mibReq );
 668              		.loc 1 411 40 is_stmt 0 view .LVU194
 669 00aa 8DF81040 		strb	r4, [sp, #16]
 412:Middlewares/Third_Party/LoRaWAN/LmHandler/LmHandler.c **** 
 670              		.loc 1 412 5 is_stmt 1 view .LVU195
 671 00ae 03A8     		add	r0, sp, #12
 672 00b0 FFF7FEFF 		bl	LoRaMacMibSetRequestConfirm
 673              	.LVL52:
 414:Middlewares/Third_Party/LoRaWAN/LmHandler/LmHandler.c ****     mibReq.Param.AdrEnable = LmHandlerParams.AdrEnable;
 674              		.loc 1 414 5 view .LVU196
 414:Middlewares/Third_Party/LoRaWAN/LmHandler/LmHandler.c ****     mibReq.Param.AdrEnable = LmHandlerParams.AdrEnable;
 675              		.loc 1 414 17 is_stmt 0 view .LVU197
 676 00b4 0423     		movs	r3, #4
 677 00b6 8DF80C30 		strb	r3, [sp, #12]
 415:Middlewares/Third_Party/LoRaWAN/LmHandler/LmHandler.c ****     LoRaMacMibSetRequestConfirm( &mibReq );
 678              		.loc 1 415 5 is_stmt 1 view .LVU198
 415:Middlewares/Third_Party/LoRaWAN/LmHandler/LmHandler.c ****     LoRaMacMibSetRequestConfirm( &mibReq );
 679              		.loc 1 415 45 is_stmt 0 view .LVU199
 680 00ba 114D     		ldr	r5, .L55
 681 00bc AB78     		ldrb	r3, [r5, #2]	@ zero_extendqisi2
 415:Middlewares/Third_Party/LoRaWAN/LmHandler/LmHandler.c ****     LoRaMacMibSetRequestConfirm( &mibReq );
 682              		.loc 1 415 28 view .LVU200
 683 00be 8DF81030 		strb	r3, [sp, #16]
 416:Middlewares/Third_Party/LoRaWAN/LmHandler/LmHandler.c **** 
 684              		.loc 1 416 5 is_stmt 1 view .LVU201
 685 00c2 03A8     		add	r0, sp, #12
 686 00c4 FFF7FEFF 		bl	LoRaMacMibSetRequestConfirm
 687              	.LVL53:
 418:Middlewares/Third_Party/LoRaWAN/LmHandler/LmHandler.c ****     PhyParam_t phyParam;
 688              		.loc 1 418 5 view .LVU202
 419:Middlewares/Third_Party/LoRaWAN/LmHandler/LmHandler.c ****     getPhy.Attribute = PHY_DUTY_CYCLE;
 689              		.loc 1 419 5 view .LVU203
 420:Middlewares/Third_Party/LoRaWAN/LmHandler/LmHandler.c ****     phyParam = RegionGetPhyParam( LmHandlerParams.ActiveRegion, &getPhy );
 690              		.loc 1 420 5 view .LVU204
 420:Middlewares/Third_Party/LoRaWAN/LmHandler/LmHandler.c ****     phyParam = RegionGetPhyParam( LmHandlerParams.ActiveRegion, &getPhy );
 691              		.loc 1 420 22 is_stmt 0 view .LVU205
 692 00c8 8DF80460 		strb	r6, [sp, #4]
 421:Middlewares/Third_Party/LoRaWAN/LmHandler/LmHandler.c ****     LmHandlerParams.DutyCycleEnabled = (bool) phyParam.Value;
 693              		.loc 1 421 5 is_stmt 1 view .LVU206
 421:Middlewares/Third_Party/LoRaWAN/LmHandler/LmHandler.c ****     LmHandlerParams.DutyCycleEnabled = (bool) phyParam.Value;
 694              		.loc 1 421 16 is_stmt 0 view .LVU207
 695 00cc 01A9     		add	r1, sp, #4
 696 00ce 2878     		ldrb	r0, [r5]	@ zero_extendqisi2
 697 00d0 FFF7FEFF 		bl	RegionGetPhyParam
 698              	.LVL54:
 699 00d4 0090     		str	r0, [sp]
 422:Middlewares/Third_Party/LoRaWAN/LmHandler/LmHandler.c **** 
 700              		.loc 1 422 5 is_stmt 1 view .LVU208
ARM GAS  /tmp/ccIEh1dP.s 			page 38


 422:Middlewares/Third_Party/LoRaWAN/LmHandler/LmHandler.c **** 
 701              		.loc 1 422 40 is_stmt 0 view .LVU209
 702 00d6 001B     		subs	r0, r0, r4
 703 00d8 18BF     		it	ne
 704 00da 0120     		movne	r0, #1
 422:Middlewares/Third_Party/LoRaWAN/LmHandler/LmHandler.c **** 
 705              		.loc 1 422 38 view .LVU210
 706 00dc 6871     		strb	r0, [r5, #5]
 424:Middlewares/Third_Party/LoRaWAN/LmHandler/LmHandler.c **** 
 707              		.loc 1 424 5 is_stmt 1 view .LVU211
 708 00de 1420     		movs	r0, #20
 709 00e0 FFF7FEFF 		bl	LmHandlerSetSystemMaxRxError
 710              	.LVL55:
 427:Middlewares/Third_Party/LoRaWAN/LmHandler/LmHandler.c **** 
 711              		.loc 1 427 5 view .LVU212
 712 00e4 6879     		ldrb	r0, [r5, #5]	@ zero_extendqisi2
 713 00e6 FFF7FEFF 		bl	LoRaMacTestSetDutyCycleOn
 714              	.LVL56:
 429:Middlewares/Third_Party/LoRaWAN/LmHandler/LmHandler.c **** }
 715              		.loc 1 429 5 view .LVU213
 429:Middlewares/Third_Party/LoRaWAN/LmHandler/LmHandler.c **** }
 716              		.loc 1 429 12 is_stmt 0 view .LVU214
 717 00ea 2046     		mov	r0, r4
 718              	.L46:
 430:Middlewares/Third_Party/LoRaWAN/LmHandler/LmHandler.c **** 
 719              		.loc 1 430 1 view .LVU215
 720 00ec 0CB0     		add	sp, sp, #48
 721              	.LCFI16:
 722              		.cfi_remember_state
 723              		.cfi_def_cfa_offset 16
 724              		@ sp needed
 725 00ee 70BD     		pop	{r4, r5, r6, pc}
 726              	.LVL57:
 727              	.L48:
 728              	.LCFI17:
 729              		.cfi_restore_state
 368:Middlewares/Third_Party/LoRaWAN/LmHandler/LmHandler.c ****     }
 730              		.loc 1 368 9 is_stmt 1 view .LVU216
 368:Middlewares/Third_Party/LoRaWAN/LmHandler/LmHandler.c ****     }
 731              		.loc 1 368 24 is_stmt 0 view .LVU217
 732 00f0 064B     		ldr	r3, .L55+12
 733 00f2 0022     		movs	r2, #0
 734 00f4 1A70     		strb	r2, [r3]
 735 00f6 A1E7     		b	.L49
 736              	.LVL58:
 737              	.L54:
 349:Middlewares/Third_Party/LoRaWAN/LmHandler/LmHandler.c ****         }
 738              		.loc 1 349 20 view .LVU218
 739 00f8 4FF0FF30 		mov	r0, #-1
 740 00fc F6E7     		b	.L46
 741              	.L56:
 742 00fe 00BF     		.align	2
 743              	.L55:
 744 0100 00000000 		.word	.LANCHOR3
 745 0104 00000000 		.word	.LANCHOR4
 746 0108 00000000 		.word	.LANCHOR5
 747 010c 00000000 		.word	.LANCHOR6
ARM GAS  /tmp/ccIEh1dP.s 			page 39


 748 0110 00000000 		.word	.LANCHOR7
 749 0114 00000000 		.word	.LANCHOR2
 750              		.cfi_endproc
 751              	.LFE105:
 753              		.section	.text.LmHandlerProcess,"ax",%progbits
 754              		.align	1
 755              		.global	LmHandlerProcess
 756              		.syntax unified
 757              		.thumb
 758              		.thumb_func
 759              		.fpu softvfp
 761              	LmHandlerProcess:
 762              	.LFB107:
 453:Middlewares/Third_Party/LoRaWAN/LmHandler/LmHandler.c ****     /* Call at first the LoRaMAC process before to run all package process features */
 763              		.loc 1 453 1 is_stmt 1 view -0
 764              		.cfi_startproc
 765              		@ args = 0, pretend = 0, frame = 0
 766              		@ frame_needed = 0, uses_anonymous_args = 0
 767 0000 08B5     		push	{r3, lr}
 768              	.LCFI18:
 769              		.cfi_def_cfa_offset 8
 770              		.cfi_offset 3, -8
 771              		.cfi_offset 14, -4
 456:Middlewares/Third_Party/LoRaWAN/LmHandler/LmHandler.c **** 
 772              		.loc 1 456 5 view .LVU220
 773 0002 FFF7FEFF 		bl	LoRaMacProcess
 774              	.LVL59:
 459:Middlewares/Third_Party/LoRaWAN/LmHandler/LmHandler.c **** 
 775              		.loc 1 459 5 view .LVU221
 776 0006 FFF7FEFF 		bl	LmHandlerPackagesProcess
 777              	.LVL60:
 462:Middlewares/Third_Party/LoRaWAN/LmHandler/LmHandler.c **** }
 778              		.loc 1 462 5 view .LVU222
 779 000a FFF7FEFF 		bl	NvmDataMgmtStore
 780              	.LVL61:
 463:Middlewares/Third_Party/LoRaWAN/LmHandler/LmHandler.c **** 
 781              		.loc 1 463 1 is_stmt 0 view .LVU223
 782 000e 08BD     		pop	{r3, pc}
 783              		.cfi_endproc
 784              	.LFE107:
 786              		.section	.text.LmHandlerJoinStatus,"ax",%progbits
 787              		.align	1
 788              		.global	LmHandlerJoinStatus
 789              		.syntax unified
 790              		.thumb
 791              		.thumb_func
 792              		.fpu softvfp
 794              	LmHandlerJoinStatus:
 795              	.LFB109:
 537:Middlewares/Third_Party/LoRaWAN/LmHandler/LmHandler.c ****     MibRequestConfirm_t mibReq;
 796              		.loc 1 537 1 is_stmt 1 view -0
 797              		.cfi_startproc
 798              		@ args = 0, pretend = 0, frame = 40
 799              		@ frame_needed = 0, uses_anonymous_args = 0
 800 0000 00B5     		push	{lr}
 801              	.LCFI19:
 802              		.cfi_def_cfa_offset 4
ARM GAS  /tmp/ccIEh1dP.s 			page 40


 803              		.cfi_offset 14, -4
 804 0002 8BB0     		sub	sp, sp, #44
 805              	.LCFI20:
 806              		.cfi_def_cfa_offset 48
 538:Middlewares/Third_Party/LoRaWAN/LmHandler/LmHandler.c ****     LoRaMacStatus_t status;
 807              		.loc 1 538 5 view .LVU225
 539:Middlewares/Third_Party/LoRaWAN/LmHandler/LmHandler.c **** 
 808              		.loc 1 539 5 view .LVU226
 541:Middlewares/Third_Party/LoRaWAN/LmHandler/LmHandler.c ****     status = LoRaMacMibGetRequestConfirm( &mibReq );
 809              		.loc 1 541 5 view .LVU227
 541:Middlewares/Third_Party/LoRaWAN/LmHandler/LmHandler.c ****     status = LoRaMacMibGetRequestConfirm( &mibReq );
 810              		.loc 1 541 17 is_stmt 0 view .LVU228
 811 0004 0123     		movs	r3, #1
 812 0006 8DF80430 		strb	r3, [sp, #4]
 542:Middlewares/Third_Party/LoRaWAN/LmHandler/LmHandler.c **** 
 813              		.loc 1 542 5 is_stmt 1 view .LVU229
 542:Middlewares/Third_Party/LoRaWAN/LmHandler/LmHandler.c **** 
 814              		.loc 1 542 14 is_stmt 0 view .LVU230
 815 000a 01A8     		add	r0, sp, #4
 816 000c FFF7FEFF 		bl	LoRaMacMibGetRequestConfirm
 817              	.LVL62:
 544:Middlewares/Third_Party/LoRaWAN/LmHandler/LmHandler.c ****     {
 818              		.loc 1 544 5 is_stmt 1 view .LVU231
 544:Middlewares/Third_Party/LoRaWAN/LmHandler/LmHandler.c ****     {
 819              		.loc 1 544 7 is_stmt 0 view .LVU232
 820 0010 20B9     		cbnz	r0, .L61
 546:Middlewares/Third_Party/LoRaWAN/LmHandler/LmHandler.c ****         {
 821              		.loc 1 546 9 is_stmt 1 view .LVU233
 546:Middlewares/Third_Party/LoRaWAN/LmHandler/LmHandler.c ****         {
 822              		.loc 1 546 25 is_stmt 0 view .LVU234
 823 0012 9DF80800 		ldrb	r0, [sp, #8]	@ zero_extendqisi2
 824              	.LVL63:
 546:Middlewares/Third_Party/LoRaWAN/LmHandler/LmHandler.c ****         {
 825              		.loc 1 546 11 view .LVU235
 826 0016 10B1     		cbz	r0, .L60
 552:Middlewares/Third_Party/LoRaWAN/LmHandler/LmHandler.c ****         }
 827              		.loc 1 552 20 view .LVU236
 828 0018 0120     		movs	r0, #1
 829 001a 00E0     		b	.L60
 830              	.LVL64:
 831              	.L61:
 557:Middlewares/Third_Party/LoRaWAN/LmHandler/LmHandler.c ****     }
 832              		.loc 1 557 16 view .LVU237
 833 001c 0020     		movs	r0, #0
 834              	.LVL65:
 835              	.L60:
 559:Middlewares/Third_Party/LoRaWAN/LmHandler/LmHandler.c **** 
 836              		.loc 1 559 1 view .LVU238
 837 001e 0BB0     		add	sp, sp, #44
 838              	.LCFI21:
 839              		.cfi_def_cfa_offset 4
 840              		@ sp needed
 841 0020 5DF804FB 		ldr	pc, [sp], #4
 842              		.cfi_endproc
 843              	.LFE109:
 845              		.section	.text.LmHandlerStop,"ax",%progbits
 846              		.align	1
ARM GAS  /tmp/ccIEh1dP.s 			page 41


 847              		.global	LmHandlerStop
 848              		.syntax unified
 849              		.thumb
 850              		.thumb_func
 851              		.fpu softvfp
 853              	LmHandlerStop:
 854              	.LFB110:
 562:Middlewares/Third_Party/LoRaWAN/LmHandler/LmHandler.c ****     if (LoRaMacDeInitialization() == LORAMAC_STATUS_OK)
 855              		.loc 1 562 1 is_stmt 1 view -0
 856              		.cfi_startproc
 857              		@ args = 0, pretend = 0, frame = 0
 858              		@ frame_needed = 0, uses_anonymous_args = 0
 859 0000 08B5     		push	{r3, lr}
 860              	.LCFI22:
 861              		.cfi_def_cfa_offset 8
 862              		.cfi_offset 3, -8
 863              		.cfi_offset 14, -4
 563:Middlewares/Third_Party/LoRaWAN/LmHandler/LmHandler.c ****     {
 864              		.loc 1 563 5 view .LVU240
 563:Middlewares/Third_Party/LoRaWAN/LmHandler/LmHandler.c ****     {
 865              		.loc 1 563 9 is_stmt 0 view .LVU241
 866 0002 FFF7FEFF 		bl	LoRaMacDeInitialization
 867              	.LVL66:
 563:Middlewares/Third_Party/LoRaWAN/LmHandler/LmHandler.c ****     {
 868              		.loc 1 563 8 view .LVU242
 869 0006 00B9     		cbnz	r0, .L68
 870              	.L65:
 571:Middlewares/Third_Party/LoRaWAN/LmHandler/LmHandler.c **** 
 871              		.loc 1 571 1 view .LVU243
 872 0008 08BD     		pop	{r3, pc}
 873              	.L68:
 569:Middlewares/Third_Party/LoRaWAN/LmHandler/LmHandler.c ****     }
 874              		.loc 1 569 16 view .LVU244
 875 000a 6FF00100 		mvn	r0, #1
 876 000e FBE7     		b	.L65
 877              		.cfi_endproc
 878              	.LFE110:
 880              		.section	.text.LmHandlerLinkCheckReq,"ax",%progbits
 881              		.align	1
 882              		.global	LmHandlerLinkCheckReq
 883              		.syntax unified
 884              		.thumb
 885              		.thumb_func
 886              		.fpu softvfp
 888              	LmHandlerLinkCheckReq:
 889              	.LFB112:
 670:Middlewares/Third_Party/LoRaWAN/LmHandler/LmHandler.c ****     LoRaMacStatus_t status;
 890              		.loc 1 670 1 is_stmt 1 view -0
 891              		.cfi_startproc
 892              		@ args = 0, pretend = 0, frame = 24
 893              		@ frame_needed = 0, uses_anonymous_args = 0
 894 0000 00B5     		push	{lr}
 895              	.LCFI23:
 896              		.cfi_def_cfa_offset 4
 897              		.cfi_offset 14, -4
 898 0002 87B0     		sub	sp, sp, #28
 899              	.LCFI24:
ARM GAS  /tmp/ccIEh1dP.s 			page 42


 900              		.cfi_def_cfa_offset 32
 671:Middlewares/Third_Party/LoRaWAN/LmHandler/LmHandler.c ****     MlmeReq_t mlmeReq;
 901              		.loc 1 671 5 view .LVU246
 672:Middlewares/Third_Party/LoRaWAN/LmHandler/LmHandler.c **** 
 902              		.loc 1 672 5 view .LVU247
 674:Middlewares/Third_Party/LoRaWAN/LmHandler/LmHandler.c **** 
 903              		.loc 1 674 5 view .LVU248
 674:Middlewares/Third_Party/LoRaWAN/LmHandler/LmHandler.c **** 
 904              		.loc 1 674 18 is_stmt 0 view .LVU249
 905 0004 0423     		movs	r3, #4
 906 0006 8DF80430 		strb	r3, [sp, #4]
 676:Middlewares/Third_Party/LoRaWAN/LmHandler/LmHandler.c **** 
 907              		.loc 1 676 5 is_stmt 1 view .LVU250
 676:Middlewares/Third_Party/LoRaWAN/LmHandler/LmHandler.c **** 
 908              		.loc 1 676 14 is_stmt 0 view .LVU251
 909 000a 0DEB0300 		add	r0, sp, r3
 910 000e FFF7FEFF 		bl	LoRaMacMlmeRequest
 911              	.LVL67:
 678:Middlewares/Third_Party/LoRaWAN/LmHandler/LmHandler.c ****     {
 912              		.loc 1 678 5 is_stmt 1 view .LVU252
 678:Middlewares/Third_Party/LoRaWAN/LmHandler/LmHandler.c ****     {
 913              		.loc 1 678 7 is_stmt 0 view .LVU253
 914 0012 10B9     		cbnz	r0, .L73
 915              	.LVL68:
 916              	.L70:
 686:Middlewares/Third_Party/LoRaWAN/LmHandler/LmHandler.c **** 
 917              		.loc 1 686 1 view .LVU254
 918 0014 07B0     		add	sp, sp, #28
 919              	.LCFI25:
 920              		.cfi_remember_state
 921              		.cfi_def_cfa_offset 4
 922              		@ sp needed
 923 0016 5DF804FB 		ldr	pc, [sp], #4
 924              	.LVL69:
 925              	.L73:
 926              	.LCFI26:
 927              		.cfi_restore_state
 684:Middlewares/Third_Party/LoRaWAN/LmHandler/LmHandler.c ****     }
 928              		.loc 1 684 16 view .LVU255
 929 001a 4FF0FF30 		mov	r0, #-1
 930              	.LVL70:
 684:Middlewares/Third_Party/LoRaWAN/LmHandler/LmHandler.c ****     }
 931              		.loc 1 684 16 view .LVU256
 932 001e F9E7     		b	.L70
 933              		.cfi_endproc
 934              	.LFE112:
 936              		.section	.text.LmHandlerRequestClass,"ax",%progbits
 937              		.align	1
 938              		.global	LmHandlerRequestClass
 939              		.syntax unified
 940              		.thumb
 941              		.thumb_func
 942              		.fpu softvfp
 944              	LmHandlerRequestClass:
 945              	.LVL71:
 946              	.LFB114:
 758:Middlewares/Third_Party/LoRaWAN/LmHandler/LmHandler.c ****     MibRequestConfirm_t mibReq;
ARM GAS  /tmp/ccIEh1dP.s 			page 43


 947              		.loc 1 758 1 is_stmt 1 view -0
 948              		.cfi_startproc
 949              		@ args = 0, pretend = 0, frame = 40
 950              		@ frame_needed = 0, uses_anonymous_args = 0
 758:Middlewares/Third_Party/LoRaWAN/LmHandler/LmHandler.c ****     MibRequestConfirm_t mibReq;
 951              		.loc 1 758 1 is_stmt 0 view .LVU258
 952 0000 10B5     		push	{r4, lr}
 953              	.LCFI27:
 954              		.cfi_def_cfa_offset 8
 955              		.cfi_offset 4, -8
 956              		.cfi_offset 14, -4
 957 0002 8AB0     		sub	sp, sp, #40
 958              	.LCFI28:
 959              		.cfi_def_cfa_offset 48
 960 0004 0446     		mov	r4, r0
 759:Middlewares/Third_Party/LoRaWAN/LmHandler/LmHandler.c ****     DeviceClass_t currentClass;
 961              		.loc 1 759 5 is_stmt 1 view .LVU259
 760:Middlewares/Third_Party/LoRaWAN/LmHandler/LmHandler.c ****     LmHandlerErrorStatus_t errorStatus = LORAMAC_HANDLER_SUCCESS;
 962              		.loc 1 760 5 view .LVU260
 761:Middlewares/Third_Party/LoRaWAN/LmHandler/LmHandler.c **** 
 963              		.loc 1 761 5 view .LVU261
 964              	.LVL72:
 763:Middlewares/Third_Party/LoRaWAN/LmHandler/LmHandler.c ****     {
 965              		.loc 1 763 5 view .LVU262
 763:Middlewares/Third_Party/LoRaWAN/LmHandler/LmHandler.c ****     {
 966              		.loc 1 763 9 is_stmt 0 view .LVU263
 967 0006 FFF7FEFF 		bl	LoRaMacIsBusy
 968              	.LVL73:
 763:Middlewares/Third_Party/LoRaWAN/LmHandler/LmHandler.c ****     {
 969              		.loc 1 763 8 view .LVU264
 970 000a 0028     		cmp	r0, #0
 971 000c 36D1     		bne	.L77
 768:Middlewares/Third_Party/LoRaWAN/LmHandler/LmHandler.c ****     {
 972              		.loc 1 768 5 is_stmt 1 view .LVU265
 768:Middlewares/Third_Party/LoRaWAN/LmHandler/LmHandler.c ****     {
 973              		.loc 1 768 9 is_stmt 0 view .LVU266
 974 000e FFF7FEFF 		bl	LmHandlerJoinStatus
 975              	.LVL74:
 768:Middlewares/Third_Party/LoRaWAN/LmHandler/LmHandler.c ****     {
 976              		.loc 1 768 8 view .LVU267
 977 0012 0128     		cmp	r0, #1
 978 0014 35D1     		bne	.L78
 773:Middlewares/Third_Party/LoRaWAN/LmHandler/LmHandler.c ****     if ( LoRaMacMibGetRequestConfirm( &mibReq ) != LORAMAC_STATUS_OK )
 979              		.loc 1 773 5 is_stmt 1 view .LVU268
 773:Middlewares/Third_Party/LoRaWAN/LmHandler/LmHandler.c ****     if ( LoRaMacMibGetRequestConfirm( &mibReq ) != LORAMAC_STATUS_OK )
 980              		.loc 1 773 17 is_stmt 0 view .LVU269
 981 0016 0023     		movs	r3, #0
 982 0018 8DF80430 		strb	r3, [sp, #4]
 774:Middlewares/Third_Party/LoRaWAN/LmHandler/LmHandler.c ****     {
 983              		.loc 1 774 5 is_stmt 1 view .LVU270
 774:Middlewares/Third_Party/LoRaWAN/LmHandler/LmHandler.c ****     {
 984              		.loc 1 774 10 is_stmt 0 view .LVU271
 985 001c 01A8     		add	r0, sp, #4
 986 001e FFF7FEFF 		bl	LoRaMacMibGetRequestConfirm
 987              	.LVL75:
 774:Middlewares/Third_Party/LoRaWAN/LmHandler/LmHandler.c ****     {
 988              		.loc 1 774 8 view .LVU272
ARM GAS  /tmp/ccIEh1dP.s 			page 44


 989 0022 88BB     		cbnz	r0, .L79
 778:Middlewares/Third_Party/LoRaWAN/LmHandler/LmHandler.c **** 
 990              		.loc 1 778 5 is_stmt 1 view .LVU273
 778:Middlewares/Third_Party/LoRaWAN/LmHandler/LmHandler.c **** 
 991              		.loc 1 778 18 is_stmt 0 view .LVU274
 992 0024 9DF80830 		ldrb	r3, [sp, #8]	@ zero_extendqisi2
 993              	.LVL76:
 781:Middlewares/Third_Party/LoRaWAN/LmHandler/LmHandler.c ****     {
 994              		.loc 1 781 5 is_stmt 1 view .LVU275
 781:Middlewares/Third_Party/LoRaWAN/LmHandler/LmHandler.c ****     {
 995              		.loc 1 781 7 is_stmt 0 view .LVU276
 996 0028 A342     		cmp	r3, r4
 997 002a 30D0     		beq	.L80
 783:Middlewares/Third_Party/LoRaWAN/LmHandler/LmHandler.c ****         {
 998              		.loc 1 783 9 is_stmt 1 view .LVU277
 999 002c 012C     		cmp	r4, #1
 1000 002e 30D0     		beq	.L81
 1001 0030 022C     		cmp	r4, #2
 1002 0032 14D0     		beq	.L76
 1003 0034 14B1     		cbz	r4, .L90
 1004 0036 0020     		movs	r0, #0
 1005              	.LVL77:
 1006              	.L75:
 854:Middlewares/Third_Party/LoRaWAN/LmHandler/LmHandler.c **** 
 1007              		.loc 1 854 1 is_stmt 0 view .LVU278
 1008 0038 0AB0     		add	sp, sp, #40
 1009              	.LCFI29:
 1010              		.cfi_remember_state
 1011              		.cfi_def_cfa_offset 8
 1012              		@ sp needed
 1013 003a 10BD     		pop	{r4, pc}
 1014              	.LVL78:
 1015              	.L90:
 1016              	.LCFI30:
 1017              		.cfi_restore_state
 787:Middlewares/Third_Party/LoRaWAN/LmHandler/LmHandler.c ****                 {
 1018              		.loc 1 787 17 is_stmt 1 view .LVU279
 787:Middlewares/Third_Party/LoRaWAN/LmHandler/LmHandler.c ****                 {
 1019              		.loc 1 787 19 is_stmt 0 view .LVU280
 1020 003c 0BB9     		cbnz	r3, .L91
 761:Middlewares/Third_Party/LoRaWAN/LmHandler/LmHandler.c **** 
 1021              		.loc 1 761 28 view .LVU281
 1022 003e 0020     		movs	r0, #0
 1023 0040 FAE7     		b	.L75
 1024              	.L91:
 789:Middlewares/Third_Party/LoRaWAN/LmHandler/LmHandler.c ****                     if( LoRaMacMibSetRequestConfirm( &mibReq ) == LORAMAC_STATUS_OK )
 1025              		.loc 1 789 21 is_stmt 1 view .LVU282
 789:Middlewares/Third_Party/LoRaWAN/LmHandler/LmHandler.c ****                     if( LoRaMacMibSetRequestConfirm( &mibReq ) == LORAMAC_STATUS_OK )
 1026              		.loc 1 789 40 is_stmt 0 view .LVU283
 1027 0042 8DF80840 		strb	r4, [sp, #8]
 790:Middlewares/Third_Party/LoRaWAN/LmHandler/LmHandler.c ****                     {
 1028              		.loc 1 790 21 is_stmt 1 view .LVU284
 790:Middlewares/Third_Party/LoRaWAN/LmHandler/LmHandler.c ****                     {
 1029              		.loc 1 790 25 is_stmt 0 view .LVU285
 1030 0046 01A8     		add	r0, sp, #4
 1031 0048 FFF7FEFF 		bl	LoRaMacMibSetRequestConfirm
 1032              	.LVL79:
ARM GAS  /tmp/ccIEh1dP.s 			page 45


 790:Middlewares/Third_Party/LoRaWAN/LmHandler/LmHandler.c ****                     {
 1033              		.loc 1 790 23 view .LVU286
 1034 004c 20BB     		cbnz	r0, .L84
 793:Middlewares/Third_Party/LoRaWAN/LmHandler/LmHandler.c ****                         if (LmHandlerCallbacks->OnClassChange != NULL)
 1035              		.loc 1 793 25 is_stmt 1 view .LVU287
 794:Middlewares/Third_Party/LoRaWAN/LmHandler/LmHandler.c ****                         {
 1036              		.loc 1 794 25 view .LVU288
 794:Middlewares/Third_Party/LoRaWAN/LmHandler/LmHandler.c ****                         {
 1037              		.loc 1 794 47 is_stmt 0 view .LVU289
 1038 004e 194B     		ldr	r3, .L92
 1039 0050 1B68     		ldr	r3, [r3]
 1040 0052 9B6A     		ldr	r3, [r3, #40]
 794:Middlewares/Third_Party/LoRaWAN/LmHandler/LmHandler.c ****                         {
 1041              		.loc 1 794 28 view .LVU290
 1042 0054 1BB3     		cbz	r3, .L85
 796:Middlewares/Third_Party/LoRaWAN/LmHandler/LmHandler.c ****                         }
 1043              		.loc 1 796 29 is_stmt 1 view .LVU291
 1044 0056 2046     		mov	r0, r4
 1045 0058 9847     		blx	r3
 1046              	.LVL80:
 761:Middlewares/Third_Party/LoRaWAN/LmHandler/LmHandler.c **** 
 1047              		.loc 1 761 28 is_stmt 0 view .LVU292
 1048 005a 0020     		movs	r0, #0
 1049 005c ECE7     		b	.L75
 1050              	.LVL81:
 1051              	.L76:
 826:Middlewares/Third_Party/LoRaWAN/LmHandler/LmHandler.c ****                 {
 1052              		.loc 1 826 17 is_stmt 1 view .LVU293
 826:Middlewares/Third_Party/LoRaWAN/LmHandler/LmHandler.c ****                 {
 1053              		.loc 1 826 19 is_stmt 0 view .LVU294
 1054 005e 03BB     		cbnz	r3, .L86
 833:Middlewares/Third_Party/LoRaWAN/LmHandler/LmHandler.c ****                     if (LoRaMacMibSetRequestConfirm( &mibReq ) == LORAMAC_STATUS_OK)
 1055              		.loc 1 833 21 is_stmt 1 view .LVU295
 833:Middlewares/Third_Party/LoRaWAN/LmHandler/LmHandler.c ****                     if (LoRaMacMibSetRequestConfirm( &mibReq ) == LORAMAC_STATUS_OK)
 1056              		.loc 1 833 40 is_stmt 0 view .LVU296
 1057 0060 8DF80840 		strb	r4, [sp, #8]
 834:Middlewares/Third_Party/LoRaWAN/LmHandler/LmHandler.c ****                     {
 1058              		.loc 1 834 21 is_stmt 1 view .LVU297
 834:Middlewares/Third_Party/LoRaWAN/LmHandler/LmHandler.c ****                     {
 1059              		.loc 1 834 25 is_stmt 0 view .LVU298
 1060 0064 01A8     		add	r0, sp, #4
 1061 0066 FFF7FEFF 		bl	LoRaMacMibSetRequestConfirm
 1062              	.LVL82:
 834:Middlewares/Third_Party/LoRaWAN/LmHandler/LmHandler.c ****                     {
 1063              		.loc 1 834 24 view .LVU299
 1064 006a E8B9     		cbnz	r0, .L87
 836:Middlewares/Third_Party/LoRaWAN/LmHandler/LmHandler.c ****                         if (LmHandlerCallbacks->OnClassChange != NULL)
 1065              		.loc 1 836 25 is_stmt 1 view .LVU300
 837:Middlewares/Third_Party/LoRaWAN/LmHandler/LmHandler.c ****                         {
 1066              		.loc 1 837 25 view .LVU301
 837:Middlewares/Third_Party/LoRaWAN/LmHandler/LmHandler.c ****                         {
 1067              		.loc 1 837 47 is_stmt 0 view .LVU302
 1068 006c 114B     		ldr	r3, .L92
 1069 006e 1B68     		ldr	r3, [r3]
 1070 0070 9B6A     		ldr	r3, [r3, #40]
 837:Middlewares/Third_Party/LoRaWAN/LmHandler/LmHandler.c ****                         {
 1071              		.loc 1 837 28 view .LVU303
ARM GAS  /tmp/ccIEh1dP.s 			page 46


 1072 0072 E3B1     		cbz	r3, .L88
 839:Middlewares/Third_Party/LoRaWAN/LmHandler/LmHandler.c ****                         }
 1073              		.loc 1 839 29 is_stmt 1 view .LVU304
 1074 0074 2046     		mov	r0, r4
 1075 0076 9847     		blx	r3
 1076              	.LVL83:
 761:Middlewares/Third_Party/LoRaWAN/LmHandler/LmHandler.c **** 
 1077              		.loc 1 761 28 is_stmt 0 view .LVU305
 1078 0078 0020     		movs	r0, #0
 1079 007a DDE7     		b	.L75
 1080              	.L77:
 765:Middlewares/Third_Party/LoRaWAN/LmHandler/LmHandler.c ****     }
 1081              		.loc 1 765 16 view .LVU306
 1082 007c 6FF00100 		mvn	r0, #1
 1083 0080 DAE7     		b	.L75
 1084              	.L78:
 770:Middlewares/Third_Party/LoRaWAN/LmHandler/LmHandler.c ****     }
 1085              		.loc 1 770 16 view .LVU307
 1086 0082 6FF00200 		mvn	r0, #2
 1087 0086 D7E7     		b	.L75
 1088              	.L79:
 776:Middlewares/Third_Party/LoRaWAN/LmHandler/LmHandler.c ****     }
 1089              		.loc 1 776 16 view .LVU308
 1090 0088 4FF0FF30 		mov	r0, #-1
 1091 008c D4E7     		b	.L75
 1092              	.LVL84:
 1093              	.L80:
 761:Middlewares/Third_Party/LoRaWAN/LmHandler/LmHandler.c **** 
 1094              		.loc 1 761 28 view .LVU309
 1095 008e 0020     		movs	r0, #0
 1096 0090 D2E7     		b	.L75
 1097              	.L81:
 820:Middlewares/Third_Party/LoRaWAN/LmHandler/LmHandler.c **** #endif /* LORAMAC_CLASSB_ENABLED */
 1098              		.loc 1 820 29 view .LVU310
 1099 0092 4FF0FF30 		mov	r0, #-1
 1100 0096 CFE7     		b	.L75
 1101              	.LVL85:
 1102              	.L84:
 801:Middlewares/Third_Party/LoRaWAN/LmHandler/LmHandler.c ****                     }
 1103              		.loc 1 801 37 view .LVU311
 1104 0098 4FF0FF30 		mov	r0, #-1
 1105 009c CCE7     		b	.L75
 1106              	.L85:
 761:Middlewares/Third_Party/LoRaWAN/LmHandler/LmHandler.c **** 
 1107              		.loc 1 761 28 view .LVU312
 1108 009e 0020     		movs	r0, #0
 1109 00a0 CAE7     		b	.L75
 1110              	.LVL86:
 1111              	.L86:
 828:Middlewares/Third_Party/LoRaWAN/LmHandler/LmHandler.c ****                 }
 1112              		.loc 1 828 33 view .LVU313
 1113 00a2 4FF0FF30 		mov	r0, #-1
 1114 00a6 C7E7     		b	.L75
 1115              	.LVL87:
 1116              	.L87:
 844:Middlewares/Third_Party/LoRaWAN/LmHandler/LmHandler.c ****                     }
 1117              		.loc 1 844 37 view .LVU314
ARM GAS  /tmp/ccIEh1dP.s 			page 47


 1118 00a8 4FF0FF30 		mov	r0, #-1
 1119 00ac C4E7     		b	.L75
 1120              	.L88:
 761:Middlewares/Third_Party/LoRaWAN/LmHandler/LmHandler.c **** 
 1121              		.loc 1 761 28 view .LVU315
 1122 00ae 0020     		movs	r0, #0
 1123 00b0 C2E7     		b	.L75
 1124              	.L93:
 1125 00b2 00BF     		.align	2
 1126              	.L92:
 1127 00b4 00000000 		.word	.LANCHOR2
 1128              		.cfi_endproc
 1129              	.LFE114:
 1131              		.section	.text.LmHandlerJoin,"ax",%progbits
 1132              		.align	1
 1133              		.global	LmHandlerJoin
 1134              		.syntax unified
 1135              		.thumb
 1136              		.thumb_func
 1137              		.fpu softvfp
 1139              	LmHandlerJoin:
 1140              	.LVL88:
 1141              	.LFB108:
 466:Middlewares/Third_Party/LoRaWAN/LmHandler/LmHandler.c ****     MibRequestConfirm_t mibReq;
 1142              		.loc 1 466 1 is_stmt 1 view -0
 1143              		.cfi_startproc
 1144              		@ args = 0, pretend = 0, frame = 56
 1145              		@ frame_needed = 0, uses_anonymous_args = 0
 466:Middlewares/Third_Party/LoRaWAN/LmHandler/LmHandler.c ****     MibRequestConfirm_t mibReq;
 1146              		.loc 1 466 1 is_stmt 0 view .LVU317
 1147 0000 00B5     		push	{lr}
 1148              	.LCFI31:
 1149              		.cfi_def_cfa_offset 4
 1150              		.cfi_offset 14, -4
 1151 0002 8FB0     		sub	sp, sp, #60
 1152              	.LCFI32:
 1153              		.cfi_def_cfa_offset 64
 467:Middlewares/Third_Party/LoRaWAN/LmHandler/LmHandler.c **** 
 1154              		.loc 1 467 5 is_stmt 1 view .LVU318
 487:Middlewares/Third_Party/LoRaWAN/LmHandler/LmHandler.c ****     {
 1155              		.loc 1 487 5 view .LVU319
 487:Middlewares/Third_Party/LoRaWAN/LmHandler/LmHandler.c ****     {
 1156              		.loc 1 487 8 is_stmt 0 view .LVU320
 1157 0004 0228     		cmp	r0, #2
 1158 0006 21D0     		beq	.L99
 502:Middlewares/Third_Party/LoRaWAN/LmHandler/LmHandler.c ****         JoinParams.Datarate = LmHandlerParams.TxDatarate;
 1159              		.loc 1 502 9 is_stmt 1 view .LVU321
 502:Middlewares/Third_Party/LoRaWAN/LmHandler/LmHandler.c ****         JoinParams.Datarate = LmHandlerParams.TxDatarate;
 1160              		.loc 1 502 25 is_stmt 0 view .LVU322
 1161 0008 1D4B     		ldr	r3, .L101
 1162 000a 0122     		movs	r2, #1
 1163 000c 9A70     		strb	r2, [r3, #2]
 503:Middlewares/Third_Party/LoRaWAN/LmHandler/LmHandler.c ****         JoinParams.Status = LORAMAC_HANDLER_SUCCESS;
 1164              		.loc 1 503 9 is_stmt 1 view .LVU323
 503:Middlewares/Third_Party/LoRaWAN/LmHandler/LmHandler.c ****         JoinParams.Status = LORAMAC_HANDLER_SUCCESS;
 1165              		.loc 1 503 46 is_stmt 0 view .LVU324
 1166 000e 1D4A     		ldr	r2, .L101+4
ARM GAS  /tmp/ccIEh1dP.s 			page 48


 1167 0010 92F90320 		ldrsb	r2, [r2, #3]
 503:Middlewares/Third_Party/LoRaWAN/LmHandler/LmHandler.c ****         JoinParams.Status = LORAMAC_HANDLER_SUCCESS;
 1168              		.loc 1 503 29 view .LVU325
 1169 0014 1A70     		strb	r2, [r3]
 504:Middlewares/Third_Party/LoRaWAN/LmHandler/LmHandler.c **** 
 1170              		.loc 1 504 9 is_stmt 1 view .LVU326
 504:Middlewares/Third_Party/LoRaWAN/LmHandler/LmHandler.c **** 
 1171              		.loc 1 504 27 is_stmt 0 view .LVU327
 1172 0016 0022     		movs	r2, #0
 1173 0018 5A70     		strb	r2, [r3, #1]
 506:Middlewares/Third_Party/LoRaWAN/LmHandler/LmHandler.c ****         {
 1174              		.loc 1 506 9 is_stmt 1 view .LVU328
 506:Middlewares/Third_Party/LoRaWAN/LmHandler/LmHandler.c ****         {
 1175              		.loc 1 506 28 is_stmt 0 view .LVU329
 1176 001a 1B4B     		ldr	r3, .L101+8
 1177 001c 1B78     		ldrb	r3, [r3]	@ zero_extendqisi2
 506:Middlewares/Third_Party/LoRaWAN/LmHandler/LmHandler.c ****         {
 1178              		.loc 1 506 12 view .LVU330
 1179 001e 2BB3     		cbz	r3, .L100
 1180              	.LVL89:
 1181              	.L97:
 525:Middlewares/Third_Party/LoRaWAN/LmHandler/LmHandler.c ****         mibReq.Type = MIB_NETWORK_ACTIVATION;
 1182              		.loc 1 525 9 is_stmt 1 view .LVU331
 1183 0020 FFF7FEFF 		bl	LoRaMacStart
 1184              	.LVL90:
 526:Middlewares/Third_Party/LoRaWAN/LmHandler/LmHandler.c ****         mibReq.Param.NetworkActivation = ACTIVATION_TYPE_ABP;
 1185              		.loc 1 526 9 view .LVU332
 526:Middlewares/Third_Party/LoRaWAN/LmHandler/LmHandler.c ****         mibReq.Param.NetworkActivation = ACTIVATION_TYPE_ABP;
 1186              		.loc 1 526 21 is_stmt 0 view .LVU333
 1187 0024 0123     		movs	r3, #1
 1188 0026 8DF81430 		strb	r3, [sp, #20]
 527:Middlewares/Third_Party/LoRaWAN/LmHandler/LmHandler.c ****         LoRaMacMibSetRequestConfirm( &mibReq );
 1189              		.loc 1 527 9 is_stmt 1 view .LVU334
 527:Middlewares/Third_Party/LoRaWAN/LmHandler/LmHandler.c ****         LoRaMacMibSetRequestConfirm( &mibReq );
 1190              		.loc 1 527 40 is_stmt 0 view .LVU335
 1191 002a 8DF81830 		strb	r3, [sp, #24]
 528:Middlewares/Third_Party/LoRaWAN/LmHandler/LmHandler.c **** 
 1192              		.loc 1 528 9 is_stmt 1 view .LVU336
 1193 002e 05A8     		add	r0, sp, #20
 1194 0030 FFF7FEFF 		bl	LoRaMacMibSetRequestConfirm
 1195              	.LVL91:
 531:Middlewares/Third_Party/LoRaWAN/LmHandler/LmHandler.c ****         LmHandlerRequestClass(LmHandlerParams.DefaultClass);
 1196              		.loc 1 531 9 view .LVU337
 531:Middlewares/Third_Party/LoRaWAN/LmHandler/LmHandler.c ****         LmHandlerRequestClass(LmHandlerParams.DefaultClass);
 1197              		.loc 1 531 27 is_stmt 0 view .LVU338
 1198 0034 154B     		ldr	r3, .L101+12
 1199 0036 1B68     		ldr	r3, [r3]
 1200 0038 DB69     		ldr	r3, [r3, #28]
 531:Middlewares/Third_Party/LoRaWAN/LmHandler/LmHandler.c ****         LmHandlerRequestClass(LmHandlerParams.DefaultClass);
 1201              		.loc 1 531 9 view .LVU339
 1202 003a 1148     		ldr	r0, .L101
 1203 003c 9847     		blx	r3
 1204              	.LVL92:
 532:Middlewares/Third_Party/LoRaWAN/LmHandler/LmHandler.c ****     }
 1205              		.loc 1 532 9 is_stmt 1 view .LVU340
 1206 003e 114B     		ldr	r3, .L101+4
 1207 0040 5878     		ldrb	r0, [r3, #1]	@ zero_extendqisi2
ARM GAS  /tmp/ccIEh1dP.s 			page 49


 1208 0042 FFF7FEFF 		bl	LmHandlerRequestClass
 1209              	.LVL93:
 1210              	.L94:
 534:Middlewares/Third_Party/LoRaWAN/LmHandler/LmHandler.c **** 
 1211              		.loc 1 534 1 is_stmt 0 view .LVU341
 1212 0046 0FB0     		add	sp, sp, #60
 1213              	.LCFI33:
 1214              		.cfi_remember_state
 1215              		.cfi_def_cfa_offset 4
 1216              		@ sp needed
 1217 0048 5DF804FB 		ldr	pc, [sp], #4
 1218              	.LVL94:
 1219              	.L99:
 1220              	.LCFI34:
 1221              		.cfi_restore_state
 1222              	.LBB4:
 489:Middlewares/Third_Party/LoRaWAN/LmHandler/LmHandler.c ****         JoinParams.Mode = ACTIVATION_TYPE_OTAA;
 1223              		.loc 1 489 9 is_stmt 1 view .LVU342
 490:Middlewares/Third_Party/LoRaWAN/LmHandler/LmHandler.c **** 
 1224              		.loc 1 490 9 view .LVU343
 490:Middlewares/Third_Party/LoRaWAN/LmHandler/LmHandler.c **** 
 1225              		.loc 1 490 25 is_stmt 0 view .LVU344
 1226 004c 0C4B     		ldr	r3, .L101
 1227 004e 0222     		movs	r2, #2
 1228 0050 9A70     		strb	r2, [r3, #2]
 492:Middlewares/Third_Party/LoRaWAN/LmHandler/LmHandler.c **** 
 1229              		.loc 1 492 9 is_stmt 1 view .LVU345
 1230 0052 FFF7FEFF 		bl	LoRaMacStart
 1231              	.LVL95:
 494:Middlewares/Third_Party/LoRaWAN/LmHandler/LmHandler.c ****         mlmeReq.Req.Join.Datarate = LmHandlerParams.TxDatarate;
 1232              		.loc 1 494 9 view .LVU346
 494:Middlewares/Third_Party/LoRaWAN/LmHandler/LmHandler.c ****         mlmeReq.Req.Join.Datarate = LmHandlerParams.TxDatarate;
 1233              		.loc 1 494 22 is_stmt 0 view .LVU347
 1234 0056 0123     		movs	r3, #1
 1235 0058 8DF80030 		strb	r3, [sp]
 495:Middlewares/Third_Party/LoRaWAN/LmHandler/LmHandler.c **** 
 1236              		.loc 1 495 9 is_stmt 1 view .LVU348
 495:Middlewares/Third_Party/LoRaWAN/LmHandler/LmHandler.c **** 
 1237              		.loc 1 495 52 is_stmt 0 view .LVU349
 1238 005c 094B     		ldr	r3, .L101+4
 1239 005e DB78     		ldrb	r3, [r3, #3]	@ zero_extendqisi2
 495:Middlewares/Third_Party/LoRaWAN/LmHandler/LmHandler.c **** 
 1240              		.loc 1 495 35 view .LVU350
 1241 0060 8DF80430 		strb	r3, [sp, #4]
 498:Middlewares/Third_Party/LoRaWAN/LmHandler/LmHandler.c ****     }
 1242              		.loc 1 498 9 is_stmt 1 view .LVU351
 1243 0064 6846     		mov	r0, sp
 1244 0066 FFF7FEFF 		bl	LoRaMacMlmeRequest
 1245              	.LVL96:
 1246              	.LBE4:
 1247 006a ECE7     		b	.L94
 1248              	.LVL97:
 1249              	.L100:
 509:Middlewares/Third_Party/LoRaWAN/LmHandler/LmHandler.c ****             mibReq.Param.AbpLrWanVersion.Value = ABP_ACTIVATION_LRWAN_VERSION;
 1250              		.loc 1 509 13 view .LVU352
 509:Middlewares/Third_Party/LoRaWAN/LmHandler/LmHandler.c ****             mibReq.Param.AbpLrWanVersion.Value = ABP_ACTIVATION_LRWAN_VERSION;
 1251              		.loc 1 509 25 is_stmt 0 view .LVU353
ARM GAS  /tmp/ccIEh1dP.s 			page 50


 1252 006c 2723     		movs	r3, #39
 1253 006e 8DF81430 		strb	r3, [sp, #20]
 510:Middlewares/Third_Party/LoRaWAN/LmHandler/LmHandler.c ****             LoRaMacMibSetRequestConfirm(&mibReq);
 1254              		.loc 1 510 13 is_stmt 1 view .LVU354
 510:Middlewares/Third_Party/LoRaWAN/LmHandler/LmHandler.c ****             LoRaMacMibSetRequestConfirm(&mibReq);
 1255              		.loc 1 510 48 is_stmt 0 view .LVU355
 1256 0072 074B     		ldr	r3, .L101+16
 1257 0074 0693     		str	r3, [sp, #24]
 511:Middlewares/Third_Party/LoRaWAN/LmHandler/LmHandler.c **** 
 1258              		.loc 1 511 13 is_stmt 1 view .LVU356
 1259 0076 05A8     		add	r0, sp, #20
 1260              	.LVL98:
 511:Middlewares/Third_Party/LoRaWAN/LmHandler/LmHandler.c **** 
 1261              		.loc 1 511 13 is_stmt 0 view .LVU357
 1262 0078 FFF7FEFF 		bl	LoRaMacMibSetRequestConfirm
 1263              	.LVL99:
 1264 007c D0E7     		b	.L97
 1265              	.L102:
 1266 007e 00BF     		.align	2
 1267              	.L101:
 1268 0080 00000000 		.word	.LANCHOR8
 1269 0084 00000000 		.word	.LANCHOR3
 1270 0088 00000000 		.word	.LANCHOR6
 1271 008c 00000000 		.word	.LANCHOR2
 1272 0090 00030001 		.word	16777984
 1273              		.cfi_endproc
 1274              	.LFE108:
 1276              		.section	.text.LmHandlerIsBusy,"ax",%progbits
 1277              		.align	1
 1278              		.global	LmHandlerIsBusy
 1279              		.syntax unified
 1280              		.thumb
 1281              		.thumb_func
 1282              		.fpu softvfp
 1284              	LmHandlerIsBusy:
 1285              	.LFB106:
 433:Middlewares/Third_Party/LoRaWAN/LmHandler/LmHandler.c ****     if( LoRaMacIsBusy( ) == true )
 1286              		.loc 1 433 1 is_stmt 1 view -0
 1287              		.cfi_startproc
 1288              		@ args = 0, pretend = 0, frame = 0
 1289              		@ frame_needed = 0, uses_anonymous_args = 0
 1290 0000 08B5     		push	{r3, lr}
 1291              	.LCFI35:
 1292              		.cfi_def_cfa_offset 8
 1293              		.cfi_offset 3, -8
 1294              		.cfi_offset 14, -4
 434:Middlewares/Third_Party/LoRaWAN/LmHandler/LmHandler.c ****     {
 1295              		.loc 1 434 5 view .LVU359
 434:Middlewares/Third_Party/LoRaWAN/LmHandler/LmHandler.c ****     {
 1296              		.loc 1 434 9 is_stmt 0 view .LVU360
 1297 0002 FFF7FEFF 		bl	LoRaMacIsBusy
 1298              	.LVL100:
 434:Middlewares/Third_Party/LoRaWAN/LmHandler/LmHandler.c ****     {
 1299              		.loc 1 434 7 view .LVU361
 1300 0006 00B1     		cbz	r0, .L107
 1301              	.L104:
 450:Middlewares/Third_Party/LoRaWAN/LmHandler/LmHandler.c **** 
ARM GAS  /tmp/ccIEh1dP.s 			page 51


 1302              		.loc 1 450 1 view .LVU362
 1303 0008 08BD     		pop	{r3, pc}
 1304              	.L107:
 438:Middlewares/Third_Party/LoRaWAN/LmHandler/LmHandler.c ****     {
 1305              		.loc 1 438 5 is_stmt 1 view .LVU363
 438:Middlewares/Third_Party/LoRaWAN/LmHandler/LmHandler.c ****     {
 1306              		.loc 1 438 9 is_stmt 0 view .LVU364
 1307 000a FFF7FEFF 		bl	LmHandlerJoinStatus
 1308              	.LVL101:
 438:Middlewares/Third_Party/LoRaWAN/LmHandler/LmHandler.c ****     {
 1309              		.loc 1 438 7 view .LVU365
 1310 000e 0128     		cmp	r0, #1
 1311 0010 04D1     		bne	.L108
 445:Middlewares/Third_Party/LoRaWAN/LmHandler/LmHandler.c ****     {
 1312              		.loc 1 445 5 is_stmt 1 view .LVU366
 445:Middlewares/Third_Party/LoRaWAN/LmHandler/LmHandler.c ****     {
 1313              		.loc 1 445 26 is_stmt 0 view .LVU367
 1314 0012 054B     		ldr	r3, .L109
 1315 0014 1B68     		ldr	r3, [r3]
 445:Middlewares/Third_Party/LoRaWAN/LmHandler/LmHandler.c ****     {
 1316              		.loc 1 445 49 view .LVU368
 1317 0016 DB68     		ldr	r3, [r3, #12]
 445:Middlewares/Third_Party/LoRaWAN/LmHandler/LmHandler.c ****     {
 1318              		.loc 1 445 9 view .LVU369
 1319 0018 9847     		blx	r3
 1320              	.LVL102:
 1321 001a F5E7     		b	.L104
 1322              	.L108:
 441:Middlewares/Third_Party/LoRaWAN/LmHandler/LmHandler.c ****         return true;
 1323              		.loc 1 441 9 is_stmt 1 view .LVU370
 1324 001c 034B     		ldr	r3, .L109+4
 1325 001e 9878     		ldrb	r0, [r3, #2]	@ zero_extendqisi2
 1326 0020 FFF7FEFF 		bl	LmHandlerJoin
 1327              	.LVL103:
 442:Middlewares/Third_Party/LoRaWAN/LmHandler/LmHandler.c ****     }
 1328              		.loc 1 442 9 view .LVU371
 442:Middlewares/Third_Party/LoRaWAN/LmHandler/LmHandler.c ****     }
 1329              		.loc 1 442 16 is_stmt 0 view .LVU372
 1330 0024 0120     		movs	r0, #1
 1331 0026 EFE7     		b	.L104
 1332              	.L110:
 1333              		.align	2
 1334              	.L109:
 1335 0028 00000000 		.word	.LANCHOR0
 1336 002c 00000000 		.word	.LANCHOR8
 1337              		.cfi_endproc
 1338              	.LFE106:
 1340              		.section	.text.LmHandlerSend,"ax",%progbits
 1341              		.align	1
 1342              		.global	LmHandlerSend
 1343              		.syntax unified
 1344              		.thumb
 1345              		.thumb_func
 1346              		.fpu softvfp
 1348              	LmHandlerSend:
 1349              	.LVL104:
 1350              	.LFB111:
ARM GAS  /tmp/ccIEh1dP.s 			page 52


 575:Middlewares/Third_Party/LoRaWAN/LmHandler/LmHandler.c ****     LoRaMacStatus_t status;
 1351              		.loc 1 575 1 is_stmt 1 view -0
 1352              		.cfi_startproc
 1353              		@ args = 0, pretend = 0, frame = 24
 1354              		@ frame_needed = 0, uses_anonymous_args = 0
 575:Middlewares/Third_Party/LoRaWAN/LmHandler/LmHandler.c ****     LoRaMacStatus_t status;
 1355              		.loc 1 575 1 is_stmt 0 view .LVU374
 1356 0000 F0B5     		push	{r4, r5, r6, r7, lr}
 1357              	.LCFI36:
 1358              		.cfi_def_cfa_offset 20
 1359              		.cfi_offset 4, -20
 1360              		.cfi_offset 5, -16
 1361              		.cfi_offset 6, -12
 1362              		.cfi_offset 7, -8
 1363              		.cfi_offset 14, -4
 1364 0002 87B0     		sub	sp, sp, #28
 1365              	.LCFI37:
 1366              		.cfi_def_cfa_offset 48
 1367 0004 0446     		mov	r4, r0
 1368 0006 0F46     		mov	r7, r1
 1369 0008 1546     		mov	r5, r2
 1370 000a 1E46     		mov	r6, r3
 576:Middlewares/Third_Party/LoRaWAN/LmHandler/LmHandler.c ****     LmHandlerErrorStatus_t lmhStatus = LORAMAC_HANDLER_ERROR;
 1371              		.loc 1 576 5 is_stmt 1 view .LVU375
 577:Middlewares/Third_Party/LoRaWAN/LmHandler/LmHandler.c ****     McpsReq_t mcpsReq;
 1372              		.loc 1 577 5 view .LVU376
 1373              	.LVL105:
 578:Middlewares/Third_Party/LoRaWAN/LmHandler/LmHandler.c ****     LoRaMacTxInfo_t txInfo;
 1374              		.loc 1 578 5 view .LVU377
 579:Middlewares/Third_Party/LoRaWAN/LmHandler/LmHandler.c **** 
 1375              		.loc 1 579 5 view .LVU378
 581:Middlewares/Third_Party/LoRaWAN/LmHandler/LmHandler.c ****     {
 1376              		.loc 1 581 5 view .LVU379
 581:Middlewares/Third_Party/LoRaWAN/LmHandler/LmHandler.c ****     {
 1377              		.loc 1 581 9 is_stmt 0 view .LVU380
 1378 000c FFF7FEFF 		bl	LoRaMacIsBusy
 1379              	.LVL106:
 581:Middlewares/Third_Party/LoRaWAN/LmHandler/LmHandler.c ****     {
 1380              		.loc 1 581 8 view .LVU381
 1381 0010 0028     		cmp	r0, #0
 1382 0012 6CD1     		bne	.L125
 586:Middlewares/Third_Party/LoRaWAN/LmHandler/LmHandler.c ****     {
 1383              		.loc 1 586 5 is_stmt 1 view .LVU382
 586:Middlewares/Third_Party/LoRaWAN/LmHandler/LmHandler.c ****     {
 1384              		.loc 1 586 9 is_stmt 0 view .LVU383
 1385 0014 FFF7FEFF 		bl	LmHandlerJoinStatus
 1386              	.LVL107:
 586:Middlewares/Third_Party/LoRaWAN/LmHandler/LmHandler.c ****     {
 1387              		.loc 1 586 7 view .LVU384
 1388 0018 0128     		cmp	r0, #1
 1389 001a 3DD1     		bne	.L129
 593:Middlewares/Third_Party/LoRaWAN/LmHandler/LmHandler.c ****     {
 1390              		.loc 1 593 5 is_stmt 1 view .LVU385
 593:Middlewares/Third_Party/LoRaWAN/LmHandler/LmHandler.c ****     {
 1391              		.loc 1 593 28 is_stmt 0 view .LVU386
 1392 001c 394B     		ldr	r3, .L130
 1393 001e 1B68     		ldr	r3, [r3]
ARM GAS  /tmp/ccIEh1dP.s 			page 53


 593:Middlewares/Third_Party/LoRaWAN/LmHandler/LmHandler.c ****     {
 1394              		.loc 1 593 51 view .LVU387
 1395 0020 DB68     		ldr	r3, [r3, #12]
 593:Middlewares/Third_Party/LoRaWAN/LmHandler/LmHandler.c ****     {
 1396              		.loc 1 593 11 view .LVU388
 1397 0022 9847     		blx	r3
 1398              	.LVL108:
 593:Middlewares/Third_Party/LoRaWAN/LmHandler/LmHandler.c ****     {
 1399              		.loc 1 593 7 view .LVU389
 1400 0024 38B1     		cbz	r0, .L114
 593:Middlewares/Third_Party/LoRaWAN/LmHandler/LmHandler.c ****     {
 1401              		.loc 1 593 88 discriminator 1 view .LVU390
 1402 0026 2378     		ldrb	r3, [r4]	@ zero_extendqisi2
 593:Middlewares/Third_Party/LoRaWAN/LmHandler/LmHandler.c ****     {
 1403              		.loc 1 593 115 discriminator 1 view .LVU391
 1404 0028 364A     		ldr	r2, .L130
 1405 002a 1268     		ldr	r2, [r2]
 593:Middlewares/Third_Party/LoRaWAN/LmHandler/LmHandler.c ****     {
 1406              		.loc 1 593 138 discriminator 1 view .LVU392
 1407 002c 1278     		ldrb	r2, [r2]	@ zero_extendqisi2
 593:Middlewares/Third_Party/LoRaWAN/LmHandler/LmHandler.c ****     {
 1408              		.loc 1 593 76 discriminator 1 view .LVU393
 1409 002e 9342     		cmp	r3, r2
 1410 0030 01D0     		beq	.L114
 593:Middlewares/Third_Party/LoRaWAN/LmHandler/LmHandler.c ****     {
 1411              		.loc 1 593 147 discriminator 2 view .LVU394
 1412 0032 002B     		cmp	r3, #0
 1413 0034 5ED1     		bne	.L126
 1414              	.L114:
 598:Middlewares/Third_Party/LoRaWAN/LmHandler/LmHandler.c ****     if( LoRaMacQueryTxPossible( appData->BufferSize, &txInfo ) != LORAMAC_STATUS_OK )
 1415              		.loc 1 598 5 is_stmt 1 view .LVU395
 598:Middlewares/Third_Party/LoRaWAN/LmHandler/LmHandler.c ****     if( LoRaMacQueryTxPossible( appData->BufferSize, &txInfo ) != LORAMAC_STATUS_OK )
 1416              		.loc 1 598 55 is_stmt 0 view .LVU396
 1417 0036 344B     		ldr	r3, .L130+4
 1418 0038 93F90330 		ldrsb	r3, [r3, #3]
 598:Middlewares/Third_Party/LoRaWAN/LmHandler/LmHandler.c ****     if( LoRaMacQueryTxPossible( appData->BufferSize, &txInfo ) != LORAMAC_STATUS_OK )
 1419              		.loc 1 598 38 view .LVU397
 1420 003c 8DF81230 		strb	r3, [sp, #18]
 599:Middlewares/Third_Party/LoRaWAN/LmHandler/LmHandler.c ****     {
 1421              		.loc 1 599 5 is_stmt 1 view .LVU398
 599:Middlewares/Third_Party/LoRaWAN/LmHandler/LmHandler.c ****     {
 1422              		.loc 1 599 9 is_stmt 0 view .LVU399
 1423 0040 6946     		mov	r1, sp
 1424 0042 6078     		ldrb	r0, [r4, #1]	@ zero_extendqisi2
 1425 0044 FFF7FEFF 		bl	LoRaMacQueryTxPossible
 1426              	.LVL109:
 599:Middlewares/Third_Party/LoRaWAN/LmHandler/LmHandler.c ****     {
 1427              		.loc 1 599 7 view .LVU400
 1428 0048 68B3     		cbz	r0, .L115
 602:Middlewares/Third_Party/LoRaWAN/LmHandler/LmHandler.c ****         mcpsReq.Type = MCPS_UNCONFIRMED;
 1429              		.loc 1 602 9 is_stmt 1 view .LVU401
 602:Middlewares/Third_Party/LoRaWAN/LmHandler/LmHandler.c ****         mcpsReq.Type = MCPS_UNCONFIRMED;
 1430              		.loc 1 602 26 is_stmt 0 view .LVU402
 1431 004a 0022     		movs	r2, #0
 1432 004c 2F4B     		ldr	r3, .L130+8
 1433 004e 9A70     		strb	r2, [r3, #2]
 603:Middlewares/Third_Party/LoRaWAN/LmHandler/LmHandler.c ****         mcpsReq.Req.Unconfirmed.fBuffer = NULL;
ARM GAS  /tmp/ccIEh1dP.s 			page 54


 1434              		.loc 1 603 9 is_stmt 1 view .LVU403
 603:Middlewares/Third_Party/LoRaWAN/LmHandler/LmHandler.c ****         mcpsReq.Req.Unconfirmed.fBuffer = NULL;
 1435              		.loc 1 603 22 is_stmt 0 view .LVU404
 1436 0050 8DF80420 		strb	r2, [sp, #4]
 604:Middlewares/Third_Party/LoRaWAN/LmHandler/LmHandler.c ****         mcpsReq.Req.Unconfirmed.fBufferSize = 0;
 1437              		.loc 1 604 9 is_stmt 1 view .LVU405
 604:Middlewares/Third_Party/LoRaWAN/LmHandler/LmHandler.c ****         mcpsReq.Req.Unconfirmed.fBufferSize = 0;
 1438              		.loc 1 604 41 is_stmt 0 view .LVU406
 1439 0054 0392     		str	r2, [sp, #12]
 605:Middlewares/Third_Party/LoRaWAN/LmHandler/LmHandler.c ****     }
 1440              		.loc 1 605 9 is_stmt 1 view .LVU407
 605:Middlewares/Third_Party/LoRaWAN/LmHandler/LmHandler.c ****     }
 1441              		.loc 1 605 45 is_stmt 0 view .LVU408
 1442 0056 ADF81020 		strh	r2, [sp, #16]	@ movhi
 1443              	.L116:
 624:Middlewares/Third_Party/LoRaWAN/LmHandler/LmHandler.c ****     TxParams.Datarate = LmHandlerParams.TxDatarate;
 1444              		.loc 1 624 5 is_stmt 1 view .LVU409
 624:Middlewares/Third_Party/LoRaWAN/LmHandler/LmHandler.c ****     TxParams.Datarate = LmHandlerParams.TxDatarate;
 1445              		.loc 1 624 22 is_stmt 0 view .LVU410
 1446 005a 2C4A     		ldr	r2, .L130+8
 1447 005c 02F10C0C 		add	ip, r2, #12
 1448 0060 94E80300 		ldm	r4, {r0, r1}
 1449 0064 8CE80300 		stm	ip, {r0, r1}
 625:Middlewares/Third_Party/LoRaWAN/LmHandler/LmHandler.c **** 
 1450              		.loc 1 625 5 is_stmt 1 view .LVU411
 625:Middlewares/Third_Party/LoRaWAN/LmHandler/LmHandler.c **** 
 1451              		.loc 1 625 40 is_stmt 0 view .LVU412
 1452 0068 274B     		ldr	r3, .L130+4
 1453 006a 93F90330 		ldrsb	r3, [r3, #3]
 625:Middlewares/Third_Party/LoRaWAN/LmHandler/LmHandler.c **** 
 1454              		.loc 1 625 23 view .LVU413
 1455 006e 1371     		strb	r3, [r2, #4]
 627:Middlewares/Third_Party/LoRaWAN/LmHandler/LmHandler.c ****     if (nextTxIn != NULL)
 1456              		.loc 1 627 5 is_stmt 1 view .LVU414
 627:Middlewares/Third_Party/LoRaWAN/LmHandler/LmHandler.c ****     if (nextTxIn != NULL)
 1457              		.loc 1 627 14 is_stmt 0 view .LVU415
 1458 0070 3146     		mov	r1, r6
 1459 0072 01A8     		add	r0, sp, #4
 1460 0074 FFF7FEFF 		bl	LoRaMacMcpsRequest
 1461              	.LVL110:
 628:Middlewares/Third_Party/LoRaWAN/LmHandler/LmHandler.c ****     {
 1462              		.loc 1 628 5 is_stmt 1 view .LVU416
 628:Middlewares/Third_Party/LoRaWAN/LmHandler/LmHandler.c ****     {
 1463              		.loc 1 628 8 is_stmt 0 view .LVU417
 1464 0078 0DB1     		cbz	r5, .L118
 630:Middlewares/Third_Party/LoRaWAN/LmHandler/LmHandler.c ****     }
 1465              		.loc 1 630 9 is_stmt 1 view .LVU418
 630:Middlewares/Third_Party/LoRaWAN/LmHandler/LmHandler.c ****     }
 1466              		.loc 1 630 38 is_stmt 0 view .LVU419
 1467 007a 059B     		ldr	r3, [sp, #20]
 630:Middlewares/Third_Party/LoRaWAN/LmHandler/LmHandler.c ****     }
 1468              		.loc 1 630 19 view .LVU420
 1469 007c 2B60     		str	r3, [r5]
 1470              	.L118:
 633:Middlewares/Third_Party/LoRaWAN/LmHandler/LmHandler.c ****     {
 1471              		.loc 1 633 5 is_stmt 1 view .LVU421
 1472 007e 1128     		cmp	r0, #17
ARM GAS  /tmp/ccIEh1dP.s 			page 55


 1473 0080 32D8     		bhi	.L119
 1474 0082 DFE800F0 		tbb	[pc, r0]
 1475              	.L121:
 1476 0086 26       		.byte	(.L124-.L121)/2
 1477 0087 3A       		.byte	(.L127-.L121)/2
 1478 0088 31       		.byte	(.L119-.L121)/2
 1479 0089 31       		.byte	(.L119-.L121)/2
 1480 008a 31       		.byte	(.L119-.L121)/2
 1481 008b 31       		.byte	(.L119-.L121)/2
 1482 008c 31       		.byte	(.L119-.L121)/2
 1483 008d 28       		.byte	(.L123-.L121)/2
 1484 008e 31       		.byte	(.L119-.L121)/2
 1485 008f 31       		.byte	(.L119-.L121)/2
 1486 0090 31       		.byte	(.L119-.L121)/2
 1487 0091 2E       		.byte	(.L122-.L121)/2
 1488 0092 31       		.byte	(.L119-.L121)/2
 1489 0093 31       		.byte	(.L119-.L121)/2
 1490 0094 3A       		.byte	(.L127-.L121)/2
 1491 0095 3A       		.byte	(.L127-.L121)/2
 1492 0096 3A       		.byte	(.L127-.L121)/2
 1493 0097 2B       		.byte	(.L120-.L121)/2
 1494              	.LVL111:
 1495              		.p2align 1
 1496              	.L129:
 589:Middlewares/Third_Party/LoRaWAN/LmHandler/LmHandler.c ****         return LORAMAC_HANDLER_NO_NETWORK_JOINED;
 1497              		.loc 1 589 9 view .LVU422
 1498 0098 1D4B     		ldr	r3, .L130+12
 1499 009a 9878     		ldrb	r0, [r3, #2]	@ zero_extendqisi2
 1500 009c FFF7FEFF 		bl	LmHandlerJoin
 1501              	.LVL112:
 590:Middlewares/Third_Party/LoRaWAN/LmHandler/LmHandler.c ****     }
 1502              		.loc 1 590 9 view .LVU423
 590:Middlewares/Third_Party/LoRaWAN/LmHandler/LmHandler.c ****     }
 1503              		.loc 1 590 16 is_stmt 0 view .LVU424
 1504 00a0 6FF00200 		mvn	r0, #2
 1505 00a4 2BE0     		b	.L112
 1506              	.L115:
 609:Middlewares/Third_Party/LoRaWAN/LmHandler/LmHandler.c ****         mcpsReq.Req.Unconfirmed.fPort = appData->Port;
 1507              		.loc 1 609 9 is_stmt 1 view .LVU425
 609:Middlewares/Third_Party/LoRaWAN/LmHandler/LmHandler.c ****         mcpsReq.Req.Unconfirmed.fPort = appData->Port;
 1508              		.loc 1 609 26 is_stmt 0 view .LVU426
 1509 00a6 194B     		ldr	r3, .L130+8
 1510 00a8 9F70     		strb	r7, [r3, #2]
 610:Middlewares/Third_Party/LoRaWAN/LmHandler/LmHandler.c ****         mcpsReq.Req.Unconfirmed.fBufferSize = appData->BufferSize;
 1511              		.loc 1 610 9 is_stmt 1 view .LVU427
 610:Middlewares/Third_Party/LoRaWAN/LmHandler/LmHandler.c ****         mcpsReq.Req.Unconfirmed.fBufferSize = appData->BufferSize;
 1512              		.loc 1 610 48 is_stmt 0 view .LVU428
 1513 00aa 2378     		ldrb	r3, [r4]	@ zero_extendqisi2
 610:Middlewares/Third_Party/LoRaWAN/LmHandler/LmHandler.c ****         mcpsReq.Req.Unconfirmed.fBufferSize = appData->BufferSize;
 1514              		.loc 1 610 39 view .LVU429
 1515 00ac 8DF80830 		strb	r3, [sp, #8]
 611:Middlewares/Third_Party/LoRaWAN/LmHandler/LmHandler.c ****         mcpsReq.Req.Unconfirmed.fBuffer = appData->Buffer;
 1516              		.loc 1 611 9 is_stmt 1 view .LVU430
 611:Middlewares/Third_Party/LoRaWAN/LmHandler/LmHandler.c ****         mcpsReq.Req.Unconfirmed.fBuffer = appData->Buffer;
 1517              		.loc 1 611 54 is_stmt 0 view .LVU431
 1518 00b0 6378     		ldrb	r3, [r4, #1]	@ zero_extendqisi2
 611:Middlewares/Third_Party/LoRaWAN/LmHandler/LmHandler.c ****         mcpsReq.Req.Unconfirmed.fBuffer = appData->Buffer;
ARM GAS  /tmp/ccIEh1dP.s 			page 56


 1519              		.loc 1 611 45 view .LVU432
 1520 00b2 ADF81030 		strh	r3, [sp, #16]	@ movhi
 612:Middlewares/Third_Party/LoRaWAN/LmHandler/LmHandler.c ****         if( isTxConfirmed == LORAMAC_HANDLER_UNCONFIRMED_MSG )
 1521              		.loc 1 612 9 is_stmt 1 view .LVU433
 612:Middlewares/Third_Party/LoRaWAN/LmHandler/LmHandler.c ****         if( isTxConfirmed == LORAMAC_HANDLER_UNCONFIRMED_MSG )
 1522              		.loc 1 612 50 is_stmt 0 view .LVU434
 1523 00b6 6368     		ldr	r3, [r4, #4]
 612:Middlewares/Third_Party/LoRaWAN/LmHandler/LmHandler.c ****         if( isTxConfirmed == LORAMAC_HANDLER_UNCONFIRMED_MSG )
 1524              		.loc 1 612 41 view .LVU435
 1525 00b8 0393     		str	r3, [sp, #12]
 613:Middlewares/Third_Party/LoRaWAN/LmHandler/LmHandler.c ****         {
 1526              		.loc 1 613 9 is_stmt 1 view .LVU436
 613:Middlewares/Third_Party/LoRaWAN/LmHandler/LmHandler.c ****         {
 1527              		.loc 1 613 11 is_stmt 0 view .LVU437
 1528 00ba 1FB9     		cbnz	r7, .L117
 615:Middlewares/Third_Party/LoRaWAN/LmHandler/LmHandler.c ****         }
 1529              		.loc 1 615 13 is_stmt 1 view .LVU438
 615:Middlewares/Third_Party/LoRaWAN/LmHandler/LmHandler.c ****         }
 1530              		.loc 1 615 26 is_stmt 0 view .LVU439
 1531 00bc 0023     		movs	r3, #0
 1532 00be 8DF80430 		strb	r3, [sp, #4]
 1533 00c2 CAE7     		b	.L116
 1534              	.L117:
 619:Middlewares/Third_Party/LoRaWAN/LmHandler/LmHandler.c ****             mcpsReq.Req.Confirmed.NbTrials = 8;
 1535              		.loc 1 619 13 is_stmt 1 view .LVU440
 619:Middlewares/Third_Party/LoRaWAN/LmHandler/LmHandler.c ****             mcpsReq.Req.Confirmed.NbTrials = 8;
 1536              		.loc 1 619 26 is_stmt 0 view .LVU441
 1537 00c4 0123     		movs	r3, #1
 1538 00c6 8DF80430 		strb	r3, [sp, #4]
 620:Middlewares/Third_Party/LoRaWAN/LmHandler/LmHandler.c ****         }
 1539              		.loc 1 620 13 is_stmt 1 view .LVU442
 620:Middlewares/Third_Party/LoRaWAN/LmHandler/LmHandler.c ****         }
 1540              		.loc 1 620 44 is_stmt 0 view .LVU443
 1541 00ca 0823     		movs	r3, #8
 1542 00cc 8DF81330 		strb	r3, [sp, #19]
 1543 00d0 C3E7     		b	.L116
 1544              	.LVL113:
 1545              	.L124:
 633:Middlewares/Third_Party/LoRaWAN/LmHandler/LmHandler.c ****     {
 1546              		.loc 1 633 5 view .LVU444
 1547 00d2 0020     		movs	r0, #0
 1548              	.LVL114:
 633:Middlewares/Third_Party/LoRaWAN/LmHandler/LmHandler.c ****     {
 1549              		.loc 1 633 5 view .LVU445
 1550 00d4 13E0     		b	.L112
 1551              	.LVL115:
 1552              	.L123:
 645:Middlewares/Third_Party/LoRaWAN/LmHandler/LmHandler.c ****             break;
 1553              		.loc 1 645 13 is_stmt 1 view .LVU446
 646:Middlewares/Third_Party/LoRaWAN/LmHandler/LmHandler.c ****         case LORAMAC_STATUS_CRYPTO_ERROR:
 1554              		.loc 1 646 13 view .LVU447
 645:Middlewares/Third_Party/LoRaWAN/LmHandler/LmHandler.c ****             break;
 1555              		.loc 1 645 23 is_stmt 0 view .LVU448
 1556 00d6 6FF00200 		mvn	r0, #2
 1557              	.LVL116:
 646:Middlewares/Third_Party/LoRaWAN/LmHandler/LmHandler.c ****         case LORAMAC_STATUS_CRYPTO_ERROR:
 1558              		.loc 1 646 13 view .LVU449
ARM GAS  /tmp/ccIEh1dP.s 			page 57


 1559 00da 10E0     		b	.L112
 1560              	.LVL117:
 1561              	.L120:
 648:Middlewares/Third_Party/LoRaWAN/LmHandler/LmHandler.c ****             break;
 1562              		.loc 1 648 13 is_stmt 1 view .LVU450
 649:Middlewares/Third_Party/LoRaWAN/LmHandler/LmHandler.c ****         case LORAMAC_STATUS_DUTYCYCLE_RESTRICTED:
 1563              		.loc 1 649 13 view .LVU451
 648:Middlewares/Third_Party/LoRaWAN/LmHandler/LmHandler.c ****             break;
 1564              		.loc 1 648 23 is_stmt 0 view .LVU452
 1565 00dc 6FF00400 		mvn	r0, #4
 1566              	.LVL118:
 649:Middlewares/Third_Party/LoRaWAN/LmHandler/LmHandler.c ****         case LORAMAC_STATUS_DUTYCYCLE_RESTRICTED:
 1567              		.loc 1 649 13 view .LVU453
 1568 00e0 0DE0     		b	.L112
 1569              	.LVL119:
 1570              	.L122:
 651:Middlewares/Third_Party/LoRaWAN/LmHandler/LmHandler.c ****             break;
 1571              		.loc 1 651 13 is_stmt 1 view .LVU454
 652:Middlewares/Third_Party/LoRaWAN/LmHandler/LmHandler.c ****         case LORAMAC_STATUS_SERVICE_UNKNOWN:
 1572              		.loc 1 652 13 view .LVU455
 651:Middlewares/Third_Party/LoRaWAN/LmHandler/LmHandler.c ****             break;
 1573              		.loc 1 651 23 is_stmt 0 view .LVU456
 1574 00e2 6FF00500 		mvn	r0, #5
 1575              	.LVL120:
 652:Middlewares/Third_Party/LoRaWAN/LmHandler/LmHandler.c ****         case LORAMAC_STATUS_SERVICE_UNKNOWN:
 1576              		.loc 1 652 13 view .LVU457
 1577 00e6 0AE0     		b	.L112
 1578              	.LVL121:
 1579              	.L119:
 662:Middlewares/Third_Party/LoRaWAN/LmHandler/LmHandler.c ****             break;
 1580              		.loc 1 662 13 is_stmt 1 view .LVU458
 663:Middlewares/Third_Party/LoRaWAN/LmHandler/LmHandler.c ****     }
 1581              		.loc 1 663 13 view .LVU459
 662:Middlewares/Third_Party/LoRaWAN/LmHandler/LmHandler.c ****             break;
 1582              		.loc 1 662 23 is_stmt 0 view .LVU460
 1583 00e8 4FF0FF30 		mov	r0, #-1
 1584              	.LVL122:
 663:Middlewares/Third_Party/LoRaWAN/LmHandler/LmHandler.c ****     }
 1585              		.loc 1 663 13 view .LVU461
 1586 00ec 07E0     		b	.L112
 1587              	.L125:
 583:Middlewares/Third_Party/LoRaWAN/LmHandler/LmHandler.c ****     }
 1588              		.loc 1 583 16 view .LVU462
 1589 00ee 6FF00100 		mvn	r0, #1
 1590 00f2 04E0     		b	.L112
 1591              	.L126:
 595:Middlewares/Third_Party/LoRaWAN/LmHandler/LmHandler.c ****     }
 1592              		.loc 1 595 16 view .LVU463
 1593 00f4 6FF00300 		mvn	r0, #3
 1594 00f8 01E0     		b	.L112
 1595              	.LVL123:
 1596              	.L127:
 642:Middlewares/Third_Party/LoRaWAN/LmHandler/LmHandler.c ****             break;
 1597              		.loc 1 642 23 view .LVU464
 1598 00fa 6FF00100 		mvn	r0, #1
 1599              	.LVL124:
 1600              	.L112:
ARM GAS  /tmp/ccIEh1dP.s 			page 58


 667:Middlewares/Third_Party/LoRaWAN/LmHandler/LmHandler.c **** 
 1601              		.loc 1 667 1 view .LVU465
 1602 00fe 07B0     		add	sp, sp, #28
 1603              	.LCFI38:
 1604              		.cfi_def_cfa_offset 20
 1605              		@ sp needed
 1606 0100 F0BD     		pop	{r4, r5, r6, r7, pc}
 1607              	.LVL125:
 1608              	.L131:
 667:Middlewares/Third_Party/LoRaWAN/LmHandler/LmHandler.c **** 
 1609              		.loc 1 667 1 view .LVU466
 1610 0102 00BF     		.align	2
 1611              	.L130:
 1612 0104 00000000 		.word	.LANCHOR0
 1613 0108 00000000 		.word	.LANCHOR3
 1614 010c 00000000 		.word	.LANCHOR1
 1615 0110 00000000 		.word	.LANCHOR8
 1616              		.cfi_endproc
 1617              	.LFE111:
 1619              		.section	.text.MlmeIndication,"ax",%progbits
 1620              		.align	1
 1621              		.syntax unified
 1622              		.thumb
 1623              		.thumb_func
 1624              		.fpu softvfp
 1626              	MlmeIndication:
 1627              	.LVL126:
 1628              	.LFB122:
1085:Middlewares/Third_Party/LoRaWAN/LmHandler/LmHandler.c ****     RxParams.IsMcpsIndication = 0;
 1629              		.loc 1 1085 1 is_stmt 1 view -0
 1630              		.cfi_startproc
 1631              		@ args = 0, pretend = 0, frame = 8
 1632              		@ frame_needed = 0, uses_anonymous_args = 0
1085:Middlewares/Third_Party/LoRaWAN/LmHandler/LmHandler.c ****     RxParams.IsMcpsIndication = 0;
 1633              		.loc 1 1085 1 is_stmt 0 view .LVU468
 1634 0000 10B5     		push	{r4, lr}
 1635              	.LCFI39:
 1636              		.cfi_def_cfa_offset 8
 1637              		.cfi_offset 4, -8
 1638              		.cfi_offset 14, -4
 1639 0002 82B0     		sub	sp, sp, #8
 1640              	.LCFI40:
 1641              		.cfi_def_cfa_offset 16
 1642 0004 0446     		mov	r4, r0
1086:Middlewares/Third_Party/LoRaWAN/LmHandler/LmHandler.c ****     RxParams.Status = mlmeIndication->Status;
 1643              		.loc 1 1086 5 is_stmt 1 view .LVU469
1086:Middlewares/Third_Party/LoRaWAN/LmHandler/LmHandler.c ****     RxParams.Status = mlmeIndication->Status;
 1644              		.loc 1 1086 31 is_stmt 0 view .LVU470
 1645 0006 174B     		ldr	r3, .L138
 1646 0008 0022     		movs	r2, #0
 1647 000a 1A70     		strb	r2, [r3]
1087:Middlewares/Third_Party/LoRaWAN/LmHandler/LmHandler.c ****     RxParams.Rssi = RxStatus->Rssi;
 1648              		.loc 1 1087 5 is_stmt 1 view .LVU471
1087:Middlewares/Third_Party/LoRaWAN/LmHandler/LmHandler.c ****     RxParams.Rssi = RxStatus->Rssi;
 1649              		.loc 1 1087 37 is_stmt 0 view .LVU472
 1650 000c 4278     		ldrb	r2, [r0, #1]	@ zero_extendqisi2
1087:Middlewares/Third_Party/LoRaWAN/LmHandler/LmHandler.c ****     RxParams.Rssi = RxStatus->Rssi;
ARM GAS  /tmp/ccIEh1dP.s 			page 59


 1651              		.loc 1 1087 21 view .LVU473
 1652 000e 5A70     		strb	r2, [r3, #1]
1088:Middlewares/Third_Party/LoRaWAN/LmHandler/LmHandler.c ****     RxParams.Snr = RxStatus->Snr;
 1653              		.loc 1 1088 5 is_stmt 1 view .LVU474
1088:Middlewares/Third_Party/LoRaWAN/LmHandler/LmHandler.c ****     RxParams.Snr = RxStatus->Snr;
 1654              		.loc 1 1088 29 is_stmt 0 view .LVU475
 1655 0010 B1F90000 		ldrsh	r0, [r1]
 1656              	.LVL127:
1088:Middlewares/Third_Party/LoRaWAN/LmHandler/LmHandler.c ****     RxParams.Snr = RxStatus->Snr;
 1657              		.loc 1 1088 19 view .LVU476
 1658 0014 D870     		strb	r0, [r3, #3]
1089:Middlewares/Third_Party/LoRaWAN/LmHandler/LmHandler.c ****     RxParams.RxSlot = RxStatus->RxSlot;
 1659              		.loc 1 1089 5 is_stmt 1 view .LVU477
1089:Middlewares/Third_Party/LoRaWAN/LmHandler/LmHandler.c ****     RxParams.RxSlot = RxStatus->RxSlot;
 1660              		.loc 1 1089 28 is_stmt 0 view .LVU478
 1661 0016 91F90200 		ldrsb	r0, [r1, #2]
1089:Middlewares/Third_Party/LoRaWAN/LmHandler/LmHandler.c ****     RxParams.RxSlot = RxStatus->RxSlot;
 1662              		.loc 1 1089 18 view .LVU479
 1663 001a 1871     		strb	r0, [r3, #4]
1090:Middlewares/Third_Party/LoRaWAN/LmHandler/LmHandler.c ****     if( RxParams.Status != LORAMAC_EVENT_INFO_STATUS_BEACON_LOCKED )
 1664              		.loc 1 1090 5 is_stmt 1 view .LVU480
1090:Middlewares/Third_Party/LoRaWAN/LmHandler/LmHandler.c ****     if( RxParams.Status != LORAMAC_EVENT_INFO_STATUS_BEACON_LOCKED )
 1665              		.loc 1 1090 31 is_stmt 0 view .LVU481
 1666 001c 91F90310 		ldrsb	r1, [r1, #3]
 1667              	.LVL128:
1090:Middlewares/Third_Party/LoRaWAN/LmHandler/LmHandler.c ****     if( RxParams.Status != LORAMAC_EVENT_INFO_STATUS_BEACON_LOCKED )
 1668              		.loc 1 1090 21 view .LVU482
 1669 0020 1973     		strb	r1, [r3, #12]
1091:Middlewares/Third_Party/LoRaWAN/LmHandler/LmHandler.c ****     {
 1670              		.loc 1 1091 5 is_stmt 1 view .LVU483
1091:Middlewares/Third_Party/LoRaWAN/LmHandler/LmHandler.c ****     {
 1671              		.loc 1 1091 7 is_stmt 0 view .LVU484
 1672 0022 0E2A     		cmp	r2, #14
 1673 0024 05D0     		beq	.L133
1093:Middlewares/Third_Party/LoRaWAN/LmHandler/LmHandler.c ****     }
 1674              		.loc 1 1093 9 is_stmt 1 view .LVU485
1093:Middlewares/Third_Party/LoRaWAN/LmHandler/LmHandler.c ****     }
 1675              		.loc 1 1093 27 is_stmt 0 view .LVU486
 1676 0026 104B     		ldr	r3, .L138+4
 1677 0028 1B68     		ldr	r3, [r3]
 1678 002a 5B6A     		ldr	r3, [r3, #36]
1093:Middlewares/Third_Party/LoRaWAN/LmHandler/LmHandler.c ****     }
 1679              		.loc 1 1093 9 view .LVU487
 1680 002c 0D49     		ldr	r1, .L138
 1681 002e 0020     		movs	r0, #0
 1682 0030 9847     		blx	r3
 1683              	.LVL129:
 1684              	.L133:
1096:Middlewares/Third_Party/LoRaWAN/LmHandler/LmHandler.c ****     {
 1685              		.loc 1 1096 5 is_stmt 1 view .LVU488
1096:Middlewares/Third_Party/LoRaWAN/LmHandler/LmHandler.c ****     {
 1686              		.loc 1 1096 27 is_stmt 0 view .LVU489
 1687 0032 2378     		ldrb	r3, [r4]	@ zero_extendqisi2
1096:Middlewares/Third_Party/LoRaWAN/LmHandler/LmHandler.c ****     {
 1688              		.loc 1 1096 5 view .LVU490
 1689 0034 072B     		cmp	r3, #7
 1690 0036 01D0     		beq	.L137
ARM GAS  /tmp/ccIEh1dP.s 			page 60


 1691              	.L132:
1160:Middlewares/Third_Party/LoRaWAN/LmHandler/LmHandler.c **** 
 1692              		.loc 1 1160 1 view .LVU491
 1693 0038 02B0     		add	sp, sp, #8
 1694              	.LCFI41:
 1695              		.cfi_remember_state
 1696              		.cfi_def_cfa_offset 8
 1697              		@ sp needed
 1698 003a 10BD     		pop	{r4, pc}
 1699              	.LVL130:
 1700              	.L137:
 1701              	.LCFI42:
 1702              		.cfi_restore_state
 1703              	.LBB5:
1101:Middlewares/Third_Party/LoRaWAN/LmHandler/LmHandler.c ****             {
 1704              		.loc 1 1101 13 is_stmt 1 view .LVU492
1101:Middlewares/Third_Party/LoRaWAN/LmHandler/LmHandler.c ****             {
 1705              		.loc 1 1101 32 is_stmt 0 view .LVU493
 1706 003c 0023     		movs	r3, #0
 1707 003e 8DF80030 		strb	r3, [sp]
 1708 0042 8DF80130 		strb	r3, [sp, #1]
 1709 0046 0193     		str	r3, [sp, #4]
1108:Middlewares/Third_Party/LoRaWAN/LmHandler/LmHandler.c ****             {
 1710              		.loc 1 1108 13 is_stmt 1 view .LVU494
1108:Middlewares/Third_Party/LoRaWAN/LmHandler/LmHandler.c ****             {
 1711              		.loc 1 1108 34 is_stmt 0 view .LVU495
 1712 0048 084B     		ldr	r3, .L138+8
 1713 004a 1B68     		ldr	r3, [r3]
1108:Middlewares/Third_Party/LoRaWAN/LmHandler/LmHandler.c ****             {
 1714              		.loc 1 1108 57 view .LVU496
 1715 004c DB68     		ldr	r3, [r3, #12]
1108:Middlewares/Third_Party/LoRaWAN/LmHandler/LmHandler.c ****             {
 1716              		.loc 1 1108 17 view .LVU497
 1717 004e 9847     		blx	r3
 1718              	.LVL131:
1108:Middlewares/Third_Party/LoRaWAN/LmHandler/LmHandler.c ****             {
 1719              		.loc 1 1108 15 view .LVU498
 1720 0050 0028     		cmp	r0, #0
 1721 0052 F1D1     		bne	.L132
1110:Middlewares/Third_Party/LoRaWAN/LmHandler/LmHandler.c ****             }
 1722              		.loc 1 1110 17 is_stmt 1 view .LVU499
 1723 0054 0123     		movs	r3, #1
 1724 0056 0022     		movs	r2, #0
 1725 0058 1146     		mov	r1, r2
 1726 005a 6846     		mov	r0, sp
 1727 005c FFF7FEFF 		bl	LmHandlerSend
 1728              	.LVL132:
 1729              	.LBE5:
1113:Middlewares/Third_Party/LoRaWAN/LmHandler/LmHandler.c **** #if ( LORAMAC_CLASSB_ENABLED == 1 )
 1730              		.loc 1 1113 9 view .LVU500
1160:Middlewares/Third_Party/LoRaWAN/LmHandler/LmHandler.c **** 
 1731              		.loc 1 1160 1 is_stmt 0 view .LVU501
 1732 0060 EAE7     		b	.L132
 1733              	.L139:
 1734 0062 00BF     		.align	2
 1735              	.L138:
 1736 0064 00000000 		.word	.LANCHOR9
ARM GAS  /tmp/ccIEh1dP.s 			page 61


 1737 0068 00000000 		.word	.LANCHOR2
 1738 006c 00000000 		.word	.LANCHOR0
 1739              		.cfi_endproc
 1740              	.LFE122:
 1742              		.section	.text.LmHandlerGetCurrentClass,"ax",%progbits
 1743              		.align	1
 1744              		.global	LmHandlerGetCurrentClass
 1745              		.syntax unified
 1746              		.thumb
 1747              		.thumb_func
 1748              		.fpu softvfp
 1750              	LmHandlerGetCurrentClass:
 1751              	.LVL133:
 1752              	.LFB115:
 857:Middlewares/Third_Party/LoRaWAN/LmHandler/LmHandler.c ****     MibRequestConfirm_t mibReq;
 1753              		.loc 1 857 1 is_stmt 1 view -0
 1754              		.cfi_startproc
 1755              		@ args = 0, pretend = 0, frame = 40
 1756              		@ frame_needed = 0, uses_anonymous_args = 0
 858:Middlewares/Third_Party/LoRaWAN/LmHandler/LmHandler.c ****     if (deviceClass == NULL)
 1757              		.loc 1 858 5 view .LVU503
 859:Middlewares/Third_Party/LoRaWAN/LmHandler/LmHandler.c ****     {
 1758              		.loc 1 859 5 view .LVU504
 859:Middlewares/Third_Party/LoRaWAN/LmHandler/LmHandler.c ****     {
 1759              		.loc 1 859 8 is_stmt 0 view .LVU505
 1760 0000 70B1     		cbz	r0, .L142
 857:Middlewares/Third_Party/LoRaWAN/LmHandler/LmHandler.c ****     MibRequestConfirm_t mibReq;
 1761              		.loc 1 857 1 view .LVU506
 1762 0002 10B5     		push	{r4, lr}
 1763              	.LCFI43:
 1764              		.cfi_def_cfa_offset 8
 1765              		.cfi_offset 4, -8
 1766              		.cfi_offset 14, -4
 1767 0004 8AB0     		sub	sp, sp, #40
 1768              	.LCFI44:
 1769              		.cfi_def_cfa_offset 48
 1770 0006 0446     		mov	r4, r0
 864:Middlewares/Third_Party/LoRaWAN/LmHandler/LmHandler.c ****     if (LoRaMacMibGetRequestConfirm( &mibReq ) != LORAMAC_STATUS_OK)
 1771              		.loc 1 864 5 is_stmt 1 view .LVU507
 864:Middlewares/Third_Party/LoRaWAN/LmHandler/LmHandler.c ****     if (LoRaMacMibGetRequestConfirm( &mibReq ) != LORAMAC_STATUS_OK)
 1772              		.loc 1 864 17 is_stmt 0 view .LVU508
 1773 0008 0023     		movs	r3, #0
 1774 000a 8DF80430 		strb	r3, [sp, #4]
 865:Middlewares/Third_Party/LoRaWAN/LmHandler/LmHandler.c ****     {
 1775              		.loc 1 865 5 is_stmt 1 view .LVU509
 865:Middlewares/Third_Party/LoRaWAN/LmHandler/LmHandler.c ****     {
 1776              		.loc 1 865 9 is_stmt 0 view .LVU510
 1777 000e 01A8     		add	r0, sp, #4
 1778              	.LVL134:
 865:Middlewares/Third_Party/LoRaWAN/LmHandler/LmHandler.c ****     {
 1779              		.loc 1 865 9 view .LVU511
 1780 0010 FFF7FEFF 		bl	LoRaMacMibGetRequestConfirm
 1781              	.LVL135:
 865:Middlewares/Third_Party/LoRaWAN/LmHandler/LmHandler.c ****     {
 1782              		.loc 1 865 8 view .LVU512
 1783 0014 38B9     		cbnz	r0, .L143
 870:Middlewares/Third_Party/LoRaWAN/LmHandler/LmHandler.c ****     return LORAMAC_HANDLER_SUCCESS;
ARM GAS  /tmp/ccIEh1dP.s 			page 62


 1784              		.loc 1 870 5 is_stmt 1 view .LVU513
 870:Middlewares/Third_Party/LoRaWAN/LmHandler/LmHandler.c ****     return LORAMAC_HANDLER_SUCCESS;
 1785              		.loc 1 870 32 is_stmt 0 view .LVU514
 1786 0016 9DF80830 		ldrb	r3, [sp, #8]	@ zero_extendqisi2
 870:Middlewares/Third_Party/LoRaWAN/LmHandler/LmHandler.c ****     return LORAMAC_HANDLER_SUCCESS;
 1787              		.loc 1 870 18 view .LVU515
 1788 001a 2370     		strb	r3, [r4]
 871:Middlewares/Third_Party/LoRaWAN/LmHandler/LmHandler.c **** }
 1789              		.loc 1 871 5 is_stmt 1 view .LVU516
 1790              	.L141:
 872:Middlewares/Third_Party/LoRaWAN/LmHandler/LmHandler.c **** 
 1791              		.loc 1 872 1 is_stmt 0 view .LVU517
 1792 001c 0AB0     		add	sp, sp, #40
 1793              	.LCFI45:
 1794              		.cfi_def_cfa_offset 8
 1795              		@ sp needed
 1796 001e 10BD     		pop	{r4, pc}
 1797              	.LVL136:
 1798              	.L142:
 1799              	.LCFI46:
 1800              		.cfi_def_cfa_offset 0
 1801              		.cfi_restore 4
 1802              		.cfi_restore 14
 861:Middlewares/Third_Party/LoRaWAN/LmHandler/LmHandler.c ****     }
 1803              		.loc 1 861 16 view .LVU518
 1804 0020 4FF0FF30 		mov	r0, #-1
 1805              	.LVL137:
 872:Middlewares/Third_Party/LoRaWAN/LmHandler/LmHandler.c **** 
 1806              		.loc 1 872 1 view .LVU519
 1807 0024 7047     		bx	lr
 1808              	.LVL138:
 1809              	.L143:
 1810              	.LCFI47:
 1811              		.cfi_def_cfa_offset 48
 1812              		.cfi_offset 4, -8
 1813              		.cfi_offset 14, -4
 867:Middlewares/Third_Party/LoRaWAN/LmHandler/LmHandler.c ****     }
 1814              		.loc 1 867 16 view .LVU520
 1815 0026 4FF0FF30 		mov	r0, #-1
 1816 002a F7E7     		b	.L141
 1817              		.cfi_endproc
 1818              	.LFE115:
 1820              		.section	.text.McpsIndication,"ax",%progbits
 1821              		.align	1
 1822              		.syntax unified
 1823              		.thumb
 1824              		.thumb_func
 1825              		.fpu softvfp
 1827              	McpsIndication:
 1828              	.LVL139:
 1829              	.LFB120:
 939:Middlewares/Third_Party/LoRaWAN/LmHandler/LmHandler.c ****     LmHandlerAppData_t appData;
 1830              		.loc 1 939 1 is_stmt 1 view -0
 1831              		.cfi_startproc
 1832              		@ args = 0, pretend = 0, frame = 24
 1833              		@ frame_needed = 0, uses_anonymous_args = 0
 939:Middlewares/Third_Party/LoRaWAN/LmHandler/LmHandler.c ****     LmHandlerAppData_t appData;
ARM GAS  /tmp/ccIEh1dP.s 			page 63


 1834              		.loc 1 939 1 is_stmt 0 view .LVU522
 1835 0000 30B5     		push	{r4, r5, lr}
 1836              	.LCFI48:
 1837              		.cfi_def_cfa_offset 12
 1838              		.cfi_offset 4, -12
 1839              		.cfi_offset 5, -8
 1840              		.cfi_offset 14, -4
 1841 0002 87B0     		sub	sp, sp, #28
 1842              	.LCFI49:
 1843              		.cfi_def_cfa_offset 40
 1844 0004 0B46     		mov	r3, r1
 940:Middlewares/Third_Party/LoRaWAN/LmHandler/LmHandler.c ****     DeviceClass_t deviceClass = CLASS_A;
 1845              		.loc 1 940 5 is_stmt 1 view .LVU523
 941:Middlewares/Third_Party/LoRaWAN/LmHandler/LmHandler.c ****     RxParams.IsMcpsIndication = 1;
 1846              		.loc 1 941 5 view .LVU524
 941:Middlewares/Third_Party/LoRaWAN/LmHandler/LmHandler.c ****     RxParams.IsMcpsIndication = 1;
 1847              		.loc 1 941 19 is_stmt 0 view .LVU525
 1848 0006 0022     		movs	r2, #0
 1849 0008 8DF80F20 		strb	r2, [sp, #15]
 942:Middlewares/Third_Party/LoRaWAN/LmHandler/LmHandler.c ****     RxParams.Status = mcpsIndication->Status;
 1850              		.loc 1 942 5 is_stmt 1 view .LVU526
 942:Middlewares/Third_Party/LoRaWAN/LmHandler/LmHandler.c ****     RxParams.Status = mcpsIndication->Status;
 1851              		.loc 1 942 31 is_stmt 0 view .LVU527
 1852 000c 2249     		ldr	r1, .L155
 1853              	.LVL140:
 942:Middlewares/Third_Party/LoRaWAN/LmHandler/LmHandler.c ****     RxParams.Status = mcpsIndication->Status;
 1854              		.loc 1 942 31 view .LVU528
 1855 000e 0122     		movs	r2, #1
 1856 0010 0A70     		strb	r2, [r1]
 943:Middlewares/Third_Party/LoRaWAN/LmHandler/LmHandler.c **** 
 1857              		.loc 1 943 5 is_stmt 1 view .LVU529
 943:Middlewares/Third_Party/LoRaWAN/LmHandler/LmHandler.c **** 
 1858              		.loc 1 943 37 is_stmt 0 view .LVU530
 1859 0012 4278     		ldrb	r2, [r0, #1]	@ zero_extendqisi2
 943:Middlewares/Third_Party/LoRaWAN/LmHandler/LmHandler.c **** 
 1860              		.loc 1 943 21 view .LVU531
 1861 0014 4A70     		strb	r2, [r1, #1]
 945:Middlewares/Third_Party/LoRaWAN/LmHandler/LmHandler.c ****     {
 1862              		.loc 1 945 5 is_stmt 1 view .LVU532
 945:Middlewares/Third_Party/LoRaWAN/LmHandler/LmHandler.c ****     {
 1863              		.loc 1 945 7 is_stmt 0 view .LVU533
 1864 0016 62BB     		cbnz	r2, .L148
 1865 0018 0446     		mov	r4, r0
 950:Middlewares/Third_Party/LoRaWAN/LmHandler/LmHandler.c ****     RxParams.Rssi = RxStatus->Rssi;
 1866              		.loc 1 950 5 is_stmt 1 view .LVU534
 950:Middlewares/Third_Party/LoRaWAN/LmHandler/LmHandler.c ****     RxParams.Rssi = RxStatus->Rssi;
 1867              		.loc 1 950 39 is_stmt 0 view .LVU535
 1868 001a 90F90420 		ldrsb	r2, [r0, #4]
 950:Middlewares/Third_Party/LoRaWAN/LmHandler/LmHandler.c ****     RxParams.Rssi = RxStatus->Rssi;
 1869              		.loc 1 950 23 view .LVU536
 1870 001e 8A70     		strb	r2, [r1, #2]
 951:Middlewares/Third_Party/LoRaWAN/LmHandler/LmHandler.c ****     RxParams.Snr = RxStatus->Snr;
 1871              		.loc 1 951 5 is_stmt 1 view .LVU537
 951:Middlewares/Third_Party/LoRaWAN/LmHandler/LmHandler.c ****     RxParams.Snr = RxStatus->Snr;
 1872              		.loc 1 951 29 is_stmt 0 view .LVU538
 1873 0020 B3F90020 		ldrsh	r2, [r3]
 951:Middlewares/Third_Party/LoRaWAN/LmHandler/LmHandler.c ****     RxParams.Snr = RxStatus->Snr;
ARM GAS  /tmp/ccIEh1dP.s 			page 64


 1874              		.loc 1 951 19 view .LVU539
 1875 0024 CA70     		strb	r2, [r1, #3]
 952:Middlewares/Third_Party/LoRaWAN/LmHandler/LmHandler.c ****     RxParams.RxSlot = RxStatus->RxSlot;
 1876              		.loc 1 952 5 is_stmt 1 view .LVU540
 952:Middlewares/Third_Party/LoRaWAN/LmHandler/LmHandler.c ****     RxParams.RxSlot = RxStatus->RxSlot;
 1877              		.loc 1 952 28 is_stmt 0 view .LVU541
 1878 0026 93F90220 		ldrsb	r2, [r3, #2]
 952:Middlewares/Third_Party/LoRaWAN/LmHandler/LmHandler.c ****     RxParams.RxSlot = RxStatus->RxSlot;
 1879              		.loc 1 952 18 view .LVU542
 1880 002a 0A71     		strb	r2, [r1, #4]
 953:Middlewares/Third_Party/LoRaWAN/LmHandler/LmHandler.c ****     RxParams.DownlinkCounter = mcpsIndication->DownLinkCounter;
 1881              		.loc 1 953 5 is_stmt 1 view .LVU543
 953:Middlewares/Third_Party/LoRaWAN/LmHandler/LmHandler.c ****     RxParams.DownlinkCounter = mcpsIndication->DownLinkCounter;
 1882              		.loc 1 953 31 is_stmt 0 view .LVU544
 1883 002c 93F90330 		ldrsb	r3, [r3, #3]
 1884              	.LVL141:
 953:Middlewares/Third_Party/LoRaWAN/LmHandler/LmHandler.c ****     RxParams.DownlinkCounter = mcpsIndication->DownLinkCounter;
 1885              		.loc 1 953 21 view .LVU545
 1886 0030 0B73     		strb	r3, [r1, #12]
 954:Middlewares/Third_Party/LoRaWAN/LmHandler/LmHandler.c **** 
 1887              		.loc 1 954 5 is_stmt 1 view .LVU546
 954:Middlewares/Third_Party/LoRaWAN/LmHandler/LmHandler.c **** 
 1888              		.loc 1 954 46 is_stmt 0 view .LVU547
 1889 0032 0369     		ldr	r3, [r0, #16]
 954:Middlewares/Third_Party/LoRaWAN/LmHandler/LmHandler.c **** 
 1890              		.loc 1 954 30 view .LVU548
 1891 0034 8B60     		str	r3, [r1, #8]
 956:Middlewares/Third_Party/LoRaWAN/LmHandler/LmHandler.c ****     appData.BufferSize = mcpsIndication->BufferSize;
 1892              		.loc 1 956 5 is_stmt 1 view .LVU549
 956:Middlewares/Third_Party/LoRaWAN/LmHandler/LmHandler.c ****     appData.BufferSize = mcpsIndication->BufferSize;
 1893              		.loc 1 956 34 is_stmt 0 view .LVU550
 1894 0036 C378     		ldrb	r3, [r0, #3]	@ zero_extendqisi2
 956:Middlewares/Third_Party/LoRaWAN/LmHandler/LmHandler.c ****     appData.BufferSize = mcpsIndication->BufferSize;
 1895              		.loc 1 956 18 view .LVU551
 1896 0038 8DF81030 		strb	r3, [sp, #16]
 957:Middlewares/Third_Party/LoRaWAN/LmHandler/LmHandler.c ****     appData.Buffer = mcpsIndication->Buffer;
 1897              		.loc 1 957 5 is_stmt 1 view .LVU552
 957:Middlewares/Third_Party/LoRaWAN/LmHandler/LmHandler.c ****     appData.Buffer = mcpsIndication->Buffer;
 1898              		.loc 1 957 40 is_stmt 0 view .LVU553
 1899 003c 037B     		ldrb	r3, [r0, #12]	@ zero_extendqisi2
 957:Middlewares/Third_Party/LoRaWAN/LmHandler/LmHandler.c ****     appData.Buffer = mcpsIndication->Buffer;
 1900              		.loc 1 957 24 view .LVU554
 1901 003e 8DF81130 		strb	r3, [sp, #17]
 958:Middlewares/Third_Party/LoRaWAN/LmHandler/LmHandler.c **** 
 1902              		.loc 1 958 5 is_stmt 1 view .LVU555
 958:Middlewares/Third_Party/LoRaWAN/LmHandler/LmHandler.c **** 
 1903              		.loc 1 958 36 is_stmt 0 view .LVU556
 1904 0042 8368     		ldr	r3, [r0, #8]
 958:Middlewares/Third_Party/LoRaWAN/LmHandler/LmHandler.c **** 
 1905              		.loc 1 958 20 view .LVU557
 1906 0044 0593     		str	r3, [sp, #20]
 960:Middlewares/Third_Party/LoRaWAN/LmHandler/LmHandler.c **** 
 1907              		.loc 1 960 5 is_stmt 1 view .LVU558
 960:Middlewares/Third_Party/LoRaWAN/LmHandler/LmHandler.c **** 
 1908              		.loc 1 960 23 is_stmt 0 view .LVU559
 1909 0046 154D     		ldr	r5, .L155+4
 1910 0048 2B68     		ldr	r3, [r5]
ARM GAS  /tmp/ccIEh1dP.s 			page 65


 1911 004a 5B6A     		ldr	r3, [r3, #36]
 960:Middlewares/Third_Party/LoRaWAN/LmHandler/LmHandler.c **** 
 1912              		.loc 1 960 5 view .LVU560
 1913 004c 04A8     		add	r0, sp, #16
 1914              	.LVL142:
 960:Middlewares/Third_Party/LoRaWAN/LmHandler/LmHandler.c **** 
 1915              		.loc 1 960 5 view .LVU561
 1916 004e 9847     		blx	r3
 1917              	.LVL143:
 962:Middlewares/Third_Party/LoRaWAN/LmHandler/LmHandler.c ****     {
 1918              		.loc 1 962 5 is_stmt 1 view .LVU562
 962:Middlewares/Third_Party/LoRaWAN/LmHandler/LmHandler.c ****     {
 1919              		.loc 1 962 28 is_stmt 0 view .LVU563
 1920 0050 2B68     		ldr	r3, [r5]
 1921 0052 1B6B     		ldr	r3, [r3, #48]
 962:Middlewares/Third_Party/LoRaWAN/LmHandler/LmHandler.c ****     {
 1922              		.loc 1 962 8 view .LVU564
 1923 0054 13B1     		cbz	r3, .L151
 962:Middlewares/Third_Party/LoRaWAN/LmHandler/LmHandler.c ****     {
 1924              		.loc 1 962 73 discriminator 1 view .LVU565
 1925 0056 227E     		ldrb	r2, [r4, #24]	@ zero_extendqisi2
 962:Middlewares/Third_Party/LoRaWAN/LmHandler/LmHandler.c ****     {
 1926              		.loc 1 962 55 discriminator 1 view .LVU566
 1927 0058 02B1     		cbz	r2, .L151
 964:Middlewares/Third_Party/LoRaWAN/LmHandler/LmHandler.c ****     }
 1928              		.loc 1 964 9 is_stmt 1 view .LVU567
 1929 005a 9847     		blx	r3
 1930              	.LVL144:
 1931              	.L151:
 968:Middlewares/Third_Party/LoRaWAN/LmHandler/LmHandler.c **** 
 1932              		.loc 1 968 5 view .LVU568
 1933 005c 2146     		mov	r1, r4
 1934 005e 0120     		movs	r0, #1
 1935 0060 FFF7FEFF 		bl	LmHandlerPackagesNotify
 1936              	.LVL145:
 970:Middlewares/Third_Party/LoRaWAN/LmHandler/LmHandler.c ****     if ((mcpsIndication->FramePending == true) && (deviceClass == CLASS_A))
 1937              		.loc 1 970 5 view .LVU569
 1938 0064 0DF10F00 		add	r0, sp, #15
 1939 0068 FFF7FEFF 		bl	LmHandlerGetCurrentClass
 1940              	.LVL146:
 971:Middlewares/Third_Party/LoRaWAN/LmHandler/LmHandler.c ****     {
 1941              		.loc 1 971 5 view .LVU570
 971:Middlewares/Third_Party/LoRaWAN/LmHandler/LmHandler.c ****     {
 1942              		.loc 1 971 24 is_stmt 0 view .LVU571
 1943 006c 6379     		ldrb	r3, [r4, #5]	@ zero_extendqisi2
 971:Middlewares/Third_Party/LoRaWAN/LmHandler/LmHandler.c ****     {
 1944              		.loc 1 971 8 view .LVU572
 1945 006e 012B     		cmp	r3, #1
 1946 0070 01D0     		beq	.L154
 1947              	.LVL147:
 1948              	.L148:
 985:Middlewares/Third_Party/LoRaWAN/LmHandler/LmHandler.c **** 
 1949              		.loc 1 985 1 view .LVU573
 1950 0072 07B0     		add	sp, sp, #28
 1951              	.LCFI50:
 1952              		.cfi_remember_state
 1953              		.cfi_def_cfa_offset 12
ARM GAS  /tmp/ccIEh1dP.s 			page 66


 1954              		@ sp needed
 1955 0074 30BD     		pop	{r4, r5, pc}
 1956              	.LVL148:
 1957              	.L154:
 1958              	.LCFI51:
 1959              		.cfi_restore_state
 971:Middlewares/Third_Party/LoRaWAN/LmHandler/LmHandler.c ****     {
 1960              		.loc 1 971 64 discriminator 1 view .LVU574
 1961 0076 9DF80F30 		ldrb	r3, [sp, #15]	@ zero_extendqisi2
 971:Middlewares/Third_Party/LoRaWAN/LmHandler/LmHandler.c ****     {
 1962              		.loc 1 971 48 discriminator 1 view .LVU575
 1963 007a 002B     		cmp	r3, #0
 1964 007c F9D1     		bne	.L148
 1965              	.LBB6:
 977:Middlewares/Third_Party/LoRaWAN/LmHandler/LmHandler.c ****         {
 1966              		.loc 1 977 9 is_stmt 1 view .LVU576
 977:Middlewares/Third_Party/LoRaWAN/LmHandler/LmHandler.c ****         {
 1967              		.loc 1 977 28 is_stmt 0 view .LVU577
 1968 007e 0021     		movs	r1, #0
 1969 0080 8DF80410 		strb	r1, [sp, #4]
 1970 0084 8DF80510 		strb	r1, [sp, #5]
 1971 0088 0291     		str	r1, [sp, #8]
 983:Middlewares/Third_Party/LoRaWAN/LmHandler/LmHandler.c ****     }
 1972              		.loc 1 983 9 is_stmt 1 view .LVU578
 1973 008a 0123     		movs	r3, #1
 1974 008c 0A46     		mov	r2, r1
 1975 008e 01A8     		add	r0, sp, #4
 1976 0090 FFF7FEFF 		bl	LmHandlerSend
 1977              	.LVL149:
 1978 0094 EDE7     		b	.L148
 1979              	.L156:
 1980 0096 00BF     		.align	2
 1981              	.L155:
 1982 0098 00000000 		.word	.LANCHOR9
 1983 009c 00000000 		.word	.LANCHOR2
 1984              	.LBE6:
 1985              		.cfi_endproc
 1986              	.LFE120:
 1988              		.section	.text.LmHandlerGetTxDatarate,"ax",%progbits
 1989              		.align	1
 1990              		.global	LmHandlerGetTxDatarate
 1991              		.syntax unified
 1992              		.thumb
 1993              		.thumb_func
 1994              		.fpu softvfp
 1996              	LmHandlerGetTxDatarate:
 1997              	.LVL150:
 1998              	.LFB116:
 875:Middlewares/Third_Party/LoRaWAN/LmHandler/LmHandler.c ****     MibRequestConfirm_t mibGet;
 1999              		.loc 1 875 1 view -0
 2000              		.cfi_startproc
 2001              		@ args = 0, pretend = 0, frame = 40
 2002              		@ frame_needed = 0, uses_anonymous_args = 0
 876:Middlewares/Third_Party/LoRaWAN/LmHandler/LmHandler.c ****     if (txDatarate == NULL)
 2003              		.loc 1 876 5 view .LVU580
 877:Middlewares/Third_Party/LoRaWAN/LmHandler/LmHandler.c ****     {
 2004              		.loc 1 877 5 view .LVU581
ARM GAS  /tmp/ccIEh1dP.s 			page 67


 877:Middlewares/Third_Party/LoRaWAN/LmHandler/LmHandler.c ****     {
 2005              		.loc 1 877 8 is_stmt 0 view .LVU582
 2006 0000 80B1     		cbz	r0, .L159
 875:Middlewares/Third_Party/LoRaWAN/LmHandler/LmHandler.c ****     MibRequestConfirm_t mibGet;
 2007              		.loc 1 875 1 view .LVU583
 2008 0002 10B5     		push	{r4, lr}
 2009              	.LCFI52:
 2010              		.cfi_def_cfa_offset 8
 2011              		.cfi_offset 4, -8
 2012              		.cfi_offset 14, -4
 2013 0004 8AB0     		sub	sp, sp, #40
 2014              	.LCFI53:
 2015              		.cfi_def_cfa_offset 48
 2016 0006 0446     		mov	r4, r0
 882:Middlewares/Third_Party/LoRaWAN/LmHandler/LmHandler.c ****     if (LoRaMacMibGetRequestConfirm( &mibGet ) != LORAMAC_STATUS_OK)
 2017              		.loc 1 882 5 is_stmt 1 view .LVU584
 882:Middlewares/Third_Party/LoRaWAN/LmHandler/LmHandler.c ****     if (LoRaMacMibGetRequestConfirm( &mibGet ) != LORAMAC_STATUS_OK)
 2018              		.loc 1 882 17 is_stmt 0 view .LVU585
 2019 0008 1F23     		movs	r3, #31
 2020 000a 8DF80430 		strb	r3, [sp, #4]
 883:Middlewares/Third_Party/LoRaWAN/LmHandler/LmHandler.c ****     {
 2021              		.loc 1 883 5 is_stmt 1 view .LVU586
 883:Middlewares/Third_Party/LoRaWAN/LmHandler/LmHandler.c ****     {
 2022              		.loc 1 883 9 is_stmt 0 view .LVU587
 2023 000e 01A8     		add	r0, sp, #4
 2024              	.LVL151:
 883:Middlewares/Third_Party/LoRaWAN/LmHandler/LmHandler.c ****     {
 2025              		.loc 1 883 9 view .LVU588
 2026 0010 FFF7FEFF 		bl	LoRaMacMibGetRequestConfirm
 2027              	.LVL152:
 883:Middlewares/Third_Party/LoRaWAN/LmHandler/LmHandler.c ****     {
 2028              		.loc 1 883 8 view .LVU589
 2029 0014 48B9     		cbnz	r0, .L160
 888:Middlewares/Third_Party/LoRaWAN/LmHandler/LmHandler.c ****     LmHandlerParams.TxDatarate = *txDatarate;
 2030              		.loc 1 888 5 is_stmt 1 view .LVU590
 888:Middlewares/Third_Party/LoRaWAN/LmHandler/LmHandler.c ****     LmHandlerParams.TxDatarate = *txDatarate;
 2031              		.loc 1 888 31 is_stmt 0 view .LVU591
 2032 0016 9DF90830 		ldrsb	r3, [sp, #8]
 888:Middlewares/Third_Party/LoRaWAN/LmHandler/LmHandler.c ****     LmHandlerParams.TxDatarate = *txDatarate;
 2033              		.loc 1 888 17 view .LVU592
 2034 001a 2370     		strb	r3, [r4]
 889:Middlewares/Third_Party/LoRaWAN/LmHandler/LmHandler.c ****     return LORAMAC_HANDLER_SUCCESS;
 2035              		.loc 1 889 5 is_stmt 1 view .LVU593
 889:Middlewares/Third_Party/LoRaWAN/LmHandler/LmHandler.c ****     return LORAMAC_HANDLER_SUCCESS;
 2036              		.loc 1 889 32 is_stmt 0 view .LVU594
 2037 001c 044A     		ldr	r2, .L165
 2038 001e D370     		strb	r3, [r2, #3]
 890:Middlewares/Third_Party/LoRaWAN/LmHandler/LmHandler.c **** }
 2039              		.loc 1 890 5 is_stmt 1 view .LVU595
 2040              	.L158:
 891:Middlewares/Third_Party/LoRaWAN/LmHandler/LmHandler.c **** 
 2041              		.loc 1 891 1 is_stmt 0 view .LVU596
 2042 0020 0AB0     		add	sp, sp, #40
 2043              	.LCFI54:
 2044              		.cfi_def_cfa_offset 8
 2045              		@ sp needed
 2046 0022 10BD     		pop	{r4, pc}
ARM GAS  /tmp/ccIEh1dP.s 			page 68


 2047              	.LVL153:
 2048              	.L159:
 2049              	.LCFI55:
 2050              		.cfi_def_cfa_offset 0
 2051              		.cfi_restore 4
 2052              		.cfi_restore 14
 879:Middlewares/Third_Party/LoRaWAN/LmHandler/LmHandler.c ****     }
 2053              		.loc 1 879 16 view .LVU597
 2054 0024 4FF0FF30 		mov	r0, #-1
 2055              	.LVL154:
 891:Middlewares/Third_Party/LoRaWAN/LmHandler/LmHandler.c **** 
 2056              		.loc 1 891 1 view .LVU598
 2057 0028 7047     		bx	lr
 2058              	.LVL155:
 2059              	.L160:
 2060              	.LCFI56:
 2061              		.cfi_def_cfa_offset 48
 2062              		.cfi_offset 4, -8
 2063              		.cfi_offset 14, -4
 885:Middlewares/Third_Party/LoRaWAN/LmHandler/LmHandler.c ****     }
 2064              		.loc 1 885 16 view .LVU599
 2065 002a 4FF0FF30 		mov	r0, #-1
 2066 002e F7E7     		b	.L158
 2067              	.L166:
 2068              		.align	2
 2069              	.L165:
 2070 0030 00000000 		.word	.LANCHOR3
 2071              		.cfi_endproc
 2072              	.LFE116:
 2074              		.section	.text.MlmeConfirm,"ax",%progbits
 2075              		.align	1
 2076              		.syntax unified
 2077              		.thumb
 2078              		.thumb_func
 2079              		.fpu softvfp
 2081              	MlmeConfirm:
 2082              	.LVL156:
 2083              	.LFB121:
 988:Middlewares/Third_Party/LoRaWAN/LmHandler/LmHandler.c ****     TxParams.IsMcpsConfirm = 0;
 2084              		.loc 1 988 1 is_stmt 1 view -0
 2085              		.cfi_startproc
 2086              		@ args = 0, pretend = 0, frame = 40
 2087              		@ frame_needed = 0, uses_anonymous_args = 0
 988:Middlewares/Third_Party/LoRaWAN/LmHandler/LmHandler.c ****     TxParams.IsMcpsConfirm = 0;
 2088              		.loc 1 988 1 is_stmt 0 view .LVU601
 2089 0000 10B5     		push	{r4, lr}
 2090              	.LCFI57:
 2091              		.cfi_def_cfa_offset 8
 2092              		.cfi_offset 4, -8
 2093              		.cfi_offset 14, -4
 2094 0002 8AB0     		sub	sp, sp, #40
 2095              	.LCFI58:
 2096              		.cfi_def_cfa_offset 48
 2097 0004 0446     		mov	r4, r0
 989:Middlewares/Third_Party/LoRaWAN/LmHandler/LmHandler.c ****     TxParams.Status = mlmeConfirm->Status;
 2098              		.loc 1 989 5 is_stmt 1 view .LVU602
 989:Middlewares/Third_Party/LoRaWAN/LmHandler/LmHandler.c ****     TxParams.Status = mlmeConfirm->Status;
ARM GAS  /tmp/ccIEh1dP.s 			page 69


 2099              		.loc 1 989 28 is_stmt 0 view .LVU603
 2100 0006 1D48     		ldr	r0, .L175
 2101              	.LVL157:
 989:Middlewares/Third_Party/LoRaWAN/LmHandler/LmHandler.c ****     TxParams.Status = mlmeConfirm->Status;
 2102              		.loc 1 989 28 view .LVU604
 2103 0008 0023     		movs	r3, #0
 2104 000a 0370     		strb	r3, [r0]
 990:Middlewares/Third_Party/LoRaWAN/LmHandler/LmHandler.c ****     LmHandlerCallbacks->OnTxData( &TxParams );
 2105              		.loc 1 990 5 is_stmt 1 view .LVU605
 990:Middlewares/Third_Party/LoRaWAN/LmHandler/LmHandler.c ****     LmHandlerCallbacks->OnTxData( &TxParams );
 2106              		.loc 1 990 34 is_stmt 0 view .LVU606
 2107 000c 6378     		ldrb	r3, [r4, #1]	@ zero_extendqisi2
 990:Middlewares/Third_Party/LoRaWAN/LmHandler/LmHandler.c ****     LmHandlerCallbacks->OnTxData( &TxParams );
 2108              		.loc 1 990 21 view .LVU607
 2109 000e 4370     		strb	r3, [r0, #1]
 991:Middlewares/Third_Party/LoRaWAN/LmHandler/LmHandler.c **** 
 2110              		.loc 1 991 5 is_stmt 1 view .LVU608
 991:Middlewares/Third_Party/LoRaWAN/LmHandler/LmHandler.c **** 
 2111              		.loc 1 991 23 is_stmt 0 view .LVU609
 2112 0010 1B4B     		ldr	r3, .L175+4
 2113 0012 1B68     		ldr	r3, [r3]
 2114 0014 1B6A     		ldr	r3, [r3, #32]
 991:Middlewares/Third_Party/LoRaWAN/LmHandler/LmHandler.c **** 
 2115              		.loc 1 991 5 view .LVU610
 2116 0016 9847     		blx	r3
 2117              	.LVL158:
 993:Middlewares/Third_Party/LoRaWAN/LmHandler/LmHandler.c **** 
 2118              		.loc 1 993 5 is_stmt 1 view .LVU611
 2119 0018 2146     		mov	r1, r4
 2120 001a 0220     		movs	r0, #2
 2121 001c FFF7FEFF 		bl	LmHandlerPackagesNotify
 2122              	.LVL159:
 995:Middlewares/Third_Party/LoRaWAN/LmHandler/LmHandler.c ****     {
 2123              		.loc 1 995 5 view .LVU612
 995:Middlewares/Third_Party/LoRaWAN/LmHandler/LmHandler.c ****     {
 2124              		.loc 1 995 24 is_stmt 0 view .LVU613
 2125 0020 2378     		ldrb	r3, [r4]	@ zero_extendqisi2
 995:Middlewares/Third_Party/LoRaWAN/LmHandler/LmHandler.c ****     {
 2126              		.loc 1 995 5 view .LVU614
 2127 0022 012B     		cmp	r3, #1
 2128 0024 03D0     		beq	.L168
 2129 0026 042B     		cmp	r3, #4
 2130 0028 20D0     		beq	.L169
 2131              	.L167:
1082:Middlewares/Third_Party/LoRaWAN/LmHandler/LmHandler.c **** 
 2132              		.loc 1 1082 1 view .LVU615
 2133 002a 0AB0     		add	sp, sp, #40
 2134              	.LCFI59:
 2135              		.cfi_remember_state
 2136              		.cfi_def_cfa_offset 8
 2137              		@ sp needed
 2138 002c 10BD     		pop	{r4, pc}
 2139              	.LVL160:
 2140              	.L168:
 2141              	.LCFI60:
 2142              		.cfi_restore_state
 2143              	.LBB7:
ARM GAS  /tmp/ccIEh1dP.s 			page 70


 999:Middlewares/Third_Party/LoRaWAN/LmHandler/LmHandler.c ****             mibReq.Type = MIB_DEV_ADDR;
 2144              		.loc 1 999 13 is_stmt 1 view .LVU616
1000:Middlewares/Third_Party/LoRaWAN/LmHandler/LmHandler.c ****             LoRaMacMibGetRequestConfirm( &mibReq );
 2145              		.loc 1 1000 13 view .LVU617
1000:Middlewares/Third_Party/LoRaWAN/LmHandler/LmHandler.c ****             LoRaMacMibGetRequestConfirm( &mibReq );
 2146              		.loc 1 1000 25 is_stmt 0 view .LVU618
 2147 002e 0623     		movs	r3, #6
 2148 0030 8DF80430 		strb	r3, [sp, #4]
1001:Middlewares/Third_Party/LoRaWAN/LmHandler/LmHandler.c ****             CommissioningParams.DevAddr = mibReq.Param.DevAddr;
 2149              		.loc 1 1001 13 is_stmt 1 view .LVU619
 2150 0034 01A8     		add	r0, sp, #4
 2151 0036 FFF7FEFF 		bl	LoRaMacMibGetRequestConfirm
 2152              	.LVL161:
1002:Middlewares/Third_Party/LoRaWAN/LmHandler/LmHandler.c ****             LmHandlerGetTxDatarate( &JoinParams.Datarate );
 2153              		.loc 1 1002 13 view .LVU620
1002:Middlewares/Third_Party/LoRaWAN/LmHandler/LmHandler.c ****             LmHandlerGetTxDatarate( &JoinParams.Datarate );
 2154              		.loc 1 1002 41 is_stmt 0 view .LVU621
 2155 003a 029A     		ldr	r2, [sp, #8]
 2156 003c 114B     		ldr	r3, .L175+8
 2157 003e 5A61     		str	r2, [r3, #20]
1003:Middlewares/Third_Party/LoRaWAN/LmHandler/LmHandler.c **** 
 2158              		.loc 1 1003 13 is_stmt 1 view .LVU622
 2159 0040 1148     		ldr	r0, .L175+12
 2160 0042 FFF7FEFF 		bl	LmHandlerGetTxDatarate
 2161              	.LVL162:
1005:Middlewares/Third_Party/LoRaWAN/LmHandler/LmHandler.c ****             {
 2162              		.loc 1 1005 13 view .LVU623
1005:Middlewares/Third_Party/LoRaWAN/LmHandler/LmHandler.c ****             {
 2163              		.loc 1 1005 28 is_stmt 0 view .LVU624
 2164 0046 6378     		ldrb	r3, [r4, #1]	@ zero_extendqisi2
1005:Middlewares/Third_Party/LoRaWAN/LmHandler/LmHandler.c ****             {
 2165              		.loc 1 1005 15 view .LVU625
 2166 0048 43B1     		cbz	r3, .L174
1014:Middlewares/Third_Party/LoRaWAN/LmHandler/LmHandler.c ****             }
 2167              		.loc 1 1014 17 is_stmt 1 view .LVU626
1014:Middlewares/Third_Party/LoRaWAN/LmHandler/LmHandler.c ****             }
 2168              		.loc 1 1014 35 is_stmt 0 view .LVU627
 2169 004a 0F4B     		ldr	r3, .L175+12
 2170 004c FF22     		movs	r2, #255
 2171 004e 5A70     		strb	r2, [r3, #1]
 2172              	.L172:
1017:Middlewares/Third_Party/LoRaWAN/LmHandler/LmHandler.c ****         }
 2173              		.loc 1 1017 13 is_stmt 1 view .LVU628
1017:Middlewares/Third_Party/LoRaWAN/LmHandler/LmHandler.c ****         }
 2174              		.loc 1 1017 31 is_stmt 0 view .LVU629
 2175 0050 0B4B     		ldr	r3, .L175+4
 2176 0052 1B68     		ldr	r3, [r3]
 2177 0054 DB69     		ldr	r3, [r3, #28]
1017:Middlewares/Third_Party/LoRaWAN/LmHandler/LmHandler.c ****         }
 2178              		.loc 1 1017 13 view .LVU630
 2179 0056 0C48     		ldr	r0, .L175+12
 2180 0058 9847     		blx	r3
 2181              	.LVL163:
 2182              	.LBE7:
1019:Middlewares/Third_Party/LoRaWAN/LmHandler/LmHandler.c ****     case MLME_LINK_CHECK:
 2183              		.loc 1 1019 9 is_stmt 1 view .LVU631
 2184 005a E6E7     		b	.L167
ARM GAS  /tmp/ccIEh1dP.s 			page 71


 2185              	.L174:
 2186              	.LBB8:
1008:Middlewares/Third_Party/LoRaWAN/LmHandler/LmHandler.c ****                 LmHandlerRequestClass(LmHandlerParams.DefaultClass);
 2187              		.loc 1 1008 17 view .LVU632
1008:Middlewares/Third_Party/LoRaWAN/LmHandler/LmHandler.c ****                 LmHandlerRequestClass(LmHandlerParams.DefaultClass);
 2188              		.loc 1 1008 35 is_stmt 0 view .LVU633
 2189 005c 0A4B     		ldr	r3, .L175+12
 2190 005e 0022     		movs	r2, #0
 2191 0060 5A70     		strb	r2, [r3, #1]
1009:Middlewares/Third_Party/LoRaWAN/LmHandler/LmHandler.c ****             }
 2192              		.loc 1 1009 17 is_stmt 1 view .LVU634
 2193 0062 0A4B     		ldr	r3, .L175+16
 2194 0064 5878     		ldrb	r0, [r3, #1]	@ zero_extendqisi2
 2195 0066 FFF7FEFF 		bl	LmHandlerRequestClass
 2196              	.LVL164:
 2197 006a F1E7     		b	.L172
 2198              	.L169:
1009:Middlewares/Third_Party/LoRaWAN/LmHandler/LmHandler.c ****             }
 2199              		.loc 1 1009 17 is_stmt 0 view .LVU635
 2200              	.LBE8:
1022:Middlewares/Third_Party/LoRaWAN/LmHandler/LmHandler.c ****             RxParams.DemodMargin = mlmeConfirm->DemodMargin;
 2201              		.loc 1 1022 13 is_stmt 1 view .LVU636
1022:Middlewares/Third_Party/LoRaWAN/LmHandler/LmHandler.c ****             RxParams.DemodMargin = mlmeConfirm->DemodMargin;
 2202              		.loc 1 1022 32 is_stmt 0 view .LVU637
 2203 006c 084B     		ldr	r3, .L175+20
 2204 006e 0122     		movs	r2, #1
 2205 0070 5A73     		strb	r2, [r3, #13]
1023:Middlewares/Third_Party/LoRaWAN/LmHandler/LmHandler.c ****             RxParams.NbGateways = mlmeConfirm->NbGateways;
 2206              		.loc 1 1023 13 is_stmt 1 view .LVU638
1023:Middlewares/Third_Party/LoRaWAN/LmHandler/LmHandler.c ****             RxParams.NbGateways = mlmeConfirm->NbGateways;
 2207              		.loc 1 1023 47 is_stmt 0 view .LVU639
 2208 0072 227A     		ldrb	r2, [r4, #8]	@ zero_extendqisi2
1023:Middlewares/Third_Party/LoRaWAN/LmHandler/LmHandler.c ****             RxParams.NbGateways = mlmeConfirm->NbGateways;
 2209              		.loc 1 1023 34 view .LVU640
 2210 0074 9A73     		strb	r2, [r3, #14]
1024:Middlewares/Third_Party/LoRaWAN/LmHandler/LmHandler.c ****         }
 2211              		.loc 1 1024 13 is_stmt 1 view .LVU641
1024:Middlewares/Third_Party/LoRaWAN/LmHandler/LmHandler.c ****         }
 2212              		.loc 1 1024 46 is_stmt 0 view .LVU642
 2213 0076 627A     		ldrb	r2, [r4, #9]	@ zero_extendqisi2
1024:Middlewares/Third_Party/LoRaWAN/LmHandler/LmHandler.c ****         }
 2214              		.loc 1 1024 33 view .LVU643
 2215 0078 DA73     		strb	r2, [r3, #15]
1026:Middlewares/Third_Party/LoRaWAN/LmHandler/LmHandler.c ****     case MLME_DEVICE_TIME:
 2216              		.loc 1 1026 9 is_stmt 1 view .LVU644
1082:Middlewares/Third_Party/LoRaWAN/LmHandler/LmHandler.c **** 
 2217              		.loc 1 1082 1 is_stmt 0 view .LVU645
 2218 007a D6E7     		b	.L167
 2219              	.L176:
 2220              		.align	2
 2221              	.L175:
 2222 007c 00000000 		.word	.LANCHOR1
 2223 0080 00000000 		.word	.LANCHOR2
 2224 0084 00000000 		.word	.LANCHOR7
 2225 0088 00000000 		.word	.LANCHOR8
 2226 008c 00000000 		.word	.LANCHOR3
 2227 0090 00000000 		.word	.LANCHOR9
ARM GAS  /tmp/ccIEh1dP.s 			page 72


 2228              		.cfi_endproc
 2229              	.LFE121:
 2231              		.section	.text.LmHandlerGetActiveRegion,"ax",%progbits
 2232              		.align	1
 2233              		.global	LmHandlerGetActiveRegion
 2234              		.syntax unified
 2235              		.thumb
 2236              		.thumb_func
 2237              		.fpu softvfp
 2239              	LmHandlerGetActiveRegion:
 2240              	.LVL165:
 2241              	.LFB117:
 894:Middlewares/Third_Party/LoRaWAN/LmHandler/LmHandler.c ****     if (region == NULL)
 2242              		.loc 1 894 1 is_stmt 1 view -0
 2243              		.cfi_startproc
 2244              		@ args = 0, pretend = 0, frame = 0
 2245              		@ frame_needed = 0, uses_anonymous_args = 0
 2246              		@ link register save eliminated.
 895:Middlewares/Third_Party/LoRaWAN/LmHandler/LmHandler.c ****     {
 2247              		.loc 1 895 5 view .LVU647
 895:Middlewares/Third_Party/LoRaWAN/LmHandler/LmHandler.c ****     {
 2248              		.loc 1 895 8 is_stmt 0 view .LVU648
 2249 0000 20B1     		cbz	r0, .L179
 900:Middlewares/Third_Party/LoRaWAN/LmHandler/LmHandler.c ****     return LORAMAC_HANDLER_SUCCESS;
 2250              		.loc 1 900 5 is_stmt 1 view .LVU649
 900:Middlewares/Third_Party/LoRaWAN/LmHandler/LmHandler.c ****     return LORAMAC_HANDLER_SUCCESS;
 2251              		.loc 1 900 30 is_stmt 0 view .LVU650
 2252 0002 044A     		ldr	r2, .L180
 2253 0004 1278     		ldrb	r2, [r2]	@ zero_extendqisi2
 900:Middlewares/Third_Party/LoRaWAN/LmHandler/LmHandler.c ****     return LORAMAC_HANDLER_SUCCESS;
 2254              		.loc 1 900 13 view .LVU651
 2255 0006 0270     		strb	r2, [r0]
 901:Middlewares/Third_Party/LoRaWAN/LmHandler/LmHandler.c **** }
 2256              		.loc 1 901 5 is_stmt 1 view .LVU652
 901:Middlewares/Third_Party/LoRaWAN/LmHandler/LmHandler.c **** }
 2257              		.loc 1 901 12 is_stmt 0 view .LVU653
 2258 0008 0020     		movs	r0, #0
 2259              	.LVL166:
 901:Middlewares/Third_Party/LoRaWAN/LmHandler/LmHandler.c **** }
 2260              		.loc 1 901 12 view .LVU654
 2261 000a 7047     		bx	lr
 2262              	.LVL167:
 2263              	.L179:
 897:Middlewares/Third_Party/LoRaWAN/LmHandler/LmHandler.c ****     }
 2264              		.loc 1 897 16 view .LVU655
 2265 000c 4FF0FF30 		mov	r0, #-1
 2266              	.LVL168:
 902:Middlewares/Third_Party/LoRaWAN/LmHandler/LmHandler.c **** 
 2267              		.loc 1 902 1 view .LVU656
 2268 0010 7047     		bx	lr
 2269              	.L181:
 2270 0012 00BF     		.align	2
 2271              	.L180:
 2272 0014 00000000 		.word	.LANCHOR3
 2273              		.cfi_endproc
 2274              	.LFE117:
 2276              		.section	.text.LmHandlerPackageRegister,"ax",%progbits
ARM GAS  /tmp/ccIEh1dP.s 			page 73


 2277              		.align	1
 2278              		.global	LmHandlerPackageRegister
 2279              		.syntax unified
 2280              		.thumb
 2281              		.thumb_func
 2282              		.fpu softvfp
 2284              	LmHandlerPackageRegister:
 2285              	.LVL169:
 2286              	.LFB123:
1169:Middlewares/Third_Party/LoRaWAN/LmHandler/LmHandler.c ****     LmhPackage_t *package = NULL;
 2287              		.loc 1 1169 1 is_stmt 1 view -0
 2288              		.cfi_startproc
 2289              		@ args = 0, pretend = 0, frame = 0
 2290              		@ frame_needed = 0, uses_anonymous_args = 0
1170:Middlewares/Third_Party/LoRaWAN/LmHandler/LmHandler.c ****     switch( id )
 2291              		.loc 1 1170 5 view .LVU658
1171:Middlewares/Third_Party/LoRaWAN/LmHandler/LmHandler.c ****     {
 2292              		.loc 1 1171 5 view .LVU659
 2293 0000 E0B9     		cbnz	r0, .L186
1169:Middlewares/Third_Party/LoRaWAN/LmHandler/LmHandler.c ****     LmhPackage_t *package = NULL;
 2294              		.loc 1 1169 1 is_stmt 0 view .LVU660
 2295 0002 38B5     		push	{r3, r4, r5, lr}
 2296              	.LCFI61:
 2297              		.cfi_def_cfa_offset 16
 2298              		.cfi_offset 3, -16
 2299              		.cfi_offset 4, -12
 2300              		.cfi_offset 5, -8
 2301              		.cfi_offset 14, -4
 2302 0004 0C46     		mov	r4, r1
 2303 0006 0546     		mov	r5, r0
1175:Middlewares/Third_Party/LoRaWAN/LmHandler/LmHandler.c ****             break;
 2304              		.loc 1 1175 13 is_stmt 1 view .LVU661
1175:Middlewares/Third_Party/LoRaWAN/LmHandler/LmHandler.c ****             break;
 2305              		.loc 1 1175 23 is_stmt 0 view .LVU662
 2306 0008 FFF7FEFF 		bl	LmhpCompliancePackageFactory
 2307              	.LVL170:
1176:Middlewares/Third_Party/LoRaWAN/LmHandler/LmHandler.c ****         }
 2308              		.loc 1 1176 13 is_stmt 1 view .LVU663
1187:Middlewares/Third_Party/LoRaWAN/LmHandler/LmHandler.c ****     {
 2309              		.loc 1 1187 5 view .LVU664
1187:Middlewares/Third_Party/LoRaWAN/LmHandler/LmHandler.c ****     {
 2310              		.loc 1 1187 7 is_stmt 0 view .LVU665
 2311 000c 98B1     		cbz	r0, .L183
1189:Middlewares/Third_Party/LoRaWAN/LmHandler/LmHandler.c ****         LmHandlerPackages[id]->OnJoinRequest = LmHandlerJoin;
 2312              		.loc 1 1189 9 is_stmt 1 view .LVU666
1189:Middlewares/Third_Party/LoRaWAN/LmHandler/LmHandler.c ****         LmHandlerPackages[id]->OnJoinRequest = LmHandlerJoin;
 2313              		.loc 1 1189 31 is_stmt 0 view .LVU667
 2314 000e 0D4A     		ldr	r2, .L190
 2315 0010 42F82500 		str	r0, [r2, r5, lsl #2]
1190:Middlewares/Third_Party/LoRaWAN/LmHandler/LmHandler.c ****         LmHandlerPackages[id]->OnSendRequest = LmHandlerSend;
 2316              		.loc 1 1190 9 is_stmt 1 view .LVU668
1190:Middlewares/Third_Party/LoRaWAN/LmHandler/LmHandler.c ****         LmHandlerPackages[id]->OnSendRequest = LmHandlerSend;
 2317              		.loc 1 1190 46 is_stmt 0 view .LVU669
 2318 0014 0C4A     		ldr	r2, .L190+4
 2319 0016 4262     		str	r2, [r0, #36]
1191:Middlewares/Third_Party/LoRaWAN/LmHandler/LmHandler.c ****         LmHandlerPackages[id]->OnDeviceTimeRequest = LmHandlerDeviceTimeReq;
 2320              		.loc 1 1191 9 is_stmt 1 view .LVU670
ARM GAS  /tmp/ccIEh1dP.s 			page 74


1191:Middlewares/Third_Party/LoRaWAN/LmHandler/LmHandler.c ****         LmHandlerPackages[id]->OnDeviceTimeRequest = LmHandlerDeviceTimeReq;
 2321              		.loc 1 1191 46 is_stmt 0 view .LVU671
 2322 0018 0C4A     		ldr	r2, .L190+8
 2323 001a 8262     		str	r2, [r0, #40]
1192:Middlewares/Third_Party/LoRaWAN/LmHandler/LmHandler.c ****         LmHandlerPackages[id]->OnPackageProcessEvent = LmHandlerCallbacks->OnMacProcess;
 2324              		.loc 1 1192 9 is_stmt 1 view .LVU672
1192:Middlewares/Third_Party/LoRaWAN/LmHandler/LmHandler.c ****         LmHandlerPackages[id]->OnPackageProcessEvent = LmHandlerCallbacks->OnMacProcess;
 2325              		.loc 1 1192 52 is_stmt 0 view .LVU673
 2326 001c 0C4A     		ldr	r2, .L190+12
 2327 001e C262     		str	r2, [r0, #44]
1193:Middlewares/Third_Party/LoRaWAN/LmHandler/LmHandler.c ****         LmHandlerPackages[id]->Init( params, AppData.Buffer, AppData.BufferSize );
 2328              		.loc 1 1193 9 is_stmt 1 view .LVU674
1193:Middlewares/Third_Party/LoRaWAN/LmHandler/LmHandler.c ****         LmHandlerPackages[id]->Init( params, AppData.Buffer, AppData.BufferSize );
 2329              		.loc 1 1193 74 is_stmt 0 view .LVU675
 2330 0020 0C4A     		ldr	r2, .L190+16
 2331 0022 1268     		ldr	r2, [r2]
 2332 0024 1269     		ldr	r2, [r2, #16]
1193:Middlewares/Third_Party/LoRaWAN/LmHandler/LmHandler.c ****         LmHandlerPackages[id]->Init( params, AppData.Buffer, AppData.BufferSize );
 2333              		.loc 1 1193 54 view .LVU676
 2334 0026 4261     		str	r2, [r0, #20]
1194:Middlewares/Third_Party/LoRaWAN/LmHandler/LmHandler.c **** 
 2335              		.loc 1 1194 9 is_stmt 1 view .LVU677
1194:Middlewares/Third_Party/LoRaWAN/LmHandler/LmHandler.c **** 
 2336              		.loc 1 1194 30 is_stmt 0 view .LVU678
 2337 0028 4368     		ldr	r3, [r0, #4]
1194:Middlewares/Third_Party/LoRaWAN/LmHandler/LmHandler.c **** 
 2338              		.loc 1 1194 9 view .LVU679
 2339 002a F222     		movs	r2, #242
 2340 002c 0A49     		ldr	r1, .L190+20
 2341 002e 2046     		mov	r0, r4
 2342              	.LVL171:
1194:Middlewares/Third_Party/LoRaWAN/LmHandler/LmHandler.c **** 
 2343              		.loc 1 1194 9 view .LVU680
 2344 0030 9847     		blx	r3
 2345              	.LVL172:
1196:Middlewares/Third_Party/LoRaWAN/LmHandler/LmHandler.c ****     }
 2346              		.loc 1 1196 9 is_stmt 1 view .LVU681
1196:Middlewares/Third_Party/LoRaWAN/LmHandler/LmHandler.c ****     }
 2347              		.loc 1 1196 16 is_stmt 0 view .LVU682
 2348 0032 0020     		movs	r0, #0
 2349              	.L184:
1202:Middlewares/Third_Party/LoRaWAN/LmHandler/LmHandler.c **** 
 2350              		.loc 1 1202 1 view .LVU683
 2351 0034 38BD     		pop	{r3, r4, r5, pc}
 2352              	.LVL173:
 2353              	.L183:
1200:Middlewares/Third_Party/LoRaWAN/LmHandler/LmHandler.c ****     }
 2354              		.loc 1 1200 9 is_stmt 1 view .LVU684
1200:Middlewares/Third_Party/LoRaWAN/LmHandler/LmHandler.c ****     }
 2355              		.loc 1 1200 16 is_stmt 0 view .LVU685
 2356 0036 4FF0FF30 		mov	r0, #-1
 2357 003a FBE7     		b	.L184
 2358              	.LVL174:
 2359              	.L186:
 2360              	.LCFI62:
 2361              		.cfi_def_cfa_offset 0
 2362              		.cfi_restore 3
ARM GAS  /tmp/ccIEh1dP.s 			page 75


 2363              		.cfi_restore 4
 2364              		.cfi_restore 5
 2365              		.cfi_restore 14
1200:Middlewares/Third_Party/LoRaWAN/LmHandler/LmHandler.c ****     }
 2366              		.loc 1 1200 9 is_stmt 1 view .LVU686
1200:Middlewares/Third_Party/LoRaWAN/LmHandler/LmHandler.c ****     }
 2367              		.loc 1 1200 16 is_stmt 0 view .LVU687
 2368 003c 4FF0FF30 		mov	r0, #-1
 2369              	.LVL175:
1202:Middlewares/Third_Party/LoRaWAN/LmHandler/LmHandler.c **** 
 2370              		.loc 1 1202 1 view .LVU688
 2371 0040 7047     		bx	lr
 2372              	.L191:
 2373 0042 00BF     		.align	2
 2374              	.L190:
 2375 0044 00000000 		.word	.LANCHOR0
 2376 0048 00000000 		.word	LmHandlerJoin
 2377 004c 00000000 		.word	LmHandlerSend
 2378 0050 00000000 		.word	LmHandlerDeviceTimeReq
 2379 0054 00000000 		.word	.LANCHOR2
 2380 0058 00000000 		.word	.LANCHOR10
 2381              		.cfi_endproc
 2382              	.LFE123:
 2384              		.section	.text.LmHandlerInit,"ax",%progbits
 2385              		.align	1
 2386              		.global	LmHandlerInit
 2387              		.syntax unified
 2388              		.thumb
 2389              		.thumb_func
 2390              		.fpu softvfp
 2392              	LmHandlerInit:
 2393              	.LVL176:
 2394              	.LFB104:
 303:Middlewares/Third_Party/LoRaWAN/LmHandler/LmHandler.c ****     LmHandlerCallbacks = handlerCallbacks;
 2395              		.loc 1 303 1 is_stmt 1 view -0
 2396              		.cfi_startproc
 2397              		@ args = 0, pretend = 0, frame = 0
 2398              		@ frame_needed = 0, uses_anonymous_args = 0
 303:Middlewares/Third_Party/LoRaWAN/LmHandler/LmHandler.c ****     LmHandlerCallbacks = handlerCallbacks;
 2399              		.loc 1 303 1 is_stmt 0 view .LVU690
 2400 0000 08B5     		push	{r3, lr}
 2401              	.LCFI63:
 2402              		.cfi_def_cfa_offset 8
 2403              		.cfi_offset 3, -8
 2404              		.cfi_offset 14, -4
 304:Middlewares/Third_Party/LoRaWAN/LmHandler/LmHandler.c **** 
 2405              		.loc 1 304 5 is_stmt 1 view .LVU691
 304:Middlewares/Third_Party/LoRaWAN/LmHandler/LmHandler.c **** 
 2406              		.loc 1 304 24 is_stmt 0 view .LVU692
 2407 0002 0F4B     		ldr	r3, .L197
 2408 0004 1860     		str	r0, [r3]
 306:Middlewares/Third_Party/LoRaWAN/LmHandler/LmHandler.c ****     LoRaMacPrimitives.MacMcpsIndication = McpsIndication;
 2409              		.loc 1 306 5 is_stmt 1 view .LVU693
 306:Middlewares/Third_Party/LoRaWAN/LmHandler/LmHandler.c ****     LoRaMacPrimitives.MacMcpsIndication = McpsIndication;
 2410              		.loc 1 306 38 is_stmt 0 view .LVU694
 2411 0006 0F4B     		ldr	r3, .L197+4
 2412 0008 0F4A     		ldr	r2, .L197+8
ARM GAS  /tmp/ccIEh1dP.s 			page 76


 2413 000a 1A60     		str	r2, [r3]
 307:Middlewares/Third_Party/LoRaWAN/LmHandler/LmHandler.c ****     LoRaMacPrimitives.MacMlmeConfirm = MlmeConfirm;
 2414              		.loc 1 307 5 is_stmt 1 view .LVU695
 307:Middlewares/Third_Party/LoRaWAN/LmHandler/LmHandler.c ****     LoRaMacPrimitives.MacMlmeConfirm = MlmeConfirm;
 2415              		.loc 1 307 41 is_stmt 0 view .LVU696
 2416 000c 0F4A     		ldr	r2, .L197+12
 2417 000e 5A60     		str	r2, [r3, #4]
 308:Middlewares/Third_Party/LoRaWAN/LmHandler/LmHandler.c ****     LoRaMacPrimitives.MacMlmeIndication = MlmeIndication;
 2418              		.loc 1 308 5 is_stmt 1 view .LVU697
 308:Middlewares/Third_Party/LoRaWAN/LmHandler/LmHandler.c ****     LoRaMacPrimitives.MacMlmeIndication = MlmeIndication;
 2419              		.loc 1 308 38 is_stmt 0 view .LVU698
 2420 0010 0F4A     		ldr	r2, .L197+16
 2421 0012 9A60     		str	r2, [r3, #8]
 309:Middlewares/Third_Party/LoRaWAN/LmHandler/LmHandler.c ****     LoRaMacCallbacks.GetBatteryLevel = LmHandlerCallbacks->GetBatteryLevel;
 2422              		.loc 1 309 5 is_stmt 1 view .LVU699
 309:Middlewares/Third_Party/LoRaWAN/LmHandler/LmHandler.c ****     LoRaMacCallbacks.GetBatteryLevel = LmHandlerCallbacks->GetBatteryLevel;
 2423              		.loc 1 309 41 is_stmt 0 view .LVU700
 2424 0014 0F4A     		ldr	r2, .L197+20
 2425 0016 DA60     		str	r2, [r3, #12]
 310:Middlewares/Third_Party/LoRaWAN/LmHandler/LmHandler.c ****     LoRaMacCallbacks.GetTemperatureLevel = LmHandlerCallbacks->GetTemperature;
 2426              		.loc 1 310 5 is_stmt 1 view .LVU701
 310:Middlewares/Third_Party/LoRaWAN/LmHandler/LmHandler.c ****     LoRaMacCallbacks.GetTemperatureLevel = LmHandlerCallbacks->GetTemperature;
 2427              		.loc 1 310 58 is_stmt 0 view .LVU702
 2428 0018 0268     		ldr	r2, [r0]
 310:Middlewares/Third_Party/LoRaWAN/LmHandler/LmHandler.c ****     LoRaMacCallbacks.GetTemperatureLevel = LmHandlerCallbacks->GetTemperature;
 2429              		.loc 1 310 38 view .LVU703
 2430 001a 0F4B     		ldr	r3, .L197+24
 2431 001c 1A60     		str	r2, [r3]
 311:Middlewares/Third_Party/LoRaWAN/LmHandler/LmHandler.c ****     LoRaMacCallbacks.GetUniqueId = LmHandlerCallbacks->GetUniqueId;
 2432              		.loc 1 311 5 is_stmt 1 view .LVU704
 311:Middlewares/Third_Party/LoRaWAN/LmHandler/LmHandler.c ****     LoRaMacCallbacks.GetUniqueId = LmHandlerCallbacks->GetUniqueId;
 2433              		.loc 1 311 62 is_stmt 0 view .LVU705
 2434 001e 4268     		ldr	r2, [r0, #4]
 311:Middlewares/Third_Party/LoRaWAN/LmHandler/LmHandler.c ****     LoRaMacCallbacks.GetUniqueId = LmHandlerCallbacks->GetUniqueId;
 2435              		.loc 1 311 42 view .LVU706
 2436 0020 5A60     		str	r2, [r3, #4]
 312:Middlewares/Third_Party/LoRaWAN/LmHandler/LmHandler.c ****     LoRaMacCallbacks.NvmDataChange  = NvmDataMgmtEvent;
 2437              		.loc 1 312 5 is_stmt 1 view .LVU707
 312:Middlewares/Third_Party/LoRaWAN/LmHandler/LmHandler.c ****     LoRaMacCallbacks.NvmDataChange  = NvmDataMgmtEvent;
 2438              		.loc 1 312 54 is_stmt 0 view .LVU708
 2439 0022 8268     		ldr	r2, [r0, #8]
 312:Middlewares/Third_Party/LoRaWAN/LmHandler/LmHandler.c ****     LoRaMacCallbacks.NvmDataChange  = NvmDataMgmtEvent;
 2440              		.loc 1 312 34 view .LVU709
 2441 0024 9A60     		str	r2, [r3, #8]
 313:Middlewares/Third_Party/LoRaWAN/LmHandler/LmHandler.c ****     LoRaMacCallbacks.MacProcessNotify = LmHandlerCallbacks->OnMacProcess;
 2442              		.loc 1 313 5 is_stmt 1 view .LVU710
 313:Middlewares/Third_Party/LoRaWAN/LmHandler/LmHandler.c ****     LoRaMacCallbacks.MacProcessNotify = LmHandlerCallbacks->OnMacProcess;
 2443              		.loc 1 313 37 is_stmt 0 view .LVU711
 2444 0026 0D4A     		ldr	r2, .L197+28
 2445 0028 DA60     		str	r2, [r3, #12]
 314:Middlewares/Third_Party/LoRaWAN/LmHandler/LmHandler.c **** 
 2446              		.loc 1 314 5 is_stmt 1 view .LVU712
 314:Middlewares/Third_Party/LoRaWAN/LmHandler/LmHandler.c **** 
 2447              		.loc 1 314 59 is_stmt 0 view .LVU713
 2448 002a 0269     		ldr	r2, [r0, #16]
 314:Middlewares/Third_Party/LoRaWAN/LmHandler/LmHandler.c **** 
 2449              		.loc 1 314 39 view .LVU714
ARM GAS  /tmp/ccIEh1dP.s 			page 77


 2450 002c 1A61     		str	r2, [r3, #16]
 317:Middlewares/Third_Party/LoRaWAN/LmHandler/LmHandler.c ****     {
 2451              		.loc 1 317 5 is_stmt 1 view .LVU715
 317:Middlewares/Third_Party/LoRaWAN/LmHandler/LmHandler.c ****     {
 2452              		.loc 1 317 9 is_stmt 0 view .LVU716
 2453 002e 0C49     		ldr	r1, .L197+32
 2454 0030 0020     		movs	r0, #0
 2455              	.LVL177:
 317:Middlewares/Third_Party/LoRaWAN/LmHandler/LmHandler.c ****     {
 2456              		.loc 1 317 9 view .LVU717
 2457 0032 FFF7FEFF 		bl	LmHandlerPackageRegister
 2458              	.LVL178:
 317:Middlewares/Third_Party/LoRaWAN/LmHandler/LmHandler.c ****     {
 2459              		.loc 1 317 8 view .LVU718
 2460 0036 00B9     		cbnz	r0, .L196
 2461              	.L193:
 329:Middlewares/Third_Party/LoRaWAN/LmHandler/LmHandler.c **** 
 2462              		.loc 1 329 1 view .LVU719
 2463 0038 08BD     		pop	{r3, pc}
 2464              	.L196:
 319:Middlewares/Third_Party/LoRaWAN/LmHandler/LmHandler.c ****     }
 2465              		.loc 1 319 16 view .LVU720
 2466 003a 4FF0FF30 		mov	r0, #-1
 2467 003e FBE7     		b	.L193
 2468              	.L198:
 2469              		.align	2
 2470              	.L197:
 2471 0040 00000000 		.word	.LANCHOR2
 2472 0044 00000000 		.word	.LANCHOR5
 2473 0048 00000000 		.word	McpsConfirm
 2474 004c 00000000 		.word	McpsIndication
 2475 0050 00000000 		.word	MlmeConfirm
 2476 0054 00000000 		.word	MlmeIndication
 2477 0058 00000000 		.word	.LANCHOR4
 2478 005c 00000000 		.word	NvmDataMgmtEvent
 2479 0060 00000000 		.word	.LANCHOR11
 2480              		.cfi_endproc
 2481              	.LFE104:
 2483              		.section	.text.LmHandlerGetDevEUI,"ax",%progbits
 2484              		.align	1
 2485              		.global	LmHandlerGetDevEUI
 2486              		.syntax unified
 2487              		.thumb
 2488              		.thumb_func
 2489              		.fpu softvfp
 2491              	LmHandlerGetDevEUI:
 2492              	.LVL179:
 2493              	.LFB127:
1271:Middlewares/Third_Party/LoRaWAN/LmHandler/LmHandler.c **** 
1272:Middlewares/Third_Party/LoRaWAN/LmHandler/LmHandler.c **** LmHandlerErrorStatus_t LmHandlerGetDevEUI(uint8_t *devEUI)
1273:Middlewares/Third_Party/LoRaWAN/LmHandler/LmHandler.c **** {
 2494              		.loc 1 1273 1 is_stmt 1 view -0
 2495              		.cfi_startproc
 2496              		@ args = 0, pretend = 0, frame = 40
 2497              		@ frame_needed = 0, uses_anonymous_args = 0
1274:Middlewares/Third_Party/LoRaWAN/LmHandler/LmHandler.c ****     MibRequestConfirm_t mibReq;
 2498              		.loc 1 1274 5 view .LVU722
ARM GAS  /tmp/ccIEh1dP.s 			page 78


1275:Middlewares/Third_Party/LoRaWAN/LmHandler/LmHandler.c ****     if (devEUI == NULL)
 2499              		.loc 1 1275 5 view .LVU723
 2500              		.loc 1 1275 8 is_stmt 0 view .LVU724
 2501 0000 88B1     		cbz	r0, .L201
1273:Middlewares/Third_Party/LoRaWAN/LmHandler/LmHandler.c ****     MibRequestConfirm_t mibReq;
 2502              		.loc 1 1273 1 view .LVU725
 2503 0002 10B5     		push	{r4, lr}
 2504              	.LCFI64:
 2505              		.cfi_def_cfa_offset 8
 2506              		.cfi_offset 4, -8
 2507              		.cfi_offset 14, -4
 2508 0004 8AB0     		sub	sp, sp, #40
 2509              	.LCFI65:
 2510              		.cfi_def_cfa_offset 48
 2511 0006 0446     		mov	r4, r0
1276:Middlewares/Third_Party/LoRaWAN/LmHandler/LmHandler.c ****     {
1277:Middlewares/Third_Party/LoRaWAN/LmHandler/LmHandler.c ****         return LORAMAC_HANDLER_ERROR;
1278:Middlewares/Third_Party/LoRaWAN/LmHandler/LmHandler.c ****     }
1279:Middlewares/Third_Party/LoRaWAN/LmHandler/LmHandler.c **** 
1280:Middlewares/Third_Party/LoRaWAN/LmHandler/LmHandler.c ****     mibReq.Type = MIB_DEV_EUI;
 2512              		.loc 1 1280 5 is_stmt 1 view .LVU726
 2513              		.loc 1 1280 17 is_stmt 0 view .LVU727
 2514 0008 0223     		movs	r3, #2
 2515 000a 8DF80430 		strb	r3, [sp, #4]
1281:Middlewares/Third_Party/LoRaWAN/LmHandler/LmHandler.c ****     if (LoRaMacMibGetRequestConfirm(&mibReq) != LORAMAC_STATUS_OK)
 2516              		.loc 1 1281 5 is_stmt 1 view .LVU728
 2517              		.loc 1 1281 9 is_stmt 0 view .LVU729
 2518 000e 01A8     		add	r0, sp, #4
 2519              	.LVL180:
 2520              		.loc 1 1281 9 view .LVU730
 2521 0010 FFF7FEFF 		bl	LoRaMacMibGetRequestConfirm
 2522              	.LVL181:
 2523              		.loc 1 1281 8 view .LVU731
 2524 0014 50B9     		cbnz	r0, .L202
1282:Middlewares/Third_Party/LoRaWAN/LmHandler/LmHandler.c ****     {
1283:Middlewares/Third_Party/LoRaWAN/LmHandler/LmHandler.c ****         return LORAMAC_HANDLER_ERROR;
1284:Middlewares/Third_Party/LoRaWAN/LmHandler/LmHandler.c ****     }
1285:Middlewares/Third_Party/LoRaWAN/LmHandler/LmHandler.c ****     UTIL_MEM_cpy_8(devEUI, mibReq.Param.DevEui, SE_EUI_SIZE);
 2525              		.loc 1 1285 5 is_stmt 1 view .LVU732
 2526 0016 0822     		movs	r2, #8
 2527 0018 0299     		ldr	r1, [sp, #8]
 2528 001a 2046     		mov	r0, r4
 2529 001c FFF7FEFF 		bl	UTIL_MEM_cpy_8
 2530              	.LVL182:
1286:Middlewares/Third_Party/LoRaWAN/LmHandler/LmHandler.c ****     return LORAMAC_HANDLER_SUCCESS;
 2531              		.loc 1 1286 5 view .LVU733
 2532              		.loc 1 1286 12 is_stmt 0 view .LVU734
 2533 0020 0020     		movs	r0, #0
 2534              	.L200:
1287:Middlewares/Third_Party/LoRaWAN/LmHandler/LmHandler.c **** }
 2535              		.loc 1 1287 1 view .LVU735
 2536 0022 0AB0     		add	sp, sp, #40
 2537              	.LCFI66:
 2538              		.cfi_def_cfa_offset 8
 2539              		@ sp needed
 2540 0024 10BD     		pop	{r4, pc}
 2541              	.LVL183:
ARM GAS  /tmp/ccIEh1dP.s 			page 79


 2542              	.L201:
 2543              	.LCFI67:
 2544              		.cfi_def_cfa_offset 0
 2545              		.cfi_restore 4
 2546              		.cfi_restore 14
1277:Middlewares/Third_Party/LoRaWAN/LmHandler/LmHandler.c ****     }
 2547              		.loc 1 1277 16 view .LVU736
 2548 0026 4FF0FF30 		mov	r0, #-1
 2549              	.LVL184:
 2550              		.loc 1 1287 1 view .LVU737
 2551 002a 7047     		bx	lr
 2552              	.LVL185:
 2553              	.L202:
 2554              	.LCFI68:
 2555              		.cfi_def_cfa_offset 48
 2556              		.cfi_offset 4, -8
 2557              		.cfi_offset 14, -4
1283:Middlewares/Third_Party/LoRaWAN/LmHandler/LmHandler.c ****     }
 2558              		.loc 1 1283 16 view .LVU738
 2559 002c 4FF0FF30 		mov	r0, #-1
 2560 0030 F7E7     		b	.L200
 2561              		.cfi_endproc
 2562              	.LFE127:
 2564              		.section	.text.LmHandlerSetDevEUI,"ax",%progbits
 2565              		.align	1
 2566              		.global	LmHandlerSetDevEUI
 2567              		.syntax unified
 2568              		.thumb
 2569              		.thumb_func
 2570              		.fpu softvfp
 2572              	LmHandlerSetDevEUI:
 2573              	.LVL186:
 2574              	.LFB128:
1288:Middlewares/Third_Party/LoRaWAN/LmHandler/LmHandler.c **** 
1289:Middlewares/Third_Party/LoRaWAN/LmHandler/LmHandler.c **** LmHandlerErrorStatus_t LmHandlerSetDevEUI(uint8_t *devEUI)
1290:Middlewares/Third_Party/LoRaWAN/LmHandler/LmHandler.c **** {
 2575              		.loc 1 1290 1 is_stmt 1 view -0
 2576              		.cfi_startproc
 2577              		@ args = 0, pretend = 0, frame = 40
 2578              		@ frame_needed = 0, uses_anonymous_args = 0
 2579              		.loc 1 1290 1 is_stmt 0 view .LVU740
 2580 0000 10B5     		push	{r4, lr}
 2581              	.LCFI69:
 2582              		.cfi_def_cfa_offset 8
 2583              		.cfi_offset 4, -8
 2584              		.cfi_offset 14, -4
 2585 0002 8AB0     		sub	sp, sp, #40
 2586              	.LCFI70:
 2587              		.cfi_def_cfa_offset 48
 2588 0004 0446     		mov	r4, r0
1291:Middlewares/Third_Party/LoRaWAN/LmHandler/LmHandler.c **** #if ( STATIC_DEVICE_EUI != 1 )
1292:Middlewares/Third_Party/LoRaWAN/LmHandler/LmHandler.c ****     MibRequestConfirm_t mibReq;
 2589              		.loc 1 1292 5 is_stmt 1 view .LVU741
1293:Middlewares/Third_Party/LoRaWAN/LmHandler/LmHandler.c **** 
1294:Middlewares/Third_Party/LoRaWAN/LmHandler/LmHandler.c ****     /* Not yet joined */
1295:Middlewares/Third_Party/LoRaWAN/LmHandler/LmHandler.c ****     if (LmHandlerJoinStatus() != LORAMAC_HANDLER_SET)
 2590              		.loc 1 1295 5 view .LVU742
ARM GAS  /tmp/ccIEh1dP.s 			page 80


 2591              		.loc 1 1295 9 is_stmt 0 view .LVU743
 2592 0006 FFF7FEFF 		bl	LmHandlerJoinStatus
 2593              	.LVL187:
 2594              		.loc 1 1295 8 view .LVU744
 2595 000a 0128     		cmp	r0, #1
 2596 000c 0DD0     		beq	.L209
1296:Middlewares/Third_Party/LoRaWAN/LmHandler/LmHandler.c ****     {
1297:Middlewares/Third_Party/LoRaWAN/LmHandler/LmHandler.c ****         mibReq.Type = MIB_DEV_EUI;
 2597              		.loc 1 1297 9 is_stmt 1 view .LVU745
 2598              		.loc 1 1297 21 is_stmt 0 view .LVU746
 2599 000e 0223     		movs	r3, #2
 2600 0010 8DF80430 		strb	r3, [sp, #4]
1298:Middlewares/Third_Party/LoRaWAN/LmHandler/LmHandler.c ****         mibReq.Param.DevEui = devEUI;
 2601              		.loc 1 1298 9 is_stmt 1 view .LVU747
 2602              		.loc 1 1298 29 is_stmt 0 view .LVU748
 2603 0014 0294     		str	r4, [sp, #8]
1299:Middlewares/Third_Party/LoRaWAN/LmHandler/LmHandler.c ****         if (LoRaMacMibSetRequestConfirm(&mibReq) != LORAMAC_STATUS_OK)
 2604              		.loc 1 1299 9 is_stmt 1 view .LVU749
 2605              		.loc 1 1299 13 is_stmt 0 view .LVU750
 2606 0016 01A8     		add	r0, sp, #4
 2607 0018 FFF7FEFF 		bl	LoRaMacMibSetRequestConfirm
 2608              	.LVL188:
 2609              		.loc 1 1299 12 view .LVU751
 2610 001c 10B9     		cbnz	r0, .L212
1300:Middlewares/Third_Party/LoRaWAN/LmHandler/LmHandler.c ****         {
1301:Middlewares/Third_Party/LoRaWAN/LmHandler/LmHandler.c ****             return LORAMAC_HANDLER_ERROR;
1302:Middlewares/Third_Party/LoRaWAN/LmHandler/LmHandler.c ****         }
1303:Middlewares/Third_Party/LoRaWAN/LmHandler/LmHandler.c ****         return LORAMAC_HANDLER_SUCCESS;
 2611              		.loc 1 1303 16 view .LVU752
 2612 001e 0020     		movs	r0, #0
 2613              	.L208:
1304:Middlewares/Third_Party/LoRaWAN/LmHandler/LmHandler.c ****     }
1305:Middlewares/Third_Party/LoRaWAN/LmHandler/LmHandler.c ****     else
1306:Middlewares/Third_Party/LoRaWAN/LmHandler/LmHandler.c ****     {
1307:Middlewares/Third_Party/LoRaWAN/LmHandler/LmHandler.c ****         /* Cannot change Keys in running state */
1308:Middlewares/Third_Party/LoRaWAN/LmHandler/LmHandler.c ****         return LORAMAC_HANDLER_ERROR;
1309:Middlewares/Third_Party/LoRaWAN/LmHandler/LmHandler.c ****     }
1310:Middlewares/Third_Party/LoRaWAN/LmHandler/LmHandler.c **** #else /* STATIC_DEVICE_EUI == 1 */
1311:Middlewares/Third_Party/LoRaWAN/LmHandler/LmHandler.c ****     return LORAMAC_HANDLER_ERROR;
1312:Middlewares/Third_Party/LoRaWAN/LmHandler/LmHandler.c **** #endif /* STATIC_DEVICE_EUI */
1313:Middlewares/Third_Party/LoRaWAN/LmHandler/LmHandler.c **** }
 2614              		.loc 1 1313 1 view .LVU753
 2615 0020 0AB0     		add	sp, sp, #40
 2616              	.LCFI71:
 2617              		.cfi_remember_state
 2618              		.cfi_def_cfa_offset 8
 2619              		@ sp needed
 2620 0022 10BD     		pop	{r4, pc}
 2621              	.LVL189:
 2622              	.L212:
 2623              	.LCFI72:
 2624              		.cfi_restore_state
1301:Middlewares/Third_Party/LoRaWAN/LmHandler/LmHandler.c ****         }
 2625              		.loc 1 1301 20 view .LVU754
 2626 0024 4FF0FF30 		mov	r0, #-1
 2627 0028 FAE7     		b	.L208
 2628              	.L209:
ARM GAS  /tmp/ccIEh1dP.s 			page 81


1308:Middlewares/Third_Party/LoRaWAN/LmHandler/LmHandler.c ****     }
 2629              		.loc 1 1308 16 view .LVU755
 2630 002a 4FF0FF30 		mov	r0, #-1
 2631 002e F7E7     		b	.L208
 2632              		.cfi_endproc
 2633              	.LFE128:
 2635              		.section	.text.LmHandlerGetAppEUI,"ax",%progbits
 2636              		.align	1
 2637              		.global	LmHandlerGetAppEUI
 2638              		.syntax unified
 2639              		.thumb
 2640              		.thumb_func
 2641              		.fpu softvfp
 2643              	LmHandlerGetAppEUI:
 2644              	.LVL190:
 2645              	.LFB129:
1314:Middlewares/Third_Party/LoRaWAN/LmHandler/LmHandler.c **** 
1315:Middlewares/Third_Party/LoRaWAN/LmHandler/LmHandler.c **** LmHandlerErrorStatus_t LmHandlerGetAppEUI(uint8_t *appEUI)
1316:Middlewares/Third_Party/LoRaWAN/LmHandler/LmHandler.c **** {
 2646              		.loc 1 1316 1 is_stmt 1 view -0
 2647              		.cfi_startproc
 2648              		@ args = 0, pretend = 0, frame = 40
 2649              		@ frame_needed = 0, uses_anonymous_args = 0
1317:Middlewares/Third_Party/LoRaWAN/LmHandler/LmHandler.c ****     MibRequestConfirm_t mibReq;
 2650              		.loc 1 1317 5 view .LVU757
1318:Middlewares/Third_Party/LoRaWAN/LmHandler/LmHandler.c **** 
1319:Middlewares/Third_Party/LoRaWAN/LmHandler/LmHandler.c ****     if (appEUI == NULL)
 2651              		.loc 1 1319 5 view .LVU758
 2652              		.loc 1 1319 8 is_stmt 0 view .LVU759
 2653 0000 88B1     		cbz	r0, .L215
1316:Middlewares/Third_Party/LoRaWAN/LmHandler/LmHandler.c ****     MibRequestConfirm_t mibReq;
 2654              		.loc 1 1316 1 view .LVU760
 2655 0002 10B5     		push	{r4, lr}
 2656              	.LCFI73:
 2657              		.cfi_def_cfa_offset 8
 2658              		.cfi_offset 4, -8
 2659              		.cfi_offset 14, -4
 2660 0004 8AB0     		sub	sp, sp, #40
 2661              	.LCFI74:
 2662              		.cfi_def_cfa_offset 48
 2663 0006 0446     		mov	r4, r0
1320:Middlewares/Third_Party/LoRaWAN/LmHandler/LmHandler.c ****     {
1321:Middlewares/Third_Party/LoRaWAN/LmHandler/LmHandler.c ****         return LORAMAC_HANDLER_ERROR;
1322:Middlewares/Third_Party/LoRaWAN/LmHandler/LmHandler.c ****     }
1323:Middlewares/Third_Party/LoRaWAN/LmHandler/LmHandler.c **** 
1324:Middlewares/Third_Party/LoRaWAN/LmHandler/LmHandler.c ****     mibReq.Type = MIB_JOIN_EUI;
 2664              		.loc 1 1324 5 is_stmt 1 view .LVU761
 2665              		.loc 1 1324 17 is_stmt 0 view .LVU762
 2666 0008 0323     		movs	r3, #3
 2667 000a 8DF80430 		strb	r3, [sp, #4]
1325:Middlewares/Third_Party/LoRaWAN/LmHandler/LmHandler.c ****     if (LoRaMacMibGetRequestConfirm(&mibReq) != LORAMAC_STATUS_OK)
 2668              		.loc 1 1325 5 is_stmt 1 view .LVU763
 2669              		.loc 1 1325 9 is_stmt 0 view .LVU764
 2670 000e 01A8     		add	r0, sp, #4
 2671              	.LVL191:
 2672              		.loc 1 1325 9 view .LVU765
 2673 0010 FFF7FEFF 		bl	LoRaMacMibGetRequestConfirm
ARM GAS  /tmp/ccIEh1dP.s 			page 82


 2674              	.LVL192:
 2675              		.loc 1 1325 8 view .LVU766
 2676 0014 50B9     		cbnz	r0, .L216
1326:Middlewares/Third_Party/LoRaWAN/LmHandler/LmHandler.c ****     {
1327:Middlewares/Third_Party/LoRaWAN/LmHandler/LmHandler.c ****         return LORAMAC_HANDLER_ERROR;
1328:Middlewares/Third_Party/LoRaWAN/LmHandler/LmHandler.c ****     }
1329:Middlewares/Third_Party/LoRaWAN/LmHandler/LmHandler.c ****     UTIL_MEM_cpy_8(appEUI, mibReq.Param.JoinEui, SE_EUI_SIZE);
 2677              		.loc 1 1329 5 is_stmt 1 view .LVU767
 2678 0016 0822     		movs	r2, #8
 2679 0018 0299     		ldr	r1, [sp, #8]
 2680 001a 2046     		mov	r0, r4
 2681 001c FFF7FEFF 		bl	UTIL_MEM_cpy_8
 2682              	.LVL193:
1330:Middlewares/Third_Party/LoRaWAN/LmHandler/LmHandler.c ****     return LORAMAC_HANDLER_SUCCESS;
 2683              		.loc 1 1330 5 view .LVU768
 2684              		.loc 1 1330 12 is_stmt 0 view .LVU769
 2685 0020 0020     		movs	r0, #0
 2686              	.L214:
1331:Middlewares/Third_Party/LoRaWAN/LmHandler/LmHandler.c **** }
 2687              		.loc 1 1331 1 view .LVU770
 2688 0022 0AB0     		add	sp, sp, #40
 2689              	.LCFI75:
 2690              		.cfi_def_cfa_offset 8
 2691              		@ sp needed
 2692 0024 10BD     		pop	{r4, pc}
 2693              	.LVL194:
 2694              	.L215:
 2695              	.LCFI76:
 2696              		.cfi_def_cfa_offset 0
 2697              		.cfi_restore 4
 2698              		.cfi_restore 14
1321:Middlewares/Third_Party/LoRaWAN/LmHandler/LmHandler.c ****     }
 2699              		.loc 1 1321 16 view .LVU771
 2700 0026 4FF0FF30 		mov	r0, #-1
 2701              	.LVL195:
 2702              		.loc 1 1331 1 view .LVU772
 2703 002a 7047     		bx	lr
 2704              	.LVL196:
 2705              	.L216:
 2706              	.LCFI77:
 2707              		.cfi_def_cfa_offset 48
 2708              		.cfi_offset 4, -8
 2709              		.cfi_offset 14, -4
1327:Middlewares/Third_Party/LoRaWAN/LmHandler/LmHandler.c ****     }
 2710              		.loc 1 1327 16 view .LVU773
 2711 002c 4FF0FF30 		mov	r0, #-1
 2712 0030 F7E7     		b	.L214
 2713              		.cfi_endproc
 2714              	.LFE129:
 2716              		.section	.text.LmHandlerSetAppEUI,"ax",%progbits
 2717              		.align	1
 2718              		.global	LmHandlerSetAppEUI
 2719              		.syntax unified
 2720              		.thumb
 2721              		.thumb_func
 2722              		.fpu softvfp
 2724              	LmHandlerSetAppEUI:
ARM GAS  /tmp/ccIEh1dP.s 			page 83


 2725              	.LVL197:
 2726              	.LFB130:
1332:Middlewares/Third_Party/LoRaWAN/LmHandler/LmHandler.c **** 
1333:Middlewares/Third_Party/LoRaWAN/LmHandler/LmHandler.c **** LmHandlerErrorStatus_t LmHandlerSetAppEUI(uint8_t *appEUI)
1334:Middlewares/Third_Party/LoRaWAN/LmHandler/LmHandler.c **** {
 2727              		.loc 1 1334 1 is_stmt 1 view -0
 2728              		.cfi_startproc
 2729              		@ args = 0, pretend = 0, frame = 40
 2730              		@ frame_needed = 0, uses_anonymous_args = 0
 2731              		.loc 1 1334 1 is_stmt 0 view .LVU775
 2732 0000 10B5     		push	{r4, lr}
 2733              	.LCFI78:
 2734              		.cfi_def_cfa_offset 8
 2735              		.cfi_offset 4, -8
 2736              		.cfi_offset 14, -4
 2737 0002 8AB0     		sub	sp, sp, #40
 2738              	.LCFI79:
 2739              		.cfi_def_cfa_offset 48
 2740 0004 0446     		mov	r4, r0
1335:Middlewares/Third_Party/LoRaWAN/LmHandler/LmHandler.c ****     MibRequestConfirm_t mibReq;
 2741              		.loc 1 1335 5 is_stmt 1 view .LVU776
1336:Middlewares/Third_Party/LoRaWAN/LmHandler/LmHandler.c **** 
1337:Middlewares/Third_Party/LoRaWAN/LmHandler/LmHandler.c ****     /* Not yet joined */
1338:Middlewares/Third_Party/LoRaWAN/LmHandler/LmHandler.c ****     if (LmHandlerJoinStatus() != LORAMAC_HANDLER_SET)
 2742              		.loc 1 1338 5 view .LVU777
 2743              		.loc 1 1338 9 is_stmt 0 view .LVU778
 2744 0006 FFF7FEFF 		bl	LmHandlerJoinStatus
 2745              	.LVL198:
 2746              		.loc 1 1338 8 view .LVU779
 2747 000a 0128     		cmp	r0, #1
 2748 000c 0DD0     		beq	.L223
1339:Middlewares/Third_Party/LoRaWAN/LmHandler/LmHandler.c ****     {
1340:Middlewares/Third_Party/LoRaWAN/LmHandler/LmHandler.c ****         mibReq.Type = MIB_JOIN_EUI;
 2749              		.loc 1 1340 9 is_stmt 1 view .LVU780
 2750              		.loc 1 1340 21 is_stmt 0 view .LVU781
 2751 000e 0323     		movs	r3, #3
 2752 0010 8DF80430 		strb	r3, [sp, #4]
1341:Middlewares/Third_Party/LoRaWAN/LmHandler/LmHandler.c ****         mibReq.Param.JoinEui = appEUI;
 2753              		.loc 1 1341 9 is_stmt 1 view .LVU782
 2754              		.loc 1 1341 30 is_stmt 0 view .LVU783
 2755 0014 0294     		str	r4, [sp, #8]
1342:Middlewares/Third_Party/LoRaWAN/LmHandler/LmHandler.c ****         if (LoRaMacMibSetRequestConfirm(&mibReq) != LORAMAC_STATUS_OK)
 2756              		.loc 1 1342 9 is_stmt 1 view .LVU784
 2757              		.loc 1 1342 13 is_stmt 0 view .LVU785
 2758 0016 01A8     		add	r0, sp, #4
 2759 0018 FFF7FEFF 		bl	LoRaMacMibSetRequestConfirm
 2760              	.LVL199:
 2761              		.loc 1 1342 12 view .LVU786
 2762 001c 10B9     		cbnz	r0, .L226
1343:Middlewares/Third_Party/LoRaWAN/LmHandler/LmHandler.c ****         {
1344:Middlewares/Third_Party/LoRaWAN/LmHandler/LmHandler.c ****             return LORAMAC_HANDLER_ERROR;
1345:Middlewares/Third_Party/LoRaWAN/LmHandler/LmHandler.c ****         }
1346:Middlewares/Third_Party/LoRaWAN/LmHandler/LmHandler.c ****         return LORAMAC_HANDLER_SUCCESS;
 2763              		.loc 1 1346 16 view .LVU787
 2764 001e 0020     		movs	r0, #0
 2765              	.L222:
1347:Middlewares/Third_Party/LoRaWAN/LmHandler/LmHandler.c ****     }
ARM GAS  /tmp/ccIEh1dP.s 			page 84


1348:Middlewares/Third_Party/LoRaWAN/LmHandler/LmHandler.c ****     else
1349:Middlewares/Third_Party/LoRaWAN/LmHandler/LmHandler.c ****     {
1350:Middlewares/Third_Party/LoRaWAN/LmHandler/LmHandler.c ****         /* Cannot change Keys in running state */
1351:Middlewares/Third_Party/LoRaWAN/LmHandler/LmHandler.c ****         return LORAMAC_HANDLER_ERROR;
1352:Middlewares/Third_Party/LoRaWAN/LmHandler/LmHandler.c ****     }
1353:Middlewares/Third_Party/LoRaWAN/LmHandler/LmHandler.c **** }
 2766              		.loc 1 1353 1 view .LVU788
 2767 0020 0AB0     		add	sp, sp, #40
 2768              	.LCFI80:
 2769              		.cfi_remember_state
 2770              		.cfi_def_cfa_offset 8
 2771              		@ sp needed
 2772 0022 10BD     		pop	{r4, pc}
 2773              	.LVL200:
 2774              	.L226:
 2775              	.LCFI81:
 2776              		.cfi_restore_state
1344:Middlewares/Third_Party/LoRaWAN/LmHandler/LmHandler.c ****         }
 2777              		.loc 1 1344 20 view .LVU789
 2778 0024 4FF0FF30 		mov	r0, #-1
 2779 0028 FAE7     		b	.L222
 2780              	.L223:
1351:Middlewares/Third_Party/LoRaWAN/LmHandler/LmHandler.c ****     }
 2781              		.loc 1 1351 16 view .LVU790
 2782 002a 4FF0FF30 		mov	r0, #-1
 2783 002e F7E7     		b	.L222
 2784              		.cfi_endproc
 2785              	.LFE130:
 2787              		.section	.text.LmHandlerGetNetworkID,"ax",%progbits
 2788              		.align	1
 2789              		.global	LmHandlerGetNetworkID
 2790              		.syntax unified
 2791              		.thumb
 2792              		.thumb_func
 2793              		.fpu softvfp
 2795              	LmHandlerGetNetworkID:
 2796              	.LVL201:
 2797              	.LFB131:
1354:Middlewares/Third_Party/LoRaWAN/LmHandler/LmHandler.c **** 
1355:Middlewares/Third_Party/LoRaWAN/LmHandler/LmHandler.c **** LmHandlerErrorStatus_t LmHandlerGetNetworkID(uint32_t *networkId)
1356:Middlewares/Third_Party/LoRaWAN/LmHandler/LmHandler.c **** {
 2798              		.loc 1 1356 1 is_stmt 1 view -0
 2799              		.cfi_startproc
 2800              		@ args = 0, pretend = 0, frame = 40
 2801              		@ frame_needed = 0, uses_anonymous_args = 0
1357:Middlewares/Third_Party/LoRaWAN/LmHandler/LmHandler.c ****     MibRequestConfirm_t mibReq;
 2802              		.loc 1 1357 5 view .LVU792
1358:Middlewares/Third_Party/LoRaWAN/LmHandler/LmHandler.c **** 
1359:Middlewares/Third_Party/LoRaWAN/LmHandler/LmHandler.c ****     if (networkId == NULL)
 2803              		.loc 1 1359 5 view .LVU793
 2804              		.loc 1 1359 8 is_stmt 0 view .LVU794
 2805 0000 68B1     		cbz	r0, .L229
1356:Middlewares/Third_Party/LoRaWAN/LmHandler/LmHandler.c ****     MibRequestConfirm_t mibReq;
 2806              		.loc 1 1356 1 view .LVU795
 2807 0002 10B5     		push	{r4, lr}
 2808              	.LCFI82:
 2809              		.cfi_def_cfa_offset 8
ARM GAS  /tmp/ccIEh1dP.s 			page 85


 2810              		.cfi_offset 4, -8
 2811              		.cfi_offset 14, -4
 2812 0004 8AB0     		sub	sp, sp, #40
 2813              	.LCFI83:
 2814              		.cfi_def_cfa_offset 48
 2815 0006 0446     		mov	r4, r0
1360:Middlewares/Third_Party/LoRaWAN/LmHandler/LmHandler.c ****     {
1361:Middlewares/Third_Party/LoRaWAN/LmHandler/LmHandler.c ****         return LORAMAC_HANDLER_ERROR;
1362:Middlewares/Third_Party/LoRaWAN/LmHandler/LmHandler.c ****     }
1363:Middlewares/Third_Party/LoRaWAN/LmHandler/LmHandler.c **** 
1364:Middlewares/Third_Party/LoRaWAN/LmHandler/LmHandler.c ****     mibReq.Type = MIB_NET_ID;
 2816              		.loc 1 1364 5 is_stmt 1 view .LVU796
 2817              		.loc 1 1364 17 is_stmt 0 view .LVU797
 2818 0008 0523     		movs	r3, #5
 2819 000a 8DF80430 		strb	r3, [sp, #4]
1365:Middlewares/Third_Party/LoRaWAN/LmHandler/LmHandler.c ****     if (LoRaMacMibGetRequestConfirm(&mibReq) != LORAMAC_STATUS_OK)
 2820              		.loc 1 1365 5 is_stmt 1 view .LVU798
 2821              		.loc 1 1365 9 is_stmt 0 view .LVU799
 2822 000e 01A8     		add	r0, sp, #4
 2823              	.LVL202:
 2824              		.loc 1 1365 9 view .LVU800
 2825 0010 FFF7FEFF 		bl	LoRaMacMibGetRequestConfirm
 2826              	.LVL203:
 2827              		.loc 1 1365 8 view .LVU801
 2828 0014 30B9     		cbnz	r0, .L230
1366:Middlewares/Third_Party/LoRaWAN/LmHandler/LmHandler.c ****     {
1367:Middlewares/Third_Party/LoRaWAN/LmHandler/LmHandler.c ****         return LORAMAC_HANDLER_ERROR;
1368:Middlewares/Third_Party/LoRaWAN/LmHandler/LmHandler.c ****     }
1369:Middlewares/Third_Party/LoRaWAN/LmHandler/LmHandler.c ****     *networkId = mibReq.Param.NetID;
 2829              		.loc 1 1369 5 is_stmt 1 view .LVU802
 2830              		.loc 1 1369 30 is_stmt 0 view .LVU803
 2831 0016 029B     		ldr	r3, [sp, #8]
 2832              		.loc 1 1369 16 view .LVU804
 2833 0018 2360     		str	r3, [r4]
1370:Middlewares/Third_Party/LoRaWAN/LmHandler/LmHandler.c ****     return LORAMAC_HANDLER_SUCCESS;
 2834              		.loc 1 1370 5 is_stmt 1 view .LVU805
 2835              	.L228:
1371:Middlewares/Third_Party/LoRaWAN/LmHandler/LmHandler.c **** }
 2836              		.loc 1 1371 1 is_stmt 0 view .LVU806
 2837 001a 0AB0     		add	sp, sp, #40
 2838              	.LCFI84:
 2839              		.cfi_def_cfa_offset 8
 2840              		@ sp needed
 2841 001c 10BD     		pop	{r4, pc}
 2842              	.LVL204:
 2843              	.L229:
 2844              	.LCFI85:
 2845              		.cfi_def_cfa_offset 0
 2846              		.cfi_restore 4
 2847              		.cfi_restore 14
1361:Middlewares/Third_Party/LoRaWAN/LmHandler/LmHandler.c ****     }
 2848              		.loc 1 1361 16 view .LVU807
 2849 001e 4FF0FF30 		mov	r0, #-1
 2850              	.LVL205:
 2851              		.loc 1 1371 1 view .LVU808
 2852 0022 7047     		bx	lr
 2853              	.LVL206:
ARM GAS  /tmp/ccIEh1dP.s 			page 86


 2854              	.L230:
 2855              	.LCFI86:
 2856              		.cfi_def_cfa_offset 48
 2857              		.cfi_offset 4, -8
 2858              		.cfi_offset 14, -4
1367:Middlewares/Third_Party/LoRaWAN/LmHandler/LmHandler.c ****     }
 2859              		.loc 1 1367 16 view .LVU809
 2860 0024 4FF0FF30 		mov	r0, #-1
 2861 0028 F7E7     		b	.L228
 2862              		.cfi_endproc
 2863              	.LFE131:
 2865              		.section	.text.LmHandlerSetNetworkID,"ax",%progbits
 2866              		.align	1
 2867              		.global	LmHandlerSetNetworkID
 2868              		.syntax unified
 2869              		.thumb
 2870              		.thumb_func
 2871              		.fpu softvfp
 2873              	LmHandlerSetNetworkID:
 2874              	.LVL207:
 2875              	.LFB132:
1372:Middlewares/Third_Party/LoRaWAN/LmHandler/LmHandler.c **** 
1373:Middlewares/Third_Party/LoRaWAN/LmHandler/LmHandler.c **** LmHandlerErrorStatus_t LmHandlerSetNetworkID(uint32_t networkId)
1374:Middlewares/Third_Party/LoRaWAN/LmHandler/LmHandler.c **** {
 2876              		.loc 1 1374 1 is_stmt 1 view -0
 2877              		.cfi_startproc
 2878              		@ args = 0, pretend = 0, frame = 40
 2879              		@ frame_needed = 0, uses_anonymous_args = 0
 2880              		.loc 1 1374 1 is_stmt 0 view .LVU811
 2881 0000 10B5     		push	{r4, lr}
 2882              	.LCFI87:
 2883              		.cfi_def_cfa_offset 8
 2884              		.cfi_offset 4, -8
 2885              		.cfi_offset 14, -4
 2886 0002 8AB0     		sub	sp, sp, #40
 2887              	.LCFI88:
 2888              		.cfi_def_cfa_offset 48
 2889 0004 0446     		mov	r4, r0
1375:Middlewares/Third_Party/LoRaWAN/LmHandler/LmHandler.c ****     MibRequestConfirm_t mibReq;
 2890              		.loc 1 1375 5 is_stmt 1 view .LVU812
1376:Middlewares/Third_Party/LoRaWAN/LmHandler/LmHandler.c **** 
1377:Middlewares/Third_Party/LoRaWAN/LmHandler/LmHandler.c ****     /* Not yet joined */
1378:Middlewares/Third_Party/LoRaWAN/LmHandler/LmHandler.c ****     if (LmHandlerJoinStatus() != LORAMAC_HANDLER_SET)
 2891              		.loc 1 1378 5 view .LVU813
 2892              		.loc 1 1378 9 is_stmt 0 view .LVU814
 2893 0006 FFF7FEFF 		bl	LmHandlerJoinStatus
 2894              	.LVL208:
 2895              		.loc 1 1378 8 view .LVU815
 2896 000a 0128     		cmp	r0, #1
 2897 000c 0DD0     		beq	.L237
1379:Middlewares/Third_Party/LoRaWAN/LmHandler/LmHandler.c ****     {
1380:Middlewares/Third_Party/LoRaWAN/LmHandler/LmHandler.c ****         mibReq.Type = MIB_NET_ID;
 2898              		.loc 1 1380 9 is_stmt 1 view .LVU816
 2899              		.loc 1 1380 21 is_stmt 0 view .LVU817
 2900 000e 0523     		movs	r3, #5
 2901 0010 8DF80430 		strb	r3, [sp, #4]
1381:Middlewares/Third_Party/LoRaWAN/LmHandler/LmHandler.c ****         mibReq.Param.NetID = networkId;
ARM GAS  /tmp/ccIEh1dP.s 			page 87


 2902              		.loc 1 1381 9 is_stmt 1 view .LVU818
 2903              		.loc 1 1381 28 is_stmt 0 view .LVU819
 2904 0014 0294     		str	r4, [sp, #8]
1382:Middlewares/Third_Party/LoRaWAN/LmHandler/LmHandler.c ****         if (LoRaMacMibSetRequestConfirm(&mibReq) != LORAMAC_STATUS_OK)
 2905              		.loc 1 1382 9 is_stmt 1 view .LVU820
 2906              		.loc 1 1382 13 is_stmt 0 view .LVU821
 2907 0016 01A8     		add	r0, sp, #4
 2908 0018 FFF7FEFF 		bl	LoRaMacMibSetRequestConfirm
 2909              	.LVL209:
 2910              		.loc 1 1382 12 view .LVU822
 2911 001c 10B9     		cbnz	r0, .L240
1383:Middlewares/Third_Party/LoRaWAN/LmHandler/LmHandler.c ****         {
1384:Middlewares/Third_Party/LoRaWAN/LmHandler/LmHandler.c ****             return LORAMAC_HANDLER_ERROR;
1385:Middlewares/Third_Party/LoRaWAN/LmHandler/LmHandler.c ****         }
1386:Middlewares/Third_Party/LoRaWAN/LmHandler/LmHandler.c ****         return LORAMAC_HANDLER_SUCCESS;
 2912              		.loc 1 1386 16 view .LVU823
 2913 001e 0020     		movs	r0, #0
 2914              	.L236:
1387:Middlewares/Third_Party/LoRaWAN/LmHandler/LmHandler.c ****     }
1388:Middlewares/Third_Party/LoRaWAN/LmHandler/LmHandler.c ****     else
1389:Middlewares/Third_Party/LoRaWAN/LmHandler/LmHandler.c ****     {
1390:Middlewares/Third_Party/LoRaWAN/LmHandler/LmHandler.c ****         /* Cannot change NetworkID in running state */
1391:Middlewares/Third_Party/LoRaWAN/LmHandler/LmHandler.c ****         return LORAMAC_HANDLER_ERROR;
1392:Middlewares/Third_Party/LoRaWAN/LmHandler/LmHandler.c ****     }
1393:Middlewares/Third_Party/LoRaWAN/LmHandler/LmHandler.c **** }
 2915              		.loc 1 1393 1 view .LVU824
 2916 0020 0AB0     		add	sp, sp, #40
 2917              	.LCFI89:
 2918              		.cfi_remember_state
 2919              		.cfi_def_cfa_offset 8
 2920              		@ sp needed
 2921 0022 10BD     		pop	{r4, pc}
 2922              	.LVL210:
 2923              	.L240:
 2924              	.LCFI90:
 2925              		.cfi_restore_state
1384:Middlewares/Third_Party/LoRaWAN/LmHandler/LmHandler.c ****         }
 2926              		.loc 1 1384 20 view .LVU825
 2927 0024 4FF0FF30 		mov	r0, #-1
 2928 0028 FAE7     		b	.L236
 2929              	.L237:
1391:Middlewares/Third_Party/LoRaWAN/LmHandler/LmHandler.c ****     }
 2930              		.loc 1 1391 16 view .LVU826
 2931 002a 4FF0FF30 		mov	r0, #-1
 2932 002e F7E7     		b	.L236
 2933              		.cfi_endproc
 2934              	.LFE132:
 2936              		.section	.text.LmHandlerGetDevAddr,"ax",%progbits
 2937              		.align	1
 2938              		.global	LmHandlerGetDevAddr
 2939              		.syntax unified
 2940              		.thumb
 2941              		.thumb_func
 2942              		.fpu softvfp
 2944              	LmHandlerGetDevAddr:
 2945              	.LVL211:
 2946              	.LFB133:
ARM GAS  /tmp/ccIEh1dP.s 			page 88


1394:Middlewares/Third_Party/LoRaWAN/LmHandler/LmHandler.c **** 
1395:Middlewares/Third_Party/LoRaWAN/LmHandler/LmHandler.c **** LmHandlerErrorStatus_t LmHandlerGetDevAddr(uint32_t *devAddr)
1396:Middlewares/Third_Party/LoRaWAN/LmHandler/LmHandler.c **** {
 2947              		.loc 1 1396 1 is_stmt 1 view -0
 2948              		.cfi_startproc
 2949              		@ args = 0, pretend = 0, frame = 40
 2950              		@ frame_needed = 0, uses_anonymous_args = 0
1397:Middlewares/Third_Party/LoRaWAN/LmHandler/LmHandler.c ****     MibRequestConfirm_t mibReq;
 2951              		.loc 1 1397 5 view .LVU828
1398:Middlewares/Third_Party/LoRaWAN/LmHandler/LmHandler.c **** 
1399:Middlewares/Third_Party/LoRaWAN/LmHandler/LmHandler.c ****     if (devAddr == NULL)
 2952              		.loc 1 1399 5 view .LVU829
 2953              		.loc 1 1399 8 is_stmt 0 view .LVU830
 2954 0000 68B1     		cbz	r0, .L243
1396:Middlewares/Third_Party/LoRaWAN/LmHandler/LmHandler.c ****     MibRequestConfirm_t mibReq;
 2955              		.loc 1 1396 1 view .LVU831
 2956 0002 10B5     		push	{r4, lr}
 2957              	.LCFI91:
 2958              		.cfi_def_cfa_offset 8
 2959              		.cfi_offset 4, -8
 2960              		.cfi_offset 14, -4
 2961 0004 8AB0     		sub	sp, sp, #40
 2962              	.LCFI92:
 2963              		.cfi_def_cfa_offset 48
 2964 0006 0446     		mov	r4, r0
1400:Middlewares/Third_Party/LoRaWAN/LmHandler/LmHandler.c ****     {
1401:Middlewares/Third_Party/LoRaWAN/LmHandler/LmHandler.c ****         return LORAMAC_HANDLER_ERROR;
1402:Middlewares/Third_Party/LoRaWAN/LmHandler/LmHandler.c ****     }
1403:Middlewares/Third_Party/LoRaWAN/LmHandler/LmHandler.c **** 
1404:Middlewares/Third_Party/LoRaWAN/LmHandler/LmHandler.c ****     mibReq.Type = MIB_DEV_ADDR;
 2965              		.loc 1 1404 5 is_stmt 1 view .LVU832
 2966              		.loc 1 1404 17 is_stmt 0 view .LVU833
 2967 0008 0623     		movs	r3, #6
 2968 000a 8DF80430 		strb	r3, [sp, #4]
1405:Middlewares/Third_Party/LoRaWAN/LmHandler/LmHandler.c ****     if (LoRaMacMibGetRequestConfirm(&mibReq) != LORAMAC_STATUS_OK)
 2969              		.loc 1 1405 5 is_stmt 1 view .LVU834
 2970              		.loc 1 1405 9 is_stmt 0 view .LVU835
 2971 000e 01A8     		add	r0, sp, #4
 2972              	.LVL212:
 2973              		.loc 1 1405 9 view .LVU836
 2974 0010 FFF7FEFF 		bl	LoRaMacMibGetRequestConfirm
 2975              	.LVL213:
 2976              		.loc 1 1405 8 view .LVU837
 2977 0014 30B9     		cbnz	r0, .L244
1406:Middlewares/Third_Party/LoRaWAN/LmHandler/LmHandler.c ****     {
1407:Middlewares/Third_Party/LoRaWAN/LmHandler/LmHandler.c ****         return LORAMAC_HANDLER_ERROR;
1408:Middlewares/Third_Party/LoRaWAN/LmHandler/LmHandler.c ****     }
1409:Middlewares/Third_Party/LoRaWAN/LmHandler/LmHandler.c ****     *devAddr = mibReq.Param.DevAddr;
 2978              		.loc 1 1409 5 is_stmt 1 view .LVU838
 2979              		.loc 1 1409 28 is_stmt 0 view .LVU839
 2980 0016 029B     		ldr	r3, [sp, #8]
 2981              		.loc 1 1409 14 view .LVU840
 2982 0018 2360     		str	r3, [r4]
1410:Middlewares/Third_Party/LoRaWAN/LmHandler/LmHandler.c ****     return LORAMAC_HANDLER_SUCCESS;
 2983              		.loc 1 1410 5 is_stmt 1 view .LVU841
 2984              	.L242:
1411:Middlewares/Third_Party/LoRaWAN/LmHandler/LmHandler.c **** }
ARM GAS  /tmp/ccIEh1dP.s 			page 89


 2985              		.loc 1 1411 1 is_stmt 0 view .LVU842
 2986 001a 0AB0     		add	sp, sp, #40
 2987              	.LCFI93:
 2988              		.cfi_def_cfa_offset 8
 2989              		@ sp needed
 2990 001c 10BD     		pop	{r4, pc}
 2991              	.LVL214:
 2992              	.L243:
 2993              	.LCFI94:
 2994              		.cfi_def_cfa_offset 0
 2995              		.cfi_restore 4
 2996              		.cfi_restore 14
1401:Middlewares/Third_Party/LoRaWAN/LmHandler/LmHandler.c ****     }
 2997              		.loc 1 1401 16 view .LVU843
 2998 001e 4FF0FF30 		mov	r0, #-1
 2999              	.LVL215:
 3000              		.loc 1 1411 1 view .LVU844
 3001 0022 7047     		bx	lr
 3002              	.LVL216:
 3003              	.L244:
 3004              	.LCFI95:
 3005              		.cfi_def_cfa_offset 48
 3006              		.cfi_offset 4, -8
 3007              		.cfi_offset 14, -4
1407:Middlewares/Third_Party/LoRaWAN/LmHandler/LmHandler.c ****     }
 3008              		.loc 1 1407 16 view .LVU845
 3009 0024 4FF0FF30 		mov	r0, #-1
 3010 0028 F7E7     		b	.L242
 3011              		.cfi_endproc
 3012              	.LFE133:
 3014              		.section	.text.LmHandlerSetDevAddr,"ax",%progbits
 3015              		.align	1
 3016              		.global	LmHandlerSetDevAddr
 3017              		.syntax unified
 3018              		.thumb
 3019              		.thumb_func
 3020              		.fpu softvfp
 3022              	LmHandlerSetDevAddr:
 3023              	.LVL217:
 3024              	.LFB134:
1412:Middlewares/Third_Party/LoRaWAN/LmHandler/LmHandler.c **** 
1413:Middlewares/Third_Party/LoRaWAN/LmHandler/LmHandler.c **** LmHandlerErrorStatus_t LmHandlerSetDevAddr(uint32_t devAddr)
1414:Middlewares/Third_Party/LoRaWAN/LmHandler/LmHandler.c **** {
 3025              		.loc 1 1414 1 is_stmt 1 view -0
 3026              		.cfi_startproc
 3027              		@ args = 0, pretend = 0, frame = 40
 3028              		@ frame_needed = 0, uses_anonymous_args = 0
 3029              		.loc 1 1414 1 is_stmt 0 view .LVU847
 3030 0000 10B5     		push	{r4, lr}
 3031              	.LCFI96:
 3032              		.cfi_def_cfa_offset 8
 3033              		.cfi_offset 4, -8
 3034              		.cfi_offset 14, -4
 3035 0002 8AB0     		sub	sp, sp, #40
 3036              	.LCFI97:
 3037              		.cfi_def_cfa_offset 48
 3038 0004 0446     		mov	r4, r0
ARM GAS  /tmp/ccIEh1dP.s 			page 90


1415:Middlewares/Third_Party/LoRaWAN/LmHandler/LmHandler.c **** #if ( STATIC_DEVICE_ADDRESS != 1 )
1416:Middlewares/Third_Party/LoRaWAN/LmHandler/LmHandler.c ****     MibRequestConfirm_t mibReq;
 3039              		.loc 1 1416 5 is_stmt 1 view .LVU848
1417:Middlewares/Third_Party/LoRaWAN/LmHandler/LmHandler.c **** 
1418:Middlewares/Third_Party/LoRaWAN/LmHandler/LmHandler.c ****     /* Not yet joined */
1419:Middlewares/Third_Party/LoRaWAN/LmHandler/LmHandler.c ****     if (LmHandlerJoinStatus() != LORAMAC_HANDLER_SET)
 3040              		.loc 1 1419 5 view .LVU849
 3041              		.loc 1 1419 9 is_stmt 0 view .LVU850
 3042 0006 FFF7FEFF 		bl	LmHandlerJoinStatus
 3043              	.LVL218:
 3044              		.loc 1 1419 8 view .LVU851
 3045 000a 0128     		cmp	r0, #1
 3046 000c 0DD0     		beq	.L251
1420:Middlewares/Third_Party/LoRaWAN/LmHandler/LmHandler.c ****     {
1421:Middlewares/Third_Party/LoRaWAN/LmHandler/LmHandler.c ****         mibReq.Type = MIB_DEV_ADDR;
 3047              		.loc 1 1421 9 is_stmt 1 view .LVU852
 3048              		.loc 1 1421 21 is_stmt 0 view .LVU853
 3049 000e 0623     		movs	r3, #6
 3050 0010 8DF80430 		strb	r3, [sp, #4]
1422:Middlewares/Third_Party/LoRaWAN/LmHandler/LmHandler.c ****         mibReq.Param.DevAddr = devAddr;
 3051              		.loc 1 1422 9 is_stmt 1 view .LVU854
 3052              		.loc 1 1422 30 is_stmt 0 view .LVU855
 3053 0014 0294     		str	r4, [sp, #8]
1423:Middlewares/Third_Party/LoRaWAN/LmHandler/LmHandler.c ****         if (LoRaMacMibSetRequestConfirm(&mibReq) != LORAMAC_STATUS_OK)
 3054              		.loc 1 1423 9 is_stmt 1 view .LVU856
 3055              		.loc 1 1423 13 is_stmt 0 view .LVU857
 3056 0016 01A8     		add	r0, sp, #4
 3057 0018 FFF7FEFF 		bl	LoRaMacMibSetRequestConfirm
 3058              	.LVL219:
 3059              		.loc 1 1423 12 view .LVU858
 3060 001c 10B9     		cbnz	r0, .L254
1424:Middlewares/Third_Party/LoRaWAN/LmHandler/LmHandler.c ****         {
1425:Middlewares/Third_Party/LoRaWAN/LmHandler/LmHandler.c ****             return LORAMAC_HANDLER_ERROR;
1426:Middlewares/Third_Party/LoRaWAN/LmHandler/LmHandler.c ****         }
1427:Middlewares/Third_Party/LoRaWAN/LmHandler/LmHandler.c ****         return LORAMAC_HANDLER_SUCCESS;
 3061              		.loc 1 1427 16 view .LVU859
 3062 001e 0020     		movs	r0, #0
 3063              	.L250:
1428:Middlewares/Third_Party/LoRaWAN/LmHandler/LmHandler.c ****     }
1429:Middlewares/Third_Party/LoRaWAN/LmHandler/LmHandler.c ****     else
1430:Middlewares/Third_Party/LoRaWAN/LmHandler/LmHandler.c ****     {
1431:Middlewares/Third_Party/LoRaWAN/LmHandler/LmHandler.c ****         /* Cannot change DevAddr in running state */
1432:Middlewares/Third_Party/LoRaWAN/LmHandler/LmHandler.c ****         return LORAMAC_HANDLER_ERROR;
1433:Middlewares/Third_Party/LoRaWAN/LmHandler/LmHandler.c ****     }
1434:Middlewares/Third_Party/LoRaWAN/LmHandler/LmHandler.c **** #else /* STATIC_DEVICE_ADDRESS == 1 */
1435:Middlewares/Third_Party/LoRaWAN/LmHandler/LmHandler.c ****     return LORAMAC_HANDLER_ERROR;
1436:Middlewares/Third_Party/LoRaWAN/LmHandler/LmHandler.c **** #endif /* STATIC_DEVICE_ADDRESS */
1437:Middlewares/Third_Party/LoRaWAN/LmHandler/LmHandler.c **** }
 3064              		.loc 1 1437 1 view .LVU860
 3065 0020 0AB0     		add	sp, sp, #40
 3066              	.LCFI98:
 3067              		.cfi_remember_state
 3068              		.cfi_def_cfa_offset 8
 3069              		@ sp needed
 3070 0022 10BD     		pop	{r4, pc}
 3071              	.LVL220:
 3072              	.L254:
ARM GAS  /tmp/ccIEh1dP.s 			page 91


 3073              	.LCFI99:
 3074              		.cfi_restore_state
1425:Middlewares/Third_Party/LoRaWAN/LmHandler/LmHandler.c ****         }
 3075              		.loc 1 1425 20 view .LVU861
 3076 0024 4FF0FF30 		mov	r0, #-1
 3077 0028 FAE7     		b	.L250
 3078              	.L251:
1432:Middlewares/Third_Party/LoRaWAN/LmHandler/LmHandler.c ****     }
 3079              		.loc 1 1432 16 view .LVU862
 3080 002a 4FF0FF30 		mov	r0, #-1
 3081 002e F7E7     		b	.L250
 3082              		.cfi_endproc
 3083              	.LFE134:
 3085              		.section	.text.LmHandlerSetActiveRegion,"ax",%progbits
 3086              		.align	1
 3087              		.global	LmHandlerSetActiveRegion
 3088              		.syntax unified
 3089              		.thumb
 3090              		.thumb_func
 3091              		.fpu softvfp
 3093              	LmHandlerSetActiveRegion:
 3094              	.LVL221:
 3095              	.LFB135:
1438:Middlewares/Third_Party/LoRaWAN/LmHandler/LmHandler.c **** 
1439:Middlewares/Third_Party/LoRaWAN/LmHandler/LmHandler.c **** LmHandlerErrorStatus_t LmHandlerSetActiveRegion(LoRaMacRegion_t region)
1440:Middlewares/Third_Party/LoRaWAN/LmHandler/LmHandler.c **** {
 3096              		.loc 1 1440 1 is_stmt 1 view -0
 3097              		.cfi_startproc
 3098              		@ args = 0, pretend = 0, frame = 0
 3099              		@ frame_needed = 0, uses_anonymous_args = 0
 3100              		.loc 1 1440 1 is_stmt 0 view .LVU864
 3101 0000 10B5     		push	{r4, lr}
 3102              	.LCFI100:
 3103              		.cfi_def_cfa_offset 8
 3104              		.cfi_offset 4, -8
 3105              		.cfi_offset 14, -4
 3106 0002 0446     		mov	r4, r0
1441:Middlewares/Third_Party/LoRaWAN/LmHandler/LmHandler.c ****     /* Not yet joined */
1442:Middlewares/Third_Party/LoRaWAN/LmHandler/LmHandler.c ****     if (LmHandlerJoinStatus() != LORAMAC_HANDLER_SET)
 3107              		.loc 1 1442 5 is_stmt 1 view .LVU865
 3108              		.loc 1 1442 9 is_stmt 0 view .LVU866
 3109 0004 FFF7FEFF 		bl	LmHandlerJoinStatus
 3110              	.LVL222:
 3111              		.loc 1 1442 8 view .LVU867
 3112 0008 0128     		cmp	r0, #1
 3113 000a 04D0     		beq	.L257
1443:Middlewares/Third_Party/LoRaWAN/LmHandler/LmHandler.c ****     {
1444:Middlewares/Third_Party/LoRaWAN/LmHandler/LmHandler.c ****         LmHandlerParams.ActiveRegion = region;
 3114              		.loc 1 1444 9 is_stmt 1 view .LVU868
 3115              		.loc 1 1444 38 is_stmt 0 view .LVU869
 3116 000c 0348     		ldr	r0, .L259
 3117 000e 0470     		strb	r4, [r0]
1445:Middlewares/Third_Party/LoRaWAN/LmHandler/LmHandler.c ****         return LmHandlerConfigure( &LmHandlerParams );
 3118              		.loc 1 1445 9 is_stmt 1 view .LVU870
 3119              		.loc 1 1445 16 is_stmt 0 view .LVU871
 3120 0010 FFF7FEFF 		bl	LmHandlerConfigure
 3121              	.LVL223:
ARM GAS  /tmp/ccIEh1dP.s 			page 92


 3122              	.L256:
1446:Middlewares/Third_Party/LoRaWAN/LmHandler/LmHandler.c ****     }
1447:Middlewares/Third_Party/LoRaWAN/LmHandler/LmHandler.c ****     else
1448:Middlewares/Third_Party/LoRaWAN/LmHandler/LmHandler.c ****     {
1449:Middlewares/Third_Party/LoRaWAN/LmHandler/LmHandler.c ****         /* Cannot change Region in running state */
1450:Middlewares/Third_Party/LoRaWAN/LmHandler/LmHandler.c ****         return LORAMAC_HANDLER_ERROR;
1451:Middlewares/Third_Party/LoRaWAN/LmHandler/LmHandler.c ****     }
1452:Middlewares/Third_Party/LoRaWAN/LmHandler/LmHandler.c **** }
 3123              		.loc 1 1452 1 view .LVU872
 3124 0014 10BD     		pop	{r4, pc}
 3125              	.L257:
1450:Middlewares/Third_Party/LoRaWAN/LmHandler/LmHandler.c ****     }
 3126              		.loc 1 1450 16 view .LVU873
 3127 0016 4FF0FF30 		mov	r0, #-1
 3128 001a FBE7     		b	.L256
 3129              	.L260:
 3130              		.align	2
 3131              	.L259:
 3132 001c 00000000 		.word	.LANCHOR3
 3133              		.cfi_endproc
 3134              	.LFE135:
 3136              		.section	.text.LmHandlerGetAdrEnable,"ax",%progbits
 3137              		.align	1
 3138              		.global	LmHandlerGetAdrEnable
 3139              		.syntax unified
 3140              		.thumb
 3141              		.thumb_func
 3142              		.fpu softvfp
 3144              	LmHandlerGetAdrEnable:
 3145              	.LVL224:
 3146              	.LFB136:
1453:Middlewares/Third_Party/LoRaWAN/LmHandler/LmHandler.c **** 
1454:Middlewares/Third_Party/LoRaWAN/LmHandler/LmHandler.c **** LmHandlerErrorStatus_t LmHandlerGetAdrEnable(bool *adrEnable)
1455:Middlewares/Third_Party/LoRaWAN/LmHandler/LmHandler.c **** {
 3147              		.loc 1 1455 1 is_stmt 1 view -0
 3148              		.cfi_startproc
 3149              		@ args = 0, pretend = 0, frame = 0
 3150              		@ frame_needed = 0, uses_anonymous_args = 0
 3151              		@ link register save eliminated.
1456:Middlewares/Third_Party/LoRaWAN/LmHandler/LmHandler.c ****     if (adrEnable == NULL)
 3152              		.loc 1 1456 5 view .LVU875
 3153              		.loc 1 1456 8 is_stmt 0 view .LVU876
 3154 0000 20B1     		cbz	r0, .L263
1457:Middlewares/Third_Party/LoRaWAN/LmHandler/LmHandler.c ****     {
1458:Middlewares/Third_Party/LoRaWAN/LmHandler/LmHandler.c ****         return LORAMAC_HANDLER_ERROR;
1459:Middlewares/Third_Party/LoRaWAN/LmHandler/LmHandler.c ****     }
1460:Middlewares/Third_Party/LoRaWAN/LmHandler/LmHandler.c **** 
1461:Middlewares/Third_Party/LoRaWAN/LmHandler/LmHandler.c ****     *adrEnable = LmHandlerParams.AdrEnable;
 3155              		.loc 1 1461 5 is_stmt 1 view .LVU877
 3156              		.loc 1 1461 33 is_stmt 0 view .LVU878
 3157 0002 044A     		ldr	r2, .L264
 3158 0004 9278     		ldrb	r2, [r2, #2]	@ zero_extendqisi2
 3159              		.loc 1 1461 16 view .LVU879
 3160 0006 0270     		strb	r2, [r0]
1462:Middlewares/Third_Party/LoRaWAN/LmHandler/LmHandler.c ****     return LORAMAC_HANDLER_SUCCESS;
 3161              		.loc 1 1462 5 is_stmt 1 view .LVU880
 3162              		.loc 1 1462 12 is_stmt 0 view .LVU881
ARM GAS  /tmp/ccIEh1dP.s 			page 93


 3163 0008 0020     		movs	r0, #0
 3164              	.LVL225:
 3165              		.loc 1 1462 12 view .LVU882
 3166 000a 7047     		bx	lr
 3167              	.LVL226:
 3168              	.L263:
1458:Middlewares/Third_Party/LoRaWAN/LmHandler/LmHandler.c ****     }
 3169              		.loc 1 1458 16 view .LVU883
 3170 000c 4FF0FF30 		mov	r0, #-1
 3171              	.LVL227:
1463:Middlewares/Third_Party/LoRaWAN/LmHandler/LmHandler.c **** }
 3172              		.loc 1 1463 1 view .LVU884
 3173 0010 7047     		bx	lr
 3174              	.L265:
 3175 0012 00BF     		.align	2
 3176              	.L264:
 3177 0014 00000000 		.word	.LANCHOR3
 3178              		.cfi_endproc
 3179              	.LFE136:
 3181              		.section	.text.LmHandlerSetAdrEnable,"ax",%progbits
 3182              		.align	1
 3183              		.global	LmHandlerSetAdrEnable
 3184              		.syntax unified
 3185              		.thumb
 3186              		.thumb_func
 3187              		.fpu softvfp
 3189              	LmHandlerSetAdrEnable:
 3190              	.LVL228:
 3191              	.LFB137:
1464:Middlewares/Third_Party/LoRaWAN/LmHandler/LmHandler.c **** 
1465:Middlewares/Third_Party/LoRaWAN/LmHandler/LmHandler.c **** LmHandlerErrorStatus_t LmHandlerSetAdrEnable(bool adrEnable)
1466:Middlewares/Third_Party/LoRaWAN/LmHandler/LmHandler.c **** {
 3192              		.loc 1 1466 1 is_stmt 1 view -0
 3193              		.cfi_startproc
 3194              		@ args = 0, pretend = 0, frame = 40
 3195              		@ frame_needed = 0, uses_anonymous_args = 0
 3196              		.loc 1 1466 1 is_stmt 0 view .LVU886
 3197 0000 10B5     		push	{r4, lr}
 3198              	.LCFI101:
 3199              		.cfi_def_cfa_offset 8
 3200              		.cfi_offset 4, -8
 3201              		.cfi_offset 14, -4
 3202 0002 8AB0     		sub	sp, sp, #40
 3203              	.LCFI102:
 3204              		.cfi_def_cfa_offset 48
 3205 0004 0446     		mov	r4, r0
1467:Middlewares/Third_Party/LoRaWAN/LmHandler/LmHandler.c ****     MibRequestConfirm_t mibReq;
 3206              		.loc 1 1467 5 is_stmt 1 view .LVU887
1468:Middlewares/Third_Party/LoRaWAN/LmHandler/LmHandler.c ****     mibReq.Type = MIB_ADR;
 3207              		.loc 1 1468 5 view .LVU888
 3208              		.loc 1 1468 17 is_stmt 0 view .LVU889
 3209 0006 0423     		movs	r3, #4
 3210 0008 8DF80430 		strb	r3, [sp, #4]
1469:Middlewares/Third_Party/LoRaWAN/LmHandler/LmHandler.c ****     mibReq.Param.AdrEnable = adrEnable;
 3211              		.loc 1 1469 5 is_stmt 1 view .LVU890
 3212              		.loc 1 1469 28 is_stmt 0 view .LVU891
 3213 000c 8DF80800 		strb	r0, [sp, #8]
ARM GAS  /tmp/ccIEh1dP.s 			page 94


1470:Middlewares/Third_Party/LoRaWAN/LmHandler/LmHandler.c ****     if (LoRaMacMibSetRequestConfirm(&mibReq) != LORAMAC_STATUS_OK)
 3214              		.loc 1 1470 5 is_stmt 1 view .LVU892
 3215              		.loc 1 1470 9 is_stmt 0 view .LVU893
 3216 0010 0DEB0300 		add	r0, sp, r3
 3217              	.LVL229:
 3218              		.loc 1 1470 9 view .LVU894
 3219 0014 FFF7FEFF 		bl	LoRaMacMibSetRequestConfirm
 3220              	.LVL230:
 3221              		.loc 1 1470 8 view .LVU895
 3222 0018 18B9     		cbnz	r0, .L268
1471:Middlewares/Third_Party/LoRaWAN/LmHandler/LmHandler.c ****     {
1472:Middlewares/Third_Party/LoRaWAN/LmHandler/LmHandler.c ****         return LORAMAC_HANDLER_ERROR;
1473:Middlewares/Third_Party/LoRaWAN/LmHandler/LmHandler.c ****     }
1474:Middlewares/Third_Party/LoRaWAN/LmHandler/LmHandler.c ****     LmHandlerParams.AdrEnable = adrEnable;
 3223              		.loc 1 1474 5 is_stmt 1 view .LVU896
 3224              		.loc 1 1474 31 is_stmt 0 view .LVU897
 3225 001a 034B     		ldr	r3, .L270
 3226 001c 9C70     		strb	r4, [r3, #2]
1475:Middlewares/Third_Party/LoRaWAN/LmHandler/LmHandler.c **** 
1476:Middlewares/Third_Party/LoRaWAN/LmHandler/LmHandler.c ****     return LORAMAC_HANDLER_SUCCESS;
 3227              		.loc 1 1476 5 is_stmt 1 view .LVU898
 3228              	.L267:
1477:Middlewares/Third_Party/LoRaWAN/LmHandler/LmHandler.c **** }
 3229              		.loc 1 1477 1 is_stmt 0 view .LVU899
 3230 001e 0AB0     		add	sp, sp, #40
 3231              	.LCFI103:
 3232              		.cfi_remember_state
 3233              		.cfi_def_cfa_offset 8
 3234              		@ sp needed
 3235 0020 10BD     		pop	{r4, pc}
 3236              	.L268:
 3237              	.LCFI104:
 3238              		.cfi_restore_state
1472:Middlewares/Third_Party/LoRaWAN/LmHandler/LmHandler.c ****     }
 3239              		.loc 1 1472 16 view .LVU900
 3240 0022 4FF0FF30 		mov	r0, #-1
 3241 0026 FAE7     		b	.L267
 3242              	.L271:
 3243              		.align	2
 3244              	.L270:
 3245 0028 00000000 		.word	.LANCHOR3
 3246              		.cfi_endproc
 3247              	.LFE137:
 3249              		.section	.text.LmHandlerSetTxDatarate,"ax",%progbits
 3250              		.align	1
 3251              		.global	LmHandlerSetTxDatarate
 3252              		.syntax unified
 3253              		.thumb
 3254              		.thumb_func
 3255              		.fpu softvfp
 3257              	LmHandlerSetTxDatarate:
 3258              	.LVL231:
 3259              	.LFB138:
1478:Middlewares/Third_Party/LoRaWAN/LmHandler/LmHandler.c **** 
1479:Middlewares/Third_Party/LoRaWAN/LmHandler/LmHandler.c **** LmHandlerErrorStatus_t LmHandlerSetTxDatarate(int8_t txDatarate)
1480:Middlewares/Third_Party/LoRaWAN/LmHandler/LmHandler.c **** {
 3260              		.loc 1 1480 1 is_stmt 1 view -0
ARM GAS  /tmp/ccIEh1dP.s 			page 95


 3261              		.cfi_startproc
 3262              		@ args = 0, pretend = 0, frame = 40
 3263              		@ frame_needed = 0, uses_anonymous_args = 0
1481:Middlewares/Third_Party/LoRaWAN/LmHandler/LmHandler.c ****     if (LmHandlerParams.AdrEnable == true)
 3264              		.loc 1 1481 5 view .LVU902
 3265              		.loc 1 1481 24 is_stmt 0 view .LVU903
 3266 0000 0C4B     		ldr	r3, .L280
 3267 0002 9B78     		ldrb	r3, [r3, #2]	@ zero_extendqisi2
 3268              		.loc 1 1481 8 view .LVU904
 3269 0004 7BB9     		cbnz	r3, .L274
1480:Middlewares/Third_Party/LoRaWAN/LmHandler/LmHandler.c ****     if (LmHandlerParams.AdrEnable == true)
 3270              		.loc 1 1480 1 view .LVU905
 3271 0006 10B5     		push	{r4, lr}
 3272              	.LCFI105:
 3273              		.cfi_def_cfa_offset 8
 3274              		.cfi_offset 4, -8
 3275              		.cfi_offset 14, -4
 3276 0008 8AB0     		sub	sp, sp, #40
 3277              	.LCFI106:
 3278              		.cfi_def_cfa_offset 48
 3279 000a 0446     		mov	r4, r0
1482:Middlewares/Third_Party/LoRaWAN/LmHandler/LmHandler.c ****     {
1483:Middlewares/Third_Party/LoRaWAN/LmHandler/LmHandler.c ****         return LORAMAC_HANDLER_ERROR;
1484:Middlewares/Third_Party/LoRaWAN/LmHandler/LmHandler.c ****     }
1485:Middlewares/Third_Party/LoRaWAN/LmHandler/LmHandler.c **** 
1486:Middlewares/Third_Party/LoRaWAN/LmHandler/LmHandler.c ****     MibRequestConfirm_t mibReq;
 3280              		.loc 1 1486 5 is_stmt 1 view .LVU906
1487:Middlewares/Third_Party/LoRaWAN/LmHandler/LmHandler.c ****     mibReq.Type = MIB_CHANNELS_DATARATE;
 3281              		.loc 1 1487 5 view .LVU907
 3282              		.loc 1 1487 17 is_stmt 0 view .LVU908
 3283 000c 1F23     		movs	r3, #31
 3284 000e 8DF80430 		strb	r3, [sp, #4]
1488:Middlewares/Third_Party/LoRaWAN/LmHandler/LmHandler.c ****     mibReq.Param.ChannelsDatarate = txDatarate;
 3285              		.loc 1 1488 5 is_stmt 1 view .LVU909
 3286              		.loc 1 1488 35 is_stmt 0 view .LVU910
 3287 0012 8DF80800 		strb	r0, [sp, #8]
1489:Middlewares/Third_Party/LoRaWAN/LmHandler/LmHandler.c ****     if (LoRaMacMibSetRequestConfirm(&mibReq) != LORAMAC_STATUS_OK)
 3288              		.loc 1 1489 5 is_stmt 1 view .LVU911
 3289              		.loc 1 1489 9 is_stmt 0 view .LVU912
 3290 0016 01A8     		add	r0, sp, #4
 3291              	.LVL232:
 3292              		.loc 1 1489 9 view .LVU913
 3293 0018 FFF7FEFF 		bl	LoRaMacMibSetRequestConfirm
 3294              	.LVL233:
 3295              		.loc 1 1489 8 view .LVU914
 3296 001c 30B9     		cbnz	r0, .L275
1490:Middlewares/Third_Party/LoRaWAN/LmHandler/LmHandler.c ****     {
1491:Middlewares/Third_Party/LoRaWAN/LmHandler/LmHandler.c ****         return LORAMAC_HANDLER_ERROR;
1492:Middlewares/Third_Party/LoRaWAN/LmHandler/LmHandler.c ****     }
1493:Middlewares/Third_Party/LoRaWAN/LmHandler/LmHandler.c **** 
1494:Middlewares/Third_Party/LoRaWAN/LmHandler/LmHandler.c ****     LmHandlerParams.TxDatarate = txDatarate;
 3297              		.loc 1 1494 5 is_stmt 1 view .LVU915
 3298              		.loc 1 1494 32 is_stmt 0 view .LVU916
 3299 001e 054B     		ldr	r3, .L280
 3300 0020 DC70     		strb	r4, [r3, #3]
1495:Middlewares/Third_Party/LoRaWAN/LmHandler/LmHandler.c **** 
1496:Middlewares/Third_Party/LoRaWAN/LmHandler/LmHandler.c ****     return LORAMAC_HANDLER_SUCCESS;
ARM GAS  /tmp/ccIEh1dP.s 			page 96


 3301              		.loc 1 1496 5 is_stmt 1 view .LVU917
 3302              	.L273:
1497:Middlewares/Third_Party/LoRaWAN/LmHandler/LmHandler.c **** }
 3303              		.loc 1 1497 1 is_stmt 0 view .LVU918
 3304 0022 0AB0     		add	sp, sp, #40
 3305              	.LCFI107:
 3306              		.cfi_def_cfa_offset 8
 3307              		@ sp needed
 3308 0024 10BD     		pop	{r4, pc}
 3309              	.LVL234:
 3310              	.L274:
 3311              	.LCFI108:
 3312              		.cfi_def_cfa_offset 0
 3313              		.cfi_restore 4
 3314              		.cfi_restore 14
1483:Middlewares/Third_Party/LoRaWAN/LmHandler/LmHandler.c ****     }
 3315              		.loc 1 1483 16 view .LVU919
 3316 0026 4FF0FF30 		mov	r0, #-1
 3317              	.LVL235:
 3318              		.loc 1 1497 1 view .LVU920
 3319 002a 7047     		bx	lr
 3320              	.L275:
 3321              	.LCFI109:
 3322              		.cfi_def_cfa_offset 48
 3323              		.cfi_offset 4, -8
 3324              		.cfi_offset 14, -4
1491:Middlewares/Third_Party/LoRaWAN/LmHandler/LmHandler.c ****     }
 3325              		.loc 1 1491 16 view .LVU921
 3326 002c 4FF0FF30 		mov	r0, #-1
 3327 0030 F7E7     		b	.L273
 3328              	.L281:
 3329 0032 00BF     		.align	2
 3330              	.L280:
 3331 0034 00000000 		.word	.LANCHOR3
 3332              		.cfi_endproc
 3333              	.LFE138:
 3335              		.section	.text.LmHandlerGetDutyCycleEnable,"ax",%progbits
 3336              		.align	1
 3337              		.global	LmHandlerGetDutyCycleEnable
 3338              		.syntax unified
 3339              		.thumb
 3340              		.thumb_func
 3341              		.fpu softvfp
 3343              	LmHandlerGetDutyCycleEnable:
 3344              	.LVL236:
 3345              	.LFB139:
1498:Middlewares/Third_Party/LoRaWAN/LmHandler/LmHandler.c **** 
1499:Middlewares/Third_Party/LoRaWAN/LmHandler/LmHandler.c **** LmHandlerErrorStatus_t LmHandlerGetDutyCycleEnable(bool *dutyCycleEnable)
1500:Middlewares/Third_Party/LoRaWAN/LmHandler/LmHandler.c **** {
 3346              		.loc 1 1500 1 is_stmt 1 view -0
 3347              		.cfi_startproc
 3348              		@ args = 0, pretend = 0, frame = 0
 3349              		@ frame_needed = 0, uses_anonymous_args = 0
 3350              		@ link register save eliminated.
1501:Middlewares/Third_Party/LoRaWAN/LmHandler/LmHandler.c ****     if (dutyCycleEnable == NULL)
 3351              		.loc 1 1501 5 view .LVU923
 3352              		.loc 1 1501 8 is_stmt 0 view .LVU924
ARM GAS  /tmp/ccIEh1dP.s 			page 97


 3353 0000 20B1     		cbz	r0, .L284
1502:Middlewares/Third_Party/LoRaWAN/LmHandler/LmHandler.c ****     {
1503:Middlewares/Third_Party/LoRaWAN/LmHandler/LmHandler.c ****         return LORAMAC_HANDLER_ERROR;
1504:Middlewares/Third_Party/LoRaWAN/LmHandler/LmHandler.c ****     }
1505:Middlewares/Third_Party/LoRaWAN/LmHandler/LmHandler.c **** 
1506:Middlewares/Third_Party/LoRaWAN/LmHandler/LmHandler.c ****     *dutyCycleEnable = LmHandlerParams.DutyCycleEnabled;
 3354              		.loc 1 1506 5 is_stmt 1 view .LVU925
 3355              		.loc 1 1506 39 is_stmt 0 view .LVU926
 3356 0002 044A     		ldr	r2, .L285
 3357 0004 5279     		ldrb	r2, [r2, #5]	@ zero_extendqisi2
 3358              		.loc 1 1506 22 view .LVU927
 3359 0006 0270     		strb	r2, [r0]
1507:Middlewares/Third_Party/LoRaWAN/LmHandler/LmHandler.c ****     return LORAMAC_HANDLER_SUCCESS;
 3360              		.loc 1 1507 5 is_stmt 1 view .LVU928
 3361              		.loc 1 1507 12 is_stmt 0 view .LVU929
 3362 0008 0020     		movs	r0, #0
 3363              	.LVL237:
 3364              		.loc 1 1507 12 view .LVU930
 3365 000a 7047     		bx	lr
 3366              	.LVL238:
 3367              	.L284:
1503:Middlewares/Third_Party/LoRaWAN/LmHandler/LmHandler.c ****     }
 3368              		.loc 1 1503 16 view .LVU931
 3369 000c 4FF0FF30 		mov	r0, #-1
 3370              	.LVL239:
1508:Middlewares/Third_Party/LoRaWAN/LmHandler/LmHandler.c **** }
 3371              		.loc 1 1508 1 view .LVU932
 3372 0010 7047     		bx	lr
 3373              	.L286:
 3374 0012 00BF     		.align	2
 3375              	.L285:
 3376 0014 00000000 		.word	.LANCHOR3
 3377              		.cfi_endproc
 3378              	.LFE139:
 3380              		.section	.text.LmHandlerSetDutyCycleEnable,"ax",%progbits
 3381              		.align	1
 3382              		.global	LmHandlerSetDutyCycleEnable
 3383              		.syntax unified
 3384              		.thumb
 3385              		.thumb_func
 3386              		.fpu softvfp
 3388              	LmHandlerSetDutyCycleEnable:
 3389              	.LVL240:
 3390              	.LFB140:
1509:Middlewares/Third_Party/LoRaWAN/LmHandler/LmHandler.c **** 
1510:Middlewares/Third_Party/LoRaWAN/LmHandler/LmHandler.c **** LmHandlerErrorStatus_t LmHandlerSetDutyCycleEnable(bool dutyCycleEnable)
1511:Middlewares/Third_Party/LoRaWAN/LmHandler/LmHandler.c **** {
 3391              		.loc 1 1511 1 is_stmt 1 view -0
 3392              		.cfi_startproc
 3393              		@ args = 0, pretend = 0, frame = 0
 3394              		@ frame_needed = 0, uses_anonymous_args = 0
 3395              		.loc 1 1511 1 is_stmt 0 view .LVU934
 3396 0000 08B5     		push	{r3, lr}
 3397              	.LCFI110:
 3398              		.cfi_def_cfa_offset 8
 3399              		.cfi_offset 3, -8
 3400              		.cfi_offset 14, -4
ARM GAS  /tmp/ccIEh1dP.s 			page 98


1512:Middlewares/Third_Party/LoRaWAN/LmHandler/LmHandler.c ****     LmHandlerParams.DutyCycleEnabled = dutyCycleEnable;
 3401              		.loc 1 1512 5 is_stmt 1 view .LVU935
 3402              		.loc 1 1512 38 is_stmt 0 view .LVU936
 3403 0002 034B     		ldr	r3, .L289
 3404 0004 5871     		strb	r0, [r3, #5]
1513:Middlewares/Third_Party/LoRaWAN/LmHandler/LmHandler.c ****     LoRaMacTestSetDutyCycleOn(dutyCycleEnable);
 3405              		.loc 1 1513 5 is_stmt 1 view .LVU937
 3406 0006 FFF7FEFF 		bl	LoRaMacTestSetDutyCycleOn
 3407              	.LVL241:
1514:Middlewares/Third_Party/LoRaWAN/LmHandler/LmHandler.c **** 
1515:Middlewares/Third_Party/LoRaWAN/LmHandler/LmHandler.c ****     return LORAMAC_HANDLER_SUCCESS;
 3408              		.loc 1 1515 5 view .LVU938
1516:Middlewares/Third_Party/LoRaWAN/LmHandler/LmHandler.c **** }
 3409              		.loc 1 1516 1 is_stmt 0 view .LVU939
 3410 000a 0020     		movs	r0, #0
 3411 000c 08BD     		pop	{r3, pc}
 3412              	.L290:
 3413 000e 00BF     		.align	2
 3414              	.L289:
 3415 0010 00000000 		.word	.LANCHOR3
 3416              		.cfi_endproc
 3417              	.LFE140:
 3419              		.section	.text.LmHandlerGetRX2Params,"ax",%progbits
 3420              		.align	1
 3421              		.global	LmHandlerGetRX2Params
 3422              		.syntax unified
 3423              		.thumb
 3424              		.thumb_func
 3425              		.fpu softvfp
 3427              	LmHandlerGetRX2Params:
 3428              	.LVL242:
 3429              	.LFB141:
1517:Middlewares/Third_Party/LoRaWAN/LmHandler/LmHandler.c **** 
1518:Middlewares/Third_Party/LoRaWAN/LmHandler/LmHandler.c **** LmHandlerErrorStatus_t LmHandlerGetRX2Params(RxChannelParams_t *rxParams)
1519:Middlewares/Third_Party/LoRaWAN/LmHandler/LmHandler.c **** {
 3430              		.loc 1 1519 1 is_stmt 1 view -0
 3431              		.cfi_startproc
 3432              		@ args = 0, pretend = 0, frame = 40
 3433              		@ frame_needed = 0, uses_anonymous_args = 0
1520:Middlewares/Third_Party/LoRaWAN/LmHandler/LmHandler.c ****     if (rxParams == NULL)
 3434              		.loc 1 1520 5 view .LVU941
 3435              		.loc 1 1520 8 is_stmt 0 view .LVU942
 3436 0000 80B1     		cbz	r0, .L293
1519:Middlewares/Third_Party/LoRaWAN/LmHandler/LmHandler.c ****     if (rxParams == NULL)
 3437              		.loc 1 1519 1 view .LVU943
 3438 0002 10B5     		push	{r4, lr}
 3439              	.LCFI111:
 3440              		.cfi_def_cfa_offset 8
 3441              		.cfi_offset 4, -8
 3442              		.cfi_offset 14, -4
 3443 0004 8AB0     		sub	sp, sp, #40
 3444              	.LCFI112:
 3445              		.cfi_def_cfa_offset 48
 3446 0006 0446     		mov	r4, r0
1521:Middlewares/Third_Party/LoRaWAN/LmHandler/LmHandler.c ****     {
1522:Middlewares/Third_Party/LoRaWAN/LmHandler/LmHandler.c ****         return LORAMAC_HANDLER_ERROR;
1523:Middlewares/Third_Party/LoRaWAN/LmHandler/LmHandler.c ****     }
ARM GAS  /tmp/ccIEh1dP.s 			page 99


1524:Middlewares/Third_Party/LoRaWAN/LmHandler/LmHandler.c **** 
1525:Middlewares/Third_Party/LoRaWAN/LmHandler/LmHandler.c ****     MibRequestConfirm_t mibReq;
 3447              		.loc 1 1525 5 is_stmt 1 view .LVU944
1526:Middlewares/Third_Party/LoRaWAN/LmHandler/LmHandler.c **** 
1527:Middlewares/Third_Party/LoRaWAN/LmHandler/LmHandler.c ****     mibReq.Type = MIB_RX2_CHANNEL;
 3448              		.loc 1 1527 5 view .LVU945
 3449              		.loc 1 1527 17 is_stmt 0 view .LVU946
 3450 0008 1223     		movs	r3, #18
 3451 000a 8DF80430 		strb	r3, [sp, #4]
1528:Middlewares/Third_Party/LoRaWAN/LmHandler/LmHandler.c ****     if (LoRaMacMibGetRequestConfirm(&mibReq) != LORAMAC_STATUS_OK)
 3452              		.loc 1 1528 5 is_stmt 1 view .LVU947
 3453              		.loc 1 1528 9 is_stmt 0 view .LVU948
 3454 000e 01A8     		add	r0, sp, #4
 3455              	.LVL243:
 3456              		.loc 1 1528 9 view .LVU949
 3457 0010 FFF7FEFF 		bl	LoRaMacMibGetRequestConfirm
 3458              	.LVL244:
 3459              		.loc 1 1528 8 view .LVU950
 3460 0014 48B9     		cbnz	r0, .L294
1529:Middlewares/Third_Party/LoRaWAN/LmHandler/LmHandler.c ****     {
1530:Middlewares/Third_Party/LoRaWAN/LmHandler/LmHandler.c ****         return LORAMAC_HANDLER_ERROR;
1531:Middlewares/Third_Party/LoRaWAN/LmHandler/LmHandler.c ****     }
1532:Middlewares/Third_Party/LoRaWAN/LmHandler/LmHandler.c **** 
1533:Middlewares/Third_Party/LoRaWAN/LmHandler/LmHandler.c ****     rxParams->Frequency = mibReq.Param.Rx2Channel.Frequency;
 3461              		.loc 1 1533 5 is_stmt 1 view .LVU951
 3462              		.loc 1 1533 50 is_stmt 0 view .LVU952
 3463 0016 029B     		ldr	r3, [sp, #8]
 3464              		.loc 1 1533 25 view .LVU953
 3465 0018 2360     		str	r3, [r4]
1534:Middlewares/Third_Party/LoRaWAN/LmHandler/LmHandler.c ****     rxParams->Datarate = mibReq.Param.Rx2Channel.Datarate;
 3466              		.loc 1 1534 5 is_stmt 1 view .LVU954
 3467              		.loc 1 1534 49 is_stmt 0 view .LVU955
 3468 001a 9DF80C30 		ldrb	r3, [sp, #12]	@ zero_extendqisi2
 3469              		.loc 1 1534 24 view .LVU956
 3470 001e 2371     		strb	r3, [r4, #4]
1535:Middlewares/Third_Party/LoRaWAN/LmHandler/LmHandler.c ****     return LORAMAC_HANDLER_SUCCESS;
 3471              		.loc 1 1535 5 is_stmt 1 view .LVU957
 3472              	.L292:
1536:Middlewares/Third_Party/LoRaWAN/LmHandler/LmHandler.c **** }
 3473              		.loc 1 1536 1 is_stmt 0 view .LVU958
 3474 0020 0AB0     		add	sp, sp, #40
 3475              	.LCFI113:
 3476              		.cfi_def_cfa_offset 8
 3477              		@ sp needed
 3478 0022 10BD     		pop	{r4, pc}
 3479              	.LVL245:
 3480              	.L293:
 3481              	.LCFI114:
 3482              		.cfi_def_cfa_offset 0
 3483              		.cfi_restore 4
 3484              		.cfi_restore 14
1522:Middlewares/Third_Party/LoRaWAN/LmHandler/LmHandler.c ****     }
 3485              		.loc 1 1522 16 view .LVU959
 3486 0024 4FF0FF30 		mov	r0, #-1
 3487              	.LVL246:
 3488              		.loc 1 1536 1 view .LVU960
 3489 0028 7047     		bx	lr
ARM GAS  /tmp/ccIEh1dP.s 			page 100


 3490              	.LVL247:
 3491              	.L294:
 3492              	.LCFI115:
 3493              		.cfi_def_cfa_offset 48
 3494              		.cfi_offset 4, -8
 3495              		.cfi_offset 14, -4
1530:Middlewares/Third_Party/LoRaWAN/LmHandler/LmHandler.c ****     }
 3496              		.loc 1 1530 16 view .LVU961
 3497 002a 4FF0FF30 		mov	r0, #-1
 3498 002e F7E7     		b	.L292
 3499              		.cfi_endproc
 3500              	.LFE141:
 3502              		.section	.text.LmHandlerGetTxPower,"ax",%progbits
 3503              		.align	1
 3504              		.global	LmHandlerGetTxPower
 3505              		.syntax unified
 3506              		.thumb
 3507              		.thumb_func
 3508              		.fpu softvfp
 3510              	LmHandlerGetTxPower:
 3511              	.LVL248:
 3512              	.LFB142:
1537:Middlewares/Third_Party/LoRaWAN/LmHandler/LmHandler.c **** 
1538:Middlewares/Third_Party/LoRaWAN/LmHandler/LmHandler.c **** LmHandlerErrorStatus_t LmHandlerGetTxPower(int8_t *txPower)
1539:Middlewares/Third_Party/LoRaWAN/LmHandler/LmHandler.c **** {
 3513              		.loc 1 1539 1 is_stmt 1 view -0
 3514              		.cfi_startproc
 3515              		@ args = 0, pretend = 0, frame = 40
 3516              		@ frame_needed = 0, uses_anonymous_args = 0
1540:Middlewares/Third_Party/LoRaWAN/LmHandler/LmHandler.c ****     MibRequestConfirm_t mibReq;
 3517              		.loc 1 1540 5 view .LVU963
1541:Middlewares/Third_Party/LoRaWAN/LmHandler/LmHandler.c ****     if (txPower == NULL)
 3518              		.loc 1 1541 5 view .LVU964
 3519              		.loc 1 1541 8 is_stmt 0 view .LVU965
 3520 0000 70B1     		cbz	r0, .L301
1539:Middlewares/Third_Party/LoRaWAN/LmHandler/LmHandler.c ****     MibRequestConfirm_t mibReq;
 3521              		.loc 1 1539 1 view .LVU966
 3522 0002 10B5     		push	{r4, lr}
 3523              	.LCFI116:
 3524              		.cfi_def_cfa_offset 8
 3525              		.cfi_offset 4, -8
 3526              		.cfi_offset 14, -4
 3527 0004 8AB0     		sub	sp, sp, #40
 3528              	.LCFI117:
 3529              		.cfi_def_cfa_offset 48
 3530 0006 0446     		mov	r4, r0
1542:Middlewares/Third_Party/LoRaWAN/LmHandler/LmHandler.c ****     {
1543:Middlewares/Third_Party/LoRaWAN/LmHandler/LmHandler.c ****         return LORAMAC_HANDLER_ERROR;
1544:Middlewares/Third_Party/LoRaWAN/LmHandler/LmHandler.c ****     }
1545:Middlewares/Third_Party/LoRaWAN/LmHandler/LmHandler.c **** 
1546:Middlewares/Third_Party/LoRaWAN/LmHandler/LmHandler.c ****     mibReq.Type = MIB_CHANNELS_TX_POWER;
 3531              		.loc 1 1546 5 is_stmt 1 view .LVU967
 3532              		.loc 1 1546 17 is_stmt 0 view .LVU968
 3533 0008 2023     		movs	r3, #32
 3534 000a 8DF80430 		strb	r3, [sp, #4]
1547:Middlewares/Third_Party/LoRaWAN/LmHandler/LmHandler.c ****     if (LoRaMacMibGetRequestConfirm(&mibReq) != LORAMAC_STATUS_OK)
 3535              		.loc 1 1547 5 is_stmt 1 view .LVU969
ARM GAS  /tmp/ccIEh1dP.s 			page 101


 3536              		.loc 1 1547 9 is_stmt 0 view .LVU970
 3537 000e 01A8     		add	r0, sp, #4
 3538              	.LVL249:
 3539              		.loc 1 1547 9 view .LVU971
 3540 0010 FFF7FEFF 		bl	LoRaMacMibGetRequestConfirm
 3541              	.LVL250:
 3542              		.loc 1 1547 8 view .LVU972
 3543 0014 38B9     		cbnz	r0, .L302
1548:Middlewares/Third_Party/LoRaWAN/LmHandler/LmHandler.c ****     {
1549:Middlewares/Third_Party/LoRaWAN/LmHandler/LmHandler.c ****         return LORAMAC_HANDLER_ERROR;
1550:Middlewares/Third_Party/LoRaWAN/LmHandler/LmHandler.c ****     }
1551:Middlewares/Third_Party/LoRaWAN/LmHandler/LmHandler.c **** 
1552:Middlewares/Third_Party/LoRaWAN/LmHandler/LmHandler.c ****     *txPower = mibReq.Param.ChannelsTxPower;
 3544              		.loc 1 1552 5 is_stmt 1 view .LVU973
 3545              		.loc 1 1552 28 is_stmt 0 view .LVU974
 3546 0016 9DF90830 		ldrsb	r3, [sp, #8]
 3547              		.loc 1 1552 14 view .LVU975
 3548 001a 2370     		strb	r3, [r4]
1553:Middlewares/Third_Party/LoRaWAN/LmHandler/LmHandler.c ****     return LORAMAC_HANDLER_SUCCESS;
 3549              		.loc 1 1553 5 is_stmt 1 view .LVU976
 3550              	.L300:
1554:Middlewares/Third_Party/LoRaWAN/LmHandler/LmHandler.c **** }
 3551              		.loc 1 1554 1 is_stmt 0 view .LVU977
 3552 001c 0AB0     		add	sp, sp, #40
 3553              	.LCFI118:
 3554              		.cfi_def_cfa_offset 8
 3555              		@ sp needed
 3556 001e 10BD     		pop	{r4, pc}
 3557              	.LVL251:
 3558              	.L301:
 3559              	.LCFI119:
 3560              		.cfi_def_cfa_offset 0
 3561              		.cfi_restore 4
 3562              		.cfi_restore 14
1543:Middlewares/Third_Party/LoRaWAN/LmHandler/LmHandler.c ****     }
 3563              		.loc 1 1543 16 view .LVU978
 3564 0020 4FF0FF30 		mov	r0, #-1
 3565              	.LVL252:
 3566              		.loc 1 1554 1 view .LVU979
 3567 0024 7047     		bx	lr
 3568              	.LVL253:
 3569              	.L302:
 3570              	.LCFI120:
 3571              		.cfi_def_cfa_offset 48
 3572              		.cfi_offset 4, -8
 3573              		.cfi_offset 14, -4
1549:Middlewares/Third_Party/LoRaWAN/LmHandler/LmHandler.c ****     }
 3574              		.loc 1 1549 16 view .LVU980
 3575 0026 4FF0FF30 		mov	r0, #-1
 3576 002a F7E7     		b	.L300
 3577              		.cfi_endproc
 3578              	.LFE142:
 3580              		.section	.text.LmHandlerGetRx1Delay,"ax",%progbits
 3581              		.align	1
 3582              		.global	LmHandlerGetRx1Delay
 3583              		.syntax unified
 3584              		.thumb
ARM GAS  /tmp/ccIEh1dP.s 			page 102


 3585              		.thumb_func
 3586              		.fpu softvfp
 3588              	LmHandlerGetRx1Delay:
 3589              	.LVL254:
 3590              	.LFB143:
1555:Middlewares/Third_Party/LoRaWAN/LmHandler/LmHandler.c **** 
1556:Middlewares/Third_Party/LoRaWAN/LmHandler/LmHandler.c **** LmHandlerErrorStatus_t LmHandlerGetRx1Delay(uint32_t *rxDelay)
1557:Middlewares/Third_Party/LoRaWAN/LmHandler/LmHandler.c **** {
 3591              		.loc 1 1557 1 is_stmt 1 view -0
 3592              		.cfi_startproc
 3593              		@ args = 0, pretend = 0, frame = 40
 3594              		@ frame_needed = 0, uses_anonymous_args = 0
1558:Middlewares/Third_Party/LoRaWAN/LmHandler/LmHandler.c ****     MibRequestConfirm_t mibReq;
 3595              		.loc 1 1558 5 view .LVU982
1559:Middlewares/Third_Party/LoRaWAN/LmHandler/LmHandler.c ****     if (rxDelay == NULL)
 3596              		.loc 1 1559 5 view .LVU983
 3597              		.loc 1 1559 8 is_stmt 0 view .LVU984
 3598 0000 68B1     		cbz	r0, .L309
1557:Middlewares/Third_Party/LoRaWAN/LmHandler/LmHandler.c ****     MibRequestConfirm_t mibReq;
 3599              		.loc 1 1557 1 view .LVU985
 3600 0002 10B5     		push	{r4, lr}
 3601              	.LCFI121:
 3602              		.cfi_def_cfa_offset 8
 3603              		.cfi_offset 4, -8
 3604              		.cfi_offset 14, -4
 3605 0004 8AB0     		sub	sp, sp, #40
 3606              	.LCFI122:
 3607              		.cfi_def_cfa_offset 48
 3608 0006 0446     		mov	r4, r0
1560:Middlewares/Third_Party/LoRaWAN/LmHandler/LmHandler.c ****     {
1561:Middlewares/Third_Party/LoRaWAN/LmHandler/LmHandler.c ****         return LORAMAC_HANDLER_ERROR;
1562:Middlewares/Third_Party/LoRaWAN/LmHandler/LmHandler.c ****     }
1563:Middlewares/Third_Party/LoRaWAN/LmHandler/LmHandler.c **** 
1564:Middlewares/Third_Party/LoRaWAN/LmHandler/LmHandler.c ****     mibReq.Type = MIB_RECEIVE_DELAY_1;
 3609              		.loc 1 1564 5 is_stmt 1 view .LVU986
 3610              		.loc 1 1564 17 is_stmt 0 view .LVU987
 3611 0008 1A23     		movs	r3, #26
 3612 000a 8DF80430 		strb	r3, [sp, #4]
1565:Middlewares/Third_Party/LoRaWAN/LmHandler/LmHandler.c ****     if (LoRaMacMibGetRequestConfirm(&mibReq) != LORAMAC_STATUS_OK)
 3613              		.loc 1 1565 5 is_stmt 1 view .LVU988
 3614              		.loc 1 1565 9 is_stmt 0 view .LVU989
 3615 000e 01A8     		add	r0, sp, #4
 3616              	.LVL255:
 3617              		.loc 1 1565 9 view .LVU990
 3618 0010 FFF7FEFF 		bl	LoRaMacMibGetRequestConfirm
 3619              	.LVL256:
 3620              		.loc 1 1565 8 view .LVU991
 3621 0014 30B9     		cbnz	r0, .L310
1566:Middlewares/Third_Party/LoRaWAN/LmHandler/LmHandler.c ****     {
1567:Middlewares/Third_Party/LoRaWAN/LmHandler/LmHandler.c ****         return LORAMAC_HANDLER_ERROR;
1568:Middlewares/Third_Party/LoRaWAN/LmHandler/LmHandler.c ****     }
1569:Middlewares/Third_Party/LoRaWAN/LmHandler/LmHandler.c **** 
1570:Middlewares/Third_Party/LoRaWAN/LmHandler/LmHandler.c ****     *rxDelay = mibReq.Param.ReceiveDelay1;
 3622              		.loc 1 1570 5 is_stmt 1 view .LVU992
 3623              		.loc 1 1570 28 is_stmt 0 view .LVU993
 3624 0016 029B     		ldr	r3, [sp, #8]
 3625              		.loc 1 1570 14 view .LVU994
ARM GAS  /tmp/ccIEh1dP.s 			page 103


 3626 0018 2360     		str	r3, [r4]
1571:Middlewares/Third_Party/LoRaWAN/LmHandler/LmHandler.c ****     return LORAMAC_HANDLER_SUCCESS;
 3627              		.loc 1 1571 5 is_stmt 1 view .LVU995
 3628              	.L308:
1572:Middlewares/Third_Party/LoRaWAN/LmHandler/LmHandler.c **** }
 3629              		.loc 1 1572 1 is_stmt 0 view .LVU996
 3630 001a 0AB0     		add	sp, sp, #40
 3631              	.LCFI123:
 3632              		.cfi_def_cfa_offset 8
 3633              		@ sp needed
 3634 001c 10BD     		pop	{r4, pc}
 3635              	.LVL257:
 3636              	.L309:
 3637              	.LCFI124:
 3638              		.cfi_def_cfa_offset 0
 3639              		.cfi_restore 4
 3640              		.cfi_restore 14
1561:Middlewares/Third_Party/LoRaWAN/LmHandler/LmHandler.c ****     }
 3641              		.loc 1 1561 16 view .LVU997
 3642 001e 4FF0FF30 		mov	r0, #-1
 3643              	.LVL258:
 3644              		.loc 1 1572 1 view .LVU998
 3645 0022 7047     		bx	lr
 3646              	.LVL259:
 3647              	.L310:
 3648              	.LCFI125:
 3649              		.cfi_def_cfa_offset 48
 3650              		.cfi_offset 4, -8
 3651              		.cfi_offset 14, -4
1567:Middlewares/Third_Party/LoRaWAN/LmHandler/LmHandler.c ****     }
 3652              		.loc 1 1567 16 view .LVU999
 3653 0024 4FF0FF30 		mov	r0, #-1
 3654 0028 F7E7     		b	.L308
 3655              		.cfi_endproc
 3656              	.LFE143:
 3658              		.section	.text.LmHandlerGetRx2Delay,"ax",%progbits
 3659              		.align	1
 3660              		.global	LmHandlerGetRx2Delay
 3661              		.syntax unified
 3662              		.thumb
 3663              		.thumb_func
 3664              		.fpu softvfp
 3666              	LmHandlerGetRx2Delay:
 3667              	.LVL260:
 3668              	.LFB144:
1573:Middlewares/Third_Party/LoRaWAN/LmHandler/LmHandler.c **** 
1574:Middlewares/Third_Party/LoRaWAN/LmHandler/LmHandler.c **** LmHandlerErrorStatus_t LmHandlerGetRx2Delay(uint32_t *rxDelay)
1575:Middlewares/Third_Party/LoRaWAN/LmHandler/LmHandler.c **** {
 3669              		.loc 1 1575 1 is_stmt 1 view -0
 3670              		.cfi_startproc
 3671              		@ args = 0, pretend = 0, frame = 40
 3672              		@ frame_needed = 0, uses_anonymous_args = 0
1576:Middlewares/Third_Party/LoRaWAN/LmHandler/LmHandler.c ****     MibRequestConfirm_t mibReq;
 3673              		.loc 1 1576 5 view .LVU1001
1577:Middlewares/Third_Party/LoRaWAN/LmHandler/LmHandler.c ****     if (rxDelay == NULL)
 3674              		.loc 1 1577 5 view .LVU1002
 3675              		.loc 1 1577 8 is_stmt 0 view .LVU1003
ARM GAS  /tmp/ccIEh1dP.s 			page 104


 3676 0000 68B1     		cbz	r0, .L317
1575:Middlewares/Third_Party/LoRaWAN/LmHandler/LmHandler.c ****     MibRequestConfirm_t mibReq;
 3677              		.loc 1 1575 1 view .LVU1004
 3678 0002 10B5     		push	{r4, lr}
 3679              	.LCFI126:
 3680              		.cfi_def_cfa_offset 8
 3681              		.cfi_offset 4, -8
 3682              		.cfi_offset 14, -4
 3683 0004 8AB0     		sub	sp, sp, #40
 3684              	.LCFI127:
 3685              		.cfi_def_cfa_offset 48
 3686 0006 0446     		mov	r4, r0
1578:Middlewares/Third_Party/LoRaWAN/LmHandler/LmHandler.c ****     {
1579:Middlewares/Third_Party/LoRaWAN/LmHandler/LmHandler.c ****         return LORAMAC_HANDLER_ERROR;
1580:Middlewares/Third_Party/LoRaWAN/LmHandler/LmHandler.c ****     }
1581:Middlewares/Third_Party/LoRaWAN/LmHandler/LmHandler.c **** 
1582:Middlewares/Third_Party/LoRaWAN/LmHandler/LmHandler.c ****     mibReq.Type = MIB_RECEIVE_DELAY_2;
 3687              		.loc 1 1582 5 is_stmt 1 view .LVU1005
 3688              		.loc 1 1582 17 is_stmt 0 view .LVU1006
 3689 0008 1B23     		movs	r3, #27
 3690 000a 8DF80430 		strb	r3, [sp, #4]
1583:Middlewares/Third_Party/LoRaWAN/LmHandler/LmHandler.c ****     if (LoRaMacMibGetRequestConfirm(&mibReq) != LORAMAC_STATUS_OK)
 3691              		.loc 1 1583 5 is_stmt 1 view .LVU1007
 3692              		.loc 1 1583 9 is_stmt 0 view .LVU1008
 3693 000e 01A8     		add	r0, sp, #4
 3694              	.LVL261:
 3695              		.loc 1 1583 9 view .LVU1009
 3696 0010 FFF7FEFF 		bl	LoRaMacMibGetRequestConfirm
 3697              	.LVL262:
 3698              		.loc 1 1583 8 view .LVU1010
 3699 0014 30B9     		cbnz	r0, .L318
1584:Middlewares/Third_Party/LoRaWAN/LmHandler/LmHandler.c ****     {
1585:Middlewares/Third_Party/LoRaWAN/LmHandler/LmHandler.c ****         return LORAMAC_HANDLER_ERROR;
1586:Middlewares/Third_Party/LoRaWAN/LmHandler/LmHandler.c ****     }
1587:Middlewares/Third_Party/LoRaWAN/LmHandler/LmHandler.c **** 
1588:Middlewares/Third_Party/LoRaWAN/LmHandler/LmHandler.c ****     *rxDelay = mibReq.Param.ReceiveDelay2;
 3700              		.loc 1 1588 5 is_stmt 1 view .LVU1011
 3701              		.loc 1 1588 28 is_stmt 0 view .LVU1012
 3702 0016 029B     		ldr	r3, [sp, #8]
 3703              		.loc 1 1588 14 view .LVU1013
 3704 0018 2360     		str	r3, [r4]
1589:Middlewares/Third_Party/LoRaWAN/LmHandler/LmHandler.c ****     return LORAMAC_HANDLER_SUCCESS;
 3705              		.loc 1 1589 5 is_stmt 1 view .LVU1014
 3706              	.L316:
1590:Middlewares/Third_Party/LoRaWAN/LmHandler/LmHandler.c **** }
 3707              		.loc 1 1590 1 is_stmt 0 view .LVU1015
 3708 001a 0AB0     		add	sp, sp, #40
 3709              	.LCFI128:
 3710              		.cfi_def_cfa_offset 8
 3711              		@ sp needed
 3712 001c 10BD     		pop	{r4, pc}
 3713              	.LVL263:
 3714              	.L317:
 3715              	.LCFI129:
 3716              		.cfi_def_cfa_offset 0
 3717              		.cfi_restore 4
 3718              		.cfi_restore 14
ARM GAS  /tmp/ccIEh1dP.s 			page 105


1579:Middlewares/Third_Party/LoRaWAN/LmHandler/LmHandler.c ****     }
 3719              		.loc 1 1579 16 view .LVU1016
 3720 001e 4FF0FF30 		mov	r0, #-1
 3721              	.LVL264:
 3722              		.loc 1 1590 1 view .LVU1017
 3723 0022 7047     		bx	lr
 3724              	.LVL265:
 3725              	.L318:
 3726              	.LCFI130:
 3727              		.cfi_def_cfa_offset 48
 3728              		.cfi_offset 4, -8
 3729              		.cfi_offset 14, -4
1585:Middlewares/Third_Party/LoRaWAN/LmHandler/LmHandler.c ****     }
 3730              		.loc 1 1585 16 view .LVU1018
 3731 0024 4FF0FF30 		mov	r0, #-1
 3732 0028 F7E7     		b	.L316
 3733              		.cfi_endproc
 3734              	.LFE144:
 3736              		.section	.text.LmHandlerGetJoinRx1Delay,"ax",%progbits
 3737              		.align	1
 3738              		.global	LmHandlerGetJoinRx1Delay
 3739              		.syntax unified
 3740              		.thumb
 3741              		.thumb_func
 3742              		.fpu softvfp
 3744              	LmHandlerGetJoinRx1Delay:
 3745              	.LVL266:
 3746              	.LFB145:
1591:Middlewares/Third_Party/LoRaWAN/LmHandler/LmHandler.c **** 
1592:Middlewares/Third_Party/LoRaWAN/LmHandler/LmHandler.c **** LmHandlerErrorStatus_t LmHandlerGetJoinRx1Delay(uint32_t *rxDelay)
1593:Middlewares/Third_Party/LoRaWAN/LmHandler/LmHandler.c **** {
 3747              		.loc 1 1593 1 is_stmt 1 view -0
 3748              		.cfi_startproc
 3749              		@ args = 0, pretend = 0, frame = 40
 3750              		@ frame_needed = 0, uses_anonymous_args = 0
1594:Middlewares/Third_Party/LoRaWAN/LmHandler/LmHandler.c ****     MibRequestConfirm_t mibReq;
 3751              		.loc 1 1594 5 view .LVU1020
1595:Middlewares/Third_Party/LoRaWAN/LmHandler/LmHandler.c ****     if (rxDelay == NULL)
 3752              		.loc 1 1595 5 view .LVU1021
 3753              		.loc 1 1595 8 is_stmt 0 view .LVU1022
 3754 0000 68B1     		cbz	r0, .L325
1593:Middlewares/Third_Party/LoRaWAN/LmHandler/LmHandler.c ****     MibRequestConfirm_t mibReq;
 3755              		.loc 1 1593 1 view .LVU1023
 3756 0002 10B5     		push	{r4, lr}
 3757              	.LCFI131:
 3758              		.cfi_def_cfa_offset 8
 3759              		.cfi_offset 4, -8
 3760              		.cfi_offset 14, -4
 3761 0004 8AB0     		sub	sp, sp, #40
 3762              	.LCFI132:
 3763              		.cfi_def_cfa_offset 48
 3764 0006 0446     		mov	r4, r0
1596:Middlewares/Third_Party/LoRaWAN/LmHandler/LmHandler.c ****     {
1597:Middlewares/Third_Party/LoRaWAN/LmHandler/LmHandler.c ****         return LORAMAC_HANDLER_ERROR;
1598:Middlewares/Third_Party/LoRaWAN/LmHandler/LmHandler.c ****     }
1599:Middlewares/Third_Party/LoRaWAN/LmHandler/LmHandler.c **** 
1600:Middlewares/Third_Party/LoRaWAN/LmHandler/LmHandler.c ****     mibReq.Type = MIB_JOIN_ACCEPT_DELAY_1;
ARM GAS  /tmp/ccIEh1dP.s 			page 106


 3765              		.loc 1 1600 5 is_stmt 1 view .LVU1024
 3766              		.loc 1 1600 17 is_stmt 0 view .LVU1025
 3767 0008 1C23     		movs	r3, #28
 3768 000a 8DF80430 		strb	r3, [sp, #4]
1601:Middlewares/Third_Party/LoRaWAN/LmHandler/LmHandler.c ****     if (LoRaMacMibGetRequestConfirm(&mibReq) != LORAMAC_STATUS_OK)
 3769              		.loc 1 1601 5 is_stmt 1 view .LVU1026
 3770              		.loc 1 1601 9 is_stmt 0 view .LVU1027
 3771 000e 01A8     		add	r0, sp, #4
 3772              	.LVL267:
 3773              		.loc 1 1601 9 view .LVU1028
 3774 0010 FFF7FEFF 		bl	LoRaMacMibGetRequestConfirm
 3775              	.LVL268:
 3776              		.loc 1 1601 8 view .LVU1029
 3777 0014 30B9     		cbnz	r0, .L326
1602:Middlewares/Third_Party/LoRaWAN/LmHandler/LmHandler.c ****     {
1603:Middlewares/Third_Party/LoRaWAN/LmHandler/LmHandler.c ****         return LORAMAC_HANDLER_ERROR;
1604:Middlewares/Third_Party/LoRaWAN/LmHandler/LmHandler.c ****     }
1605:Middlewares/Third_Party/LoRaWAN/LmHandler/LmHandler.c **** 
1606:Middlewares/Third_Party/LoRaWAN/LmHandler/LmHandler.c ****     *rxDelay = mibReq.Param.JoinAcceptDelay1;
 3778              		.loc 1 1606 5 is_stmt 1 view .LVU1030
 3779              		.loc 1 1606 28 is_stmt 0 view .LVU1031
 3780 0016 029B     		ldr	r3, [sp, #8]
 3781              		.loc 1 1606 14 view .LVU1032
 3782 0018 2360     		str	r3, [r4]
1607:Middlewares/Third_Party/LoRaWAN/LmHandler/LmHandler.c ****     return LORAMAC_HANDLER_SUCCESS;
 3783              		.loc 1 1607 5 is_stmt 1 view .LVU1033
 3784              	.L324:
1608:Middlewares/Third_Party/LoRaWAN/LmHandler/LmHandler.c **** }
 3785              		.loc 1 1608 1 is_stmt 0 view .LVU1034
 3786 001a 0AB0     		add	sp, sp, #40
 3787              	.LCFI133:
 3788              		.cfi_def_cfa_offset 8
 3789              		@ sp needed
 3790 001c 10BD     		pop	{r4, pc}
 3791              	.LVL269:
 3792              	.L325:
 3793              	.LCFI134:
 3794              		.cfi_def_cfa_offset 0
 3795              		.cfi_restore 4
 3796              		.cfi_restore 14
1597:Middlewares/Third_Party/LoRaWAN/LmHandler/LmHandler.c ****     }
 3797              		.loc 1 1597 16 view .LVU1035
 3798 001e 4FF0FF30 		mov	r0, #-1
 3799              	.LVL270:
 3800              		.loc 1 1608 1 view .LVU1036
 3801 0022 7047     		bx	lr
 3802              	.LVL271:
 3803              	.L326:
 3804              	.LCFI135:
 3805              		.cfi_def_cfa_offset 48
 3806              		.cfi_offset 4, -8
 3807              		.cfi_offset 14, -4
1603:Middlewares/Third_Party/LoRaWAN/LmHandler/LmHandler.c ****     }
 3808              		.loc 1 1603 16 view .LVU1037
 3809 0024 4FF0FF30 		mov	r0, #-1
 3810 0028 F7E7     		b	.L324
 3811              		.cfi_endproc
ARM GAS  /tmp/ccIEh1dP.s 			page 107


 3812              	.LFE145:
 3814              		.section	.text.LmHandlerGetJoinRx2Delay,"ax",%progbits
 3815              		.align	1
 3816              		.global	LmHandlerGetJoinRx2Delay
 3817              		.syntax unified
 3818              		.thumb
 3819              		.thumb_func
 3820              		.fpu softvfp
 3822              	LmHandlerGetJoinRx2Delay:
 3823              	.LVL272:
 3824              	.LFB146:
1609:Middlewares/Third_Party/LoRaWAN/LmHandler/LmHandler.c **** 
1610:Middlewares/Third_Party/LoRaWAN/LmHandler/LmHandler.c **** LmHandlerErrorStatus_t LmHandlerGetJoinRx2Delay(uint32_t *rxDelay)
1611:Middlewares/Third_Party/LoRaWAN/LmHandler/LmHandler.c **** {
 3825              		.loc 1 1611 1 is_stmt 1 view -0
 3826              		.cfi_startproc
 3827              		@ args = 0, pretend = 0, frame = 40
 3828              		@ frame_needed = 0, uses_anonymous_args = 0
1612:Middlewares/Third_Party/LoRaWAN/LmHandler/LmHandler.c ****     MibRequestConfirm_t mibReq;
 3829              		.loc 1 1612 5 view .LVU1039
1613:Middlewares/Third_Party/LoRaWAN/LmHandler/LmHandler.c ****     if (rxDelay == NULL)
 3830              		.loc 1 1613 5 view .LVU1040
 3831              		.loc 1 1613 8 is_stmt 0 view .LVU1041
 3832 0000 68B1     		cbz	r0, .L333
1611:Middlewares/Third_Party/LoRaWAN/LmHandler/LmHandler.c ****     MibRequestConfirm_t mibReq;
 3833              		.loc 1 1611 1 view .LVU1042
 3834 0002 10B5     		push	{r4, lr}
 3835              	.LCFI136:
 3836              		.cfi_def_cfa_offset 8
 3837              		.cfi_offset 4, -8
 3838              		.cfi_offset 14, -4
 3839 0004 8AB0     		sub	sp, sp, #40
 3840              	.LCFI137:
 3841              		.cfi_def_cfa_offset 48
 3842 0006 0446     		mov	r4, r0
1614:Middlewares/Third_Party/LoRaWAN/LmHandler/LmHandler.c ****     {
1615:Middlewares/Third_Party/LoRaWAN/LmHandler/LmHandler.c ****         return LORAMAC_HANDLER_ERROR;
1616:Middlewares/Third_Party/LoRaWAN/LmHandler/LmHandler.c ****     }
1617:Middlewares/Third_Party/LoRaWAN/LmHandler/LmHandler.c **** 
1618:Middlewares/Third_Party/LoRaWAN/LmHandler/LmHandler.c ****     mibReq.Type = MIB_JOIN_ACCEPT_DELAY_2;
 3843              		.loc 1 1618 5 is_stmt 1 view .LVU1043
 3844              		.loc 1 1618 17 is_stmt 0 view .LVU1044
 3845 0008 1D23     		movs	r3, #29
 3846 000a 8DF80430 		strb	r3, [sp, #4]
1619:Middlewares/Third_Party/LoRaWAN/LmHandler/LmHandler.c ****     if (LoRaMacMibGetRequestConfirm(&mibReq) != LORAMAC_STATUS_OK)
 3847              		.loc 1 1619 5 is_stmt 1 view .LVU1045
 3848              		.loc 1 1619 9 is_stmt 0 view .LVU1046
 3849 000e 01A8     		add	r0, sp, #4
 3850              	.LVL273:
 3851              		.loc 1 1619 9 view .LVU1047
 3852 0010 FFF7FEFF 		bl	LoRaMacMibGetRequestConfirm
 3853              	.LVL274:
 3854              		.loc 1 1619 8 view .LVU1048
 3855 0014 30B9     		cbnz	r0, .L334
1620:Middlewares/Third_Party/LoRaWAN/LmHandler/LmHandler.c ****     {
1621:Middlewares/Third_Party/LoRaWAN/LmHandler/LmHandler.c ****         return LORAMAC_HANDLER_ERROR;
1622:Middlewares/Third_Party/LoRaWAN/LmHandler/LmHandler.c ****     }
ARM GAS  /tmp/ccIEh1dP.s 			page 108


1623:Middlewares/Third_Party/LoRaWAN/LmHandler/LmHandler.c **** 
1624:Middlewares/Third_Party/LoRaWAN/LmHandler/LmHandler.c ****     *rxDelay = mibReq.Param.JoinAcceptDelay2;
 3856              		.loc 1 1624 5 is_stmt 1 view .LVU1049
 3857              		.loc 1 1624 28 is_stmt 0 view .LVU1050
 3858 0016 029B     		ldr	r3, [sp, #8]
 3859              		.loc 1 1624 14 view .LVU1051
 3860 0018 2360     		str	r3, [r4]
1625:Middlewares/Third_Party/LoRaWAN/LmHandler/LmHandler.c ****     return LORAMAC_HANDLER_SUCCESS;
 3861              		.loc 1 1625 5 is_stmt 1 view .LVU1052
 3862              	.L332:
1626:Middlewares/Third_Party/LoRaWAN/LmHandler/LmHandler.c **** }
 3863              		.loc 1 1626 1 is_stmt 0 view .LVU1053
 3864 001a 0AB0     		add	sp, sp, #40
 3865              	.LCFI138:
 3866              		.cfi_def_cfa_offset 8
 3867              		@ sp needed
 3868 001c 10BD     		pop	{r4, pc}
 3869              	.LVL275:
 3870              	.L333:
 3871              	.LCFI139:
 3872              		.cfi_def_cfa_offset 0
 3873              		.cfi_restore 4
 3874              		.cfi_restore 14
1615:Middlewares/Third_Party/LoRaWAN/LmHandler/LmHandler.c ****     }
 3875              		.loc 1 1615 16 view .LVU1054
 3876 001e 4FF0FF30 		mov	r0, #-1
 3877              	.LVL276:
 3878              		.loc 1 1626 1 view .LVU1055
 3879 0022 7047     		bx	lr
 3880              	.LVL277:
 3881              	.L334:
 3882              	.LCFI140:
 3883              		.cfi_def_cfa_offset 48
 3884              		.cfi_offset 4, -8
 3885              		.cfi_offset 14, -4
1621:Middlewares/Third_Party/LoRaWAN/LmHandler/LmHandler.c ****     }
 3886              		.loc 1 1621 16 view .LVU1056
 3887 0024 4FF0FF30 		mov	r0, #-1
 3888 0028 F7E7     		b	.L332
 3889              		.cfi_endproc
 3890              	.LFE146:
 3892              		.section	.text.LmHandlerSetTxPower,"ax",%progbits
 3893              		.align	1
 3894              		.global	LmHandlerSetTxPower
 3895              		.syntax unified
 3896              		.thumb
 3897              		.thumb_func
 3898              		.fpu softvfp
 3900              	LmHandlerSetTxPower:
 3901              	.LVL278:
 3902              	.LFB147:
1627:Middlewares/Third_Party/LoRaWAN/LmHandler/LmHandler.c **** 
1628:Middlewares/Third_Party/LoRaWAN/LmHandler/LmHandler.c **** LmHandlerErrorStatus_t LmHandlerSetTxPower(int8_t txPower)
1629:Middlewares/Third_Party/LoRaWAN/LmHandler/LmHandler.c **** {
 3903              		.loc 1 1629 1 is_stmt 1 view -0
 3904              		.cfi_startproc
 3905              		@ args = 0, pretend = 0, frame = 40
ARM GAS  /tmp/ccIEh1dP.s 			page 109


 3906              		@ frame_needed = 0, uses_anonymous_args = 0
 3907              		.loc 1 1629 1 is_stmt 0 view .LVU1058
 3908 0000 00B5     		push	{lr}
 3909              	.LCFI141:
 3910              		.cfi_def_cfa_offset 4
 3911              		.cfi_offset 14, -4
 3912 0002 8BB0     		sub	sp, sp, #44
 3913              	.LCFI142:
 3914              		.cfi_def_cfa_offset 48
1630:Middlewares/Third_Party/LoRaWAN/LmHandler/LmHandler.c ****     MibRequestConfirm_t mibReq;
 3915              		.loc 1 1630 5 is_stmt 1 view .LVU1059
1631:Middlewares/Third_Party/LoRaWAN/LmHandler/LmHandler.c **** 
1632:Middlewares/Third_Party/LoRaWAN/LmHandler/LmHandler.c ****     mibReq.Type = MIB_CHANNELS_TX_POWER;
 3916              		.loc 1 1632 5 view .LVU1060
 3917              		.loc 1 1632 17 is_stmt 0 view .LVU1061
 3918 0004 2023     		movs	r3, #32
 3919 0006 8DF80430 		strb	r3, [sp, #4]
1633:Middlewares/Third_Party/LoRaWAN/LmHandler/LmHandler.c ****     mibReq.Param.ChannelsTxPower = txPower;
 3920              		.loc 1 1633 5 is_stmt 1 view .LVU1062
 3921              		.loc 1 1633 34 is_stmt 0 view .LVU1063
 3922 000a 8DF80800 		strb	r0, [sp, #8]
1634:Middlewares/Third_Party/LoRaWAN/LmHandler/LmHandler.c ****     if (LoRaMacMibSetRequestConfirm(&mibReq) != LORAMAC_STATUS_OK)
 3923              		.loc 1 1634 5 is_stmt 1 view .LVU1064
 3924              		.loc 1 1634 9 is_stmt 0 view .LVU1065
 3925 000e 01A8     		add	r0, sp, #4
 3926              	.LVL279:
 3927              		.loc 1 1634 9 view .LVU1066
 3928 0010 FFF7FEFF 		bl	LoRaMacMibSetRequestConfirm
 3929              	.LVL280:
 3930              		.loc 1 1634 8 view .LVU1067
 3931 0014 10B9     		cbnz	r0, .L343
 3932              	.L340:
1635:Middlewares/Third_Party/LoRaWAN/LmHandler/LmHandler.c ****     {
1636:Middlewares/Third_Party/LoRaWAN/LmHandler/LmHandler.c ****         return LORAMAC_HANDLER_ERROR;
1637:Middlewares/Third_Party/LoRaWAN/LmHandler/LmHandler.c ****     }
1638:Middlewares/Third_Party/LoRaWAN/LmHandler/LmHandler.c **** 
1639:Middlewares/Third_Party/LoRaWAN/LmHandler/LmHandler.c ****     return LORAMAC_HANDLER_SUCCESS;
1640:Middlewares/Third_Party/LoRaWAN/LmHandler/LmHandler.c **** }
 3933              		.loc 1 1640 1 view .LVU1068
 3934 0016 0BB0     		add	sp, sp, #44
 3935              	.LCFI143:
 3936              		.cfi_remember_state
 3937              		.cfi_def_cfa_offset 4
 3938              		@ sp needed
 3939 0018 5DF804FB 		ldr	pc, [sp], #4
 3940              	.L343:
 3941              	.LCFI144:
 3942              		.cfi_restore_state
1636:Middlewares/Third_Party/LoRaWAN/LmHandler/LmHandler.c ****     }
 3943              		.loc 1 1636 16 view .LVU1069
 3944 001c 4FF0FF30 		mov	r0, #-1
 3945 0020 F9E7     		b	.L340
 3946              		.cfi_endproc
 3947              	.LFE147:
 3949              		.section	.text.LmHandlerSetRX2Params,"ax",%progbits
 3950              		.align	1
 3951              		.global	LmHandlerSetRX2Params
ARM GAS  /tmp/ccIEh1dP.s 			page 110


 3952              		.syntax unified
 3953              		.thumb
 3954              		.thumb_func
 3955              		.fpu softvfp
 3957              	LmHandlerSetRX2Params:
 3958              	.LVL281:
 3959              	.LFB148:
1641:Middlewares/Third_Party/LoRaWAN/LmHandler/LmHandler.c **** 
1642:Middlewares/Third_Party/LoRaWAN/LmHandler/LmHandler.c **** LmHandlerErrorStatus_t LmHandlerSetRX2Params(RxChannelParams_t *rxParams)
1643:Middlewares/Third_Party/LoRaWAN/LmHandler/LmHandler.c **** {
 3960              		.loc 1 1643 1 is_stmt 1 view -0
 3961              		.cfi_startproc
 3962              		@ args = 0, pretend = 0, frame = 40
 3963              		@ frame_needed = 0, uses_anonymous_args = 0
 3964              		.loc 1 1643 1 is_stmt 0 view .LVU1071
 3965 0000 00B5     		push	{lr}
 3966              	.LCFI145:
 3967              		.cfi_def_cfa_offset 4
 3968              		.cfi_offset 14, -4
 3969 0002 8BB0     		sub	sp, sp, #44
 3970              	.LCFI146:
 3971              		.cfi_def_cfa_offset 48
1644:Middlewares/Third_Party/LoRaWAN/LmHandler/LmHandler.c ****     MibRequestConfirm_t mibReq;
 3972              		.loc 1 1644 5 is_stmt 1 view .LVU1072
1645:Middlewares/Third_Party/LoRaWAN/LmHandler/LmHandler.c **** 
1646:Middlewares/Third_Party/LoRaWAN/LmHandler/LmHandler.c ****     mibReq.Type = MIB_RX2_CHANNEL;
 3973              		.loc 1 1646 5 view .LVU1073
 3974              		.loc 1 1646 17 is_stmt 0 view .LVU1074
 3975 0004 1223     		movs	r3, #18
 3976 0006 8DF80430 		strb	r3, [sp, #4]
1647:Middlewares/Third_Party/LoRaWAN/LmHandler/LmHandler.c ****     mibReq.Param.Rx2Channel.Frequency = rxParams->Frequency;
 3977              		.loc 1 1647 5 is_stmt 1 view .LVU1075
 3978              		.loc 1 1647 49 is_stmt 0 view .LVU1076
 3979 000a 0368     		ldr	r3, [r0]
 3980              		.loc 1 1647 39 view .LVU1077
 3981 000c 0293     		str	r3, [sp, #8]
1648:Middlewares/Third_Party/LoRaWAN/LmHandler/LmHandler.c ****     mibReq.Param.Rx2Channel.Datarate = rxParams->Datarate;
 3982              		.loc 1 1648 5 is_stmt 1 view .LVU1078
 3983              		.loc 1 1648 48 is_stmt 0 view .LVU1079
 3984 000e 0379     		ldrb	r3, [r0, #4]	@ zero_extendqisi2
 3985              		.loc 1 1648 38 view .LVU1080
 3986 0010 8DF80C30 		strb	r3, [sp, #12]
1649:Middlewares/Third_Party/LoRaWAN/LmHandler/LmHandler.c ****     if (LoRaMacMibSetRequestConfirm(&mibReq) != LORAMAC_STATUS_OK)
 3987              		.loc 1 1649 5 is_stmt 1 view .LVU1081
 3988              		.loc 1 1649 9 is_stmt 0 view .LVU1082
 3989 0014 01A8     		add	r0, sp, #4
 3990              	.LVL282:
 3991              		.loc 1 1649 9 view .LVU1083
 3992 0016 FFF7FEFF 		bl	LoRaMacMibSetRequestConfirm
 3993              	.LVL283:
 3994              		.loc 1 1649 8 view .LVU1084
 3995 001a 10B9     		cbnz	r0, .L348
 3996              	.L345:
1650:Middlewares/Third_Party/LoRaWAN/LmHandler/LmHandler.c ****     {
1651:Middlewares/Third_Party/LoRaWAN/LmHandler/LmHandler.c ****         return LORAMAC_HANDLER_ERROR;
1652:Middlewares/Third_Party/LoRaWAN/LmHandler/LmHandler.c ****     }
1653:Middlewares/Third_Party/LoRaWAN/LmHandler/LmHandler.c **** 
ARM GAS  /tmp/ccIEh1dP.s 			page 111


1654:Middlewares/Third_Party/LoRaWAN/LmHandler/LmHandler.c ****     return LORAMAC_HANDLER_SUCCESS;
1655:Middlewares/Third_Party/LoRaWAN/LmHandler/LmHandler.c **** }
 3997              		.loc 1 1655 1 view .LVU1085
 3998 001c 0BB0     		add	sp, sp, #44
 3999              	.LCFI147:
 4000              		.cfi_remember_state
 4001              		.cfi_def_cfa_offset 4
 4002              		@ sp needed
 4003 001e 5DF804FB 		ldr	pc, [sp], #4
 4004              	.L348:
 4005              	.LCFI148:
 4006              		.cfi_restore_state
1651:Middlewares/Third_Party/LoRaWAN/LmHandler/LmHandler.c ****     }
 4007              		.loc 1 1651 16 view .LVU1086
 4008 0022 4FF0FF30 		mov	r0, #-1
 4009 0026 F9E7     		b	.L345
 4010              		.cfi_endproc
 4011              	.LFE148:
 4013              		.section	.text.LmHandlerSetRx1Delay,"ax",%progbits
 4014              		.align	1
 4015              		.global	LmHandlerSetRx1Delay
 4016              		.syntax unified
 4017              		.thumb
 4018              		.thumb_func
 4019              		.fpu softvfp
 4021              	LmHandlerSetRx1Delay:
 4022              	.LVL284:
 4023              	.LFB149:
1656:Middlewares/Third_Party/LoRaWAN/LmHandler/LmHandler.c **** 
1657:Middlewares/Third_Party/LoRaWAN/LmHandler/LmHandler.c **** LmHandlerErrorStatus_t LmHandlerSetRx1Delay(uint32_t rxDelay)
1658:Middlewares/Third_Party/LoRaWAN/LmHandler/LmHandler.c **** {
 4024              		.loc 1 1658 1 is_stmt 1 view -0
 4025              		.cfi_startproc
 4026              		@ args = 0, pretend = 0, frame = 40
 4027              		@ frame_needed = 0, uses_anonymous_args = 0
 4028              		.loc 1 1658 1 is_stmt 0 view .LVU1088
 4029 0000 00B5     		push	{lr}
 4030              	.LCFI149:
 4031              		.cfi_def_cfa_offset 4
 4032              		.cfi_offset 14, -4
 4033 0002 8BB0     		sub	sp, sp, #44
 4034              	.LCFI150:
 4035              		.cfi_def_cfa_offset 48
1659:Middlewares/Third_Party/LoRaWAN/LmHandler/LmHandler.c ****     MibRequestConfirm_t mibReq;
 4036              		.loc 1 1659 5 is_stmt 1 view .LVU1089
1660:Middlewares/Third_Party/LoRaWAN/LmHandler/LmHandler.c ****     mibReq.Type = MIB_RECEIVE_DELAY_1;
 4037              		.loc 1 1660 5 view .LVU1090
 4038              		.loc 1 1660 17 is_stmt 0 view .LVU1091
 4039 0004 1A23     		movs	r3, #26
 4040 0006 8DF80430 		strb	r3, [sp, #4]
1661:Middlewares/Third_Party/LoRaWAN/LmHandler/LmHandler.c ****     mibReq.Param.ReceiveDelay1 = rxDelay;
 4041              		.loc 1 1661 5 is_stmt 1 view .LVU1092
 4042              		.loc 1 1661 32 is_stmt 0 view .LVU1093
 4043 000a 0290     		str	r0, [sp, #8]
1662:Middlewares/Third_Party/LoRaWAN/LmHandler/LmHandler.c ****     if (LoRaMacMibSetRequestConfirm(&mibReq) != LORAMAC_STATUS_OK)
 4044              		.loc 1 1662 5 is_stmt 1 view .LVU1094
 4045              		.loc 1 1662 9 is_stmt 0 view .LVU1095
ARM GAS  /tmp/ccIEh1dP.s 			page 112


 4046 000c 01A8     		add	r0, sp, #4
 4047              	.LVL285:
 4048              		.loc 1 1662 9 view .LVU1096
 4049 000e FFF7FEFF 		bl	LoRaMacMibSetRequestConfirm
 4050              	.LVL286:
 4051              		.loc 1 1662 8 view .LVU1097
 4052 0012 10B9     		cbnz	r0, .L353
 4053              	.L350:
1663:Middlewares/Third_Party/LoRaWAN/LmHandler/LmHandler.c ****     {
1664:Middlewares/Third_Party/LoRaWAN/LmHandler/LmHandler.c ****         return LORAMAC_HANDLER_ERROR;
1665:Middlewares/Third_Party/LoRaWAN/LmHandler/LmHandler.c ****     }
1666:Middlewares/Third_Party/LoRaWAN/LmHandler/LmHandler.c **** 
1667:Middlewares/Third_Party/LoRaWAN/LmHandler/LmHandler.c ****     return LORAMAC_HANDLER_SUCCESS;
1668:Middlewares/Third_Party/LoRaWAN/LmHandler/LmHandler.c **** }
 4054              		.loc 1 1668 1 view .LVU1098
 4055 0014 0BB0     		add	sp, sp, #44
 4056              	.LCFI151:
 4057              		.cfi_remember_state
 4058              		.cfi_def_cfa_offset 4
 4059              		@ sp needed
 4060 0016 5DF804FB 		ldr	pc, [sp], #4
 4061              	.L353:
 4062              	.LCFI152:
 4063              		.cfi_restore_state
1664:Middlewares/Third_Party/LoRaWAN/LmHandler/LmHandler.c ****     }
 4064              		.loc 1 1664 16 view .LVU1099
 4065 001a 4FF0FF30 		mov	r0, #-1
 4066 001e F9E7     		b	.L350
 4067              		.cfi_endproc
 4068              	.LFE149:
 4070              		.section	.text.LmHandlerSetRx2Delay,"ax",%progbits
 4071              		.align	1
 4072              		.global	LmHandlerSetRx2Delay
 4073              		.syntax unified
 4074              		.thumb
 4075              		.thumb_func
 4076              		.fpu softvfp
 4078              	LmHandlerSetRx2Delay:
 4079              	.LVL287:
 4080              	.LFB150:
1669:Middlewares/Third_Party/LoRaWAN/LmHandler/LmHandler.c **** 
1670:Middlewares/Third_Party/LoRaWAN/LmHandler/LmHandler.c **** LmHandlerErrorStatus_t LmHandlerSetRx2Delay(uint32_t rxDelay)
1671:Middlewares/Third_Party/LoRaWAN/LmHandler/LmHandler.c **** {
 4081              		.loc 1 1671 1 is_stmt 1 view -0
 4082              		.cfi_startproc
 4083              		@ args = 0, pretend = 0, frame = 40
 4084              		@ frame_needed = 0, uses_anonymous_args = 0
 4085              		.loc 1 1671 1 is_stmt 0 view .LVU1101
 4086 0000 00B5     		push	{lr}
 4087              	.LCFI153:
 4088              		.cfi_def_cfa_offset 4
 4089              		.cfi_offset 14, -4
 4090 0002 8BB0     		sub	sp, sp, #44
 4091              	.LCFI154:
 4092              		.cfi_def_cfa_offset 48
1672:Middlewares/Third_Party/LoRaWAN/LmHandler/LmHandler.c ****     MibRequestConfirm_t mibReq;
 4093              		.loc 1 1672 5 is_stmt 1 view .LVU1102
ARM GAS  /tmp/ccIEh1dP.s 			page 113


1673:Middlewares/Third_Party/LoRaWAN/LmHandler/LmHandler.c ****     mibReq.Type = MIB_RECEIVE_DELAY_2;
 4094              		.loc 1 1673 5 view .LVU1103
 4095              		.loc 1 1673 17 is_stmt 0 view .LVU1104
 4096 0004 1B23     		movs	r3, #27
 4097 0006 8DF80430 		strb	r3, [sp, #4]
1674:Middlewares/Third_Party/LoRaWAN/LmHandler/LmHandler.c ****     mibReq.Param.ReceiveDelay2 = rxDelay;
 4098              		.loc 1 1674 5 is_stmt 1 view .LVU1105
 4099              		.loc 1 1674 32 is_stmt 0 view .LVU1106
 4100 000a 0290     		str	r0, [sp, #8]
1675:Middlewares/Third_Party/LoRaWAN/LmHandler/LmHandler.c ****     if (LoRaMacMibSetRequestConfirm(&mibReq) != LORAMAC_STATUS_OK)
 4101              		.loc 1 1675 5 is_stmt 1 view .LVU1107
 4102              		.loc 1 1675 9 is_stmt 0 view .LVU1108
 4103 000c 01A8     		add	r0, sp, #4
 4104              	.LVL288:
 4105              		.loc 1 1675 9 view .LVU1109
 4106 000e FFF7FEFF 		bl	LoRaMacMibSetRequestConfirm
 4107              	.LVL289:
 4108              		.loc 1 1675 8 view .LVU1110
 4109 0012 10B9     		cbnz	r0, .L358
 4110              	.L355:
1676:Middlewares/Third_Party/LoRaWAN/LmHandler/LmHandler.c ****     {
1677:Middlewares/Third_Party/LoRaWAN/LmHandler/LmHandler.c ****         return LORAMAC_HANDLER_ERROR;
1678:Middlewares/Third_Party/LoRaWAN/LmHandler/LmHandler.c ****     }
1679:Middlewares/Third_Party/LoRaWAN/LmHandler/LmHandler.c **** 
1680:Middlewares/Third_Party/LoRaWAN/LmHandler/LmHandler.c ****     return LORAMAC_HANDLER_SUCCESS;
1681:Middlewares/Third_Party/LoRaWAN/LmHandler/LmHandler.c **** }
 4111              		.loc 1 1681 1 view .LVU1111
 4112 0014 0BB0     		add	sp, sp, #44
 4113              	.LCFI155:
 4114              		.cfi_remember_state
 4115              		.cfi_def_cfa_offset 4
 4116              		@ sp needed
 4117 0016 5DF804FB 		ldr	pc, [sp], #4
 4118              	.L358:
 4119              	.LCFI156:
 4120              		.cfi_restore_state
1677:Middlewares/Third_Party/LoRaWAN/LmHandler/LmHandler.c ****     }
 4121              		.loc 1 1677 16 view .LVU1112
 4122 001a 4FF0FF30 		mov	r0, #-1
 4123 001e F9E7     		b	.L355
 4124              		.cfi_endproc
 4125              	.LFE150:
 4127              		.section	.text.LmHandlerSetJoinRx1Delay,"ax",%progbits
 4128              		.align	1
 4129              		.global	LmHandlerSetJoinRx1Delay
 4130              		.syntax unified
 4131              		.thumb
 4132              		.thumb_func
 4133              		.fpu softvfp
 4135              	LmHandlerSetJoinRx1Delay:
 4136              	.LVL290:
 4137              	.LFB151:
1682:Middlewares/Third_Party/LoRaWAN/LmHandler/LmHandler.c **** 
1683:Middlewares/Third_Party/LoRaWAN/LmHandler/LmHandler.c **** LmHandlerErrorStatus_t LmHandlerSetJoinRx1Delay(uint32_t rxDelay)
1684:Middlewares/Third_Party/LoRaWAN/LmHandler/LmHandler.c **** {
 4138              		.loc 1 1684 1 is_stmt 1 view -0
 4139              		.cfi_startproc
ARM GAS  /tmp/ccIEh1dP.s 			page 114


 4140              		@ args = 0, pretend = 0, frame = 40
 4141              		@ frame_needed = 0, uses_anonymous_args = 0
 4142              		.loc 1 1684 1 is_stmt 0 view .LVU1114
 4143 0000 00B5     		push	{lr}
 4144              	.LCFI157:
 4145              		.cfi_def_cfa_offset 4
 4146              		.cfi_offset 14, -4
 4147 0002 8BB0     		sub	sp, sp, #44
 4148              	.LCFI158:
 4149              		.cfi_def_cfa_offset 48
1685:Middlewares/Third_Party/LoRaWAN/LmHandler/LmHandler.c ****     MibRequestConfirm_t mibReq;
 4150              		.loc 1 1685 5 is_stmt 1 view .LVU1115
1686:Middlewares/Third_Party/LoRaWAN/LmHandler/LmHandler.c ****     mibReq.Type = MIB_JOIN_ACCEPT_DELAY_1;
 4151              		.loc 1 1686 5 view .LVU1116
 4152              		.loc 1 1686 17 is_stmt 0 view .LVU1117
 4153 0004 1C23     		movs	r3, #28
 4154 0006 8DF80430 		strb	r3, [sp, #4]
1687:Middlewares/Third_Party/LoRaWAN/LmHandler/LmHandler.c ****     mibReq.Param.JoinAcceptDelay1 = rxDelay;
 4155              		.loc 1 1687 5 is_stmt 1 view .LVU1118
 4156              		.loc 1 1687 35 is_stmt 0 view .LVU1119
 4157 000a 0290     		str	r0, [sp, #8]
1688:Middlewares/Third_Party/LoRaWAN/LmHandler/LmHandler.c ****     if (LoRaMacMibSetRequestConfirm(&mibReq) != LORAMAC_STATUS_OK)
 4158              		.loc 1 1688 5 is_stmt 1 view .LVU1120
 4159              		.loc 1 1688 9 is_stmt 0 view .LVU1121
 4160 000c 01A8     		add	r0, sp, #4
 4161              	.LVL291:
 4162              		.loc 1 1688 9 view .LVU1122
 4163 000e FFF7FEFF 		bl	LoRaMacMibSetRequestConfirm
 4164              	.LVL292:
 4165              		.loc 1 1688 8 view .LVU1123
 4166 0012 10B9     		cbnz	r0, .L363
 4167              	.L360:
1689:Middlewares/Third_Party/LoRaWAN/LmHandler/LmHandler.c ****     {
1690:Middlewares/Third_Party/LoRaWAN/LmHandler/LmHandler.c ****         return LORAMAC_HANDLER_ERROR;
1691:Middlewares/Third_Party/LoRaWAN/LmHandler/LmHandler.c ****     }
1692:Middlewares/Third_Party/LoRaWAN/LmHandler/LmHandler.c **** 
1693:Middlewares/Third_Party/LoRaWAN/LmHandler/LmHandler.c ****     return LORAMAC_HANDLER_SUCCESS;
1694:Middlewares/Third_Party/LoRaWAN/LmHandler/LmHandler.c **** }
 4168              		.loc 1 1694 1 view .LVU1124
 4169 0014 0BB0     		add	sp, sp, #44
 4170              	.LCFI159:
 4171              		.cfi_remember_state
 4172              		.cfi_def_cfa_offset 4
 4173              		@ sp needed
 4174 0016 5DF804FB 		ldr	pc, [sp], #4
 4175              	.L363:
 4176              	.LCFI160:
 4177              		.cfi_restore_state
1690:Middlewares/Third_Party/LoRaWAN/LmHandler/LmHandler.c ****     }
 4178              		.loc 1 1690 16 view .LVU1125
 4179 001a 4FF0FF30 		mov	r0, #-1
 4180 001e F9E7     		b	.L360
 4181              		.cfi_endproc
 4182              	.LFE151:
 4184              		.section	.text.LmHandlerSetJoinRx2Delay,"ax",%progbits
 4185              		.align	1
 4186              		.global	LmHandlerSetJoinRx2Delay
ARM GAS  /tmp/ccIEh1dP.s 			page 115


 4187              		.syntax unified
 4188              		.thumb
 4189              		.thumb_func
 4190              		.fpu softvfp
 4192              	LmHandlerSetJoinRx2Delay:
 4193              	.LVL293:
 4194              	.LFB152:
1695:Middlewares/Third_Party/LoRaWAN/LmHandler/LmHandler.c **** 
1696:Middlewares/Third_Party/LoRaWAN/LmHandler/LmHandler.c **** LmHandlerErrorStatus_t LmHandlerSetJoinRx2Delay(uint32_t rxDelay)
1697:Middlewares/Third_Party/LoRaWAN/LmHandler/LmHandler.c **** {
 4195              		.loc 1 1697 1 is_stmt 1 view -0
 4196              		.cfi_startproc
 4197              		@ args = 0, pretend = 0, frame = 40
 4198              		@ frame_needed = 0, uses_anonymous_args = 0
 4199              		.loc 1 1697 1 is_stmt 0 view .LVU1127
 4200 0000 00B5     		push	{lr}
 4201              	.LCFI161:
 4202              		.cfi_def_cfa_offset 4
 4203              		.cfi_offset 14, -4
 4204 0002 8BB0     		sub	sp, sp, #44
 4205              	.LCFI162:
 4206              		.cfi_def_cfa_offset 48
1698:Middlewares/Third_Party/LoRaWAN/LmHandler/LmHandler.c ****     MibRequestConfirm_t mibReq;
 4207              		.loc 1 1698 5 is_stmt 1 view .LVU1128
1699:Middlewares/Third_Party/LoRaWAN/LmHandler/LmHandler.c ****     mibReq.Type = MIB_JOIN_ACCEPT_DELAY_2;
 4208              		.loc 1 1699 5 view .LVU1129
 4209              		.loc 1 1699 17 is_stmt 0 view .LVU1130
 4210 0004 1D23     		movs	r3, #29
 4211 0006 8DF80430 		strb	r3, [sp, #4]
1700:Middlewares/Third_Party/LoRaWAN/LmHandler/LmHandler.c ****     mibReq.Param.JoinAcceptDelay2 = rxDelay;
 4212              		.loc 1 1700 5 is_stmt 1 view .LVU1131
 4213              		.loc 1 1700 35 is_stmt 0 view .LVU1132
 4214 000a 0290     		str	r0, [sp, #8]
1701:Middlewares/Third_Party/LoRaWAN/LmHandler/LmHandler.c ****     if (LoRaMacMibSetRequestConfirm(&mibReq) != LORAMAC_STATUS_OK)
 4215              		.loc 1 1701 5 is_stmt 1 view .LVU1133
 4216              		.loc 1 1701 9 is_stmt 0 view .LVU1134
 4217 000c 01A8     		add	r0, sp, #4
 4218              	.LVL294:
 4219              		.loc 1 1701 9 view .LVU1135
 4220 000e FFF7FEFF 		bl	LoRaMacMibSetRequestConfirm
 4221              	.LVL295:
 4222              		.loc 1 1701 8 view .LVU1136
 4223 0012 10B9     		cbnz	r0, .L368
 4224              	.L365:
1702:Middlewares/Third_Party/LoRaWAN/LmHandler/LmHandler.c ****     {
1703:Middlewares/Third_Party/LoRaWAN/LmHandler/LmHandler.c ****         return LORAMAC_HANDLER_ERROR;
1704:Middlewares/Third_Party/LoRaWAN/LmHandler/LmHandler.c ****     }
1705:Middlewares/Third_Party/LoRaWAN/LmHandler/LmHandler.c **** 
1706:Middlewares/Third_Party/LoRaWAN/LmHandler/LmHandler.c ****     return LORAMAC_HANDLER_SUCCESS;
1707:Middlewares/Third_Party/LoRaWAN/LmHandler/LmHandler.c **** }
 4225              		.loc 1 1707 1 view .LVU1137
 4226 0014 0BB0     		add	sp, sp, #44
 4227              	.LCFI163:
 4228              		.cfi_remember_state
 4229              		.cfi_def_cfa_offset 4
 4230              		@ sp needed
 4231 0016 5DF804FB 		ldr	pc, [sp], #4
ARM GAS  /tmp/ccIEh1dP.s 			page 116


 4232              	.L368:
 4233              	.LCFI164:
 4234              		.cfi_restore_state
1703:Middlewares/Third_Party/LoRaWAN/LmHandler/LmHandler.c ****     }
 4235              		.loc 1 1703 16 view .LVU1138
 4236 001a 4FF0FF30 		mov	r0, #-1
 4237 001e F9E7     		b	.L365
 4238              		.cfi_endproc
 4239              	.LFE152:
 4241              		.section	.text.LmHandlerGetPingPeriodicity,"ax",%progbits
 4242              		.align	1
 4243              		.global	LmHandlerGetPingPeriodicity
 4244              		.syntax unified
 4245              		.thumb
 4246              		.thumb_func
 4247              		.fpu softvfp
 4249              	LmHandlerGetPingPeriodicity:
 4250              	.LVL296:
 4251              	.LFB153:
1708:Middlewares/Third_Party/LoRaWAN/LmHandler/LmHandler.c **** 
1709:Middlewares/Third_Party/LoRaWAN/LmHandler/LmHandler.c **** LmHandlerErrorStatus_t LmHandlerGetPingPeriodicity(uint8_t *pingPeriodicity)
1710:Middlewares/Third_Party/LoRaWAN/LmHandler/LmHandler.c **** {
 4252              		.loc 1 1710 1 is_stmt 1 view -0
 4253              		.cfi_startproc
 4254              		@ args = 0, pretend = 0, frame = 0
 4255              		@ frame_needed = 0, uses_anonymous_args = 0
 4256              		@ link register save eliminated.
1711:Middlewares/Third_Party/LoRaWAN/LmHandler/LmHandler.c **** #if ( LORAMAC_CLASSB_ENABLED == 1 )
1712:Middlewares/Third_Party/LoRaWAN/LmHandler/LmHandler.c ****     if (pingPeriodicity == NULL)
1713:Middlewares/Third_Party/LoRaWAN/LmHandler/LmHandler.c ****     {
1714:Middlewares/Third_Party/LoRaWAN/LmHandler/LmHandler.c ****         return LORAMAC_HANDLER_ERROR;
1715:Middlewares/Third_Party/LoRaWAN/LmHandler/LmHandler.c ****     }
1716:Middlewares/Third_Party/LoRaWAN/LmHandler/LmHandler.c **** 
1717:Middlewares/Third_Party/LoRaWAN/LmHandler/LmHandler.c ****     *pingPeriodicity = LmHandlerParams.PingPeriodicity;
1718:Middlewares/Third_Party/LoRaWAN/LmHandler/LmHandler.c ****     return LORAMAC_HANDLER_SUCCESS;
1719:Middlewares/Third_Party/LoRaWAN/LmHandler/LmHandler.c **** #else /* LORAMAC_CLASSB_ENABLED == 0 */
1720:Middlewares/Third_Party/LoRaWAN/LmHandler/LmHandler.c ****     return LORAMAC_HANDLER_ERROR;
 4257              		.loc 1 1720 5 view .LVU1140
1721:Middlewares/Third_Party/LoRaWAN/LmHandler/LmHandler.c **** #endif /* LORAMAC_CLASSB_ENABLED */
1722:Middlewares/Third_Party/LoRaWAN/LmHandler/LmHandler.c **** }
 4258              		.loc 1 1722 1 is_stmt 0 view .LVU1141
 4259 0000 4FF0FF30 		mov	r0, #-1
 4260              	.LVL297:
 4261              		.loc 1 1722 1 view .LVU1142
 4262 0004 7047     		bx	lr
 4263              		.cfi_endproc
 4264              	.LFE153:
 4266              		.section	.text.LmHandlerSetPingPeriodicity,"ax",%progbits
 4267              		.align	1
 4268              		.global	LmHandlerSetPingPeriodicity
 4269              		.syntax unified
 4270              		.thumb
 4271              		.thumb_func
 4272              		.fpu softvfp
 4274              	LmHandlerSetPingPeriodicity:
 4275              	.LVL298:
 4276              	.LFB154:
ARM GAS  /tmp/ccIEh1dP.s 			page 117


1723:Middlewares/Third_Party/LoRaWAN/LmHandler/LmHandler.c **** 
1724:Middlewares/Third_Party/LoRaWAN/LmHandler/LmHandler.c **** LmHandlerErrorStatus_t LmHandlerSetPingPeriodicity(uint8_t pingPeriodicity)
1725:Middlewares/Third_Party/LoRaWAN/LmHandler/LmHandler.c **** {
 4277              		.loc 1 1725 1 is_stmt 1 view -0
 4278              		.cfi_startproc
 4279              		@ args = 0, pretend = 0, frame = 0
 4280              		@ frame_needed = 0, uses_anonymous_args = 0
 4281              		@ link register save eliminated.
1726:Middlewares/Third_Party/LoRaWAN/LmHandler/LmHandler.c **** #if ( LORAMAC_CLASSB_ENABLED == 1 )
1727:Middlewares/Third_Party/LoRaWAN/LmHandler/LmHandler.c ****     /* Not yet joined */
1728:Middlewares/Third_Party/LoRaWAN/LmHandler/LmHandler.c ****     if (LmHandlerJoinStatus() != LORAMAC_HANDLER_SET)
1729:Middlewares/Third_Party/LoRaWAN/LmHandler/LmHandler.c ****     {
1730:Middlewares/Third_Party/LoRaWAN/LmHandler/LmHandler.c ****         LmHandlerParams.PingPeriodicity = pingPeriodicity;
1731:Middlewares/Third_Party/LoRaWAN/LmHandler/LmHandler.c ****         return LORAMAC_HANDLER_SUCCESS;
1732:Middlewares/Third_Party/LoRaWAN/LmHandler/LmHandler.c ****     }
1733:Middlewares/Third_Party/LoRaWAN/LmHandler/LmHandler.c ****     else
1734:Middlewares/Third_Party/LoRaWAN/LmHandler/LmHandler.c ****     {
1735:Middlewares/Third_Party/LoRaWAN/LmHandler/LmHandler.c ****         /* Cannot change Region in running state */
1736:Middlewares/Third_Party/LoRaWAN/LmHandler/LmHandler.c ****         return LmHandlerPingSlotReq(pingPeriodicity);
1737:Middlewares/Third_Party/LoRaWAN/LmHandler/LmHandler.c ****     }
1738:Middlewares/Third_Party/LoRaWAN/LmHandler/LmHandler.c **** #else /* LORAMAC_CLASSB_ENABLED == 0 */
1739:Middlewares/Third_Party/LoRaWAN/LmHandler/LmHandler.c ****     return LORAMAC_HANDLER_ERROR;
 4282              		.loc 1 1739 5 view .LVU1144
1740:Middlewares/Third_Party/LoRaWAN/LmHandler/LmHandler.c **** #endif /* LORAMAC_CLASSB_ENABLED */
1741:Middlewares/Third_Party/LoRaWAN/LmHandler/LmHandler.c **** }
 4283              		.loc 1 1741 1 is_stmt 0 view .LVU1145
 4284 0000 4FF0FF30 		mov	r0, #-1
 4285              	.LVL299:
 4286              		.loc 1 1741 1 view .LVU1146
 4287 0004 7047     		bx	lr
 4288              		.cfi_endproc
 4289              	.LFE154:
 4291              		.section	.text.LmHandlerGetBeaconState,"ax",%progbits
 4292              		.align	1
 4293              		.global	LmHandlerGetBeaconState
 4294              		.syntax unified
 4295              		.thumb
 4296              		.thumb_func
 4297              		.fpu softvfp
 4299              	LmHandlerGetBeaconState:
 4300              	.LVL300:
 4301              	.LFB155:
1742:Middlewares/Third_Party/LoRaWAN/LmHandler/LmHandler.c **** 
1743:Middlewares/Third_Party/LoRaWAN/LmHandler/LmHandler.c **** LmHandlerErrorStatus_t LmHandlerGetBeaconState(BeaconState_t *beaconState)
1744:Middlewares/Third_Party/LoRaWAN/LmHandler/LmHandler.c **** {
 4302              		.loc 1 1744 1 is_stmt 1 view -0
 4303              		.cfi_startproc
 4304              		@ args = 0, pretend = 0, frame = 0
 4305              		@ frame_needed = 0, uses_anonymous_args = 0
 4306              		@ link register save eliminated.
1745:Middlewares/Third_Party/LoRaWAN/LmHandler/LmHandler.c **** #if ( LORAMAC_CLASSB_ENABLED == 1 )
1746:Middlewares/Third_Party/LoRaWAN/LmHandler/LmHandler.c ****     MibRequestConfirm_t mibReq;
1747:Middlewares/Third_Party/LoRaWAN/LmHandler/LmHandler.c **** 
1748:Middlewares/Third_Party/LoRaWAN/LmHandler/LmHandler.c ****     if (beaconState == NULL)
1749:Middlewares/Third_Party/LoRaWAN/LmHandler/LmHandler.c ****     {
1750:Middlewares/Third_Party/LoRaWAN/LmHandler/LmHandler.c ****         return LORAMAC_HANDLER_ERROR;
1751:Middlewares/Third_Party/LoRaWAN/LmHandler/LmHandler.c ****     }
ARM GAS  /tmp/ccIEh1dP.s 			page 118


1752:Middlewares/Third_Party/LoRaWAN/LmHandler/LmHandler.c **** 
1753:Middlewares/Third_Party/LoRaWAN/LmHandler/LmHandler.c ****     mibReq.Type = MIB_BEACON_STATE;
1754:Middlewares/Third_Party/LoRaWAN/LmHandler/LmHandler.c ****     if (LoRaMacMibGetRequestConfirm(&mibReq) != LORAMAC_STATUS_OK)
1755:Middlewares/Third_Party/LoRaWAN/LmHandler/LmHandler.c ****     {
1756:Middlewares/Third_Party/LoRaWAN/LmHandler/LmHandler.c ****         return LORAMAC_HANDLER_ERROR;
1757:Middlewares/Third_Party/LoRaWAN/LmHandler/LmHandler.c ****     }
1758:Middlewares/Third_Party/LoRaWAN/LmHandler/LmHandler.c ****     *beaconState =  mibReq.Param.BeaconState;
1759:Middlewares/Third_Party/LoRaWAN/LmHandler/LmHandler.c ****     return LORAMAC_HANDLER_SUCCESS;
1760:Middlewares/Third_Party/LoRaWAN/LmHandler/LmHandler.c **** #else /* LORAMAC_CLASSB_ENABLED == 0 */
1761:Middlewares/Third_Party/LoRaWAN/LmHandler/LmHandler.c ****     return LORAMAC_HANDLER_ERROR;
 4307              		.loc 1 1761 5 view .LVU1148
1762:Middlewares/Third_Party/LoRaWAN/LmHandler/LmHandler.c **** #endif /* LORAMAC_CLASSB_ENABLED */
1763:Middlewares/Third_Party/LoRaWAN/LmHandler/LmHandler.c **** }
 4308              		.loc 1 1763 1 is_stmt 0 view .LVU1149
 4309 0000 4FF0FF30 		mov	r0, #-1
 4310              	.LVL301:
 4311              		.loc 1 1763 1 view .LVU1150
 4312 0004 7047     		bx	lr
 4313              		.cfi_endproc
 4314              	.LFE155:
 4316              		.section	.text.LmHandlerGetNwkKey,"ax",%progbits
 4317              		.align	1
 4318              		.global	LmHandlerGetNwkKey
 4319              		.syntax unified
 4320              		.thumb
 4321              		.thumb_func
 4322              		.fpu softvfp
 4324              	LmHandlerGetNwkKey:
 4325              	.LVL302:
 4326              	.LFB156:
1764:Middlewares/Third_Party/LoRaWAN/LmHandler/LmHandler.c **** 
1765:Middlewares/Third_Party/LoRaWAN/LmHandler/LmHandler.c **** LmHandlerErrorStatus_t LmHandlerGetNwkKey( uint8_t *nwkKey )
1766:Middlewares/Third_Party/LoRaWAN/LmHandler/LmHandler.c **** {
 4327              		.loc 1 1766 1 is_stmt 1 view -0
 4328              		.cfi_startproc
 4329              		@ args = 0, pretend = 0, frame = 8
 4330              		@ frame_needed = 0, uses_anonymous_args = 0
1767:Middlewares/Third_Party/LoRaWAN/LmHandler/LmHandler.c ****     Key_t *keyItem;
 4331              		.loc 1 1767 5 view .LVU1152
1768:Middlewares/Third_Party/LoRaWAN/LmHandler/LmHandler.c ****     if (nwkKey == NULL)
 4332              		.loc 1 1768 5 view .LVU1153
 4333              		.loc 1 1768 8 is_stmt 0 view .LVU1154
 4334 0000 80B1     		cbz	r0, .L374
1766:Middlewares/Third_Party/LoRaWAN/LmHandler/LmHandler.c ****     Key_t *keyItem;
 4335              		.loc 1 1766 1 view .LVU1155
 4336 0002 10B5     		push	{r4, lr}
 4337              	.LCFI165:
 4338              		.cfi_def_cfa_offset 8
 4339              		.cfi_offset 4, -8
 4340              		.cfi_offset 14, -4
 4341 0004 82B0     		sub	sp, sp, #8
 4342              	.LCFI166:
 4343              		.cfi_def_cfa_offset 16
 4344 0006 0446     		mov	r4, r0
1769:Middlewares/Third_Party/LoRaWAN/LmHandler/LmHandler.c ****     {
1770:Middlewares/Third_Party/LoRaWAN/LmHandler/LmHandler.c ****         return LORAMAC_HANDLER_ERROR;
1771:Middlewares/Third_Party/LoRaWAN/LmHandler/LmHandler.c ****     }
ARM GAS  /tmp/ccIEh1dP.s 			page 119


1772:Middlewares/Third_Party/LoRaWAN/LmHandler/LmHandler.c **** 
1773:Middlewares/Third_Party/LoRaWAN/LmHandler/LmHandler.c ****     if (SECURE_ELEMENT_SUCCESS != SecureElementGetKeyByID(NWK_KEY, &keyItem))
 4345              		.loc 1 1773 5 is_stmt 1 view .LVU1156
 4346              		.loc 1 1773 35 is_stmt 0 view .LVU1157
 4347 0008 01A9     		add	r1, sp, #4
 4348 000a 0120     		movs	r0, #1
 4349              	.LVL303:
 4350              		.loc 1 1773 35 view .LVU1158
 4351 000c FFF7FEFF 		bl	SecureElementGetKeyByID
 4352              	.LVL304:
 4353              		.loc 1 1773 8 view .LVU1159
 4354 0010 58B9     		cbnz	r0, .L375
1774:Middlewares/Third_Party/LoRaWAN/LmHandler/LmHandler.c ****     {
1775:Middlewares/Third_Party/LoRaWAN/LmHandler/LmHandler.c ****         return LORAMAC_HANDLER_ERROR;
1776:Middlewares/Third_Party/LoRaWAN/LmHandler/LmHandler.c ****     }
1777:Middlewares/Third_Party/LoRaWAN/LmHandler/LmHandler.c ****     UTIL_MEM_cpy_8( nwkKey, keyItem->KeyValue, 16 );
 4355              		.loc 1 1777 5 is_stmt 1 view .LVU1160
 4356 0012 1022     		movs	r2, #16
 4357 0014 0199     		ldr	r1, [sp, #4]
 4358 0016 0131     		adds	r1, r1, #1
 4359 0018 2046     		mov	r0, r4
 4360 001a FFF7FEFF 		bl	UTIL_MEM_cpy_8
 4361              	.LVL305:
1778:Middlewares/Third_Party/LoRaWAN/LmHandler/LmHandler.c ****     return LORAMAC_HANDLER_SUCCESS;
 4362              		.loc 1 1778 5 view .LVU1161
 4363              		.loc 1 1778 12 is_stmt 0 view .LVU1162
 4364 001e 0020     		movs	r0, #0
 4365              	.L373:
1779:Middlewares/Third_Party/LoRaWAN/LmHandler/LmHandler.c **** }
 4366              		.loc 1 1779 1 view .LVU1163
 4367 0020 02B0     		add	sp, sp, #8
 4368              	.LCFI167:
 4369              		.cfi_def_cfa_offset 8
 4370              		@ sp needed
 4371 0022 10BD     		pop	{r4, pc}
 4372              	.LVL306:
 4373              	.L374:
 4374              	.LCFI168:
 4375              		.cfi_def_cfa_offset 0
 4376              		.cfi_restore 4
 4377              		.cfi_restore 14
1770:Middlewares/Third_Party/LoRaWAN/LmHandler/LmHandler.c ****     }
 4378              		.loc 1 1770 16 view .LVU1164
 4379 0024 4FF0FF30 		mov	r0, #-1
 4380              	.LVL307:
 4381              		.loc 1 1779 1 view .LVU1165
 4382 0028 7047     		bx	lr
 4383              	.LVL308:
 4384              	.L375:
 4385              	.LCFI169:
 4386              		.cfi_def_cfa_offset 16
 4387              		.cfi_offset 4, -8
 4388              		.cfi_offset 14, -4
1775:Middlewares/Third_Party/LoRaWAN/LmHandler/LmHandler.c ****     }
 4389              		.loc 1 1775 16 view .LVU1166
 4390 002a 4FF0FF30 		mov	r0, #-1
 4391 002e F7E7     		b	.L373
ARM GAS  /tmp/ccIEh1dP.s 			page 120


 4392              		.cfi_endproc
 4393              	.LFE156:
 4395              		.section	.text.LmHandlerSetNwkKey,"ax",%progbits
 4396              		.align	1
 4397              		.global	LmHandlerSetNwkKey
 4398              		.syntax unified
 4399              		.thumb
 4400              		.thumb_func
 4401              		.fpu softvfp
 4403              	LmHandlerSetNwkKey:
 4404              	.LVL309:
 4405              	.LFB157:
1780:Middlewares/Third_Party/LoRaWAN/LmHandler/LmHandler.c **** 
1781:Middlewares/Third_Party/LoRaWAN/LmHandler/LmHandler.c **** LmHandlerErrorStatus_t LmHandlerSetNwkKey( uint8_t *nwkKey )
1782:Middlewares/Third_Party/LoRaWAN/LmHandler/LmHandler.c **** {
 4406              		.loc 1 1782 1 is_stmt 1 view -0
 4407              		.cfi_startproc
 4408              		@ args = 0, pretend = 0, frame = 40
 4409              		@ frame_needed = 0, uses_anonymous_args = 0
 4410              		.loc 1 1782 1 is_stmt 0 view .LVU1168
 4411 0000 10B5     		push	{r4, lr}
 4412              	.LCFI170:
 4413              		.cfi_def_cfa_offset 8
 4414              		.cfi_offset 4, -8
 4415              		.cfi_offset 14, -4
 4416 0002 8AB0     		sub	sp, sp, #40
 4417              	.LCFI171:
 4418              		.cfi_def_cfa_offset 48
 4419 0004 0446     		mov	r4, r0
1783:Middlewares/Third_Party/LoRaWAN/LmHandler/LmHandler.c ****     /* Not yet joined */
1784:Middlewares/Third_Party/LoRaWAN/LmHandler/LmHandler.c ****     if( LmHandlerJoinStatus( ) != LORAMAC_HANDLER_SET )
 4420              		.loc 1 1784 5 is_stmt 1 view .LVU1169
 4421              		.loc 1 1784 9 is_stmt 0 view .LVU1170
 4422 0006 FFF7FEFF 		bl	LmHandlerJoinStatus
 4423              	.LVL310:
 4424              		.loc 1 1784 7 view .LVU1171
 4425 000a 0128     		cmp	r0, #1
 4426 000c 0DD0     		beq	.L383
 4427              	.LBB9:
1785:Middlewares/Third_Party/LoRaWAN/LmHandler/LmHandler.c ****     {
1786:Middlewares/Third_Party/LoRaWAN/LmHandler/LmHandler.c ****         MibRequestConfirm_t mibReq;
 4428              		.loc 1 1786 9 is_stmt 1 view .LVU1172
1787:Middlewares/Third_Party/LoRaWAN/LmHandler/LmHandler.c ****         mibReq.Type = MIB_NWK_KEY;
 4429              		.loc 1 1787 9 view .LVU1173
 4430              		.loc 1 1787 21 is_stmt 0 view .LVU1174
 4431 000e 0823     		movs	r3, #8
 4432 0010 8DF80430 		strb	r3, [sp, #4]
1788:Middlewares/Third_Party/LoRaWAN/LmHandler/LmHandler.c ****         mibReq.Param.NwkKey = nwkKey;
 4433              		.loc 1 1788 9 is_stmt 1 view .LVU1175
 4434              		.loc 1 1788 29 is_stmt 0 view .LVU1176
 4435 0014 0294     		str	r4, [sp, #8]
1789:Middlewares/Third_Party/LoRaWAN/LmHandler/LmHandler.c ****         if (LoRaMacMibSetRequestConfirm(&mibReq) != LORAMAC_STATUS_OK)
 4436              		.loc 1 1789 9 is_stmt 1 view .LVU1177
 4437              		.loc 1 1789 13 is_stmt 0 view .LVU1178
 4438 0016 01A8     		add	r0, sp, #4
 4439 0018 FFF7FEFF 		bl	LoRaMacMibSetRequestConfirm
 4440              	.LVL311:
ARM GAS  /tmp/ccIEh1dP.s 			page 121


 4441              		.loc 1 1789 12 view .LVU1179
 4442 001c 18B1     		cbz	r0, .L384
1790:Middlewares/Third_Party/LoRaWAN/LmHandler/LmHandler.c ****         {
1791:Middlewares/Third_Party/LoRaWAN/LmHandler/LmHandler.c ****             return LORAMAC_HANDLER_ERROR;
 4443              		.loc 1 1791 20 view .LVU1180
 4444 001e 4FF0FF30 		mov	r0, #-1
 4445              	.L381:
 4446              	.LBE9:
1792:Middlewares/Third_Party/LoRaWAN/LmHandler/LmHandler.c ****         }
1793:Middlewares/Third_Party/LoRaWAN/LmHandler/LmHandler.c ****         return LORAMAC_HANDLER_SUCCESS;
1794:Middlewares/Third_Party/LoRaWAN/LmHandler/LmHandler.c ****     }
1795:Middlewares/Third_Party/LoRaWAN/LmHandler/LmHandler.c ****     else
1796:Middlewares/Third_Party/LoRaWAN/LmHandler/LmHandler.c ****     {
1797:Middlewares/Third_Party/LoRaWAN/LmHandler/LmHandler.c ****         /* Cannot change Keys in running state */
1798:Middlewares/Third_Party/LoRaWAN/LmHandler/LmHandler.c ****         return LORAMAC_HANDLER_ERROR;
1799:Middlewares/Third_Party/LoRaWAN/LmHandler/LmHandler.c ****     }
1800:Middlewares/Third_Party/LoRaWAN/LmHandler/LmHandler.c **** }
 4447              		.loc 1 1800 1 discriminator 1 view .LVU1181
 4448 0022 0AB0     		add	sp, sp, #40
 4449              	.LCFI172:
 4450              		.cfi_remember_state
 4451              		.cfi_def_cfa_offset 8
 4452              		@ sp needed
 4453 0024 10BD     		pop	{r4, pc}
 4454              	.LVL312:
 4455              	.L384:
 4456              	.LCFI173:
 4457              		.cfi_restore_state
 4458              	.LBB10:
1793:Middlewares/Third_Party/LoRaWAN/LmHandler/LmHandler.c ****     }
 4459              		.loc 1 1793 16 view .LVU1182
 4460 0026 0020     		movs	r0, #0
 4461 0028 FBE7     		b	.L381
 4462              	.L383:
 4463              	.LBE10:
1798:Middlewares/Third_Party/LoRaWAN/LmHandler/LmHandler.c ****     }
 4464              		.loc 1 1798 16 view .LVU1183
 4465 002a 4FF0FF30 		mov	r0, #-1
 4466 002e F8E7     		b	.L381
 4467              		.cfi_endproc
 4468              	.LFE157:
 4470              		.section	.text.LmHandlerGetAppKey,"ax",%progbits
 4471              		.align	1
 4472              		.global	LmHandlerGetAppKey
 4473              		.syntax unified
 4474              		.thumb
 4475              		.thumb_func
 4476              		.fpu softvfp
 4478              	LmHandlerGetAppKey:
 4479              	.LVL313:
 4480              	.LFB158:
1801:Middlewares/Third_Party/LoRaWAN/LmHandler/LmHandler.c **** 
1802:Middlewares/Third_Party/LoRaWAN/LmHandler/LmHandler.c **** LmHandlerErrorStatus_t LmHandlerGetAppKey( uint8_t *appKey )
1803:Middlewares/Third_Party/LoRaWAN/LmHandler/LmHandler.c **** {
 4481              		.loc 1 1803 1 is_stmt 1 view -0
 4482              		.cfi_startproc
 4483              		@ args = 0, pretend = 0, frame = 8
ARM GAS  /tmp/ccIEh1dP.s 			page 122


 4484              		@ frame_needed = 0, uses_anonymous_args = 0
1804:Middlewares/Third_Party/LoRaWAN/LmHandler/LmHandler.c ****     Key_t *keyItem;
 4485              		.loc 1 1804 5 view .LVU1185
1805:Middlewares/Third_Party/LoRaWAN/LmHandler/LmHandler.c ****     if (appKey == NULL)
 4486              		.loc 1 1805 5 view .LVU1186
 4487              		.loc 1 1805 8 is_stmt 0 view .LVU1187
 4488 0000 80B1     		cbz	r0, .L388
1803:Middlewares/Third_Party/LoRaWAN/LmHandler/LmHandler.c ****     Key_t *keyItem;
 4489              		.loc 1 1803 1 view .LVU1188
 4490 0002 10B5     		push	{r4, lr}
 4491              	.LCFI174:
 4492              		.cfi_def_cfa_offset 8
 4493              		.cfi_offset 4, -8
 4494              		.cfi_offset 14, -4
 4495 0004 82B0     		sub	sp, sp, #8
 4496              	.LCFI175:
 4497              		.cfi_def_cfa_offset 16
 4498 0006 0446     		mov	r4, r0
1806:Middlewares/Third_Party/LoRaWAN/LmHandler/LmHandler.c ****     {
1807:Middlewares/Third_Party/LoRaWAN/LmHandler/LmHandler.c ****         return LORAMAC_HANDLER_ERROR;
1808:Middlewares/Third_Party/LoRaWAN/LmHandler/LmHandler.c ****     }
1809:Middlewares/Third_Party/LoRaWAN/LmHandler/LmHandler.c **** 
1810:Middlewares/Third_Party/LoRaWAN/LmHandler/LmHandler.c ****     if (SECURE_ELEMENT_SUCCESS != SecureElementGetKeyByID(APP_KEY, &keyItem))
 4499              		.loc 1 1810 5 is_stmt 1 view .LVU1189
 4500              		.loc 1 1810 35 is_stmt 0 view .LVU1190
 4501 0008 01A9     		add	r1, sp, #4
 4502 000a 0020     		movs	r0, #0
 4503              	.LVL314:
 4504              		.loc 1 1810 35 view .LVU1191
 4505 000c FFF7FEFF 		bl	SecureElementGetKeyByID
 4506              	.LVL315:
 4507              		.loc 1 1810 8 view .LVU1192
 4508 0010 58B9     		cbnz	r0, .L389
1811:Middlewares/Third_Party/LoRaWAN/LmHandler/LmHandler.c ****     {
1812:Middlewares/Third_Party/LoRaWAN/LmHandler/LmHandler.c ****         return LORAMAC_HANDLER_ERROR;
1813:Middlewares/Third_Party/LoRaWAN/LmHandler/LmHandler.c ****     }
1814:Middlewares/Third_Party/LoRaWAN/LmHandler/LmHandler.c ****     UTIL_MEM_cpy_8( appKey, keyItem->KeyValue, 16 );
 4509              		.loc 1 1814 5 is_stmt 1 view .LVU1193
 4510 0012 1022     		movs	r2, #16
 4511 0014 0199     		ldr	r1, [sp, #4]
 4512 0016 0131     		adds	r1, r1, #1
 4513 0018 2046     		mov	r0, r4
 4514 001a FFF7FEFF 		bl	UTIL_MEM_cpy_8
 4515              	.LVL316:
1815:Middlewares/Third_Party/LoRaWAN/LmHandler/LmHandler.c ****     return LORAMAC_HANDLER_SUCCESS;
 4516              		.loc 1 1815 5 view .LVU1194
 4517              		.loc 1 1815 12 is_stmt 0 view .LVU1195
 4518 001e 0020     		movs	r0, #0
 4519              	.L387:
1816:Middlewares/Third_Party/LoRaWAN/LmHandler/LmHandler.c **** }
 4520              		.loc 1 1816 1 view .LVU1196
 4521 0020 02B0     		add	sp, sp, #8
 4522              	.LCFI176:
 4523              		.cfi_def_cfa_offset 8
 4524              		@ sp needed
 4525 0022 10BD     		pop	{r4, pc}
 4526              	.LVL317:
ARM GAS  /tmp/ccIEh1dP.s 			page 123


 4527              	.L388:
 4528              	.LCFI177:
 4529              		.cfi_def_cfa_offset 0
 4530              		.cfi_restore 4
 4531              		.cfi_restore 14
1807:Middlewares/Third_Party/LoRaWAN/LmHandler/LmHandler.c ****     }
 4532              		.loc 1 1807 16 view .LVU1197
 4533 0024 4FF0FF30 		mov	r0, #-1
 4534              	.LVL318:
 4535              		.loc 1 1816 1 view .LVU1198
 4536 0028 7047     		bx	lr
 4537              	.LVL319:
 4538              	.L389:
 4539              	.LCFI178:
 4540              		.cfi_def_cfa_offset 16
 4541              		.cfi_offset 4, -8
 4542              		.cfi_offset 14, -4
1812:Middlewares/Third_Party/LoRaWAN/LmHandler/LmHandler.c ****     }
 4543              		.loc 1 1812 16 view .LVU1199
 4544 002a 4FF0FF30 		mov	r0, #-1
 4545 002e F7E7     		b	.L387
 4546              		.cfi_endproc
 4547              	.LFE158:
 4549              		.section	.text.LmHandlerSetAppKey,"ax",%progbits
 4550              		.align	1
 4551              		.global	LmHandlerSetAppKey
 4552              		.syntax unified
 4553              		.thumb
 4554              		.thumb_func
 4555              		.fpu softvfp
 4557              	LmHandlerSetAppKey:
 4558              	.LVL320:
 4559              	.LFB159:
1817:Middlewares/Third_Party/LoRaWAN/LmHandler/LmHandler.c **** 
1818:Middlewares/Third_Party/LoRaWAN/LmHandler/LmHandler.c **** LmHandlerErrorStatus_t LmHandlerSetAppKey( uint8_t *appKey )
1819:Middlewares/Third_Party/LoRaWAN/LmHandler/LmHandler.c **** {
 4560              		.loc 1 1819 1 is_stmt 1 view -0
 4561              		.cfi_startproc
 4562              		@ args = 0, pretend = 0, frame = 40
 4563              		@ frame_needed = 0, uses_anonymous_args = 0
 4564              		.loc 1 1819 1 is_stmt 0 view .LVU1201
 4565 0000 10B5     		push	{r4, lr}
 4566              	.LCFI179:
 4567              		.cfi_def_cfa_offset 8
 4568              		.cfi_offset 4, -8
 4569              		.cfi_offset 14, -4
 4570 0002 8AB0     		sub	sp, sp, #40
 4571              	.LCFI180:
 4572              		.cfi_def_cfa_offset 48
 4573 0004 0446     		mov	r4, r0
1820:Middlewares/Third_Party/LoRaWAN/LmHandler/LmHandler.c ****     /* Not yet joined */
1821:Middlewares/Third_Party/LoRaWAN/LmHandler/LmHandler.c ****     if( LmHandlerJoinStatus( ) != LORAMAC_HANDLER_SET )
 4574              		.loc 1 1821 5 is_stmt 1 view .LVU1202
 4575              		.loc 1 1821 9 is_stmt 0 view .LVU1203
 4576 0006 FFF7FEFF 		bl	LmHandlerJoinStatus
 4577              	.LVL321:
 4578              		.loc 1 1821 7 view .LVU1204
ARM GAS  /tmp/ccIEh1dP.s 			page 124


 4579 000a 0128     		cmp	r0, #1
 4580 000c 0DD0     		beq	.L397
 4581              	.LBB11:
1822:Middlewares/Third_Party/LoRaWAN/LmHandler/LmHandler.c ****     {
1823:Middlewares/Third_Party/LoRaWAN/LmHandler/LmHandler.c ****         MibRequestConfirm_t mibReq;
 4582              		.loc 1 1823 9 is_stmt 1 view .LVU1205
1824:Middlewares/Third_Party/LoRaWAN/LmHandler/LmHandler.c ****         mibReq.Type = MIB_APP_KEY;
 4583              		.loc 1 1824 9 view .LVU1206
 4584              		.loc 1 1824 21 is_stmt 0 view .LVU1207
 4585 000e 0723     		movs	r3, #7
 4586 0010 8DF80430 		strb	r3, [sp, #4]
1825:Middlewares/Third_Party/LoRaWAN/LmHandler/LmHandler.c ****         mibReq.Param.AppKey = appKey;
 4587              		.loc 1 1825 9 is_stmt 1 view .LVU1208
 4588              		.loc 1 1825 29 is_stmt 0 view .LVU1209
 4589 0014 0294     		str	r4, [sp, #8]
1826:Middlewares/Third_Party/LoRaWAN/LmHandler/LmHandler.c ****         if (LoRaMacMibSetRequestConfirm(&mibReq) != LORAMAC_STATUS_OK)
 4590              		.loc 1 1826 9 is_stmt 1 view .LVU1210
 4591              		.loc 1 1826 13 is_stmt 0 view .LVU1211
 4592 0016 01A8     		add	r0, sp, #4
 4593 0018 FFF7FEFF 		bl	LoRaMacMibSetRequestConfirm
 4594              	.LVL322:
 4595              		.loc 1 1826 12 view .LVU1212
 4596 001c 18B1     		cbz	r0, .L398
1827:Middlewares/Third_Party/LoRaWAN/LmHandler/LmHandler.c ****         {
1828:Middlewares/Third_Party/LoRaWAN/LmHandler/LmHandler.c ****             return LORAMAC_HANDLER_ERROR;
 4597              		.loc 1 1828 20 view .LVU1213
 4598 001e 4FF0FF30 		mov	r0, #-1
 4599              	.L395:
 4600              	.LBE11:
1829:Middlewares/Third_Party/LoRaWAN/LmHandler/LmHandler.c ****         }
1830:Middlewares/Third_Party/LoRaWAN/LmHandler/LmHandler.c ****         return LORAMAC_HANDLER_SUCCESS;
1831:Middlewares/Third_Party/LoRaWAN/LmHandler/LmHandler.c ****     }
1832:Middlewares/Third_Party/LoRaWAN/LmHandler/LmHandler.c ****     else
1833:Middlewares/Third_Party/LoRaWAN/LmHandler/LmHandler.c ****     {
1834:Middlewares/Third_Party/LoRaWAN/LmHandler/LmHandler.c ****         /* Cannot change Keys in running state */
1835:Middlewares/Third_Party/LoRaWAN/LmHandler/LmHandler.c ****         return LORAMAC_HANDLER_ERROR;
1836:Middlewares/Third_Party/LoRaWAN/LmHandler/LmHandler.c ****     }
1837:Middlewares/Third_Party/LoRaWAN/LmHandler/LmHandler.c **** }
 4601              		.loc 1 1837 1 discriminator 1 view .LVU1214
 4602 0022 0AB0     		add	sp, sp, #40
 4603              	.LCFI181:
 4604              		.cfi_remember_state
 4605              		.cfi_def_cfa_offset 8
 4606              		@ sp needed
 4607 0024 10BD     		pop	{r4, pc}
 4608              	.LVL323:
 4609              	.L398:
 4610              	.LCFI182:
 4611              		.cfi_restore_state
 4612              	.LBB12:
1830:Middlewares/Third_Party/LoRaWAN/LmHandler/LmHandler.c ****     }
 4613              		.loc 1 1830 16 view .LVU1215
 4614 0026 0020     		movs	r0, #0
 4615 0028 FBE7     		b	.L395
 4616              	.L397:
 4617              	.LBE12:
1835:Middlewares/Third_Party/LoRaWAN/LmHandler/LmHandler.c ****     }
ARM GAS  /tmp/ccIEh1dP.s 			page 125


 4618              		.loc 1 1835 16 view .LVU1216
 4619 002a 4FF0FF30 		mov	r0, #-1
 4620 002e F8E7     		b	.L395
 4621              		.cfi_endproc
 4622              	.LFE159:
 4624              		.section	.text.LmHandlerGetNwkSKey,"ax",%progbits
 4625              		.align	1
 4626              		.global	LmHandlerGetNwkSKey
 4627              		.syntax unified
 4628              		.thumb
 4629              		.thumb_func
 4630              		.fpu softvfp
 4632              	LmHandlerGetNwkSKey:
 4633              	.LVL324:
 4634              	.LFB160:
1838:Middlewares/Third_Party/LoRaWAN/LmHandler/LmHandler.c **** 
1839:Middlewares/Third_Party/LoRaWAN/LmHandler/LmHandler.c **** LmHandlerErrorStatus_t LmHandlerGetNwkSKey( uint8_t *nwkSKey )
1840:Middlewares/Third_Party/LoRaWAN/LmHandler/LmHandler.c **** {
 4635              		.loc 1 1840 1 is_stmt 1 view -0
 4636              		.cfi_startproc
 4637              		@ args = 0, pretend = 0, frame = 8
 4638              		@ frame_needed = 0, uses_anonymous_args = 0
1841:Middlewares/Third_Party/LoRaWAN/LmHandler/LmHandler.c ****     Key_t *keyItem;
 4639              		.loc 1 1841 5 view .LVU1218
1842:Middlewares/Third_Party/LoRaWAN/LmHandler/LmHandler.c ****     if (nwkSKey == NULL)
 4640              		.loc 1 1842 5 view .LVU1219
 4641              		.loc 1 1842 8 is_stmt 0 view .LVU1220
 4642 0000 80B1     		cbz	r0, .L402
1840:Middlewares/Third_Party/LoRaWAN/LmHandler/LmHandler.c ****     Key_t *keyItem;
 4643              		.loc 1 1840 1 view .LVU1221
 4644 0002 10B5     		push	{r4, lr}
 4645              	.LCFI183:
 4646              		.cfi_def_cfa_offset 8
 4647              		.cfi_offset 4, -8
 4648              		.cfi_offset 14, -4
 4649 0004 82B0     		sub	sp, sp, #8
 4650              	.LCFI184:
 4651              		.cfi_def_cfa_offset 16
 4652 0006 0446     		mov	r4, r0
1843:Middlewares/Third_Party/LoRaWAN/LmHandler/LmHandler.c ****     {
1844:Middlewares/Third_Party/LoRaWAN/LmHandler/LmHandler.c ****         return LORAMAC_HANDLER_ERROR;
1845:Middlewares/Third_Party/LoRaWAN/LmHandler/LmHandler.c ****     }
1846:Middlewares/Third_Party/LoRaWAN/LmHandler/LmHandler.c **** 
1847:Middlewares/Third_Party/LoRaWAN/LmHandler/LmHandler.c ****     if (SECURE_ELEMENT_SUCCESS != SecureElementGetKeyByID(NWK_S_KEY, &keyItem))
 4653              		.loc 1 1847 5 is_stmt 1 view .LVU1222
 4654              		.loc 1 1847 35 is_stmt 0 view .LVU1223
 4655 0008 01A9     		add	r1, sp, #4
 4656 000a 0220     		movs	r0, #2
 4657              	.LVL325:
 4658              		.loc 1 1847 35 view .LVU1224
 4659 000c FFF7FEFF 		bl	SecureElementGetKeyByID
 4660              	.LVL326:
 4661              		.loc 1 1847 8 view .LVU1225
 4662 0010 58B9     		cbnz	r0, .L403
1848:Middlewares/Third_Party/LoRaWAN/LmHandler/LmHandler.c ****     {
1849:Middlewares/Third_Party/LoRaWAN/LmHandler/LmHandler.c ****         return LORAMAC_HANDLER_ERROR;
1850:Middlewares/Third_Party/LoRaWAN/LmHandler/LmHandler.c ****     }
ARM GAS  /tmp/ccIEh1dP.s 			page 126


1851:Middlewares/Third_Party/LoRaWAN/LmHandler/LmHandler.c ****     UTIL_MEM_cpy_8( nwkSKey, keyItem->KeyValue, 16 );
 4663              		.loc 1 1851 5 is_stmt 1 view .LVU1226
 4664 0012 1022     		movs	r2, #16
 4665 0014 0199     		ldr	r1, [sp, #4]
 4666 0016 0131     		adds	r1, r1, #1
 4667 0018 2046     		mov	r0, r4
 4668 001a FFF7FEFF 		bl	UTIL_MEM_cpy_8
 4669              	.LVL327:
1852:Middlewares/Third_Party/LoRaWAN/LmHandler/LmHandler.c ****     return LORAMAC_HANDLER_SUCCESS;
 4670              		.loc 1 1852 5 view .LVU1227
 4671              		.loc 1 1852 12 is_stmt 0 view .LVU1228
 4672 001e 0020     		movs	r0, #0
 4673              	.L401:
1853:Middlewares/Third_Party/LoRaWAN/LmHandler/LmHandler.c **** }
 4674              		.loc 1 1853 1 view .LVU1229
 4675 0020 02B0     		add	sp, sp, #8
 4676              	.LCFI185:
 4677              		.cfi_def_cfa_offset 8
 4678              		@ sp needed
 4679 0022 10BD     		pop	{r4, pc}
 4680              	.LVL328:
 4681              	.L402:
 4682              	.LCFI186:
 4683              		.cfi_def_cfa_offset 0
 4684              		.cfi_restore 4
 4685              		.cfi_restore 14
1844:Middlewares/Third_Party/LoRaWAN/LmHandler/LmHandler.c ****     }
 4686              		.loc 1 1844 16 view .LVU1230
 4687 0024 4FF0FF30 		mov	r0, #-1
 4688              	.LVL329:
 4689              		.loc 1 1853 1 view .LVU1231
 4690 0028 7047     		bx	lr
 4691              	.LVL330:
 4692              	.L403:
 4693              	.LCFI187:
 4694              		.cfi_def_cfa_offset 16
 4695              		.cfi_offset 4, -8
 4696              		.cfi_offset 14, -4
1849:Middlewares/Third_Party/LoRaWAN/LmHandler/LmHandler.c ****     }
 4697              		.loc 1 1849 16 view .LVU1232
 4698 002a 4FF0FF30 		mov	r0, #-1
 4699 002e F7E7     		b	.L401
 4700              		.cfi_endproc
 4701              	.LFE160:
 4703              		.section	.text.LmHandlerSetNwkSKey,"ax",%progbits
 4704              		.align	1
 4705              		.global	LmHandlerSetNwkSKey
 4706              		.syntax unified
 4707              		.thumb
 4708              		.thumb_func
 4709              		.fpu softvfp
 4711              	LmHandlerSetNwkSKey:
 4712              	.LVL331:
 4713              	.LFB161:
1854:Middlewares/Third_Party/LoRaWAN/LmHandler/LmHandler.c **** 
1855:Middlewares/Third_Party/LoRaWAN/LmHandler/LmHandler.c **** LmHandlerErrorStatus_t LmHandlerSetNwkSKey( uint8_t *nwkSKey )
1856:Middlewares/Third_Party/LoRaWAN/LmHandler/LmHandler.c **** {
ARM GAS  /tmp/ccIEh1dP.s 			page 127


 4714              		.loc 1 1856 1 is_stmt 1 view -0
 4715              		.cfi_startproc
 4716              		@ args = 0, pretend = 0, frame = 40
 4717              		@ frame_needed = 0, uses_anonymous_args = 0
 4718              		.loc 1 1856 1 is_stmt 0 view .LVU1234
 4719 0000 10B5     		push	{r4, lr}
 4720              	.LCFI188:
 4721              		.cfi_def_cfa_offset 8
 4722              		.cfi_offset 4, -8
 4723              		.cfi_offset 14, -4
 4724 0002 8AB0     		sub	sp, sp, #40
 4725              	.LCFI189:
 4726              		.cfi_def_cfa_offset 48
 4727 0004 0446     		mov	r4, r0
1857:Middlewares/Third_Party/LoRaWAN/LmHandler/LmHandler.c ****     /* Not yet joined */
1858:Middlewares/Third_Party/LoRaWAN/LmHandler/LmHandler.c ****     if( LmHandlerJoinStatus( ) != LORAMAC_HANDLER_SET )
 4728              		.loc 1 1858 5 is_stmt 1 view .LVU1235
 4729              		.loc 1 1858 9 is_stmt 0 view .LVU1236
 4730 0006 FFF7FEFF 		bl	LmHandlerJoinStatus
 4731              	.LVL332:
 4732              		.loc 1 1858 7 view .LVU1237
 4733 000a 0128     		cmp	r0, #1
 4734 000c 0DD0     		beq	.L411
 4735              	.LBB13:
1859:Middlewares/Third_Party/LoRaWAN/LmHandler/LmHandler.c ****     {
1860:Middlewares/Third_Party/LoRaWAN/LmHandler/LmHandler.c ****         MibRequestConfirm_t mibReq;
 4736              		.loc 1 1860 9 is_stmt 1 view .LVU1238
1861:Middlewares/Third_Party/LoRaWAN/LmHandler/LmHandler.c ****         mibReq.Type = MIB_NWK_S_KEY;
 4737              		.loc 1 1861 9 view .LVU1239
 4738              		.loc 1 1861 21 is_stmt 0 view .LVU1240
 4739 000e 0923     		movs	r3, #9
 4740 0010 8DF80430 		strb	r3, [sp, #4]
1862:Middlewares/Third_Party/LoRaWAN/LmHandler/LmHandler.c ****         mibReq.Param.NwkSKey = nwkSKey;
 4741              		.loc 1 1862 9 is_stmt 1 view .LVU1241
 4742              		.loc 1 1862 30 is_stmt 0 view .LVU1242
 4743 0014 0294     		str	r4, [sp, #8]
1863:Middlewares/Third_Party/LoRaWAN/LmHandler/LmHandler.c ****         if (LoRaMacMibSetRequestConfirm(&mibReq) != LORAMAC_STATUS_OK)
 4744              		.loc 1 1863 9 is_stmt 1 view .LVU1243
 4745              		.loc 1 1863 13 is_stmt 0 view .LVU1244
 4746 0016 01A8     		add	r0, sp, #4
 4747 0018 FFF7FEFF 		bl	LoRaMacMibSetRequestConfirm
 4748              	.LVL333:
 4749              		.loc 1 1863 12 view .LVU1245
 4750 001c 18B1     		cbz	r0, .L412
1864:Middlewares/Third_Party/LoRaWAN/LmHandler/LmHandler.c ****         {
1865:Middlewares/Third_Party/LoRaWAN/LmHandler/LmHandler.c ****             return LORAMAC_HANDLER_ERROR;
 4751              		.loc 1 1865 20 view .LVU1246
 4752 001e 4FF0FF30 		mov	r0, #-1
 4753              	.L409:
 4754              	.LBE13:
1866:Middlewares/Third_Party/LoRaWAN/LmHandler/LmHandler.c ****         }
1867:Middlewares/Third_Party/LoRaWAN/LmHandler/LmHandler.c **** 
1868:Middlewares/Third_Party/LoRaWAN/LmHandler/LmHandler.c ****         return LORAMAC_HANDLER_SUCCESS;
1869:Middlewares/Third_Party/LoRaWAN/LmHandler/LmHandler.c ****     }
1870:Middlewares/Third_Party/LoRaWAN/LmHandler/LmHandler.c ****     else
1871:Middlewares/Third_Party/LoRaWAN/LmHandler/LmHandler.c ****     {
1872:Middlewares/Third_Party/LoRaWAN/LmHandler/LmHandler.c ****         /* Cannot change Keys in running state */
ARM GAS  /tmp/ccIEh1dP.s 			page 128


1873:Middlewares/Third_Party/LoRaWAN/LmHandler/LmHandler.c ****         return LORAMAC_HANDLER_ERROR;
1874:Middlewares/Third_Party/LoRaWAN/LmHandler/LmHandler.c ****     }
1875:Middlewares/Third_Party/LoRaWAN/LmHandler/LmHandler.c **** }
 4755              		.loc 1 1875 1 discriminator 1 view .LVU1247
 4756 0022 0AB0     		add	sp, sp, #40
 4757              	.LCFI190:
 4758              		.cfi_remember_state
 4759              		.cfi_def_cfa_offset 8
 4760              		@ sp needed
 4761 0024 10BD     		pop	{r4, pc}
 4762              	.LVL334:
 4763              	.L412:
 4764              	.LCFI191:
 4765              		.cfi_restore_state
 4766              	.LBB14:
1868:Middlewares/Third_Party/LoRaWAN/LmHandler/LmHandler.c ****     }
 4767              		.loc 1 1868 16 view .LVU1248
 4768 0026 0020     		movs	r0, #0
 4769 0028 FBE7     		b	.L409
 4770              	.L411:
 4771              	.LBE14:
1873:Middlewares/Third_Party/LoRaWAN/LmHandler/LmHandler.c ****     }
 4772              		.loc 1 1873 16 view .LVU1249
 4773 002a 4FF0FF30 		mov	r0, #-1
 4774 002e F8E7     		b	.L409
 4775              		.cfi_endproc
 4776              	.LFE161:
 4778              		.section	.text.LmHandlerGetAppSKey,"ax",%progbits
 4779              		.align	1
 4780              		.global	LmHandlerGetAppSKey
 4781              		.syntax unified
 4782              		.thumb
 4783              		.thumb_func
 4784              		.fpu softvfp
 4786              	LmHandlerGetAppSKey:
 4787              	.LVL335:
 4788              	.LFB162:
1876:Middlewares/Third_Party/LoRaWAN/LmHandler/LmHandler.c **** 
1877:Middlewares/Third_Party/LoRaWAN/LmHandler/LmHandler.c **** LmHandlerErrorStatus_t LmHandlerGetAppSKey( uint8_t *appSKey )
1878:Middlewares/Third_Party/LoRaWAN/LmHandler/LmHandler.c **** {
 4789              		.loc 1 1878 1 is_stmt 1 view -0
 4790              		.cfi_startproc
 4791              		@ args = 0, pretend = 0, frame = 8
 4792              		@ frame_needed = 0, uses_anonymous_args = 0
1879:Middlewares/Third_Party/LoRaWAN/LmHandler/LmHandler.c ****     Key_t *keyItem;
 4793              		.loc 1 1879 5 view .LVU1251
1880:Middlewares/Third_Party/LoRaWAN/LmHandler/LmHandler.c ****     if (appSKey == NULL)
 4794              		.loc 1 1880 5 view .LVU1252
 4795              		.loc 1 1880 8 is_stmt 0 view .LVU1253
 4796 0000 80B1     		cbz	r0, .L416
1878:Middlewares/Third_Party/LoRaWAN/LmHandler/LmHandler.c ****     Key_t *keyItem;
 4797              		.loc 1 1878 1 view .LVU1254
 4798 0002 10B5     		push	{r4, lr}
 4799              	.LCFI192:
 4800              		.cfi_def_cfa_offset 8
 4801              		.cfi_offset 4, -8
 4802              		.cfi_offset 14, -4
ARM GAS  /tmp/ccIEh1dP.s 			page 129


 4803 0004 82B0     		sub	sp, sp, #8
 4804              	.LCFI193:
 4805              		.cfi_def_cfa_offset 16
 4806 0006 0446     		mov	r4, r0
1881:Middlewares/Third_Party/LoRaWAN/LmHandler/LmHandler.c ****     {
1882:Middlewares/Third_Party/LoRaWAN/LmHandler/LmHandler.c ****         return LORAMAC_HANDLER_ERROR;
1883:Middlewares/Third_Party/LoRaWAN/LmHandler/LmHandler.c ****     }
1884:Middlewares/Third_Party/LoRaWAN/LmHandler/LmHandler.c **** 
1885:Middlewares/Third_Party/LoRaWAN/LmHandler/LmHandler.c ****     if (SECURE_ELEMENT_SUCCESS != SecureElementGetKeyByID(APP_S_KEY, &keyItem))
 4807              		.loc 1 1885 5 is_stmt 1 view .LVU1255
 4808              		.loc 1 1885 35 is_stmt 0 view .LVU1256
 4809 0008 01A9     		add	r1, sp, #4
 4810 000a 0320     		movs	r0, #3
 4811              	.LVL336:
 4812              		.loc 1 1885 35 view .LVU1257
 4813 000c FFF7FEFF 		bl	SecureElementGetKeyByID
 4814              	.LVL337:
 4815              		.loc 1 1885 8 view .LVU1258
 4816 0010 58B9     		cbnz	r0, .L417
1886:Middlewares/Third_Party/LoRaWAN/LmHandler/LmHandler.c ****     {
1887:Middlewares/Third_Party/LoRaWAN/LmHandler/LmHandler.c ****         return LORAMAC_HANDLER_ERROR;
1888:Middlewares/Third_Party/LoRaWAN/LmHandler/LmHandler.c ****     }
1889:Middlewares/Third_Party/LoRaWAN/LmHandler/LmHandler.c ****     UTIL_MEM_cpy_8( appSKey, keyItem->KeyValue, 16 );
 4817              		.loc 1 1889 5 is_stmt 1 view .LVU1259
 4818 0012 1022     		movs	r2, #16
 4819 0014 0199     		ldr	r1, [sp, #4]
 4820 0016 0131     		adds	r1, r1, #1
 4821 0018 2046     		mov	r0, r4
 4822 001a FFF7FEFF 		bl	UTIL_MEM_cpy_8
 4823              	.LVL338:
1890:Middlewares/Third_Party/LoRaWAN/LmHandler/LmHandler.c ****     return LORAMAC_HANDLER_SUCCESS;
 4824              		.loc 1 1890 5 view .LVU1260
 4825              		.loc 1 1890 12 is_stmt 0 view .LVU1261
 4826 001e 0020     		movs	r0, #0
 4827              	.L415:
1891:Middlewares/Third_Party/LoRaWAN/LmHandler/LmHandler.c **** }
 4828              		.loc 1 1891 1 view .LVU1262
 4829 0020 02B0     		add	sp, sp, #8
 4830              	.LCFI194:
 4831              		.cfi_def_cfa_offset 8
 4832              		@ sp needed
 4833 0022 10BD     		pop	{r4, pc}
 4834              	.LVL339:
 4835              	.L416:
 4836              	.LCFI195:
 4837              		.cfi_def_cfa_offset 0
 4838              		.cfi_restore 4
 4839              		.cfi_restore 14
1882:Middlewares/Third_Party/LoRaWAN/LmHandler/LmHandler.c ****     }
 4840              		.loc 1 1882 16 view .LVU1263
 4841 0024 4FF0FF30 		mov	r0, #-1
 4842              	.LVL340:
 4843              		.loc 1 1891 1 view .LVU1264
 4844 0028 7047     		bx	lr
 4845              	.LVL341:
 4846              	.L417:
 4847              	.LCFI196:
ARM GAS  /tmp/ccIEh1dP.s 			page 130


 4848              		.cfi_def_cfa_offset 16
 4849              		.cfi_offset 4, -8
 4850              		.cfi_offset 14, -4
1887:Middlewares/Third_Party/LoRaWAN/LmHandler/LmHandler.c ****     }
 4851              		.loc 1 1887 16 view .LVU1265
 4852 002a 4FF0FF30 		mov	r0, #-1
 4853 002e F7E7     		b	.L415
 4854              		.cfi_endproc
 4855              	.LFE162:
 4857              		.section	.text.LmHandlerSetAppSKey,"ax",%progbits
 4858              		.align	1
 4859              		.global	LmHandlerSetAppSKey
 4860              		.syntax unified
 4861              		.thumb
 4862              		.thumb_func
 4863              		.fpu softvfp
 4865              	LmHandlerSetAppSKey:
 4866              	.LVL342:
 4867              	.LFB163:
1892:Middlewares/Third_Party/LoRaWAN/LmHandler/LmHandler.c **** 
1893:Middlewares/Third_Party/LoRaWAN/LmHandler/LmHandler.c **** LmHandlerErrorStatus_t LmHandlerSetAppSKey( uint8_t *appSKey )
1894:Middlewares/Third_Party/LoRaWAN/LmHandler/LmHandler.c **** {
 4868              		.loc 1 1894 1 is_stmt 1 view -0
 4869              		.cfi_startproc
 4870              		@ args = 0, pretend = 0, frame = 40
 4871              		@ frame_needed = 0, uses_anonymous_args = 0
 4872              		.loc 1 1894 1 is_stmt 0 view .LVU1267
 4873 0000 10B5     		push	{r4, lr}
 4874              	.LCFI197:
 4875              		.cfi_def_cfa_offset 8
 4876              		.cfi_offset 4, -8
 4877              		.cfi_offset 14, -4
 4878 0002 8AB0     		sub	sp, sp, #40
 4879              	.LCFI198:
 4880              		.cfi_def_cfa_offset 48
 4881 0004 0446     		mov	r4, r0
1895:Middlewares/Third_Party/LoRaWAN/LmHandler/LmHandler.c ****     /* Not yet joined */
1896:Middlewares/Third_Party/LoRaWAN/LmHandler/LmHandler.c ****     if( LmHandlerJoinStatus( ) != LORAMAC_HANDLER_SET )
 4882              		.loc 1 1896 5 is_stmt 1 view .LVU1268
 4883              		.loc 1 1896 9 is_stmt 0 view .LVU1269
 4884 0006 FFF7FEFF 		bl	LmHandlerJoinStatus
 4885              	.LVL343:
 4886              		.loc 1 1896 7 view .LVU1270
 4887 000a 0128     		cmp	r0, #1
 4888 000c 0DD0     		beq	.L425
 4889              	.LBB15:
1897:Middlewares/Third_Party/LoRaWAN/LmHandler/LmHandler.c ****     {
1898:Middlewares/Third_Party/LoRaWAN/LmHandler/LmHandler.c ****         MibRequestConfirm_t mibReq;
 4890              		.loc 1 1898 9 is_stmt 1 view .LVU1271
1899:Middlewares/Third_Party/LoRaWAN/LmHandler/LmHandler.c ****         mibReq.Type = MIB_APP_S_KEY;
 4891              		.loc 1 1899 9 view .LVU1272
 4892              		.loc 1 1899 21 is_stmt 0 view .LVU1273
 4893 000e 0A23     		movs	r3, #10
 4894 0010 8DF80430 		strb	r3, [sp, #4]
1900:Middlewares/Third_Party/LoRaWAN/LmHandler/LmHandler.c ****         mibReq.Param.AppSKey = appSKey;
 4895              		.loc 1 1900 9 is_stmt 1 view .LVU1274
 4896              		.loc 1 1900 30 is_stmt 0 view .LVU1275
ARM GAS  /tmp/ccIEh1dP.s 			page 131


 4897 0014 0294     		str	r4, [sp, #8]
1901:Middlewares/Third_Party/LoRaWAN/LmHandler/LmHandler.c ****         if (LoRaMacMibSetRequestConfirm(&mibReq) != LORAMAC_STATUS_OK)
 4898              		.loc 1 1901 9 is_stmt 1 view .LVU1276
 4899              		.loc 1 1901 13 is_stmt 0 view .LVU1277
 4900 0016 01A8     		add	r0, sp, #4
 4901 0018 FFF7FEFF 		bl	LoRaMacMibSetRequestConfirm
 4902              	.LVL344:
 4903              		.loc 1 1901 12 view .LVU1278
 4904 001c 18B1     		cbz	r0, .L426
1902:Middlewares/Third_Party/LoRaWAN/LmHandler/LmHandler.c ****         {
1903:Middlewares/Third_Party/LoRaWAN/LmHandler/LmHandler.c ****             return LORAMAC_HANDLER_ERROR;
 4905              		.loc 1 1903 20 view .LVU1279
 4906 001e 4FF0FF30 		mov	r0, #-1
 4907              	.L423:
 4908              	.LBE15:
1904:Middlewares/Third_Party/LoRaWAN/LmHandler/LmHandler.c ****         }
1905:Middlewares/Third_Party/LoRaWAN/LmHandler/LmHandler.c **** 
1906:Middlewares/Third_Party/LoRaWAN/LmHandler/LmHandler.c ****         return LORAMAC_HANDLER_SUCCESS;
1907:Middlewares/Third_Party/LoRaWAN/LmHandler/LmHandler.c ****     }
1908:Middlewares/Third_Party/LoRaWAN/LmHandler/LmHandler.c ****     else
1909:Middlewares/Third_Party/LoRaWAN/LmHandler/LmHandler.c ****     {
1910:Middlewares/Third_Party/LoRaWAN/LmHandler/LmHandler.c ****         /* Cannot change Keys in running state */
1911:Middlewares/Third_Party/LoRaWAN/LmHandler/LmHandler.c ****         return LORAMAC_HANDLER_ERROR;
1912:Middlewares/Third_Party/LoRaWAN/LmHandler/LmHandler.c ****     }
1913:Middlewares/Third_Party/LoRaWAN/LmHandler/LmHandler.c **** }
 4909              		.loc 1 1913 1 discriminator 1 view .LVU1280
 4910 0022 0AB0     		add	sp, sp, #40
 4911              	.LCFI199:
 4912              		.cfi_remember_state
 4913              		.cfi_def_cfa_offset 8
 4914              		@ sp needed
 4915 0024 10BD     		pop	{r4, pc}
 4916              	.LVL345:
 4917              	.L426:
 4918              	.LCFI200:
 4919              		.cfi_restore_state
 4920              	.LBB16:
1906:Middlewares/Third_Party/LoRaWAN/LmHandler/LmHandler.c ****     }
 4921              		.loc 1 1906 16 view .LVU1281
 4922 0026 0020     		movs	r0, #0
 4923 0028 FBE7     		b	.L423
 4924              	.L425:
 4925              	.LBE16:
1911:Middlewares/Third_Party/LoRaWAN/LmHandler/LmHandler.c ****     }
 4926              		.loc 1 1911 16 view .LVU1282
 4927 002a 4FF0FF30 		mov	r0, #-1
 4928 002e F8E7     		b	.L423
 4929              		.cfi_endproc
 4930              	.LFE163:
 4932              		.section	.bss.AppDataBuffer,"aw",%nobits
 4933              		.align	2
 4934              		.set	.LANCHOR10,. + 0
 4937              	AppDataBuffer:
 4938 0000 00000000 		.space	242
 4938      00000000 
 4938      00000000 
 4938      00000000 
ARM GAS  /tmp/ccIEh1dP.s 			page 132


 4938      00000000 
 4939              		.section	.bss.CtxRestoreDone,"aw",%nobits
 4940              		.set	.LANCHOR6,. + 0
 4943              	CtxRestoreDone:
 4944 0000 00       		.space	1
 4945              		.section	.bss.LmHandlerCallbacks,"aw",%nobits
 4946              		.align	2
 4947              		.set	.LANCHOR2,. + 0
 4950              	LmHandlerCallbacks:
 4951 0000 00000000 		.space	4
 4952              		.section	.bss.LmHandlerPackages,"aw",%nobits
 4953              		.align	2
 4954              		.set	.LANCHOR0,. + 0
 4957              	LmHandlerPackages:
 4958 0000 00000000 		.space	20
 4958      00000000 
 4958      00000000 
 4958      00000000 
 4958      00000000 
 4959              		.section	.bss.LmHandlerParams,"aw",%nobits
 4960              		.align	2
 4961              		.set	.LANCHOR3,. + 0
 4964              	LmHandlerParams:
 4965 0000 00000000 		.space	16
 4965      00000000 
 4965      00000000 
 4965      00000000 
 4966              		.section	.bss.LoRaMacCallbacks,"aw",%nobits
 4967              		.align	2
 4968              		.set	.LANCHOR4,. + 0
 4971              	LoRaMacCallbacks:
 4972 0000 00000000 		.space	20
 4972      00000000 
 4972      00000000 
 4972      00000000 
 4972      00000000 
 4973              		.section	.bss.LoRaMacPrimitives,"aw",%nobits
 4974              		.align	2
 4975              		.set	.LANCHOR5,. + 0
 4978              	LoRaMacPrimitives:
 4979 0000 00000000 		.space	16
 4979      00000000 
 4979      00000000 
 4979      00000000 
 4980              		.section	.bss.TxParams,"aw",%nobits
 4981              		.align	2
 4982              		.set	.LANCHOR1,. + 0
 4985              	TxParams:
 4986 0000 00000000 		.space	24
 4986      00000000 
 4986      00000000 
 4986      00000000 
 4986      00000000 
 4987              		.section	.data.CommissioningParams,"aw"
 4988              		.align	2
 4989              		.set	.LANCHOR7,. + 0
 4992              	CommissioningParams:
ARM GAS  /tmp/ccIEh1dP.s 			page 133


 4993 0000 0000     		.ascii	"\000\000"
 4994 0002 00000000 		.space	6
 4994      0000
 4995 0008 0000     		.ascii	"\000\000"
 4996 000a 00000000 		.space	6
 4996      0000
 4997 0010 00000000 		.word	0
 4998 0014 0A000001 		.word	16777226
 4999              		.section	.data.JoinParams,"aw"
 5000              		.align	2
 5001              		.set	.LANCHOR8,. + 0
 5004              	JoinParams:
 5005 0000 00       		.byte	0
 5006 0001 FF       		.byte	-1
 5007 0002 00       		.byte	0
 5008              		.section	.data.LmhpComplianceParams,"aw"
 5009              		.align	2
 5010              		.set	.LANCHOR11,. + 0
 5013              	LmhpComplianceParams:
 5014 0000 01       		.byte	1
 5015 0001 00       		.byte	0
 5016 0002 0000     		.space	2
 5017 0004 00000000 		.word	0
 5018 0008 00000000 		.word	0
 5019              		.section	.data.RxParams,"aw"
 5020              		.align	2
 5021              		.set	.LANCHOR9,. + 0
 5024              	RxParams:
 5025 0000 000000   		.space	3
 5026 0003 00       		.byte	0
 5027 0004 00       		.byte	0
 5028 0005 000000   		.space	3
 5029 0008 00000000 		.word	0
 5030 000c FF       		.byte	-1
 5031 000d 00       		.byte	0
 5032 000e 00       		.byte	0
 5033 000f 00       		.byte	0
 5034              		.text
 5035              	.Letext0:
 5036              		.file 2 "/home/eatkinso/Downloads/gcc-arm-none-eabi-10.3-2021.07/gcc-arm-none-eabi-10.3-2021.07/ar
 5037              		.file 3 "/home/eatkinso/Downloads/gcc-arm-none-eabi-10.3-2021.07/gcc-arm-none-eabi-10.3-2021.07/ar
 5038              		.file 4 "Middlewares/Third_Party/LoRaWAN/Utilities/utilities.h"
 5039              		.file 5 "Utilities/timer/stm32_timer.h"
 5040              		.file 6 "Utilities/misc/stm32_systime.h"
 5041              		.file 7 "Middlewares/Third_Party/LoRaWAN/Mac/LoRaMacTypes.h"
 5042              		.file 8 "Middlewares/Third_Party/LoRaWAN/Mac/Region/RegionNvm.h"
 5043              		.file 9 "Middlewares/Third_Party/LoRaWAN/Mac/LoRaMacCryptoNvm.h"
 5044              		.file 10 "Middlewares/Third_Party/LoRaWAN/Mac/secure-element-nvm.h"
 5045              		.file 11 "Middlewares/Third_Party/LoRaWAN/Mac/LoRaMacClassBNvm.h"
 5046              		.file 12 "Middlewares/Third_Party/LoRaWAN/Mac/LoRaMac.h"
 5047              		.file 13 "Middlewares/Third_Party/LoRaWAN/Mac/Region/Region.h"
 5048              		.file 14 "Middlewares/Third_Party/LoRaWAN/LmHandler/LmHandlerTypes.h"
 5049              		.file 15 "Middlewares/Third_Party/LoRaWAN/LmHandler/LmHandler.h"
 5050              		.file 16 "Middlewares/Third_Party/LoRaWAN/LmHandler/Packages/LmhPackage.h"
 5051              		.file 17 "Middlewares/Third_Party/LoRaWAN/LmHandler/Packages/LmhpCompliance.h"
 5052              		.file 18 "Middlewares/Third_Party/LoRaWAN/Mac/secure-element.h"
 5053              		.file 19 "LoRaWAN/App/lora_info.h"
ARM GAS  /tmp/ccIEh1dP.s 			page 134


 5054              		.file 20 "Utilities/misc/stm32_mem.h"
 5055              		.file 21 "Middlewares/Third_Party/LoRaWAN/Mac/LoRaMacTest.h"
 5056              		.file 22 "Middlewares/Third_Party/LoRaWAN/LmHandler/NvmDataMgmt.h"
ARM GAS  /tmp/ccIEh1dP.s 			page 135


DEFINED SYMBOLS
                            *ABS*:0000000000000000 LmHandler.c
     /tmp/ccIEh1dP.s:16     .text.LmHandlerPackageIsInitialized:0000000000000000 $t
     /tmp/ccIEh1dP.s:23     .text.LmHandlerPackageIsInitialized:0000000000000000 LmHandlerPackageIsInitialized
     /tmp/ccIEh1dP.s:80     .text.LmHandlerPackageIsInitialized:000000000000001c $d
     /tmp/ccIEh1dP.s:85     .text.LmHandlerPackagesNotify:0000000000000000 $t
     /tmp/ccIEh1dP.s:91     .text.LmHandlerPackagesNotify:0000000000000000 LmHandlerPackagesNotify
     /tmp/ccIEh1dP.s:215    .text.LmHandlerPackagesNotify:0000000000000068 $d
     /tmp/ccIEh1dP.s:220    .text.McpsConfirm:0000000000000000 $t
     /tmp/ccIEh1dP.s:226    .text.McpsConfirm:0000000000000000 McpsConfirm
     /tmp/ccIEh1dP.s:297    .text.McpsConfirm:0000000000000038 $d
     /tmp/ccIEh1dP.s:303    .text.LmHandlerPackagesProcess:0000000000000000 $t
     /tmp/ccIEh1dP.s:309    .text.LmHandlerPackagesProcess:0000000000000000 LmHandlerPackagesProcess
     /tmp/ccIEh1dP.s:382    .text.LmHandlerPackagesProcess:0000000000000038 $d
     /tmp/ccIEh1dP.s:387    .text.LmHandlerSetSystemMaxRxError:0000000000000000 $t
     /tmp/ccIEh1dP.s:393    .text.LmHandlerSetSystemMaxRxError:0000000000000000 LmHandlerSetSystemMaxRxError
     /tmp/ccIEh1dP.s:443    .text.LmHandlerDeviceTimeReq:0000000000000000 $t
     /tmp/ccIEh1dP.s:450    .text.LmHandlerDeviceTimeReq:0000000000000000 LmHandlerDeviceTimeReq
     /tmp/ccIEh1dP.s:499    .text.LmHandlerConfigure:0000000000000000 $t
     /tmp/ccIEh1dP.s:506    .text.LmHandlerConfigure:0000000000000000 LmHandlerConfigure
     /tmp/ccIEh1dP.s:744    .text.LmHandlerConfigure:0000000000000100 $d
     /tmp/ccIEh1dP.s:754    .text.LmHandlerProcess:0000000000000000 $t
     /tmp/ccIEh1dP.s:761    .text.LmHandlerProcess:0000000000000000 LmHandlerProcess
     /tmp/ccIEh1dP.s:787    .text.LmHandlerJoinStatus:0000000000000000 $t
     /tmp/ccIEh1dP.s:794    .text.LmHandlerJoinStatus:0000000000000000 LmHandlerJoinStatus
     /tmp/ccIEh1dP.s:846    .text.LmHandlerStop:0000000000000000 $t
     /tmp/ccIEh1dP.s:853    .text.LmHandlerStop:0000000000000000 LmHandlerStop
     /tmp/ccIEh1dP.s:881    .text.LmHandlerLinkCheckReq:0000000000000000 $t
     /tmp/ccIEh1dP.s:888    .text.LmHandlerLinkCheckReq:0000000000000000 LmHandlerLinkCheckReq
     /tmp/ccIEh1dP.s:937    .text.LmHandlerRequestClass:0000000000000000 $t
     /tmp/ccIEh1dP.s:944    .text.LmHandlerRequestClass:0000000000000000 LmHandlerRequestClass
     /tmp/ccIEh1dP.s:1127   .text.LmHandlerRequestClass:00000000000000b4 $d
     /tmp/ccIEh1dP.s:1132   .text.LmHandlerJoin:0000000000000000 $t
     /tmp/ccIEh1dP.s:1139   .text.LmHandlerJoin:0000000000000000 LmHandlerJoin
     /tmp/ccIEh1dP.s:1268   .text.LmHandlerJoin:0000000000000080 $d
     /tmp/ccIEh1dP.s:1277   .text.LmHandlerIsBusy:0000000000000000 $t
     /tmp/ccIEh1dP.s:1284   .text.LmHandlerIsBusy:0000000000000000 LmHandlerIsBusy
     /tmp/ccIEh1dP.s:1335   .text.LmHandlerIsBusy:0000000000000028 $d
     /tmp/ccIEh1dP.s:1341   .text.LmHandlerSend:0000000000000000 $t
     /tmp/ccIEh1dP.s:1348   .text.LmHandlerSend:0000000000000000 LmHandlerSend
     /tmp/ccIEh1dP.s:1476   .text.LmHandlerSend:0000000000000086 $d
     /tmp/ccIEh1dP.s:1495   .text.LmHandlerSend:0000000000000098 $t
     /tmp/ccIEh1dP.s:1612   .text.LmHandlerSend:0000000000000104 $d
     /tmp/ccIEh1dP.s:1620   .text.MlmeIndication:0000000000000000 $t
     /tmp/ccIEh1dP.s:1626   .text.MlmeIndication:0000000000000000 MlmeIndication
     /tmp/ccIEh1dP.s:1736   .text.MlmeIndication:0000000000000064 $d
     /tmp/ccIEh1dP.s:1743   .text.LmHandlerGetCurrentClass:0000000000000000 $t
     /tmp/ccIEh1dP.s:1750   .text.LmHandlerGetCurrentClass:0000000000000000 LmHandlerGetCurrentClass
     /tmp/ccIEh1dP.s:1821   .text.McpsIndication:0000000000000000 $t
     /tmp/ccIEh1dP.s:1827   .text.McpsIndication:0000000000000000 McpsIndication
     /tmp/ccIEh1dP.s:1982   .text.McpsIndication:0000000000000098 $d
     /tmp/ccIEh1dP.s:1989   .text.LmHandlerGetTxDatarate:0000000000000000 $t
     /tmp/ccIEh1dP.s:1996   .text.LmHandlerGetTxDatarate:0000000000000000 LmHandlerGetTxDatarate
     /tmp/ccIEh1dP.s:2070   .text.LmHandlerGetTxDatarate:0000000000000030 $d
     /tmp/ccIEh1dP.s:2075   .text.MlmeConfirm:0000000000000000 $t
     /tmp/ccIEh1dP.s:2081   .text.MlmeConfirm:0000000000000000 MlmeConfirm
     /tmp/ccIEh1dP.s:2222   .text.MlmeConfirm:000000000000007c $d
ARM GAS  /tmp/ccIEh1dP.s 			page 136


     /tmp/ccIEh1dP.s:2232   .text.LmHandlerGetActiveRegion:0000000000000000 $t
     /tmp/ccIEh1dP.s:2239   .text.LmHandlerGetActiveRegion:0000000000000000 LmHandlerGetActiveRegion
     /tmp/ccIEh1dP.s:2272   .text.LmHandlerGetActiveRegion:0000000000000014 $d
     /tmp/ccIEh1dP.s:2277   .text.LmHandlerPackageRegister:0000000000000000 $t
     /tmp/ccIEh1dP.s:2284   .text.LmHandlerPackageRegister:0000000000000000 LmHandlerPackageRegister
     /tmp/ccIEh1dP.s:2375   .text.LmHandlerPackageRegister:0000000000000044 $d
     /tmp/ccIEh1dP.s:2385   .text.LmHandlerInit:0000000000000000 $t
     /tmp/ccIEh1dP.s:2392   .text.LmHandlerInit:0000000000000000 LmHandlerInit
     /tmp/ccIEh1dP.s:2471   .text.LmHandlerInit:0000000000000040 $d
     /tmp/ccIEh1dP.s:2484   .text.LmHandlerGetDevEUI:0000000000000000 $t
     /tmp/ccIEh1dP.s:2491   .text.LmHandlerGetDevEUI:0000000000000000 LmHandlerGetDevEUI
     /tmp/ccIEh1dP.s:2565   .text.LmHandlerSetDevEUI:0000000000000000 $t
     /tmp/ccIEh1dP.s:2572   .text.LmHandlerSetDevEUI:0000000000000000 LmHandlerSetDevEUI
     /tmp/ccIEh1dP.s:2636   .text.LmHandlerGetAppEUI:0000000000000000 $t
     /tmp/ccIEh1dP.s:2643   .text.LmHandlerGetAppEUI:0000000000000000 LmHandlerGetAppEUI
     /tmp/ccIEh1dP.s:2717   .text.LmHandlerSetAppEUI:0000000000000000 $t
     /tmp/ccIEh1dP.s:2724   .text.LmHandlerSetAppEUI:0000000000000000 LmHandlerSetAppEUI
     /tmp/ccIEh1dP.s:2788   .text.LmHandlerGetNetworkID:0000000000000000 $t
     /tmp/ccIEh1dP.s:2795   .text.LmHandlerGetNetworkID:0000000000000000 LmHandlerGetNetworkID
     /tmp/ccIEh1dP.s:2866   .text.LmHandlerSetNetworkID:0000000000000000 $t
     /tmp/ccIEh1dP.s:2873   .text.LmHandlerSetNetworkID:0000000000000000 LmHandlerSetNetworkID
     /tmp/ccIEh1dP.s:2937   .text.LmHandlerGetDevAddr:0000000000000000 $t
     /tmp/ccIEh1dP.s:2944   .text.LmHandlerGetDevAddr:0000000000000000 LmHandlerGetDevAddr
     /tmp/ccIEh1dP.s:3015   .text.LmHandlerSetDevAddr:0000000000000000 $t
     /tmp/ccIEh1dP.s:3022   .text.LmHandlerSetDevAddr:0000000000000000 LmHandlerSetDevAddr
     /tmp/ccIEh1dP.s:3086   .text.LmHandlerSetActiveRegion:0000000000000000 $t
     /tmp/ccIEh1dP.s:3093   .text.LmHandlerSetActiveRegion:0000000000000000 LmHandlerSetActiveRegion
     /tmp/ccIEh1dP.s:3132   .text.LmHandlerSetActiveRegion:000000000000001c $d
     /tmp/ccIEh1dP.s:3137   .text.LmHandlerGetAdrEnable:0000000000000000 $t
     /tmp/ccIEh1dP.s:3144   .text.LmHandlerGetAdrEnable:0000000000000000 LmHandlerGetAdrEnable
     /tmp/ccIEh1dP.s:3177   .text.LmHandlerGetAdrEnable:0000000000000014 $d
     /tmp/ccIEh1dP.s:3182   .text.LmHandlerSetAdrEnable:0000000000000000 $t
     /tmp/ccIEh1dP.s:3189   .text.LmHandlerSetAdrEnable:0000000000000000 LmHandlerSetAdrEnable
     /tmp/ccIEh1dP.s:3245   .text.LmHandlerSetAdrEnable:0000000000000028 $d
     /tmp/ccIEh1dP.s:3250   .text.LmHandlerSetTxDatarate:0000000000000000 $t
     /tmp/ccIEh1dP.s:3257   .text.LmHandlerSetTxDatarate:0000000000000000 LmHandlerSetTxDatarate
     /tmp/ccIEh1dP.s:3331   .text.LmHandlerSetTxDatarate:0000000000000034 $d
     /tmp/ccIEh1dP.s:3336   .text.LmHandlerGetDutyCycleEnable:0000000000000000 $t
     /tmp/ccIEh1dP.s:3343   .text.LmHandlerGetDutyCycleEnable:0000000000000000 LmHandlerGetDutyCycleEnable
     /tmp/ccIEh1dP.s:3376   .text.LmHandlerGetDutyCycleEnable:0000000000000014 $d
     /tmp/ccIEh1dP.s:3381   .text.LmHandlerSetDutyCycleEnable:0000000000000000 $t
     /tmp/ccIEh1dP.s:3388   .text.LmHandlerSetDutyCycleEnable:0000000000000000 LmHandlerSetDutyCycleEnable
     /tmp/ccIEh1dP.s:3415   .text.LmHandlerSetDutyCycleEnable:0000000000000010 $d
     /tmp/ccIEh1dP.s:3420   .text.LmHandlerGetRX2Params:0000000000000000 $t
     /tmp/ccIEh1dP.s:3427   .text.LmHandlerGetRX2Params:0000000000000000 LmHandlerGetRX2Params
     /tmp/ccIEh1dP.s:3503   .text.LmHandlerGetTxPower:0000000000000000 $t
     /tmp/ccIEh1dP.s:3510   .text.LmHandlerGetTxPower:0000000000000000 LmHandlerGetTxPower
     /tmp/ccIEh1dP.s:3581   .text.LmHandlerGetRx1Delay:0000000000000000 $t
     /tmp/ccIEh1dP.s:3588   .text.LmHandlerGetRx1Delay:0000000000000000 LmHandlerGetRx1Delay
     /tmp/ccIEh1dP.s:3659   .text.LmHandlerGetRx2Delay:0000000000000000 $t
     /tmp/ccIEh1dP.s:3666   .text.LmHandlerGetRx2Delay:0000000000000000 LmHandlerGetRx2Delay
     /tmp/ccIEh1dP.s:3737   .text.LmHandlerGetJoinRx1Delay:0000000000000000 $t
     /tmp/ccIEh1dP.s:3744   .text.LmHandlerGetJoinRx1Delay:0000000000000000 LmHandlerGetJoinRx1Delay
     /tmp/ccIEh1dP.s:3815   .text.LmHandlerGetJoinRx2Delay:0000000000000000 $t
     /tmp/ccIEh1dP.s:3822   .text.LmHandlerGetJoinRx2Delay:0000000000000000 LmHandlerGetJoinRx2Delay
     /tmp/ccIEh1dP.s:3893   .text.LmHandlerSetTxPower:0000000000000000 $t
     /tmp/ccIEh1dP.s:3900   .text.LmHandlerSetTxPower:0000000000000000 LmHandlerSetTxPower
ARM GAS  /tmp/ccIEh1dP.s 			page 137


     /tmp/ccIEh1dP.s:3950   .text.LmHandlerSetRX2Params:0000000000000000 $t
     /tmp/ccIEh1dP.s:3957   .text.LmHandlerSetRX2Params:0000000000000000 LmHandlerSetRX2Params
     /tmp/ccIEh1dP.s:4014   .text.LmHandlerSetRx1Delay:0000000000000000 $t
     /tmp/ccIEh1dP.s:4021   .text.LmHandlerSetRx1Delay:0000000000000000 LmHandlerSetRx1Delay
     /tmp/ccIEh1dP.s:4071   .text.LmHandlerSetRx2Delay:0000000000000000 $t
     /tmp/ccIEh1dP.s:4078   .text.LmHandlerSetRx2Delay:0000000000000000 LmHandlerSetRx2Delay
     /tmp/ccIEh1dP.s:4128   .text.LmHandlerSetJoinRx1Delay:0000000000000000 $t
     /tmp/ccIEh1dP.s:4135   .text.LmHandlerSetJoinRx1Delay:0000000000000000 LmHandlerSetJoinRx1Delay
     /tmp/ccIEh1dP.s:4185   .text.LmHandlerSetJoinRx2Delay:0000000000000000 $t
     /tmp/ccIEh1dP.s:4192   .text.LmHandlerSetJoinRx2Delay:0000000000000000 LmHandlerSetJoinRx2Delay
     /tmp/ccIEh1dP.s:4242   .text.LmHandlerGetPingPeriodicity:0000000000000000 $t
     /tmp/ccIEh1dP.s:4249   .text.LmHandlerGetPingPeriodicity:0000000000000000 LmHandlerGetPingPeriodicity
     /tmp/ccIEh1dP.s:4267   .text.LmHandlerSetPingPeriodicity:0000000000000000 $t
     /tmp/ccIEh1dP.s:4274   .text.LmHandlerSetPingPeriodicity:0000000000000000 LmHandlerSetPingPeriodicity
     /tmp/ccIEh1dP.s:4292   .text.LmHandlerGetBeaconState:0000000000000000 $t
     /tmp/ccIEh1dP.s:4299   .text.LmHandlerGetBeaconState:0000000000000000 LmHandlerGetBeaconState
     /tmp/ccIEh1dP.s:4317   .text.LmHandlerGetNwkKey:0000000000000000 $t
     /tmp/ccIEh1dP.s:4324   .text.LmHandlerGetNwkKey:0000000000000000 LmHandlerGetNwkKey
     /tmp/ccIEh1dP.s:4396   .text.LmHandlerSetNwkKey:0000000000000000 $t
     /tmp/ccIEh1dP.s:4403   .text.LmHandlerSetNwkKey:0000000000000000 LmHandlerSetNwkKey
     /tmp/ccIEh1dP.s:4471   .text.LmHandlerGetAppKey:0000000000000000 $t
     /tmp/ccIEh1dP.s:4478   .text.LmHandlerGetAppKey:0000000000000000 LmHandlerGetAppKey
     /tmp/ccIEh1dP.s:4550   .text.LmHandlerSetAppKey:0000000000000000 $t
     /tmp/ccIEh1dP.s:4557   .text.LmHandlerSetAppKey:0000000000000000 LmHandlerSetAppKey
     /tmp/ccIEh1dP.s:4625   .text.LmHandlerGetNwkSKey:0000000000000000 $t
     /tmp/ccIEh1dP.s:4632   .text.LmHandlerGetNwkSKey:0000000000000000 LmHandlerGetNwkSKey
     /tmp/ccIEh1dP.s:4704   .text.LmHandlerSetNwkSKey:0000000000000000 $t
     /tmp/ccIEh1dP.s:4711   .text.LmHandlerSetNwkSKey:0000000000000000 LmHandlerSetNwkSKey
     /tmp/ccIEh1dP.s:4779   .text.LmHandlerGetAppSKey:0000000000000000 $t
     /tmp/ccIEh1dP.s:4786   .text.LmHandlerGetAppSKey:0000000000000000 LmHandlerGetAppSKey
     /tmp/ccIEh1dP.s:4858   .text.LmHandlerSetAppSKey:0000000000000000 $t
     /tmp/ccIEh1dP.s:4865   .text.LmHandlerSetAppSKey:0000000000000000 LmHandlerSetAppSKey
     /tmp/ccIEh1dP.s:4933   .bss.AppDataBuffer:0000000000000000 $d
     /tmp/ccIEh1dP.s:4937   .bss.AppDataBuffer:0000000000000000 AppDataBuffer
     /tmp/ccIEh1dP.s:4943   .bss.CtxRestoreDone:0000000000000000 CtxRestoreDone
     /tmp/ccIEh1dP.s:4944   .bss.CtxRestoreDone:0000000000000000 $d
     /tmp/ccIEh1dP.s:4946   .bss.LmHandlerCallbacks:0000000000000000 $d
     /tmp/ccIEh1dP.s:4950   .bss.LmHandlerCallbacks:0000000000000000 LmHandlerCallbacks
     /tmp/ccIEh1dP.s:4953   .bss.LmHandlerPackages:0000000000000000 $d
     /tmp/ccIEh1dP.s:4957   .bss.LmHandlerPackages:0000000000000000 LmHandlerPackages
     /tmp/ccIEh1dP.s:4960   .bss.LmHandlerParams:0000000000000000 $d
     /tmp/ccIEh1dP.s:4964   .bss.LmHandlerParams:0000000000000000 LmHandlerParams
     /tmp/ccIEh1dP.s:4967   .bss.LoRaMacCallbacks:0000000000000000 $d
     /tmp/ccIEh1dP.s:4971   .bss.LoRaMacCallbacks:0000000000000000 LoRaMacCallbacks
     /tmp/ccIEh1dP.s:4974   .bss.LoRaMacPrimitives:0000000000000000 $d
     /tmp/ccIEh1dP.s:4978   .bss.LoRaMacPrimitives:0000000000000000 LoRaMacPrimitives
     /tmp/ccIEh1dP.s:4981   .bss.TxParams:0000000000000000 $d
     /tmp/ccIEh1dP.s:4985   .bss.TxParams:0000000000000000 TxParams
     /tmp/ccIEh1dP.s:4988   .data.CommissioningParams:0000000000000000 $d
     /tmp/ccIEh1dP.s:4992   .data.CommissioningParams:0000000000000000 CommissioningParams
     /tmp/ccIEh1dP.s:5000   .data.JoinParams:0000000000000000 $d
     /tmp/ccIEh1dP.s:5004   .data.JoinParams:0000000000000000 JoinParams
     /tmp/ccIEh1dP.s:5009   .data.LmhpComplianceParams:0000000000000000 $d
     /tmp/ccIEh1dP.s:5013   .data.LmhpComplianceParams:0000000000000000 LmhpComplianceParams
     /tmp/ccIEh1dP.s:5020   .data.RxParams:0000000000000000 $d
     /tmp/ccIEh1dP.s:5024   .data.RxParams:0000000000000000 RxParams

ARM GAS  /tmp/ccIEh1dP.s 			page 138


UNDEFINED SYMBOLS
LoRaMacMibSetRequestConfirm
LoRaMacMlmeRequest
UTIL_MEM_cpy_8
LoraInfo_GetPtr
LoRaMacInitialization
NvmDataMgmtRestore
LoRaMacMibGetRequestConfirm
memcpy1
RegionGetPhyParam
LoRaMacTestSetDutyCycleOn
LoRaMacProcess
NvmDataMgmtStore
LoRaMacDeInitialization
LoRaMacIsBusy
LoRaMacStart
LoRaMacQueryTxPossible
LoRaMacMcpsRequest
LmhpCompliancePackageFactory
NvmDataMgmtEvent
SecureElementGetKeyByID
