ARM GAS  /tmp/cc7YZJrH.s 			page 1


   1              		.cpu cortex-m4
   2              		.eabi_attribute 20, 1
   3              		.eabi_attribute 21, 1
   4              		.eabi_attribute 23, 3
   5              		.eabi_attribute 24, 1
   6              		.eabi_attribute 25, 1
   7              		.eabi_attribute 26, 1
   8              		.eabi_attribute 30, 1
   9              		.eabi_attribute 34, 1
  10              		.eabi_attribute 18, 4
  11              		.file	"LoRaMac.c"
  12              		.text
  13              	.Ltext0:
  14              		.cfi_sections	.debug_frame
  15              		.section	.text.OnRadioTxTimeout,"ax",%progbits
  16              		.align	1
  17              		.arch armv7e-m
  18              		.syntax unified
  19              		.thumb
  20              		.thumb_func
  21              		.fpu softvfp
  23              	OnRadioTxTimeout:
  24              	.LFB106:
  25              		.file 1 "Middlewares/Third_Party/LoRaWAN/Mac/LoRaMac.c"
   1:Middlewares/Third_Party/LoRaWAN/Mac/LoRaMac.c **** /*!
   2:Middlewares/Third_Party/LoRaWAN/Mac/LoRaMac.c ****  * \file      LoRaMac.c
   3:Middlewares/Third_Party/LoRaWAN/Mac/LoRaMac.c ****  *
   4:Middlewares/Third_Party/LoRaWAN/Mac/LoRaMac.c ****  * \brief     LoRa MAC layer implementation
   5:Middlewares/Third_Party/LoRaWAN/Mac/LoRaMac.c ****  *
   6:Middlewares/Third_Party/LoRaWAN/Mac/LoRaMac.c ****  * \copyright Revised BSD License, see section \ref LICENSE.
   7:Middlewares/Third_Party/LoRaWAN/Mac/LoRaMac.c ****  *
   8:Middlewares/Third_Party/LoRaWAN/Mac/LoRaMac.c ****  * \code
   9:Middlewares/Third_Party/LoRaWAN/Mac/LoRaMac.c ****  *                ______                              _
  10:Middlewares/Third_Party/LoRaWAN/Mac/LoRaMac.c ****  *               / _____)             _              | |
  11:Middlewares/Third_Party/LoRaWAN/Mac/LoRaMac.c ****  *              ( (____  _____ ____ _| |_ _____  ____| |__
  12:Middlewares/Third_Party/LoRaWAN/Mac/LoRaMac.c ****  *               \____ \| ___ |    (_   _) ___ |/ ___)  _ \
  13:Middlewares/Third_Party/LoRaWAN/Mac/LoRaMac.c ****  *               _____) ) ____| | | || |_| ____( (___| | | |
  14:Middlewares/Third_Party/LoRaWAN/Mac/LoRaMac.c ****  *              (______/|_____)_|_|_| \__)_____)\____)_| |_|
  15:Middlewares/Third_Party/LoRaWAN/Mac/LoRaMac.c ****  *              (C)2013-2017 Semtech
  16:Middlewares/Third_Party/LoRaWAN/Mac/LoRaMac.c ****  *
  17:Middlewares/Third_Party/LoRaWAN/Mac/LoRaMac.c ****  *               ___ _____ _   ___ _  _____ ___  ___  ___ ___
  18:Middlewares/Third_Party/LoRaWAN/Mac/LoRaMac.c ****  *              / __|_   _/_\ / __| |/ / __/ _ \| _ \/ __| __|
  19:Middlewares/Third_Party/LoRaWAN/Mac/LoRaMac.c ****  *              \__ \ | |/ _ \ (__| ' <| _| (_) |   / (__| _|
  20:Middlewares/Third_Party/LoRaWAN/Mac/LoRaMac.c ****  *              |___/ |_/_/ \_\___|_|\_\_| \___/|_|_\\___|___|
  21:Middlewares/Third_Party/LoRaWAN/Mac/LoRaMac.c ****  *              embedded.connectivity.solutions===============
  22:Middlewares/Third_Party/LoRaWAN/Mac/LoRaMac.c ****  *
  23:Middlewares/Third_Party/LoRaWAN/Mac/LoRaMac.c ****  * \endcode
  24:Middlewares/Third_Party/LoRaWAN/Mac/LoRaMac.c ****  *
  25:Middlewares/Third_Party/LoRaWAN/Mac/LoRaMac.c ****  * \author    Miguel Luis ( Semtech )
  26:Middlewares/Third_Party/LoRaWAN/Mac/LoRaMac.c ****  *
  27:Middlewares/Third_Party/LoRaWAN/Mac/LoRaMac.c ****  * \author    Gregory Cristian ( Semtech )
  28:Middlewares/Third_Party/LoRaWAN/Mac/LoRaMac.c ****  *
  29:Middlewares/Third_Party/LoRaWAN/Mac/LoRaMac.c ****  * \author    Daniel Jaeckle ( STACKFORCE )
  30:Middlewares/Third_Party/LoRaWAN/Mac/LoRaMac.c ****  *
  31:Middlewares/Third_Party/LoRaWAN/Mac/LoRaMac.c ****  * \author    Johannes Bruder ( STACKFORCE )
  32:Middlewares/Third_Party/LoRaWAN/Mac/LoRaMac.c ****  */
  33:Middlewares/Third_Party/LoRaWAN/Mac/LoRaMac.c **** /**
ARM GAS  /tmp/cc7YZJrH.s 			page 2


  34:Middlewares/Third_Party/LoRaWAN/Mac/LoRaMac.c ****   ******************************************************************************
  35:Middlewares/Third_Party/LoRaWAN/Mac/LoRaMac.c ****   *
  36:Middlewares/Third_Party/LoRaWAN/Mac/LoRaMac.c ****   *          Portions COPYRIGHT 2020 STMicroelectronics
  37:Middlewares/Third_Party/LoRaWAN/Mac/LoRaMac.c ****   *
  38:Middlewares/Third_Party/LoRaWAN/Mac/LoRaMac.c ****   * @file    LoRaMac.c
  39:Middlewares/Third_Party/LoRaWAN/Mac/LoRaMac.c ****   * @author  MCD Application Team
  40:Middlewares/Third_Party/LoRaWAN/Mac/LoRaMac.c ****   * @brief   LoRa MAC layer implementation
  41:Middlewares/Third_Party/LoRaWAN/Mac/LoRaMac.c ****   ******************************************************************************
  42:Middlewares/Third_Party/LoRaWAN/Mac/LoRaMac.c ****   */
  43:Middlewares/Third_Party/LoRaWAN/Mac/LoRaMac.c **** #include "utilities.h"
  44:Middlewares/Third_Party/LoRaWAN/Mac/LoRaMac.c **** #include "Region.h"
  45:Middlewares/Third_Party/LoRaWAN/Mac/LoRaMac.c **** #include "LoRaMacClassB.h"
  46:Middlewares/Third_Party/LoRaWAN/Mac/LoRaMac.c **** #include "LoRaMacCrypto.h"
  47:Middlewares/Third_Party/LoRaWAN/Mac/LoRaMac.c **** #include "secure-element.h"
  48:Middlewares/Third_Party/LoRaWAN/Mac/LoRaMac.c **** #include "LoRaMacTest.h"
  49:Middlewares/Third_Party/LoRaWAN/Mac/LoRaMac.c **** #include "LoRaMacTypes.h"
  50:Middlewares/Third_Party/LoRaWAN/Mac/LoRaMac.c **** #include "LoRaMacConfirmQueue.h"
  51:Middlewares/Third_Party/LoRaWAN/Mac/LoRaMac.c **** #include "LoRaMacHeaderTypes.h"
  52:Middlewares/Third_Party/LoRaWAN/Mac/LoRaMac.c **** #include "LoRaMacMessageTypes.h"
  53:Middlewares/Third_Party/LoRaWAN/Mac/LoRaMac.c **** #include "LoRaMacParser.h"
  54:Middlewares/Third_Party/LoRaWAN/Mac/LoRaMac.c **** #include "LoRaMacCommands.h"
  55:Middlewares/Third_Party/LoRaWAN/Mac/LoRaMac.c **** #include "LoRaMacAdr.h"
  56:Middlewares/Third_Party/LoRaWAN/Mac/LoRaMac.c **** #include "LoRaMacSerializer.h"
  57:Middlewares/Third_Party/LoRaWAN/Mac/LoRaMac.c **** #include "radio.h"
  58:Middlewares/Third_Party/LoRaWAN/Mac/LoRaMac.c **** 
  59:Middlewares/Third_Party/LoRaWAN/Mac/LoRaMac.c **** #include "LoRaMac.h"
  60:Middlewares/Third_Party/LoRaWAN/Mac/LoRaMac.c **** #include "mw_log_conf.h"
  61:Middlewares/Third_Party/LoRaWAN/Mac/LoRaMac.c **** 
  62:Middlewares/Third_Party/LoRaWAN/Mac/LoRaMac.c **** #ifndef LORAMAC_VERSION
  63:Middlewares/Third_Party/LoRaWAN/Mac/LoRaMac.c **** /*!
  64:Middlewares/Third_Party/LoRaWAN/Mac/LoRaMac.c ****  * LoRaWAN version definition.
  65:Middlewares/Third_Party/LoRaWAN/Mac/LoRaMac.c ****  */
  66:Middlewares/Third_Party/LoRaWAN/Mac/LoRaMac.c **** #define LORAMAC_VERSION                             0x01000300
  67:Middlewares/Third_Party/LoRaWAN/Mac/LoRaMac.c **** #endif
  68:Middlewares/Third_Party/LoRaWAN/Mac/LoRaMac.c **** 
  69:Middlewares/Third_Party/LoRaWAN/Mac/LoRaMac.c **** /*!
  70:Middlewares/Third_Party/LoRaWAN/Mac/LoRaMac.c ****  * Maximum PHY layer payload size
  71:Middlewares/Third_Party/LoRaWAN/Mac/LoRaMac.c ****  */
  72:Middlewares/Third_Party/LoRaWAN/Mac/LoRaMac.c **** #define LORAMAC_PHY_MAXPAYLOAD                      255
  73:Middlewares/Third_Party/LoRaWAN/Mac/LoRaMac.c **** 
  74:Middlewares/Third_Party/LoRaWAN/Mac/LoRaMac.c **** /*!
  75:Middlewares/Third_Party/LoRaWAN/Mac/LoRaMac.c ****  * Maximum length of the fOpts field
  76:Middlewares/Third_Party/LoRaWAN/Mac/LoRaMac.c ****  */
  77:Middlewares/Third_Party/LoRaWAN/Mac/LoRaMac.c **** #define LORA_MAC_COMMAND_MAX_FOPTS_LENGTH           15
  78:Middlewares/Third_Party/LoRaWAN/Mac/LoRaMac.c **** 
  79:Middlewares/Third_Party/LoRaWAN/Mac/LoRaMac.c **** /*!
  80:Middlewares/Third_Party/LoRaWAN/Mac/LoRaMac.c ****  * LoRaMac duty cycle for the back-off procedure during the first hour.
  81:Middlewares/Third_Party/LoRaWAN/Mac/LoRaMac.c ****  */
  82:Middlewares/Third_Party/LoRaWAN/Mac/LoRaMac.c **** #define BACKOFF_DC_1_HOUR                           100
  83:Middlewares/Third_Party/LoRaWAN/Mac/LoRaMac.c **** 
  84:Middlewares/Third_Party/LoRaWAN/Mac/LoRaMac.c **** /*!
  85:Middlewares/Third_Party/LoRaWAN/Mac/LoRaMac.c ****  * LoRaMac duty cycle for the back-off procedure during the next 10 hours.
  86:Middlewares/Third_Party/LoRaWAN/Mac/LoRaMac.c ****  */
  87:Middlewares/Third_Party/LoRaWAN/Mac/LoRaMac.c **** #define BACKOFF_DC_10_HOURS                         1000
  88:Middlewares/Third_Party/LoRaWAN/Mac/LoRaMac.c **** 
  89:Middlewares/Third_Party/LoRaWAN/Mac/LoRaMac.c **** /*!
  90:Middlewares/Third_Party/LoRaWAN/Mac/LoRaMac.c ****  * LoRaMac duty cycle for the back-off procedure during the next 24 hours.
ARM GAS  /tmp/cc7YZJrH.s 			page 3


  91:Middlewares/Third_Party/LoRaWAN/Mac/LoRaMac.c ****  */
  92:Middlewares/Third_Party/LoRaWAN/Mac/LoRaMac.c **** #define BACKOFF_DC_24_HOURS                         10000
  93:Middlewares/Third_Party/LoRaWAN/Mac/LoRaMac.c **** 
  94:Middlewares/Third_Party/LoRaWAN/Mac/LoRaMac.c **** /*!
  95:Middlewares/Third_Party/LoRaWAN/Mac/LoRaMac.c ****  * LoRaMac internal states
  96:Middlewares/Third_Party/LoRaWAN/Mac/LoRaMac.c ****  */
  97:Middlewares/Third_Party/LoRaWAN/Mac/LoRaMac.c **** enum eLoRaMacState
  98:Middlewares/Third_Party/LoRaWAN/Mac/LoRaMac.c **** {
  99:Middlewares/Third_Party/LoRaWAN/Mac/LoRaMac.c ****     LORAMAC_IDLE          = 0x00000000,
 100:Middlewares/Third_Party/LoRaWAN/Mac/LoRaMac.c ****     LORAMAC_STOPPED       = 0x00000001,
 101:Middlewares/Third_Party/LoRaWAN/Mac/LoRaMac.c ****     LORAMAC_TX_RUNNING    = 0x00000002,
 102:Middlewares/Third_Party/LoRaWAN/Mac/LoRaMac.c ****     LORAMAC_RX            = 0x00000004,
 103:Middlewares/Third_Party/LoRaWAN/Mac/LoRaMac.c ****     LORAMAC_ACK_RETRY     = 0x00000010,
 104:Middlewares/Third_Party/LoRaWAN/Mac/LoRaMac.c ****     LORAMAC_TX_DELAYED    = 0x00000020,
 105:Middlewares/Third_Party/LoRaWAN/Mac/LoRaMac.c ****     LORAMAC_TX_CONFIG     = 0x00000040,
 106:Middlewares/Third_Party/LoRaWAN/Mac/LoRaMac.c ****     LORAMAC_RX_ABORT      = 0x00000080,
 107:Middlewares/Third_Party/LoRaWAN/Mac/LoRaMac.c **** };
 108:Middlewares/Third_Party/LoRaWAN/Mac/LoRaMac.c **** 
 109:Middlewares/Third_Party/LoRaWAN/Mac/LoRaMac.c **** /*
 110:Middlewares/Third_Party/LoRaWAN/Mac/LoRaMac.c ****  * Request permission state
 111:Middlewares/Third_Party/LoRaWAN/Mac/LoRaMac.c ****  */
 112:Middlewares/Third_Party/LoRaWAN/Mac/LoRaMac.c **** typedef enum eLoRaMacRequestHandling
 113:Middlewares/Third_Party/LoRaWAN/Mac/LoRaMac.c **** {
 114:Middlewares/Third_Party/LoRaWAN/Mac/LoRaMac.c ****     LORAMAC_REQUEST_HANDLING_OFF = 0,
 115:Middlewares/Third_Party/LoRaWAN/Mac/LoRaMac.c ****     LORAMAC_REQUEST_HANDLING_ON = !LORAMAC_REQUEST_HANDLING_OFF
 116:Middlewares/Third_Party/LoRaWAN/Mac/LoRaMac.c **** }LoRaMacRequestHandling_t;
 117:Middlewares/Third_Party/LoRaWAN/Mac/LoRaMac.c **** 
 118:Middlewares/Third_Party/LoRaWAN/Mac/LoRaMac.c **** typedef struct sLoRaMacCtx
 119:Middlewares/Third_Party/LoRaWAN/Mac/LoRaMac.c **** {
 120:Middlewares/Third_Party/LoRaWAN/Mac/LoRaMac.c ****     /*
 121:Middlewares/Third_Party/LoRaWAN/Mac/LoRaMac.c ****     * Length of packet in PktBuffer
 122:Middlewares/Third_Party/LoRaWAN/Mac/LoRaMac.c ****     */
 123:Middlewares/Third_Party/LoRaWAN/Mac/LoRaMac.c ****     uint16_t PktBufferLen;
 124:Middlewares/Third_Party/LoRaWAN/Mac/LoRaMac.c ****     /*
 125:Middlewares/Third_Party/LoRaWAN/Mac/LoRaMac.c ****     * Buffer containing the data to be sent or received.
 126:Middlewares/Third_Party/LoRaWAN/Mac/LoRaMac.c ****     */
 127:Middlewares/Third_Party/LoRaWAN/Mac/LoRaMac.c ****     uint8_t PktBuffer[LORAMAC_PHY_MAXPAYLOAD];
 128:Middlewares/Third_Party/LoRaWAN/Mac/LoRaMac.c ****     /*!
 129:Middlewares/Third_Party/LoRaWAN/Mac/LoRaMac.c ****     * Current processed transmit message
 130:Middlewares/Third_Party/LoRaWAN/Mac/LoRaMac.c ****     */
 131:Middlewares/Third_Party/LoRaWAN/Mac/LoRaMac.c ****     LoRaMacMessage_t TxMsg;
 132:Middlewares/Third_Party/LoRaWAN/Mac/LoRaMac.c ****     /*!
 133:Middlewares/Third_Party/LoRaWAN/Mac/LoRaMac.c ****     * Buffer containing the data received by the application.
 134:Middlewares/Third_Party/LoRaWAN/Mac/LoRaMac.c ****     */
 135:Middlewares/Third_Party/LoRaWAN/Mac/LoRaMac.c ****     uint8_t AppData[LORAMAC_PHY_MAXPAYLOAD];
 136:Middlewares/Third_Party/LoRaWAN/Mac/LoRaMac.c ****     /*
 137:Middlewares/Third_Party/LoRaWAN/Mac/LoRaMac.c ****     * Size of buffer containing the application data.
 138:Middlewares/Third_Party/LoRaWAN/Mac/LoRaMac.c ****     */
 139:Middlewares/Third_Party/LoRaWAN/Mac/LoRaMac.c ****     uint8_t AppDataSize;
 140:Middlewares/Third_Party/LoRaWAN/Mac/LoRaMac.c ****     /*
 141:Middlewares/Third_Party/LoRaWAN/Mac/LoRaMac.c ****     * Buffer containing the upper layer data.
 142:Middlewares/Third_Party/LoRaWAN/Mac/LoRaMac.c ****     */
 143:Middlewares/Third_Party/LoRaWAN/Mac/LoRaMac.c ****     uint8_t RxPayload[LORAMAC_PHY_MAXPAYLOAD];
 144:Middlewares/Third_Party/LoRaWAN/Mac/LoRaMac.c ****     SysTime_t LastTxSysTime;
 145:Middlewares/Third_Party/LoRaWAN/Mac/LoRaMac.c ****     /*
 146:Middlewares/Third_Party/LoRaWAN/Mac/LoRaMac.c ****     * LoRaMac internal state
 147:Middlewares/Third_Party/LoRaWAN/Mac/LoRaMac.c ****     */
ARM GAS  /tmp/cc7YZJrH.s 			page 4


 148:Middlewares/Third_Party/LoRaWAN/Mac/LoRaMac.c ****     uint32_t MacState;
 149:Middlewares/Third_Party/LoRaWAN/Mac/LoRaMac.c ****     /*
 150:Middlewares/Third_Party/LoRaWAN/Mac/LoRaMac.c ****     * LoRaMac upper layer event functions
 151:Middlewares/Third_Party/LoRaWAN/Mac/LoRaMac.c ****     */
 152:Middlewares/Third_Party/LoRaWAN/Mac/LoRaMac.c ****     LoRaMacPrimitives_t* MacPrimitives;
 153:Middlewares/Third_Party/LoRaWAN/Mac/LoRaMac.c ****     /*
 154:Middlewares/Third_Party/LoRaWAN/Mac/LoRaMac.c ****     * LoRaMac upper layer callback functions
 155:Middlewares/Third_Party/LoRaWAN/Mac/LoRaMac.c ****     */
 156:Middlewares/Third_Party/LoRaWAN/Mac/LoRaMac.c ****     LoRaMacCallback_t* MacCallbacks;
 157:Middlewares/Third_Party/LoRaWAN/Mac/LoRaMac.c ****     /*
 158:Middlewares/Third_Party/LoRaWAN/Mac/LoRaMac.c ****     * Radio events function pointer
 159:Middlewares/Third_Party/LoRaWAN/Mac/LoRaMac.c ****     */
 160:Middlewares/Third_Party/LoRaWAN/Mac/LoRaMac.c ****     RadioEvents_t RadioEvents;
 161:Middlewares/Third_Party/LoRaWAN/Mac/LoRaMac.c ****     /*
 162:Middlewares/Third_Party/LoRaWAN/Mac/LoRaMac.c ****     * LoRaMac duty cycle delayed Tx timer
 163:Middlewares/Third_Party/LoRaWAN/Mac/LoRaMac.c ****     */
 164:Middlewares/Third_Party/LoRaWAN/Mac/LoRaMac.c ****     TimerEvent_t TxDelayedTimer;
 165:Middlewares/Third_Party/LoRaWAN/Mac/LoRaMac.c ****     /*
 166:Middlewares/Third_Party/LoRaWAN/Mac/LoRaMac.c ****     * LoRaMac reception windows timers
 167:Middlewares/Third_Party/LoRaWAN/Mac/LoRaMac.c ****     */
 168:Middlewares/Third_Party/LoRaWAN/Mac/LoRaMac.c ****     TimerEvent_t RxWindowTimer1;
 169:Middlewares/Third_Party/LoRaWAN/Mac/LoRaMac.c ****     TimerEvent_t RxWindowTimer2;
 170:Middlewares/Third_Party/LoRaWAN/Mac/LoRaMac.c ****     /*
 171:Middlewares/Third_Party/LoRaWAN/Mac/LoRaMac.c ****     * LoRaMac reception windows delay
 172:Middlewares/Third_Party/LoRaWAN/Mac/LoRaMac.c ****     * \remark normal frame: RxWindowXDelay = ReceiveDelayX - RADIO_WAKEUP_TIME
 173:Middlewares/Third_Party/LoRaWAN/Mac/LoRaMac.c ****     *         join frame  : RxWindowXDelay = JoinAcceptDelayX - RADIO_WAKEUP_TIME
 174:Middlewares/Third_Party/LoRaWAN/Mac/LoRaMac.c ****     */
 175:Middlewares/Third_Party/LoRaWAN/Mac/LoRaMac.c ****     uint32_t RxWindow1Delay;
 176:Middlewares/Third_Party/LoRaWAN/Mac/LoRaMac.c ****     uint32_t RxWindow2Delay;
 177:Middlewares/Third_Party/LoRaWAN/Mac/LoRaMac.c ****     /*
 178:Middlewares/Third_Party/LoRaWAN/Mac/LoRaMac.c ****     * LoRaMac Rx windows configuration
 179:Middlewares/Third_Party/LoRaWAN/Mac/LoRaMac.c ****     */
 180:Middlewares/Third_Party/LoRaWAN/Mac/LoRaMac.c ****     RxConfigParams_t RxWindow1Config;
 181:Middlewares/Third_Party/LoRaWAN/Mac/LoRaMac.c ****     RxConfigParams_t RxWindow2Config;
 182:Middlewares/Third_Party/LoRaWAN/Mac/LoRaMac.c ****     RxConfigParams_t RxWindowCConfig;
 183:Middlewares/Third_Party/LoRaWAN/Mac/LoRaMac.c ****     /*
 184:Middlewares/Third_Party/LoRaWAN/Mac/LoRaMac.c ****      * Limit of uplinks without any donwlink response before the ADRACKReq bit will be set.
 185:Middlewares/Third_Party/LoRaWAN/Mac/LoRaMac.c ****      */
 186:Middlewares/Third_Party/LoRaWAN/Mac/LoRaMac.c ****     uint16_t AdrAckLimit;
 187:Middlewares/Third_Party/LoRaWAN/Mac/LoRaMac.c ****     /*
 188:Middlewares/Third_Party/LoRaWAN/Mac/LoRaMac.c ****      * Limit of uplinks without any donwlink response after a the first frame with set ADRACKReq bi
 189:Middlewares/Third_Party/LoRaWAN/Mac/LoRaMac.c ****      * before the trying to regain the connectivity.
 190:Middlewares/Third_Party/LoRaWAN/Mac/LoRaMac.c ****      */
 191:Middlewares/Third_Party/LoRaWAN/Mac/LoRaMac.c ****     uint16_t AdrAckDelay;
 192:Middlewares/Third_Party/LoRaWAN/Mac/LoRaMac.c ****     /*
 193:Middlewares/Third_Party/LoRaWAN/Mac/LoRaMac.c ****     * Acknowledge timeout timer. Used for packet retransmissions.
 194:Middlewares/Third_Party/LoRaWAN/Mac/LoRaMac.c ****     */
 195:Middlewares/Third_Party/LoRaWAN/Mac/LoRaMac.c ****     TimerEvent_t AckTimeoutTimer;
 196:Middlewares/Third_Party/LoRaWAN/Mac/LoRaMac.c ****     /*
 197:Middlewares/Third_Party/LoRaWAN/Mac/LoRaMac.c ****      * Uplink messages repetitions counter
 198:Middlewares/Third_Party/LoRaWAN/Mac/LoRaMac.c ****      */
 199:Middlewares/Third_Party/LoRaWAN/Mac/LoRaMac.c ****     uint8_t ChannelsNbTransCounter;
 200:Middlewares/Third_Party/LoRaWAN/Mac/LoRaMac.c ****     /*
 201:Middlewares/Third_Party/LoRaWAN/Mac/LoRaMac.c ****      * Number of trials to get a frame acknowledged
 202:Middlewares/Third_Party/LoRaWAN/Mac/LoRaMac.c ****      */
 203:Middlewares/Third_Party/LoRaWAN/Mac/LoRaMac.c ****     uint8_t AckTimeoutRetries;
 204:Middlewares/Third_Party/LoRaWAN/Mac/LoRaMac.c ****     /*
ARM GAS  /tmp/cc7YZJrH.s 			page 5


 205:Middlewares/Third_Party/LoRaWAN/Mac/LoRaMac.c ****      * Number of trials to get a frame acknowledged
 206:Middlewares/Third_Party/LoRaWAN/Mac/LoRaMac.c ****      */
 207:Middlewares/Third_Party/LoRaWAN/Mac/LoRaMac.c ****     uint8_t AckTimeoutRetriesCounter;
 208:Middlewares/Third_Party/LoRaWAN/Mac/LoRaMac.c ****     /*
 209:Middlewares/Third_Party/LoRaWAN/Mac/LoRaMac.c ****      * Indicates if the AckTimeout timer has expired or not
 210:Middlewares/Third_Party/LoRaWAN/Mac/LoRaMac.c ****      */
 211:Middlewares/Third_Party/LoRaWAN/Mac/LoRaMac.c ****     bool AckTimeoutRetry;
 212:Middlewares/Third_Party/LoRaWAN/Mac/LoRaMac.c ****     /*
 213:Middlewares/Third_Party/LoRaWAN/Mac/LoRaMac.c ****      * If the node has sent a FRAME_TYPE_DATA_CONFIRMED_UP this variable indicates
 214:Middlewares/Third_Party/LoRaWAN/Mac/LoRaMac.c ****      * if the nodes needs to manage the server acknowledgement.
 215:Middlewares/Third_Party/LoRaWAN/Mac/LoRaMac.c ****      */
 216:Middlewares/Third_Party/LoRaWAN/Mac/LoRaMac.c ****     bool NodeAckRequested;
 217:Middlewares/Third_Party/LoRaWAN/Mac/LoRaMac.c ****     /*
 218:Middlewares/Third_Party/LoRaWAN/Mac/LoRaMac.c ****      * Current channel index
 219:Middlewares/Third_Party/LoRaWAN/Mac/LoRaMac.c ****      */
 220:Middlewares/Third_Party/LoRaWAN/Mac/LoRaMac.c ****     uint8_t Channel;
 221:Middlewares/Third_Party/LoRaWAN/Mac/LoRaMac.c ****     /*
 222:Middlewares/Third_Party/LoRaWAN/Mac/LoRaMac.c ****     * Last transmission time on air
 223:Middlewares/Third_Party/LoRaWAN/Mac/LoRaMac.c ****     */
 224:Middlewares/Third_Party/LoRaWAN/Mac/LoRaMac.c ****     TimerTime_t TxTimeOnAir;
 225:Middlewares/Third_Party/LoRaWAN/Mac/LoRaMac.c ****     /*
 226:Middlewares/Third_Party/LoRaWAN/Mac/LoRaMac.c ****     * Structure to hold an MCPS indication data.
 227:Middlewares/Third_Party/LoRaWAN/Mac/LoRaMac.c ****     */
 228:Middlewares/Third_Party/LoRaWAN/Mac/LoRaMac.c ****     McpsIndication_t McpsIndication;
 229:Middlewares/Third_Party/LoRaWAN/Mac/LoRaMac.c ****     /*
 230:Middlewares/Third_Party/LoRaWAN/Mac/LoRaMac.c ****     * Structure to hold MCPS confirm data.
 231:Middlewares/Third_Party/LoRaWAN/Mac/LoRaMac.c ****     */
 232:Middlewares/Third_Party/LoRaWAN/Mac/LoRaMac.c ****     McpsConfirm_t McpsConfirm;
 233:Middlewares/Third_Party/LoRaWAN/Mac/LoRaMac.c ****     /*
 234:Middlewares/Third_Party/LoRaWAN/Mac/LoRaMac.c ****     * Structure to hold MLME confirm data.
 235:Middlewares/Third_Party/LoRaWAN/Mac/LoRaMac.c ****     */
 236:Middlewares/Third_Party/LoRaWAN/Mac/LoRaMac.c ****     MlmeConfirm_t MlmeConfirm;
 237:Middlewares/Third_Party/LoRaWAN/Mac/LoRaMac.c ****     /*
 238:Middlewares/Third_Party/LoRaWAN/Mac/LoRaMac.c ****     * Structure to hold MLME indication data.
 239:Middlewares/Third_Party/LoRaWAN/Mac/LoRaMac.c ****     */
 240:Middlewares/Third_Party/LoRaWAN/Mac/LoRaMac.c ****     MlmeIndication_t MlmeIndication;
 241:Middlewares/Third_Party/LoRaWAN/Mac/LoRaMac.c ****     /*
 242:Middlewares/Third_Party/LoRaWAN/Mac/LoRaMac.c ****      * Structure to hold global Rx Status.
 243:Middlewares/Third_Party/LoRaWAN/Mac/LoRaMac.c ****      */
 244:Middlewares/Third_Party/LoRaWAN/Mac/LoRaMac.c ****     LoRaMacRxStatus_t RxStatus;
 245:Middlewares/Third_Party/LoRaWAN/Mac/LoRaMac.c ****     /*
 246:Middlewares/Third_Party/LoRaWAN/Mac/LoRaMac.c ****     * Holds the current rx window slot
 247:Middlewares/Third_Party/LoRaWAN/Mac/LoRaMac.c ****     */
 248:Middlewares/Third_Party/LoRaWAN/Mac/LoRaMac.c ****     LoRaMacRxSlot_t RxSlot;
 249:Middlewares/Third_Party/LoRaWAN/Mac/LoRaMac.c ****     /*
 250:Middlewares/Third_Party/LoRaWAN/Mac/LoRaMac.c ****     * LoRaMac tx/rx operation state
 251:Middlewares/Third_Party/LoRaWAN/Mac/LoRaMac.c ****     */
 252:Middlewares/Third_Party/LoRaWAN/Mac/LoRaMac.c ****     LoRaMacFlags_t MacFlags;
 253:Middlewares/Third_Party/LoRaWAN/Mac/LoRaMac.c ****     /*
 254:Middlewares/Third_Party/LoRaWAN/Mac/LoRaMac.c ****     * Data structure indicating if a request is allowed or not.
 255:Middlewares/Third_Party/LoRaWAN/Mac/LoRaMac.c ****     */
 256:Middlewares/Third_Party/LoRaWAN/Mac/LoRaMac.c ****     LoRaMacRequestHandling_t AllowRequests;
 257:Middlewares/Third_Party/LoRaWAN/Mac/LoRaMac.c ****     /*
 258:Middlewares/Third_Party/LoRaWAN/Mac/LoRaMac.c ****     * Duty cycle wait time
 259:Middlewares/Third_Party/LoRaWAN/Mac/LoRaMac.c ****     */
 260:Middlewares/Third_Party/LoRaWAN/Mac/LoRaMac.c ****     TimerTime_t DutyCycleWaitTime;
 261:Middlewares/Third_Party/LoRaWAN/Mac/LoRaMac.c ****     /*
ARM GAS  /tmp/cc7YZJrH.s 			page 6


 262:Middlewares/Third_Party/LoRaWAN/Mac/LoRaMac.c ****      * Buffer containing the MAC layer commands
 263:Middlewares/Third_Party/LoRaWAN/Mac/LoRaMac.c ****      */
 264:Middlewares/Third_Party/LoRaWAN/Mac/LoRaMac.c ****     uint8_t MacCommandsBuffer[LORA_MAC_COMMAND_MAX_LENGTH];
 265:Middlewares/Third_Party/LoRaWAN/Mac/LoRaMac.c **** }LoRaMacCtx_t;
 266:Middlewares/Third_Party/LoRaWAN/Mac/LoRaMac.c **** 
 267:Middlewares/Third_Party/LoRaWAN/Mac/LoRaMac.c **** /*
 268:Middlewares/Third_Party/LoRaWAN/Mac/LoRaMac.c ****  * Module context.
 269:Middlewares/Third_Party/LoRaWAN/Mac/LoRaMac.c ****  */
 270:Middlewares/Third_Party/LoRaWAN/Mac/LoRaMac.c **** static LoRaMacCtx_t MacCtx;
 271:Middlewares/Third_Party/LoRaWAN/Mac/LoRaMac.c **** 
 272:Middlewares/Third_Party/LoRaWAN/Mac/LoRaMac.c **** static LoRaMacNvmData_t Nvm;
 273:Middlewares/Third_Party/LoRaWAN/Mac/LoRaMac.c **** 
 274:Middlewares/Third_Party/LoRaWAN/Mac/LoRaMac.c **** /*!
 275:Middlewares/Third_Party/LoRaWAN/Mac/LoRaMac.c ****  * Defines the LoRaMac radio events status
 276:Middlewares/Third_Party/LoRaWAN/Mac/LoRaMac.c ****  */
 277:Middlewares/Third_Party/LoRaWAN/Mac/LoRaMac.c **** typedef union uLoRaMacRadioEvents
 278:Middlewares/Third_Party/LoRaWAN/Mac/LoRaMac.c **** {
 279:Middlewares/Third_Party/LoRaWAN/Mac/LoRaMac.c ****     uint32_t Value;
 280:Middlewares/Third_Party/LoRaWAN/Mac/LoRaMac.c ****     struct sEvents
 281:Middlewares/Third_Party/LoRaWAN/Mac/LoRaMac.c ****     {
 282:Middlewares/Third_Party/LoRaWAN/Mac/LoRaMac.c ****         uint32_t RxTimeout : 1;
 283:Middlewares/Third_Party/LoRaWAN/Mac/LoRaMac.c ****         uint32_t RxError   : 1;
 284:Middlewares/Third_Party/LoRaWAN/Mac/LoRaMac.c ****         uint32_t TxTimeout : 1;
 285:Middlewares/Third_Party/LoRaWAN/Mac/LoRaMac.c ****         uint32_t RxDone    : 1;
 286:Middlewares/Third_Party/LoRaWAN/Mac/LoRaMac.c ****         uint32_t TxDone    : 1;
 287:Middlewares/Third_Party/LoRaWAN/Mac/LoRaMac.c ****     }Events;
 288:Middlewares/Third_Party/LoRaWAN/Mac/LoRaMac.c **** }LoRaMacRadioEvents_t;
 289:Middlewares/Third_Party/LoRaWAN/Mac/LoRaMac.c **** 
 290:Middlewares/Third_Party/LoRaWAN/Mac/LoRaMac.c **** /*!
 291:Middlewares/Third_Party/LoRaWAN/Mac/LoRaMac.c ****  * LoRaMac radio events status
 292:Middlewares/Third_Party/LoRaWAN/Mac/LoRaMac.c ****  */
 293:Middlewares/Third_Party/LoRaWAN/Mac/LoRaMac.c **** LoRaMacRadioEvents_t LoRaMacRadioEvents = { .Value = 0 };
 294:Middlewares/Third_Party/LoRaWAN/Mac/LoRaMac.c **** 
 295:Middlewares/Third_Party/LoRaWAN/Mac/LoRaMac.c **** /*!
 296:Middlewares/Third_Party/LoRaWAN/Mac/LoRaMac.c ****  * \brief Function to be executed on Radio Tx Done event
 297:Middlewares/Third_Party/LoRaWAN/Mac/LoRaMac.c ****  */
 298:Middlewares/Third_Party/LoRaWAN/Mac/LoRaMac.c **** static void OnRadioTxDone( void );
 299:Middlewares/Third_Party/LoRaWAN/Mac/LoRaMac.c **** 
 300:Middlewares/Third_Party/LoRaWAN/Mac/LoRaMac.c **** /*!
 301:Middlewares/Third_Party/LoRaWAN/Mac/LoRaMac.c ****  * \brief This function prepares the MAC to abort the execution of function
 302:Middlewares/Third_Party/LoRaWAN/Mac/LoRaMac.c ****  *        OnRadioRxDone in case of a reception error.
 303:Middlewares/Third_Party/LoRaWAN/Mac/LoRaMac.c ****  */
 304:Middlewares/Third_Party/LoRaWAN/Mac/LoRaMac.c **** static void PrepareRxDoneAbort( void );
 305:Middlewares/Third_Party/LoRaWAN/Mac/LoRaMac.c **** 
 306:Middlewares/Third_Party/LoRaWAN/Mac/LoRaMac.c **** /*!
 307:Middlewares/Third_Party/LoRaWAN/Mac/LoRaMac.c ****  * \brief Function to be executed on Radio Rx Done event
 308:Middlewares/Third_Party/LoRaWAN/Mac/LoRaMac.c ****  */
 309:Middlewares/Third_Party/LoRaWAN/Mac/LoRaMac.c **** static void OnRadioRxDone( uint8_t* payload, uint16_t size, int16_t rssi, int8_t snr );
 310:Middlewares/Third_Party/LoRaWAN/Mac/LoRaMac.c **** 
 311:Middlewares/Third_Party/LoRaWAN/Mac/LoRaMac.c **** /*!
 312:Middlewares/Third_Party/LoRaWAN/Mac/LoRaMac.c ****  * \brief Function executed on Radio Tx Timeout event
 313:Middlewares/Third_Party/LoRaWAN/Mac/LoRaMac.c ****  */
 314:Middlewares/Third_Party/LoRaWAN/Mac/LoRaMac.c **** static void OnRadioTxTimeout( void );
 315:Middlewares/Third_Party/LoRaWAN/Mac/LoRaMac.c **** 
 316:Middlewares/Third_Party/LoRaWAN/Mac/LoRaMac.c **** /*!
 317:Middlewares/Third_Party/LoRaWAN/Mac/LoRaMac.c ****  * \brief Function executed on Radio Rx error event
 318:Middlewares/Third_Party/LoRaWAN/Mac/LoRaMac.c ****  */
ARM GAS  /tmp/cc7YZJrH.s 			page 7


 319:Middlewares/Third_Party/LoRaWAN/Mac/LoRaMac.c **** static void OnRadioRxError( void );
 320:Middlewares/Third_Party/LoRaWAN/Mac/LoRaMac.c **** 
 321:Middlewares/Third_Party/LoRaWAN/Mac/LoRaMac.c **** /*!
 322:Middlewares/Third_Party/LoRaWAN/Mac/LoRaMac.c ****  * \brief Function executed on Radio Rx Timeout event
 323:Middlewares/Third_Party/LoRaWAN/Mac/LoRaMac.c ****  */
 324:Middlewares/Third_Party/LoRaWAN/Mac/LoRaMac.c **** static void OnRadioRxTimeout( void );
 325:Middlewares/Third_Party/LoRaWAN/Mac/LoRaMac.c **** 
 326:Middlewares/Third_Party/LoRaWAN/Mac/LoRaMac.c **** /*!
 327:Middlewares/Third_Party/LoRaWAN/Mac/LoRaMac.c ****  * \brief Function executed on duty cycle delayed Tx  timer event
 328:Middlewares/Third_Party/LoRaWAN/Mac/LoRaMac.c ****  */
 329:Middlewares/Third_Party/LoRaWAN/Mac/LoRaMac.c **** static void OnTxDelayedTimerEvent( void* context );
 330:Middlewares/Third_Party/LoRaWAN/Mac/LoRaMac.c **** 
 331:Middlewares/Third_Party/LoRaWAN/Mac/LoRaMac.c **** /*!
 332:Middlewares/Third_Party/LoRaWAN/Mac/LoRaMac.c ****  * \brief Function executed on first Rx window timer event
 333:Middlewares/Third_Party/LoRaWAN/Mac/LoRaMac.c ****  */
 334:Middlewares/Third_Party/LoRaWAN/Mac/LoRaMac.c **** static void OnRxWindow1TimerEvent( void* context );
 335:Middlewares/Third_Party/LoRaWAN/Mac/LoRaMac.c **** 
 336:Middlewares/Third_Party/LoRaWAN/Mac/LoRaMac.c **** /*!
 337:Middlewares/Third_Party/LoRaWAN/Mac/LoRaMac.c ****  * \brief Function executed on second Rx window timer event
 338:Middlewares/Third_Party/LoRaWAN/Mac/LoRaMac.c ****  */
 339:Middlewares/Third_Party/LoRaWAN/Mac/LoRaMac.c **** static void OnRxWindow2TimerEvent( void* context );
 340:Middlewares/Third_Party/LoRaWAN/Mac/LoRaMac.c **** 
 341:Middlewares/Third_Party/LoRaWAN/Mac/LoRaMac.c **** /*!
 342:Middlewares/Third_Party/LoRaWAN/Mac/LoRaMac.c ****  * \brief Function executed on AckTimeout timer event
 343:Middlewares/Third_Party/LoRaWAN/Mac/LoRaMac.c ****  */
 344:Middlewares/Third_Party/LoRaWAN/Mac/LoRaMac.c **** static void OnAckTimeoutTimerEvent( void* context );
 345:Middlewares/Third_Party/LoRaWAN/Mac/LoRaMac.c **** 
 346:Middlewares/Third_Party/LoRaWAN/Mac/LoRaMac.c **** /*!
 347:Middlewares/Third_Party/LoRaWAN/Mac/LoRaMac.c ****  * \brief Configures the events to trigger an MLME-Indication with
 348:Middlewares/Third_Party/LoRaWAN/Mac/LoRaMac.c ****  *        a MLME type of MLME_SCHEDULE_UPLINK.
 349:Middlewares/Third_Party/LoRaWAN/Mac/LoRaMac.c ****  */
 350:Middlewares/Third_Party/LoRaWAN/Mac/LoRaMac.c **** static void SetMlmeScheduleUplinkIndication( void );
 351:Middlewares/Third_Party/LoRaWAN/Mac/LoRaMac.c **** 
 352:Middlewares/Third_Party/LoRaWAN/Mac/LoRaMac.c **** /*!
 353:Middlewares/Third_Party/LoRaWAN/Mac/LoRaMac.c ****  * Computes next 32 bit downlink counter value and determines the frame counter ID.
 354:Middlewares/Third_Party/LoRaWAN/Mac/LoRaMac.c ****  *
 355:Middlewares/Third_Party/LoRaWAN/Mac/LoRaMac.c ****  * \param[IN]     addrID                - Address identifier
 356:Middlewares/Third_Party/LoRaWAN/Mac/LoRaMac.c ****  * \param[IN]     fType                 - Frame type
 357:Middlewares/Third_Party/LoRaWAN/Mac/LoRaMac.c ****  * \param[IN]     macMsg                - Data message object, holding the current 16 bit transmitt
 358:Middlewares/Third_Party/LoRaWAN/Mac/LoRaMac.c ****  * \param[IN]     lrWanVersion          - LoRaWAN version
 359:Middlewares/Third_Party/LoRaWAN/Mac/LoRaMac.c ****  * \param[IN]     maxFCntGap            - Maximum allowed frame counter difference (only for 1.0.X 
 360:Middlewares/Third_Party/LoRaWAN/Mac/LoRaMac.c ****  * \param[OUT]    fCntID                - Frame counter identifier
 361:Middlewares/Third_Party/LoRaWAN/Mac/LoRaMac.c ****  * \param[OUT]    currentDown           - Current downlink counter value
 362:Middlewares/Third_Party/LoRaWAN/Mac/LoRaMac.c ****  *
 363:Middlewares/Third_Party/LoRaWAN/Mac/LoRaMac.c ****  * \retval                              - Status of the operation
 364:Middlewares/Third_Party/LoRaWAN/Mac/LoRaMac.c ****  */
 365:Middlewares/Third_Party/LoRaWAN/Mac/LoRaMac.c **** static LoRaMacCryptoStatus_t GetFCntDown( AddressIdentifier_t addrID, FType_t fType, LoRaMacMessage
 366:Middlewares/Third_Party/LoRaWAN/Mac/LoRaMac.c ****                                           uint16_t maxFCntGap, FCntIdentifier_t* fCntID, uint32_t* 
 367:Middlewares/Third_Party/LoRaWAN/Mac/LoRaMac.c **** 
 368:Middlewares/Third_Party/LoRaWAN/Mac/LoRaMac.c **** /*!
 369:Middlewares/Third_Party/LoRaWAN/Mac/LoRaMac.c ****  * \brief Switches the device class
 370:Middlewares/Third_Party/LoRaWAN/Mac/LoRaMac.c ****  *
 371:Middlewares/Third_Party/LoRaWAN/Mac/LoRaMac.c ****  * \param [IN] deviceClass Device class to switch to
 372:Middlewares/Third_Party/LoRaWAN/Mac/LoRaMac.c ****  */
 373:Middlewares/Third_Party/LoRaWAN/Mac/LoRaMac.c **** static LoRaMacStatus_t SwitchClass( DeviceClass_t deviceClass );
 374:Middlewares/Third_Party/LoRaWAN/Mac/LoRaMac.c **** 
 375:Middlewares/Third_Party/LoRaWAN/Mac/LoRaMac.c **** /*!
ARM GAS  /tmp/cc7YZJrH.s 			page 8


 376:Middlewares/Third_Party/LoRaWAN/Mac/LoRaMac.c ****  * \brief Gets the maximum application payload length in the absence of the optional FOpt field.
 377:Middlewares/Third_Party/LoRaWAN/Mac/LoRaMac.c ****  *
 378:Middlewares/Third_Party/LoRaWAN/Mac/LoRaMac.c ****  * \param [IN] datarate        Current datarate
 379:Middlewares/Third_Party/LoRaWAN/Mac/LoRaMac.c ****  *
 380:Middlewares/Third_Party/LoRaWAN/Mac/LoRaMac.c ****  * \retval                    Max length
 381:Middlewares/Third_Party/LoRaWAN/Mac/LoRaMac.c ****  */
 382:Middlewares/Third_Party/LoRaWAN/Mac/LoRaMac.c **** static uint8_t GetMaxAppPayloadWithoutFOptsLength( int8_t datarate );
 383:Middlewares/Third_Party/LoRaWAN/Mac/LoRaMac.c **** 
 384:Middlewares/Third_Party/LoRaWAN/Mac/LoRaMac.c **** /*!
 385:Middlewares/Third_Party/LoRaWAN/Mac/LoRaMac.c ****  * \brief Validates if the payload fits into the frame, taking the datarate
 386:Middlewares/Third_Party/LoRaWAN/Mac/LoRaMac.c ****  *        into account.
 387:Middlewares/Third_Party/LoRaWAN/Mac/LoRaMac.c ****  *
 388:Middlewares/Third_Party/LoRaWAN/Mac/LoRaMac.c ****  * \details Refer to chapter 4.3.2 of the LoRaWAN specification, v1.0
 389:Middlewares/Third_Party/LoRaWAN/Mac/LoRaMac.c ****  *
 390:Middlewares/Third_Party/LoRaWAN/Mac/LoRaMac.c ****  * \param lenN Length of the application payload. The length depends on the
 391:Middlewares/Third_Party/LoRaWAN/Mac/LoRaMac.c ****  *             datarate and is region specific
 392:Middlewares/Third_Party/LoRaWAN/Mac/LoRaMac.c ****  *
 393:Middlewares/Third_Party/LoRaWAN/Mac/LoRaMac.c ****  * \param datarate Current datarate
 394:Middlewares/Third_Party/LoRaWAN/Mac/LoRaMac.c ****  *
 395:Middlewares/Third_Party/LoRaWAN/Mac/LoRaMac.c ****  * \param fOptsLen Length of the fOpts field
 396:Middlewares/Third_Party/LoRaWAN/Mac/LoRaMac.c ****  *
 397:Middlewares/Third_Party/LoRaWAN/Mac/LoRaMac.c ****  * \retval [false: payload does not fit into the frame, true: payload fits into
 398:Middlewares/Third_Party/LoRaWAN/Mac/LoRaMac.c ****  *          the frame]
 399:Middlewares/Third_Party/LoRaWAN/Mac/LoRaMac.c ****  */
 400:Middlewares/Third_Party/LoRaWAN/Mac/LoRaMac.c **** static bool ValidatePayloadLength( uint8_t lenN, int8_t datarate, uint8_t fOptsLen );
 401:Middlewares/Third_Party/LoRaWAN/Mac/LoRaMac.c **** 
 402:Middlewares/Third_Party/LoRaWAN/Mac/LoRaMac.c **** /*!
 403:Middlewares/Third_Party/LoRaWAN/Mac/LoRaMac.c ****  * \brief Decodes MAC commands in the fOpts field and in the payload
 404:Middlewares/Third_Party/LoRaWAN/Mac/LoRaMac.c ****  *
 405:Middlewares/Third_Party/LoRaWAN/Mac/LoRaMac.c ****  * \param [IN] payload      A pointer to the payload
 406:Middlewares/Third_Party/LoRaWAN/Mac/LoRaMac.c ****  * \param [IN] macIndex     The index of the payload where the MAC commands start
 407:Middlewares/Third_Party/LoRaWAN/Mac/LoRaMac.c ****  * \param [IN] commandsSize The size of the MAC commands
 408:Middlewares/Third_Party/LoRaWAN/Mac/LoRaMac.c ****  * \param [IN] snr          The SNR value  of the frame
 409:Middlewares/Third_Party/LoRaWAN/Mac/LoRaMac.c ****  * \param [IN] rxSlot       The RX slot where the frame was received
 410:Middlewares/Third_Party/LoRaWAN/Mac/LoRaMac.c ****  */
 411:Middlewares/Third_Party/LoRaWAN/Mac/LoRaMac.c **** static void ProcessMacCommands( uint8_t* payload, uint8_t macIndex, uint8_t commandsSize, int8_t sn
 412:Middlewares/Third_Party/LoRaWAN/Mac/LoRaMac.c **** 
 413:Middlewares/Third_Party/LoRaWAN/Mac/LoRaMac.c **** /* ST_WORKAROUND_BEGIN: Update Send request with new input parameter to allow delayed tx */
 414:Middlewares/Third_Party/LoRaWAN/Mac/LoRaMac.c **** /*!
 415:Middlewares/Third_Party/LoRaWAN/Mac/LoRaMac.c ****  * \brief LoRaMAC layer generic send frame
 416:Middlewares/Third_Party/LoRaWAN/Mac/LoRaMac.c ****  *
 417:Middlewares/Third_Party/LoRaWAN/Mac/LoRaMac.c ****  * \param [IN] macHdr      MAC header field
 418:Middlewares/Third_Party/LoRaWAN/Mac/LoRaMac.c ****  * \param [IN] fPort       MAC payload port
 419:Middlewares/Third_Party/LoRaWAN/Mac/LoRaMac.c ****  * \param [IN] fBuffer     MAC data buffer to be sent
 420:Middlewares/Third_Party/LoRaWAN/Mac/LoRaMac.c ****  * \param [IN] fBufferSize MAC data buffer size
 421:Middlewares/Third_Party/LoRaWAN/Mac/LoRaMac.c ****  * \retval status          Status of the operation.
 422:Middlewares/Third_Party/LoRaWAN/Mac/LoRaMac.c ****  */
 423:Middlewares/Third_Party/LoRaWAN/Mac/LoRaMac.c **** static LoRaMacStatus_t Send( LoRaMacHeader_t* macHdr, uint8_t fPort, void* fBuffer, uint16_t fBuffe
 424:Middlewares/Third_Party/LoRaWAN/Mac/LoRaMac.c **** /* ST_WORKAROUND_END */
 425:Middlewares/Third_Party/LoRaWAN/Mac/LoRaMac.c **** 
 426:Middlewares/Third_Party/LoRaWAN/Mac/LoRaMac.c **** /*!
 427:Middlewares/Third_Party/LoRaWAN/Mac/LoRaMac.c ****  * \brief LoRaMAC layer send join/rejoin request
 428:Middlewares/Third_Party/LoRaWAN/Mac/LoRaMac.c ****  *
 429:Middlewares/Third_Party/LoRaWAN/Mac/LoRaMac.c ****  * \param [IN] joinReqType Type of join-request or rejoin
 430:Middlewares/Third_Party/LoRaWAN/Mac/LoRaMac.c ****  *
 431:Middlewares/Third_Party/LoRaWAN/Mac/LoRaMac.c ****  * \retval status          Status of the operation.
 432:Middlewares/Third_Party/LoRaWAN/Mac/LoRaMac.c ****  */
ARM GAS  /tmp/cc7YZJrH.s 			page 9


 433:Middlewares/Third_Party/LoRaWAN/Mac/LoRaMac.c **** static LoRaMacStatus_t SendReJoinReq( JoinReqIdentifier_t joinReqType );
 434:Middlewares/Third_Party/LoRaWAN/Mac/LoRaMac.c **** 
 435:Middlewares/Third_Party/LoRaWAN/Mac/LoRaMac.c **** /*!
 436:Middlewares/Third_Party/LoRaWAN/Mac/LoRaMac.c ****  * \brief LoRaMAC layer frame buffer initialization
 437:Middlewares/Third_Party/LoRaWAN/Mac/LoRaMac.c ****  *
 438:Middlewares/Third_Party/LoRaWAN/Mac/LoRaMac.c ****  * \param [IN] macHdr      MAC header field
 439:Middlewares/Third_Party/LoRaWAN/Mac/LoRaMac.c ****  * \param [IN] fCtrl       MAC frame control field
 440:Middlewares/Third_Party/LoRaWAN/Mac/LoRaMac.c ****  * \param [IN] fOpts       MAC commands buffer
 441:Middlewares/Third_Party/LoRaWAN/Mac/LoRaMac.c ****  * \param [IN] fPort       MAC payload port
 442:Middlewares/Third_Party/LoRaWAN/Mac/LoRaMac.c ****  * \param [IN] fBuffer     MAC data buffer to be sent
 443:Middlewares/Third_Party/LoRaWAN/Mac/LoRaMac.c ****  * \param [IN] fBufferSize MAC data buffer size
 444:Middlewares/Third_Party/LoRaWAN/Mac/LoRaMac.c ****  * \retval status          Status of the operation.
 445:Middlewares/Third_Party/LoRaWAN/Mac/LoRaMac.c ****  */
 446:Middlewares/Third_Party/LoRaWAN/Mac/LoRaMac.c **** static LoRaMacStatus_t PrepareFrame( LoRaMacHeader_t* macHdr, LoRaMacFrameCtrl_t* fCtrl, uint8_t fP
 447:Middlewares/Third_Party/LoRaWAN/Mac/LoRaMac.c **** 
 448:Middlewares/Third_Party/LoRaWAN/Mac/LoRaMac.c **** /*
 449:Middlewares/Third_Party/LoRaWAN/Mac/LoRaMac.c ****  * \brief Schedules the frame according to the duty cycle
 450:Middlewares/Third_Party/LoRaWAN/Mac/LoRaMac.c ****  *
 451:Middlewares/Third_Party/LoRaWAN/Mac/LoRaMac.c ****  * \param [IN] allowDelayedTx When set to true, the a frame will be delayed,
 452:Middlewares/Third_Party/LoRaWAN/Mac/LoRaMac.c ****  *                            the duty cycle restriction is active
 453:Middlewares/Third_Party/LoRaWAN/Mac/LoRaMac.c ****  * \retval Status of the operation
 454:Middlewares/Third_Party/LoRaWAN/Mac/LoRaMac.c ****  */
 455:Middlewares/Third_Party/LoRaWAN/Mac/LoRaMac.c **** static LoRaMacStatus_t ScheduleTx( bool allowDelayedTx );
 456:Middlewares/Third_Party/LoRaWAN/Mac/LoRaMac.c **** 
 457:Middlewares/Third_Party/LoRaWAN/Mac/LoRaMac.c **** /*
 458:Middlewares/Third_Party/LoRaWAN/Mac/LoRaMac.c ****  * \brief Secures the current processed frame ( TxMsg )
 459:Middlewares/Third_Party/LoRaWAN/Mac/LoRaMac.c ****  * \param[IN]     txDr      Data rate used for the transmission
 460:Middlewares/Third_Party/LoRaWAN/Mac/LoRaMac.c ****  * \param[IN]     txCh      Index of the channel used for the transmission
 461:Middlewares/Third_Party/LoRaWAN/Mac/LoRaMac.c ****  * \retval status           Status of the operation
 462:Middlewares/Third_Party/LoRaWAN/Mac/LoRaMac.c ****  */
 463:Middlewares/Third_Party/LoRaWAN/Mac/LoRaMac.c **** static LoRaMacStatus_t SecureFrame( uint8_t txDr, uint8_t txCh );
 464:Middlewares/Third_Party/LoRaWAN/Mac/LoRaMac.c **** 
 465:Middlewares/Third_Party/LoRaWAN/Mac/LoRaMac.c **** /*
 466:Middlewares/Third_Party/LoRaWAN/Mac/LoRaMac.c ****  * \brief Calculates the aggregated back off time.
 467:Middlewares/Third_Party/LoRaWAN/Mac/LoRaMac.c ****  */
 468:Middlewares/Third_Party/LoRaWAN/Mac/LoRaMac.c **** static void CalculateBackOff( void );
 469:Middlewares/Third_Party/LoRaWAN/Mac/LoRaMac.c **** 
 470:Middlewares/Third_Party/LoRaWAN/Mac/LoRaMac.c **** /*
 471:Middlewares/Third_Party/LoRaWAN/Mac/LoRaMac.c ****  * \brief Function to remove pending MAC commands
 472:Middlewares/Third_Party/LoRaWAN/Mac/LoRaMac.c ****  *
 473:Middlewares/Third_Party/LoRaWAN/Mac/LoRaMac.c ****  * \param [IN] rxSlot     The RX slot on which the frame was received
 474:Middlewares/Third_Party/LoRaWAN/Mac/LoRaMac.c ****  * \param [IN] fCtrl      The frame control field of the received frame
 475:Middlewares/Third_Party/LoRaWAN/Mac/LoRaMac.c ****  * \param [IN] request    The request type
 476:Middlewares/Third_Party/LoRaWAN/Mac/LoRaMac.c ****  */
 477:Middlewares/Third_Party/LoRaWAN/Mac/LoRaMac.c **** static void RemoveMacCommands( LoRaMacRxSlot_t rxSlot, LoRaMacFrameCtrl_t fCtrl, Mcps_t request );
 478:Middlewares/Third_Party/LoRaWAN/Mac/LoRaMac.c **** 
 479:Middlewares/Third_Party/LoRaWAN/Mac/LoRaMac.c **** /*!
 480:Middlewares/Third_Party/LoRaWAN/Mac/LoRaMac.c ****  * \brief LoRaMAC layer prepared frame buffer transmission with channel specification
 481:Middlewares/Third_Party/LoRaWAN/Mac/LoRaMac.c ****  *
 482:Middlewares/Third_Party/LoRaWAN/Mac/LoRaMac.c ****  * \remark PrepareFrame must be called at least once before calling this
 483:Middlewares/Third_Party/LoRaWAN/Mac/LoRaMac.c ****  *         function.
 484:Middlewares/Third_Party/LoRaWAN/Mac/LoRaMac.c ****  *
 485:Middlewares/Third_Party/LoRaWAN/Mac/LoRaMac.c ****  * \param [IN] channel     Channel to transmit on
 486:Middlewares/Third_Party/LoRaWAN/Mac/LoRaMac.c ****  * \retval status          Status of the operation.
 487:Middlewares/Third_Party/LoRaWAN/Mac/LoRaMac.c ****  */
 488:Middlewares/Third_Party/LoRaWAN/Mac/LoRaMac.c **** static LoRaMacStatus_t SendFrameOnChannel( uint8_t channel );
 489:Middlewares/Third_Party/LoRaWAN/Mac/LoRaMac.c **** 
ARM GAS  /tmp/cc7YZJrH.s 			page 10


 490:Middlewares/Third_Party/LoRaWAN/Mac/LoRaMac.c **** /*!
 491:Middlewares/Third_Party/LoRaWAN/Mac/LoRaMac.c ****  * \brief Sets the radio in continuous transmission mode
 492:Middlewares/Third_Party/LoRaWAN/Mac/LoRaMac.c ****  *
 493:Middlewares/Third_Party/LoRaWAN/Mac/LoRaMac.c ****  * \remark Uses the radio parameters set on the previous transmission.
 494:Middlewares/Third_Party/LoRaWAN/Mac/LoRaMac.c ****  *
 495:Middlewares/Third_Party/LoRaWAN/Mac/LoRaMac.c ****  * \param [IN] timeout     Time in seconds while the radio is kept in continuous wave mode
 496:Middlewares/Third_Party/LoRaWAN/Mac/LoRaMac.c ****  * \retval status          Status of the operation.
 497:Middlewares/Third_Party/LoRaWAN/Mac/LoRaMac.c ****  */
 498:Middlewares/Third_Party/LoRaWAN/Mac/LoRaMac.c **** static LoRaMacStatus_t SetTxContinuousWave( uint16_t timeout );
 499:Middlewares/Third_Party/LoRaWAN/Mac/LoRaMac.c **** 
 500:Middlewares/Third_Party/LoRaWAN/Mac/LoRaMac.c **** /*!
 501:Middlewares/Third_Party/LoRaWAN/Mac/LoRaMac.c ****  * \brief Sets the radio in continuous transmission mode
 502:Middlewares/Third_Party/LoRaWAN/Mac/LoRaMac.c ****  *
 503:Middlewares/Third_Party/LoRaWAN/Mac/LoRaMac.c ****  * \remark Uses the radio parameters set on the previous transmission.
 504:Middlewares/Third_Party/LoRaWAN/Mac/LoRaMac.c ****  *
 505:Middlewares/Third_Party/LoRaWAN/Mac/LoRaMac.c ****  * \param [IN] timeout     Time in seconds while the radio is kept in continuous wave mode
 506:Middlewares/Third_Party/LoRaWAN/Mac/LoRaMac.c ****  * \param [IN] frequency   RF frequency to be set.
 507:Middlewares/Third_Party/LoRaWAN/Mac/LoRaMac.c ****  * \param [IN] power       RF output power to be set.
 508:Middlewares/Third_Party/LoRaWAN/Mac/LoRaMac.c ****  * \retval status          Status of the operation.
 509:Middlewares/Third_Party/LoRaWAN/Mac/LoRaMac.c ****  */
 510:Middlewares/Third_Party/LoRaWAN/Mac/LoRaMac.c **** static LoRaMacStatus_t SetTxContinuousWave1( uint16_t timeout, uint32_t frequency, uint8_t power );
 511:Middlewares/Third_Party/LoRaWAN/Mac/LoRaMac.c **** 
 512:Middlewares/Third_Party/LoRaWAN/Mac/LoRaMac.c **** /*!
 513:Middlewares/Third_Party/LoRaWAN/Mac/LoRaMac.c ****  * \brief Resets MAC specific parameters to default
 514:Middlewares/Third_Party/LoRaWAN/Mac/LoRaMac.c ****  */
 515:Middlewares/Third_Party/LoRaWAN/Mac/LoRaMac.c **** static void ResetMacParameters( void );
 516:Middlewares/Third_Party/LoRaWAN/Mac/LoRaMac.c **** 
 517:Middlewares/Third_Party/LoRaWAN/Mac/LoRaMac.c **** /*!
 518:Middlewares/Third_Party/LoRaWAN/Mac/LoRaMac.c ****  * \brief Initializes and opens the reception window
 519:Middlewares/Third_Party/LoRaWAN/Mac/LoRaMac.c ****  *
 520:Middlewares/Third_Party/LoRaWAN/Mac/LoRaMac.c ****  * \param [IN] rxTimer  Window timer to be topped.
 521:Middlewares/Third_Party/LoRaWAN/Mac/LoRaMac.c ****  * \param [IN] rxConfig Window parameters to be setup
 522:Middlewares/Third_Party/LoRaWAN/Mac/LoRaMac.c ****  */
 523:Middlewares/Third_Party/LoRaWAN/Mac/LoRaMac.c **** static void RxWindowSetup( TimerEvent_t* rxTimer, RxConfigParams_t* rxConfig );
 524:Middlewares/Third_Party/LoRaWAN/Mac/LoRaMac.c **** 
 525:Middlewares/Third_Party/LoRaWAN/Mac/LoRaMac.c **** /*!
 526:Middlewares/Third_Party/LoRaWAN/Mac/LoRaMac.c ****  * \brief Opens up a continuous RX C window. This is used for
 527:Middlewares/Third_Party/LoRaWAN/Mac/LoRaMac.c ****  *        class c devices.
 528:Middlewares/Third_Party/LoRaWAN/Mac/LoRaMac.c ****  */
 529:Middlewares/Third_Party/LoRaWAN/Mac/LoRaMac.c **** static void OpenContinuousRxCWindow( void );
 530:Middlewares/Third_Party/LoRaWAN/Mac/LoRaMac.c **** 
 531:Middlewares/Third_Party/LoRaWAN/Mac/LoRaMac.c **** /*!
 532:Middlewares/Third_Party/LoRaWAN/Mac/LoRaMac.c ****  * \brief   Returns a pointer to the internal contexts structure.
 533:Middlewares/Third_Party/LoRaWAN/Mac/LoRaMac.c ****  *
 534:Middlewares/Third_Party/LoRaWAN/Mac/LoRaMac.c ****  * \retval  void Points to a structure containing all contexts
 535:Middlewares/Third_Party/LoRaWAN/Mac/LoRaMac.c ****  */
 536:Middlewares/Third_Party/LoRaWAN/Mac/LoRaMac.c **** static LoRaMacNvmData_t* GetNvmData( void );
 537:Middlewares/Third_Party/LoRaWAN/Mac/LoRaMac.c **** 
 538:Middlewares/Third_Party/LoRaWAN/Mac/LoRaMac.c **** /*!
 539:Middlewares/Third_Party/LoRaWAN/Mac/LoRaMac.c ****  * \brief   Restoring of internal module contexts
 540:Middlewares/Third_Party/LoRaWAN/Mac/LoRaMac.c ****  *
 541:Middlewares/Third_Party/LoRaWAN/Mac/LoRaMac.c ****  * \details This function allows to restore module contexts by a given pointer.
 542:Middlewares/Third_Party/LoRaWAN/Mac/LoRaMac.c ****  *
 543:Middlewares/Third_Party/LoRaWAN/Mac/LoRaMac.c ****  *
 544:Middlewares/Third_Party/LoRaWAN/Mac/LoRaMac.c ****  * \retval  LoRaMacStatus_t Status of the operation. Possible returns are:
 545:Middlewares/Third_Party/LoRaWAN/Mac/LoRaMac.c ****  *          returns are:
 546:Middlewares/Third_Party/LoRaWAN/Mac/LoRaMac.c ****  *          \ref LORAMAC_STATUS_OK,
ARM GAS  /tmp/cc7YZJrH.s 			page 11


 547:Middlewares/Third_Party/LoRaWAN/Mac/LoRaMac.c ****  *          \ref LORAMAC_STATUS_PARAMETER_INVALID,
 548:Middlewares/Third_Party/LoRaWAN/Mac/LoRaMac.c ****  */
 549:Middlewares/Third_Party/LoRaWAN/Mac/LoRaMac.c **** static LoRaMacStatus_t RestoreNvmData( LoRaMacNvmData_t* contexts );
 550:Middlewares/Third_Party/LoRaWAN/Mac/LoRaMac.c **** 
 551:Middlewares/Third_Party/LoRaWAN/Mac/LoRaMac.c **** /*!
 552:Middlewares/Third_Party/LoRaWAN/Mac/LoRaMac.c ****  * \brief   Determines the frame type
 553:Middlewares/Third_Party/LoRaWAN/Mac/LoRaMac.c ****  *
 554:Middlewares/Third_Party/LoRaWAN/Mac/LoRaMac.c ****  * \param [IN] macMsg Data message object
 555:Middlewares/Third_Party/LoRaWAN/Mac/LoRaMac.c ****  *
 556:Middlewares/Third_Party/LoRaWAN/Mac/LoRaMac.c ****  * \param [OUT] fType Frame type
 557:Middlewares/Third_Party/LoRaWAN/Mac/LoRaMac.c ****  *
 558:Middlewares/Third_Party/LoRaWAN/Mac/LoRaMac.c ****  * \retval  LoRaMacStatus_t Status of the operation. Possible returns are:
 559:Middlewares/Third_Party/LoRaWAN/Mac/LoRaMac.c ****  *          returns are:
 560:Middlewares/Third_Party/LoRaWAN/Mac/LoRaMac.c ****  *          \ref LORAMAC_STATUS_OK,
 561:Middlewares/Third_Party/LoRaWAN/Mac/LoRaMac.c ****  *          \ref LORAMAC_STATUS_PARAMETER_INVALID,
 562:Middlewares/Third_Party/LoRaWAN/Mac/LoRaMac.c ****  */
 563:Middlewares/Third_Party/LoRaWAN/Mac/LoRaMac.c **** static LoRaMacStatus_t DetermineFrameType( LoRaMacMessageData_t* macMsg, FType_t* fType );
 564:Middlewares/Third_Party/LoRaWAN/Mac/LoRaMac.c **** 
 565:Middlewares/Third_Party/LoRaWAN/Mac/LoRaMac.c **** /*!
 566:Middlewares/Third_Party/LoRaWAN/Mac/LoRaMac.c ****  * \brief Checks if the retransmission should be stopped in case of a unconfirmed uplink
 567:Middlewares/Third_Party/LoRaWAN/Mac/LoRaMac.c ****  *
 568:Middlewares/Third_Party/LoRaWAN/Mac/LoRaMac.c ****  * \retval Returns true if it should be stopped.
 569:Middlewares/Third_Party/LoRaWAN/Mac/LoRaMac.c ****  */
 570:Middlewares/Third_Party/LoRaWAN/Mac/LoRaMac.c **** static bool CheckRetransUnconfirmedUplink( void );
 571:Middlewares/Third_Party/LoRaWAN/Mac/LoRaMac.c **** 
 572:Middlewares/Third_Party/LoRaWAN/Mac/LoRaMac.c **** /*!
 573:Middlewares/Third_Party/LoRaWAN/Mac/LoRaMac.c ****  * \brief Checks if the retransmission should be stopped in case of a confirmed uplink
 574:Middlewares/Third_Party/LoRaWAN/Mac/LoRaMac.c ****  *
 575:Middlewares/Third_Party/LoRaWAN/Mac/LoRaMac.c ****  * \retval Returns true it should be stopped.
 576:Middlewares/Third_Party/LoRaWAN/Mac/LoRaMac.c ****  */
 577:Middlewares/Third_Party/LoRaWAN/Mac/LoRaMac.c **** static bool CheckRetransConfirmedUplink( void );
 578:Middlewares/Third_Party/LoRaWAN/Mac/LoRaMac.c **** 
 579:Middlewares/Third_Party/LoRaWAN/Mac/LoRaMac.c **** /*!
 580:Middlewares/Third_Party/LoRaWAN/Mac/LoRaMac.c ****  * \brief Stops the uplink retransmission
 581:Middlewares/Third_Party/LoRaWAN/Mac/LoRaMac.c ****  *
 582:Middlewares/Third_Party/LoRaWAN/Mac/LoRaMac.c ****  * \retval Returns true if successful.
 583:Middlewares/Third_Party/LoRaWAN/Mac/LoRaMac.c ****  */
 584:Middlewares/Third_Party/LoRaWAN/Mac/LoRaMac.c **** static bool StopRetransmission( void );
 585:Middlewares/Third_Party/LoRaWAN/Mac/LoRaMac.c **** 
 586:Middlewares/Third_Party/LoRaWAN/Mac/LoRaMac.c **** /*!
 587:Middlewares/Third_Party/LoRaWAN/Mac/LoRaMac.c ****  * \brief Calls the callback to indicate that a context changed
 588:Middlewares/Third_Party/LoRaWAN/Mac/LoRaMac.c ****  */
 589:Middlewares/Third_Party/LoRaWAN/Mac/LoRaMac.c **** static void CallNvmDataChangeCallback( uint16_t notifyFlags );
 590:Middlewares/Third_Party/LoRaWAN/Mac/LoRaMac.c **** 
 591:Middlewares/Third_Party/LoRaWAN/Mac/LoRaMac.c **** /*!
 592:Middlewares/Third_Party/LoRaWAN/Mac/LoRaMac.c ****  * \brief Handles the ACK retries algorithm.
 593:Middlewares/Third_Party/LoRaWAN/Mac/LoRaMac.c ****  *        Increments the re-tries counter up until the specified number of
 594:Middlewares/Third_Party/LoRaWAN/Mac/LoRaMac.c ****  *        trials or the allowed maximum. Decrease the uplink datarate every 2
 595:Middlewares/Third_Party/LoRaWAN/Mac/LoRaMac.c ****  *        trials.
 596:Middlewares/Third_Party/LoRaWAN/Mac/LoRaMac.c ****  */
 597:Middlewares/Third_Party/LoRaWAN/Mac/LoRaMac.c **** static void AckTimeoutRetriesProcess( void );
 598:Middlewares/Third_Party/LoRaWAN/Mac/LoRaMac.c **** 
 599:Middlewares/Third_Party/LoRaWAN/Mac/LoRaMac.c **** /*!
 600:Middlewares/Third_Party/LoRaWAN/Mac/LoRaMac.c ****  * \brief Finalizes the ACK retries algorithm.
 601:Middlewares/Third_Party/LoRaWAN/Mac/LoRaMac.c ****  *        If no ACK is received restores the default channels
 602:Middlewares/Third_Party/LoRaWAN/Mac/LoRaMac.c ****  */
 603:Middlewares/Third_Party/LoRaWAN/Mac/LoRaMac.c **** static void AckTimeoutRetriesFinalize( void );
ARM GAS  /tmp/cc7YZJrH.s 			page 12


 604:Middlewares/Third_Party/LoRaWAN/Mac/LoRaMac.c **** 
 605:Middlewares/Third_Party/LoRaWAN/Mac/LoRaMac.c **** /*!
 606:Middlewares/Third_Party/LoRaWAN/Mac/LoRaMac.c ****  * \brief Verifies if a request is pending currently
 607:Middlewares/Third_Party/LoRaWAN/Mac/LoRaMac.c ****  *
 608:Middlewares/Third_Party/LoRaWAN/Mac/LoRaMac.c ****  *\retval 1: Request pending, 0: request not pending
 609:Middlewares/Third_Party/LoRaWAN/Mac/LoRaMac.c ****  */
 610:Middlewares/Third_Party/LoRaWAN/Mac/LoRaMac.c **** static uint8_t IsRequestPending( void );
 611:Middlewares/Third_Party/LoRaWAN/Mac/LoRaMac.c **** 
 612:Middlewares/Third_Party/LoRaWAN/Mac/LoRaMac.c **** /*!
 613:Middlewares/Third_Party/LoRaWAN/Mac/LoRaMac.c ****  * \brief Enabled the possibility to perform requests
 614:Middlewares/Third_Party/LoRaWAN/Mac/LoRaMac.c ****  *
 615:Middlewares/Third_Party/LoRaWAN/Mac/LoRaMac.c ****  * \param [IN] requestState Request permission state
 616:Middlewares/Third_Party/LoRaWAN/Mac/LoRaMac.c ****  */
 617:Middlewares/Third_Party/LoRaWAN/Mac/LoRaMac.c **** static void LoRaMacEnableRequests( LoRaMacRequestHandling_t requestState );
 618:Middlewares/Third_Party/LoRaWAN/Mac/LoRaMac.c **** 
 619:Middlewares/Third_Party/LoRaWAN/Mac/LoRaMac.c **** /*!
 620:Middlewares/Third_Party/LoRaWAN/Mac/LoRaMac.c ****  * \brief This function verifies if a RX abort occurred
 621:Middlewares/Third_Party/LoRaWAN/Mac/LoRaMac.c ****  */
 622:Middlewares/Third_Party/LoRaWAN/Mac/LoRaMac.c **** static void LoRaMacCheckForRxAbort( void );
 623:Middlewares/Third_Party/LoRaWAN/Mac/LoRaMac.c **** 
 624:Middlewares/Third_Party/LoRaWAN/Mac/LoRaMac.c **** /*!
 625:Middlewares/Third_Party/LoRaWAN/Mac/LoRaMac.c ****  * \brief This function verifies if a beacon acquisition MLME
 626:Middlewares/Third_Party/LoRaWAN/Mac/LoRaMac.c ****  *        request was pending
 627:Middlewares/Third_Party/LoRaWAN/Mac/LoRaMac.c ****  *
 628:Middlewares/Third_Party/LoRaWAN/Mac/LoRaMac.c ****  * \retval 1: Request pending, 0: no request pending
 629:Middlewares/Third_Party/LoRaWAN/Mac/LoRaMac.c ****  */
 630:Middlewares/Third_Party/LoRaWAN/Mac/LoRaMac.c **** static uint8_t LoRaMacCheckForBeaconAcquisition( void );
 631:Middlewares/Third_Party/LoRaWAN/Mac/LoRaMac.c **** 
 632:Middlewares/Third_Party/LoRaWAN/Mac/LoRaMac.c **** /*!
 633:Middlewares/Third_Party/LoRaWAN/Mac/LoRaMac.c ****  * \brief This function handles join request
 634:Middlewares/Third_Party/LoRaWAN/Mac/LoRaMac.c ****  */
 635:Middlewares/Third_Party/LoRaWAN/Mac/LoRaMac.c **** static void LoRaMacHandleMlmeRequest( void );
 636:Middlewares/Third_Party/LoRaWAN/Mac/LoRaMac.c **** 
 637:Middlewares/Third_Party/LoRaWAN/Mac/LoRaMac.c **** /*!
 638:Middlewares/Third_Party/LoRaWAN/Mac/LoRaMac.c ****  * \brief This function handles mcps request
 639:Middlewares/Third_Party/LoRaWAN/Mac/LoRaMac.c ****  */
 640:Middlewares/Third_Party/LoRaWAN/Mac/LoRaMac.c **** static void LoRaMacHandleMcpsRequest( void );
 641:Middlewares/Third_Party/LoRaWAN/Mac/LoRaMac.c **** 
 642:Middlewares/Third_Party/LoRaWAN/Mac/LoRaMac.c **** /*!
 643:Middlewares/Third_Party/LoRaWAN/Mac/LoRaMac.c ****  * \brief This function handles callback events for requests
 644:Middlewares/Third_Party/LoRaWAN/Mac/LoRaMac.c ****  */
 645:Middlewares/Third_Party/LoRaWAN/Mac/LoRaMac.c **** static void LoRaMacHandleRequestEvents( void );
 646:Middlewares/Third_Party/LoRaWAN/Mac/LoRaMac.c **** 
 647:Middlewares/Third_Party/LoRaWAN/Mac/LoRaMac.c **** /*!
 648:Middlewares/Third_Party/LoRaWAN/Mac/LoRaMac.c ****  * \brief This function handles callback events for indications
 649:Middlewares/Third_Party/LoRaWAN/Mac/LoRaMac.c ****  */
 650:Middlewares/Third_Party/LoRaWAN/Mac/LoRaMac.c **** static void LoRaMacHandleIndicationEvents( void );
 651:Middlewares/Third_Party/LoRaWAN/Mac/LoRaMac.c **** 
 652:Middlewares/Third_Party/LoRaWAN/Mac/LoRaMac.c **** /*!
 653:Middlewares/Third_Party/LoRaWAN/Mac/LoRaMac.c ****  * \brief This function handles callback events for NVM updates
 654:Middlewares/Third_Party/LoRaWAN/Mac/LoRaMac.c ****  *
 655:Middlewares/Third_Party/LoRaWAN/Mac/LoRaMac.c ****  * \param [IN] nvmData Data structure containing NVM data.
 656:Middlewares/Third_Party/LoRaWAN/Mac/LoRaMac.c ****  */
 657:Middlewares/Third_Party/LoRaWAN/Mac/LoRaMac.c **** static void LoRaMacHandleNvm( LoRaMacNvmData_t* nvmData );
 658:Middlewares/Third_Party/LoRaWAN/Mac/LoRaMac.c **** 
 659:Middlewares/Third_Party/LoRaWAN/Mac/LoRaMac.c **** /*!
 660:Middlewares/Third_Party/LoRaWAN/Mac/LoRaMac.c ****  * Structure used to store the radio Tx event data
ARM GAS  /tmp/cc7YZJrH.s 			page 13


 661:Middlewares/Third_Party/LoRaWAN/Mac/LoRaMac.c ****  */
 662:Middlewares/Third_Party/LoRaWAN/Mac/LoRaMac.c **** struct
 663:Middlewares/Third_Party/LoRaWAN/Mac/LoRaMac.c **** {
 664:Middlewares/Third_Party/LoRaWAN/Mac/LoRaMac.c ****     TimerTime_t CurTime;
 665:Middlewares/Third_Party/LoRaWAN/Mac/LoRaMac.c **** }TxDoneParams;
 666:Middlewares/Third_Party/LoRaWAN/Mac/LoRaMac.c **** 
 667:Middlewares/Third_Party/LoRaWAN/Mac/LoRaMac.c **** /*!
 668:Middlewares/Third_Party/LoRaWAN/Mac/LoRaMac.c ****  * Structure used to store the radio Rx event data
 669:Middlewares/Third_Party/LoRaWAN/Mac/LoRaMac.c ****  */
 670:Middlewares/Third_Party/LoRaWAN/Mac/LoRaMac.c **** struct
 671:Middlewares/Third_Party/LoRaWAN/Mac/LoRaMac.c **** {
 672:Middlewares/Third_Party/LoRaWAN/Mac/LoRaMac.c ****     TimerTime_t LastRxDone;
 673:Middlewares/Third_Party/LoRaWAN/Mac/LoRaMac.c ****     uint8_t *Payload;
 674:Middlewares/Third_Party/LoRaWAN/Mac/LoRaMac.c ****     uint16_t Size;
 675:Middlewares/Third_Party/LoRaWAN/Mac/LoRaMac.c ****     int16_t Rssi;
 676:Middlewares/Third_Party/LoRaWAN/Mac/LoRaMac.c ****     int8_t Snr;
 677:Middlewares/Third_Party/LoRaWAN/Mac/LoRaMac.c **** }RxDoneParams;
 678:Middlewares/Third_Party/LoRaWAN/Mac/LoRaMac.c **** 
 679:Middlewares/Third_Party/LoRaWAN/Mac/LoRaMac.c **** static void OnRadioTxDone( void )
 680:Middlewares/Third_Party/LoRaWAN/Mac/LoRaMac.c **** {
 681:Middlewares/Third_Party/LoRaWAN/Mac/LoRaMac.c ****     TxDoneParams.CurTime = TimerGetCurrentTime( );
 682:Middlewares/Third_Party/LoRaWAN/Mac/LoRaMac.c ****     MacCtx.LastTxSysTime = SysTimeGet( );
 683:Middlewares/Third_Party/LoRaWAN/Mac/LoRaMac.c **** 
 684:Middlewares/Third_Party/LoRaWAN/Mac/LoRaMac.c ****     LoRaMacRadioEvents.Events.TxDone = 1;
 685:Middlewares/Third_Party/LoRaWAN/Mac/LoRaMac.c **** 
 686:Middlewares/Third_Party/LoRaWAN/Mac/LoRaMac.c ****     if( ( MacCtx.MacCallbacks != NULL ) && ( MacCtx.MacCallbacks->MacProcessNotify != NULL ) )
 687:Middlewares/Third_Party/LoRaWAN/Mac/LoRaMac.c ****     {
 688:Middlewares/Third_Party/LoRaWAN/Mac/LoRaMac.c ****         MacCtx.MacCallbacks->MacProcessNotify( );
 689:Middlewares/Third_Party/LoRaWAN/Mac/LoRaMac.c ****     }
 690:Middlewares/Third_Party/LoRaWAN/Mac/LoRaMac.c ****     MW_LOG(TS_ON, VLEVEL_M, "MAC txDone\r\n" );
 691:Middlewares/Third_Party/LoRaWAN/Mac/LoRaMac.c **** }
 692:Middlewares/Third_Party/LoRaWAN/Mac/LoRaMac.c **** 
 693:Middlewares/Third_Party/LoRaWAN/Mac/LoRaMac.c **** static void OnRadioRxDone( uint8_t *payload, uint16_t size, int16_t rssi, int8_t snr )
 694:Middlewares/Third_Party/LoRaWAN/Mac/LoRaMac.c **** {
 695:Middlewares/Third_Party/LoRaWAN/Mac/LoRaMac.c ****     RxDoneParams.LastRxDone = TimerGetCurrentTime( );
 696:Middlewares/Third_Party/LoRaWAN/Mac/LoRaMac.c ****     RxDoneParams.Payload = payload;
 697:Middlewares/Third_Party/LoRaWAN/Mac/LoRaMac.c ****     RxDoneParams.Size = size;
 698:Middlewares/Third_Party/LoRaWAN/Mac/LoRaMac.c ****     RxDoneParams.Rssi = rssi;
 699:Middlewares/Third_Party/LoRaWAN/Mac/LoRaMac.c ****     RxDoneParams.Snr = snr;
 700:Middlewares/Third_Party/LoRaWAN/Mac/LoRaMac.c **** 
 701:Middlewares/Third_Party/LoRaWAN/Mac/LoRaMac.c ****     LoRaMacRadioEvents.Events.RxDone = 1;
 702:Middlewares/Third_Party/LoRaWAN/Mac/LoRaMac.c **** 
 703:Middlewares/Third_Party/LoRaWAN/Mac/LoRaMac.c ****     if( ( MacCtx.MacCallbacks != NULL ) && ( MacCtx.MacCallbacks->MacProcessNotify != NULL ) )
 704:Middlewares/Third_Party/LoRaWAN/Mac/LoRaMac.c ****     {
 705:Middlewares/Third_Party/LoRaWAN/Mac/LoRaMac.c ****         MacCtx.MacCallbacks->MacProcessNotify( );
 706:Middlewares/Third_Party/LoRaWAN/Mac/LoRaMac.c ****     }
 707:Middlewares/Third_Party/LoRaWAN/Mac/LoRaMac.c ****     MW_LOG(TS_ON, VLEVEL_M, "MAC rxDone\r\n" );
 708:Middlewares/Third_Party/LoRaWAN/Mac/LoRaMac.c **** }
 709:Middlewares/Third_Party/LoRaWAN/Mac/LoRaMac.c **** 
 710:Middlewares/Third_Party/LoRaWAN/Mac/LoRaMac.c **** static void OnRadioTxTimeout( void )
 711:Middlewares/Third_Party/LoRaWAN/Mac/LoRaMac.c **** {
  26              		.loc 1 711 1 view -0
  27              		.cfi_startproc
  28              		@ args = 0, pretend = 0, frame = 0
  29              		@ frame_needed = 0, uses_anonymous_args = 0
  30 0000 08B5     		push	{r3, lr}
  31              	.LCFI0:
ARM GAS  /tmp/cc7YZJrH.s 			page 14


  32              		.cfi_def_cfa_offset 8
  33              		.cfi_offset 3, -8
  34              		.cfi_offset 14, -4
 712:Middlewares/Third_Party/LoRaWAN/Mac/LoRaMac.c ****     LoRaMacRadioEvents.Events.TxTimeout = 1;
  35              		.loc 1 712 5 view .LVU1
  36              		.loc 1 712 41 is_stmt 0 view .LVU2
  37 0002 064A     		ldr	r2, .L4
  38 0004 1378     		ldrb	r3, [r2]	@ zero_extendqisi2
  39 0006 43F00403 		orr	r3, r3, #4
  40 000a 1370     		strb	r3, [r2]
 713:Middlewares/Third_Party/LoRaWAN/Mac/LoRaMac.c **** 
 714:Middlewares/Third_Party/LoRaWAN/Mac/LoRaMac.c ****     if( ( MacCtx.MacCallbacks != NULL ) && ( MacCtx.MacCallbacks->MacProcessNotify != NULL ) )
  41              		.loc 1 714 5 is_stmt 1 view .LVU3
  42              		.loc 1 714 17 is_stmt 0 view .LVU4
  43 000c 044B     		ldr	r3, .L4+4
  44 000e D3F84833 		ldr	r3, [r3, #840]
  45              		.loc 1 714 7 view .LVU5
  46 0012 13B1     		cbz	r3, .L1
  47              		.loc 1 714 65 discriminator 1 view .LVU6
  48 0014 1B69     		ldr	r3, [r3, #16]
  49              		.loc 1 714 41 discriminator 1 view .LVU7
  50 0016 03B1     		cbz	r3, .L1
 715:Middlewares/Third_Party/LoRaWAN/Mac/LoRaMac.c ****     {
 716:Middlewares/Third_Party/LoRaWAN/Mac/LoRaMac.c ****         MacCtx.MacCallbacks->MacProcessNotify( );
  51              		.loc 1 716 9 is_stmt 1 view .LVU8
  52 0018 9847     		blx	r3
  53              	.LVL0:
 717:Middlewares/Third_Party/LoRaWAN/Mac/LoRaMac.c ****     }
 718:Middlewares/Third_Party/LoRaWAN/Mac/LoRaMac.c ****     MW_LOG(TS_ON, VLEVEL_M, "MAC txTimeOut\r\n" );
  54              		.loc 1 718 50 view .LVU9
  55              	.L1:
 719:Middlewares/Third_Party/LoRaWAN/Mac/LoRaMac.c **** }
  56              		.loc 1 719 1 is_stmt 0 view .LVU10
  57 001a 08BD     		pop	{r3, pc}
  58              	.L5:
  59              		.align	2
  60              	.L4:
  61 001c 00000000 		.word	.LANCHOR0
  62 0020 00000000 		.word	.LANCHOR1
  63              		.cfi_endproc
  64              	.LFE106:
  66              		.section	.text.OnRadioRxError,"ax",%progbits
  67              		.align	1
  68              		.syntax unified
  69              		.thumb
  70              		.thumb_func
  71              		.fpu softvfp
  73              	OnRadioRxError:
  74              	.LFB107:
 720:Middlewares/Third_Party/LoRaWAN/Mac/LoRaMac.c **** 
 721:Middlewares/Third_Party/LoRaWAN/Mac/LoRaMac.c **** static void OnRadioRxError( void )
 722:Middlewares/Third_Party/LoRaWAN/Mac/LoRaMac.c **** {
  75              		.loc 1 722 1 is_stmt 1 view -0
  76              		.cfi_startproc
  77              		@ args = 0, pretend = 0, frame = 0
  78              		@ frame_needed = 0, uses_anonymous_args = 0
  79 0000 08B5     		push	{r3, lr}
ARM GAS  /tmp/cc7YZJrH.s 			page 15


  80              	.LCFI1:
  81              		.cfi_def_cfa_offset 8
  82              		.cfi_offset 3, -8
  83              		.cfi_offset 14, -4
 723:Middlewares/Third_Party/LoRaWAN/Mac/LoRaMac.c ****     LoRaMacRadioEvents.Events.RxError = 1;
  84              		.loc 1 723 5 view .LVU12
  85              		.loc 1 723 39 is_stmt 0 view .LVU13
  86 0002 064A     		ldr	r2, .L9
  87 0004 1378     		ldrb	r3, [r2]	@ zero_extendqisi2
  88 0006 43F00203 		orr	r3, r3, #2
  89 000a 1370     		strb	r3, [r2]
 724:Middlewares/Third_Party/LoRaWAN/Mac/LoRaMac.c **** 
 725:Middlewares/Third_Party/LoRaWAN/Mac/LoRaMac.c ****     if( ( MacCtx.MacCallbacks != NULL ) && ( MacCtx.MacCallbacks->MacProcessNotify != NULL ) )
  90              		.loc 1 725 5 is_stmt 1 view .LVU14
  91              		.loc 1 725 17 is_stmt 0 view .LVU15
  92 000c 044B     		ldr	r3, .L9+4
  93 000e D3F84833 		ldr	r3, [r3, #840]
  94              		.loc 1 725 7 view .LVU16
  95 0012 13B1     		cbz	r3, .L6
  96              		.loc 1 725 65 discriminator 1 view .LVU17
  97 0014 1B69     		ldr	r3, [r3, #16]
  98              		.loc 1 725 41 discriminator 1 view .LVU18
  99 0016 03B1     		cbz	r3, .L6
 726:Middlewares/Third_Party/LoRaWAN/Mac/LoRaMac.c ****     {
 727:Middlewares/Third_Party/LoRaWAN/Mac/LoRaMac.c ****         MacCtx.MacCallbacks->MacProcessNotify( );
 100              		.loc 1 727 9 is_stmt 1 view .LVU19
 101 0018 9847     		blx	r3
 102              	.LVL1:
 103              	.L6:
 728:Middlewares/Third_Party/LoRaWAN/Mac/LoRaMac.c ****     }
 729:Middlewares/Third_Party/LoRaWAN/Mac/LoRaMac.c **** }
 104              		.loc 1 729 1 is_stmt 0 view .LVU20
 105 001a 08BD     		pop	{r3, pc}
 106              	.L10:
 107              		.align	2
 108              	.L9:
 109 001c 00000000 		.word	.LANCHOR0
 110 0020 00000000 		.word	.LANCHOR1
 111              		.cfi_endproc
 112              	.LFE107:
 114              		.section	.text.OnRadioRxTimeout,"ax",%progbits
 115              		.align	1
 116              		.syntax unified
 117              		.thumb
 118              		.thumb_func
 119              		.fpu softvfp
 121              	OnRadioRxTimeout:
 122              	.LFB108:
 730:Middlewares/Third_Party/LoRaWAN/Mac/LoRaMac.c **** 
 731:Middlewares/Third_Party/LoRaWAN/Mac/LoRaMac.c **** static void OnRadioRxTimeout( void )
 732:Middlewares/Third_Party/LoRaWAN/Mac/LoRaMac.c **** {
 123              		.loc 1 732 1 is_stmt 1 view -0
 124              		.cfi_startproc
 125              		@ args = 0, pretend = 0, frame = 0
 126              		@ frame_needed = 0, uses_anonymous_args = 0
 127 0000 08B5     		push	{r3, lr}
 128              	.LCFI2:
ARM GAS  /tmp/cc7YZJrH.s 			page 16


 129              		.cfi_def_cfa_offset 8
 130              		.cfi_offset 3, -8
 131              		.cfi_offset 14, -4
 733:Middlewares/Third_Party/LoRaWAN/Mac/LoRaMac.c ****     LoRaMacRadioEvents.Events.RxTimeout = 1;
 132              		.loc 1 733 5 view .LVU22
 133              		.loc 1 733 41 is_stmt 0 view .LVU23
 134 0002 064A     		ldr	r2, .L14
 135 0004 1378     		ldrb	r3, [r2]	@ zero_extendqisi2
 136 0006 43F00103 		orr	r3, r3, #1
 137 000a 1370     		strb	r3, [r2]
 734:Middlewares/Third_Party/LoRaWAN/Mac/LoRaMac.c **** 
 735:Middlewares/Third_Party/LoRaWAN/Mac/LoRaMac.c ****     if( ( MacCtx.MacCallbacks != NULL ) && ( MacCtx.MacCallbacks->MacProcessNotify != NULL ) )
 138              		.loc 1 735 5 is_stmt 1 view .LVU24
 139              		.loc 1 735 17 is_stmt 0 view .LVU25
 140 000c 044B     		ldr	r3, .L14+4
 141 000e D3F84833 		ldr	r3, [r3, #840]
 142              		.loc 1 735 7 view .LVU26
 143 0012 13B1     		cbz	r3, .L11
 144              		.loc 1 735 65 discriminator 1 view .LVU27
 145 0014 1B69     		ldr	r3, [r3, #16]
 146              		.loc 1 735 41 discriminator 1 view .LVU28
 147 0016 03B1     		cbz	r3, .L11
 736:Middlewares/Third_Party/LoRaWAN/Mac/LoRaMac.c ****     {
 737:Middlewares/Third_Party/LoRaWAN/Mac/LoRaMac.c ****         MacCtx.MacCallbacks->MacProcessNotify( );
 148              		.loc 1 737 9 is_stmt 1 view .LVU29
 149 0018 9847     		blx	r3
 150              	.LVL2:
 738:Middlewares/Third_Party/LoRaWAN/Mac/LoRaMac.c ****     }
 739:Middlewares/Third_Party/LoRaWAN/Mac/LoRaMac.c ****     MW_LOG(TS_ON, VLEVEL_M, "MAC rxTimeOut\r\n" );
 151              		.loc 1 739 50 view .LVU30
 152              	.L11:
 740:Middlewares/Third_Party/LoRaWAN/Mac/LoRaMac.c **** }
 153              		.loc 1 740 1 is_stmt 0 view .LVU31
 154 001a 08BD     		pop	{r3, pc}
 155              	.L15:
 156              		.align	2
 157              	.L14:
 158 001c 00000000 		.word	.LANCHOR0
 159 0020 00000000 		.word	.LANCHOR1
 160              		.cfi_endproc
 161              	.LFE108:
 163              		.section	.text.UpdateRxSlotIdleState,"ax",%progbits
 164              		.align	1
 165              		.syntax unified
 166              		.thumb
 167              		.thumb_func
 168              		.fpu softvfp
 170              	UpdateRxSlotIdleState:
 171              	.LFB109:
 741:Middlewares/Third_Party/LoRaWAN/Mac/LoRaMac.c **** 
 742:Middlewares/Third_Party/LoRaWAN/Mac/LoRaMac.c **** static void UpdateRxSlotIdleState( void )
 743:Middlewares/Third_Party/LoRaWAN/Mac/LoRaMac.c **** {
 172              		.loc 1 743 1 is_stmt 1 view -0
 173              		.cfi_startproc
 174              		@ args = 0, pretend = 0, frame = 0
 175              		@ frame_needed = 0, uses_anonymous_args = 0
 176              		@ link register save eliminated.
ARM GAS  /tmp/cc7YZJrH.s 			page 17


 744:Middlewares/Third_Party/LoRaWAN/Mac/LoRaMac.c ****     if( Nvm.MacGroup2.DeviceClass != CLASS_C )
 177              		.loc 1 744 5 view .LVU33
 178              		.loc 1 744 22 is_stmt 0 view .LVU34
 179 0000 074B     		ldr	r3, .L19
 180 0002 93F8FC30 		ldrb	r3, [r3, #252]	@ zero_extendqisi2
 181              		.loc 1 744 7 view .LVU35
 182 0006 022B     		cmp	r3, #2
 183 0008 04D0     		beq	.L17
 745:Middlewares/Third_Party/LoRaWAN/Mac/LoRaMac.c ****     {
 746:Middlewares/Third_Party/LoRaWAN/Mac/LoRaMac.c ****         MacCtx.RxSlot = RX_SLOT_NONE;
 184              		.loc 1 746 9 is_stmt 1 view .LVU36
 185              		.loc 1 746 23 is_stmt 0 view .LVU37
 186 000a 064B     		ldr	r3, .L19+4
 187 000c 0622     		movs	r2, #6
 188 000e 83F88024 		strb	r2, [r3, #1152]
 189 0012 7047     		bx	lr
 190              	.L17:
 747:Middlewares/Third_Party/LoRaWAN/Mac/LoRaMac.c ****     }
 748:Middlewares/Third_Party/LoRaWAN/Mac/LoRaMac.c ****     else
 749:Middlewares/Third_Party/LoRaWAN/Mac/LoRaMac.c ****     {
 750:Middlewares/Third_Party/LoRaWAN/Mac/LoRaMac.c ****         MacCtx.RxSlot = RX_SLOT_WIN_CLASS_C;
 191              		.loc 1 750 9 is_stmt 1 view .LVU38
 192              		.loc 1 750 23 is_stmt 0 view .LVU39
 193 0014 034B     		ldr	r3, .L19+4
 194 0016 0222     		movs	r2, #2
 195 0018 83F88024 		strb	r2, [r3, #1152]
 751:Middlewares/Third_Party/LoRaWAN/Mac/LoRaMac.c ****     }
 752:Middlewares/Third_Party/LoRaWAN/Mac/LoRaMac.c **** }
 196              		.loc 1 752 1 view .LVU40
 197 001c 7047     		bx	lr
 198              	.L20:
 199 001e 00BF     		.align	2
 200              	.L19:
 201 0020 00000000 		.word	.LANCHOR2
 202 0024 00000000 		.word	.LANCHOR1
 203              		.cfi_endproc
 204              	.LFE109:
 206              		.section	.text.LoRaMacEnableRequests,"ax",%progbits
 207              		.align	1
 208              		.syntax unified
 209              		.thumb
 210              		.thumb_func
 211              		.fpu softvfp
 213              	LoRaMacEnableRequests:
 214              	.LVL3:
 215              	.LFB119:
 753:Middlewares/Third_Party/LoRaWAN/Mac/LoRaMac.c **** 
 754:Middlewares/Third_Party/LoRaWAN/Mac/LoRaMac.c **** static void ProcessRadioTxDone( void )
 755:Middlewares/Third_Party/LoRaWAN/Mac/LoRaMac.c **** {
 756:Middlewares/Third_Party/LoRaWAN/Mac/LoRaMac.c ****     GetPhyParams_t getPhy;
 757:Middlewares/Third_Party/LoRaWAN/Mac/LoRaMac.c ****     PhyParam_t phyParam;
 758:Middlewares/Third_Party/LoRaWAN/Mac/LoRaMac.c ****     SetBandTxDoneParams_t txDone;
 759:Middlewares/Third_Party/LoRaWAN/Mac/LoRaMac.c **** 
 760:Middlewares/Third_Party/LoRaWAN/Mac/LoRaMac.c ****     if( Nvm.MacGroup2.DeviceClass != CLASS_C )
 761:Middlewares/Third_Party/LoRaWAN/Mac/LoRaMac.c ****     {
 762:Middlewares/Third_Party/LoRaWAN/Mac/LoRaMac.c ****         Radio.Sleep( );
 763:Middlewares/Third_Party/LoRaWAN/Mac/LoRaMac.c ****     }
ARM GAS  /tmp/cc7YZJrH.s 			page 18


 764:Middlewares/Third_Party/LoRaWAN/Mac/LoRaMac.c ****     // Setup timers
 765:Middlewares/Third_Party/LoRaWAN/Mac/LoRaMac.c ****     TimerSetValue( &MacCtx.RxWindowTimer1, MacCtx.RxWindow1Delay );
 766:Middlewares/Third_Party/LoRaWAN/Mac/LoRaMac.c ****     TimerStart( &MacCtx.RxWindowTimer1 );
 767:Middlewares/Third_Party/LoRaWAN/Mac/LoRaMac.c ****     TimerSetValue( &MacCtx.RxWindowTimer2, MacCtx.RxWindow2Delay );
 768:Middlewares/Third_Party/LoRaWAN/Mac/LoRaMac.c ****     TimerStart( &MacCtx.RxWindowTimer2 );
 769:Middlewares/Third_Party/LoRaWAN/Mac/LoRaMac.c **** 
 770:Middlewares/Third_Party/LoRaWAN/Mac/LoRaMac.c ****     if( ( Nvm.MacGroup2.DeviceClass == CLASS_C ) || ( MacCtx.NodeAckRequested == true ) )
 771:Middlewares/Third_Party/LoRaWAN/Mac/LoRaMac.c ****     {
 772:Middlewares/Third_Party/LoRaWAN/Mac/LoRaMac.c ****         getPhy.Attribute = PHY_ACK_TIMEOUT;
 773:Middlewares/Third_Party/LoRaWAN/Mac/LoRaMac.c ****         phyParam = RegionGetPhyParam( Nvm.MacGroup2.Region, &getPhy );
 774:Middlewares/Third_Party/LoRaWAN/Mac/LoRaMac.c ****         TimerSetValue( &MacCtx.AckTimeoutTimer, MacCtx.RxWindow2Delay + phyParam.Value );
 775:Middlewares/Third_Party/LoRaWAN/Mac/LoRaMac.c ****         TimerStart( &MacCtx.AckTimeoutTimer );
 776:Middlewares/Third_Party/LoRaWAN/Mac/LoRaMac.c ****     }
 777:Middlewares/Third_Party/LoRaWAN/Mac/LoRaMac.c **** 
 778:Middlewares/Third_Party/LoRaWAN/Mac/LoRaMac.c ****     // Update Aggregated last tx done time
 779:Middlewares/Third_Party/LoRaWAN/Mac/LoRaMac.c ****     Nvm.MacGroup1.LastTxDoneTime = TxDoneParams.CurTime;
 780:Middlewares/Third_Party/LoRaWAN/Mac/LoRaMac.c **** 
 781:Middlewares/Third_Party/LoRaWAN/Mac/LoRaMac.c ****     // Update last tx done time for the current channel
 782:Middlewares/Third_Party/LoRaWAN/Mac/LoRaMac.c ****     txDone.Channel = MacCtx.Channel;
 783:Middlewares/Third_Party/LoRaWAN/Mac/LoRaMac.c ****     txDone.LastTxDoneTime = TxDoneParams.CurTime;
 784:Middlewares/Third_Party/LoRaWAN/Mac/LoRaMac.c ****     txDone.ElapsedTimeSinceStartUp = SysTimeSub( SysTimeGetMcuTime( ), Nvm.MacGroup2.Initialization
 785:Middlewares/Third_Party/LoRaWAN/Mac/LoRaMac.c ****     txDone.LastTxAirTime = MacCtx.TxTimeOnAir;
 786:Middlewares/Third_Party/LoRaWAN/Mac/LoRaMac.c ****     txDone.Joined  = true;
 787:Middlewares/Third_Party/LoRaWAN/Mac/LoRaMac.c ****     if( Nvm.MacGroup2.NetworkActivation == ACTIVATION_TYPE_NONE )
 788:Middlewares/Third_Party/LoRaWAN/Mac/LoRaMac.c ****     {
 789:Middlewares/Third_Party/LoRaWAN/Mac/LoRaMac.c ****         txDone.Joined  = false;
 790:Middlewares/Third_Party/LoRaWAN/Mac/LoRaMac.c ****     }
 791:Middlewares/Third_Party/LoRaWAN/Mac/LoRaMac.c **** 
 792:Middlewares/Third_Party/LoRaWAN/Mac/LoRaMac.c ****     RegionSetBandTxDone( Nvm.MacGroup2.Region, &txDone );
 793:Middlewares/Third_Party/LoRaWAN/Mac/LoRaMac.c **** 
 794:Middlewares/Third_Party/LoRaWAN/Mac/LoRaMac.c ****     if( MacCtx.NodeAckRequested == false )
 795:Middlewares/Third_Party/LoRaWAN/Mac/LoRaMac.c ****     {
 796:Middlewares/Third_Party/LoRaWAN/Mac/LoRaMac.c ****         MacCtx.McpsConfirm.Status = LORAMAC_EVENT_INFO_STATUS_OK;
 797:Middlewares/Third_Party/LoRaWAN/Mac/LoRaMac.c ****     }
 798:Middlewares/Third_Party/LoRaWAN/Mac/LoRaMac.c **** }
 799:Middlewares/Third_Party/LoRaWAN/Mac/LoRaMac.c **** 
 800:Middlewares/Third_Party/LoRaWAN/Mac/LoRaMac.c **** static void PrepareRxDoneAbort( void )
 801:Middlewares/Third_Party/LoRaWAN/Mac/LoRaMac.c **** {
 802:Middlewares/Third_Party/LoRaWAN/Mac/LoRaMac.c ****     MacCtx.MacState |= LORAMAC_RX_ABORT;
 803:Middlewares/Third_Party/LoRaWAN/Mac/LoRaMac.c **** 
 804:Middlewares/Third_Party/LoRaWAN/Mac/LoRaMac.c ****     if( MacCtx.NodeAckRequested == true )
 805:Middlewares/Third_Party/LoRaWAN/Mac/LoRaMac.c ****     {
 806:Middlewares/Third_Party/LoRaWAN/Mac/LoRaMac.c ****         OnAckTimeoutTimerEvent( NULL );
 807:Middlewares/Third_Party/LoRaWAN/Mac/LoRaMac.c ****     }
 808:Middlewares/Third_Party/LoRaWAN/Mac/LoRaMac.c **** 
 809:Middlewares/Third_Party/LoRaWAN/Mac/LoRaMac.c ****     MacCtx.MacFlags.Bits.McpsInd = 1;
 810:Middlewares/Third_Party/LoRaWAN/Mac/LoRaMac.c ****     MacCtx.MacFlags.Bits.MacDone = 1;
 811:Middlewares/Third_Party/LoRaWAN/Mac/LoRaMac.c **** 
 812:Middlewares/Third_Party/LoRaWAN/Mac/LoRaMac.c ****     UpdateRxSlotIdleState( );
 813:Middlewares/Third_Party/LoRaWAN/Mac/LoRaMac.c **** }
 814:Middlewares/Third_Party/LoRaWAN/Mac/LoRaMac.c **** 
 815:Middlewares/Third_Party/LoRaWAN/Mac/LoRaMac.c **** static void ProcessRadioRxDone( void )
 816:Middlewares/Third_Party/LoRaWAN/Mac/LoRaMac.c **** {
 817:Middlewares/Third_Party/LoRaWAN/Mac/LoRaMac.c ****     LoRaMacHeader_t macHdr;
 818:Middlewares/Third_Party/LoRaWAN/Mac/LoRaMac.c ****     ApplyCFListParams_t applyCFList;
 819:Middlewares/Third_Party/LoRaWAN/Mac/LoRaMac.c ****     GetPhyParams_t getPhy;
 820:Middlewares/Third_Party/LoRaWAN/Mac/LoRaMac.c ****     PhyParam_t phyParam;
ARM GAS  /tmp/cc7YZJrH.s 			page 19


 821:Middlewares/Third_Party/LoRaWAN/Mac/LoRaMac.c ****     LoRaMacCryptoStatus_t macCryptoStatus = LORAMAC_CRYPTO_ERROR;
 822:Middlewares/Third_Party/LoRaWAN/Mac/LoRaMac.c **** 
 823:Middlewares/Third_Party/LoRaWAN/Mac/LoRaMac.c ****     LoRaMacMessageData_t macMsgData;
 824:Middlewares/Third_Party/LoRaWAN/Mac/LoRaMac.c ****     LoRaMacMessageJoinAccept_t macMsgJoinAccept;
 825:Middlewares/Third_Party/LoRaWAN/Mac/LoRaMac.c ****     uint8_t *payload = RxDoneParams.Payload;
 826:Middlewares/Third_Party/LoRaWAN/Mac/LoRaMac.c ****     uint16_t size = RxDoneParams.Size;
 827:Middlewares/Third_Party/LoRaWAN/Mac/LoRaMac.c ****     int16_t rssi = RxDoneParams.Rssi;
 828:Middlewares/Third_Party/LoRaWAN/Mac/LoRaMac.c ****     int8_t snr = RxDoneParams.Snr;
 829:Middlewares/Third_Party/LoRaWAN/Mac/LoRaMac.c **** 
 830:Middlewares/Third_Party/LoRaWAN/Mac/LoRaMac.c ****     uint8_t pktHeaderLen = 0;
 831:Middlewares/Third_Party/LoRaWAN/Mac/LoRaMac.c **** 
 832:Middlewares/Third_Party/LoRaWAN/Mac/LoRaMac.c ****     uint32_t downLinkCounter = 0;
 833:Middlewares/Third_Party/LoRaWAN/Mac/LoRaMac.c ****     uint32_t address = Nvm.MacGroup2.DevAddr;
 834:Middlewares/Third_Party/LoRaWAN/Mac/LoRaMac.c ****     uint8_t multicast = 0;
 835:Middlewares/Third_Party/LoRaWAN/Mac/LoRaMac.c ****     AddressIdentifier_t addrID = UNICAST_DEV_ADDR;
 836:Middlewares/Third_Party/LoRaWAN/Mac/LoRaMac.c ****     FCntIdentifier_t fCntID;
 837:Middlewares/Third_Party/LoRaWAN/Mac/LoRaMac.c **** 
 838:Middlewares/Third_Party/LoRaWAN/Mac/LoRaMac.c ****     MacCtx.McpsConfirm.AckReceived = false;
 839:Middlewares/Third_Party/LoRaWAN/Mac/LoRaMac.c ****     MacCtx.RxStatus.Rssi = rssi;
 840:Middlewares/Third_Party/LoRaWAN/Mac/LoRaMac.c ****     MacCtx.RxStatus.Snr = snr;
 841:Middlewares/Third_Party/LoRaWAN/Mac/LoRaMac.c ****     MacCtx.RxStatus.RxSlot = MacCtx.RxSlot;
 842:Middlewares/Third_Party/LoRaWAN/Mac/LoRaMac.c ****     MacCtx.McpsIndication.Port = 0;
 843:Middlewares/Third_Party/LoRaWAN/Mac/LoRaMac.c ****     MacCtx.McpsIndication.Multicast = 0;
 844:Middlewares/Third_Party/LoRaWAN/Mac/LoRaMac.c ****     MacCtx.McpsIndication.FramePending = 0;
 845:Middlewares/Third_Party/LoRaWAN/Mac/LoRaMac.c ****     MacCtx.McpsIndication.Buffer = NULL;
 846:Middlewares/Third_Party/LoRaWAN/Mac/LoRaMac.c ****     MacCtx.McpsIndication.BufferSize = 0;
 847:Middlewares/Third_Party/LoRaWAN/Mac/LoRaMac.c ****     MacCtx.McpsIndication.RxData = false;
 848:Middlewares/Third_Party/LoRaWAN/Mac/LoRaMac.c ****     MacCtx.McpsIndication.AckReceived = false;
 849:Middlewares/Third_Party/LoRaWAN/Mac/LoRaMac.c ****     MacCtx.McpsIndication.DownLinkCounter = 0;
 850:Middlewares/Third_Party/LoRaWAN/Mac/LoRaMac.c ****     MacCtx.McpsIndication.McpsIndication = MCPS_UNCONFIRMED;
 851:Middlewares/Third_Party/LoRaWAN/Mac/LoRaMac.c ****     MacCtx.McpsIndication.DevAddress = 0;
 852:Middlewares/Third_Party/LoRaWAN/Mac/LoRaMac.c ****     MacCtx.McpsIndication.DeviceTimeAnsReceived = false;
 853:Middlewares/Third_Party/LoRaWAN/Mac/LoRaMac.c **** 
 854:Middlewares/Third_Party/LoRaWAN/Mac/LoRaMac.c ****     Radio.Sleep( );
 855:Middlewares/Third_Party/LoRaWAN/Mac/LoRaMac.c ****     TimerStop( &MacCtx.RxWindowTimer2 );
 856:Middlewares/Third_Party/LoRaWAN/Mac/LoRaMac.c **** 
 857:Middlewares/Third_Party/LoRaWAN/Mac/LoRaMac.c ****     // This function must be called even if we are not in class b mode yet.
 858:Middlewares/Third_Party/LoRaWAN/Mac/LoRaMac.c ****     if( LoRaMacClassBRxBeacon( payload, size ) == true )
 859:Middlewares/Third_Party/LoRaWAN/Mac/LoRaMac.c ****     {
 860:Middlewares/Third_Party/LoRaWAN/Mac/LoRaMac.c ****         MacCtx.MlmeIndication.BeaconInfo.Rssi = rssi;
 861:Middlewares/Third_Party/LoRaWAN/Mac/LoRaMac.c ****         MacCtx.MlmeIndication.BeaconInfo.Snr = snr;
 862:Middlewares/Third_Party/LoRaWAN/Mac/LoRaMac.c ****         return;
 863:Middlewares/Third_Party/LoRaWAN/Mac/LoRaMac.c ****     }
 864:Middlewares/Third_Party/LoRaWAN/Mac/LoRaMac.c ****     // Check if we expect a ping or a multicast slot.
 865:Middlewares/Third_Party/LoRaWAN/Mac/LoRaMac.c ****     if( Nvm.MacGroup2.DeviceClass == CLASS_B )
 866:Middlewares/Third_Party/LoRaWAN/Mac/LoRaMac.c ****     {
 867:Middlewares/Third_Party/LoRaWAN/Mac/LoRaMac.c ****         if( LoRaMacClassBIsPingExpected( ) == true )
 868:Middlewares/Third_Party/LoRaWAN/Mac/LoRaMac.c ****         {
 869:Middlewares/Third_Party/LoRaWAN/Mac/LoRaMac.c ****             LoRaMacClassBSetPingSlotState( PINGSLOT_STATE_CALC_PING_OFFSET );
 870:Middlewares/Third_Party/LoRaWAN/Mac/LoRaMac.c ****             LoRaMacClassBPingSlotTimerEvent( NULL );
 871:Middlewares/Third_Party/LoRaWAN/Mac/LoRaMac.c ****             MacCtx.RxStatus.RxSlot = RX_SLOT_WIN_CLASS_B_PING_SLOT;
 872:Middlewares/Third_Party/LoRaWAN/Mac/LoRaMac.c ****         }
 873:Middlewares/Third_Party/LoRaWAN/Mac/LoRaMac.c ****         else if( LoRaMacClassBIsMulticastExpected( ) == true )
 874:Middlewares/Third_Party/LoRaWAN/Mac/LoRaMac.c ****         {
 875:Middlewares/Third_Party/LoRaWAN/Mac/LoRaMac.c ****             LoRaMacClassBSetMulticastSlotState( PINGSLOT_STATE_CALC_PING_OFFSET );
 876:Middlewares/Third_Party/LoRaWAN/Mac/LoRaMac.c ****             LoRaMacClassBMulticastSlotTimerEvent( NULL );
 877:Middlewares/Third_Party/LoRaWAN/Mac/LoRaMac.c ****             MacCtx.RxStatus.RxSlot = RX_SLOT_WIN_CLASS_B_MULTICAST_SLOT;
ARM GAS  /tmp/cc7YZJrH.s 			page 20


 878:Middlewares/Third_Party/LoRaWAN/Mac/LoRaMac.c ****         }
 879:Middlewares/Third_Party/LoRaWAN/Mac/LoRaMac.c ****     }
 880:Middlewares/Third_Party/LoRaWAN/Mac/LoRaMac.c **** 
 881:Middlewares/Third_Party/LoRaWAN/Mac/LoRaMac.c ****     macHdr.Value = payload[pktHeaderLen++];
 882:Middlewares/Third_Party/LoRaWAN/Mac/LoRaMac.c **** 
 883:Middlewares/Third_Party/LoRaWAN/Mac/LoRaMac.c ****     switch( macHdr.Bits.MType )
 884:Middlewares/Third_Party/LoRaWAN/Mac/LoRaMac.c ****     {
 885:Middlewares/Third_Party/LoRaWAN/Mac/LoRaMac.c ****         case FRAME_TYPE_JOIN_ACCEPT:
 886:Middlewares/Third_Party/LoRaWAN/Mac/LoRaMac.c ****             // Check if the received frame size is valid
 887:Middlewares/Third_Party/LoRaWAN/Mac/LoRaMac.c ****             if( size < LORAMAC_JOIN_ACCEPT_FRAME_MIN_SIZE )
 888:Middlewares/Third_Party/LoRaWAN/Mac/LoRaMac.c ****             {
 889:Middlewares/Third_Party/LoRaWAN/Mac/LoRaMac.c ****                 MacCtx.McpsIndication.Status = LORAMAC_EVENT_INFO_STATUS_ERROR;
 890:Middlewares/Third_Party/LoRaWAN/Mac/LoRaMac.c ****                 PrepareRxDoneAbort( );
 891:Middlewares/Third_Party/LoRaWAN/Mac/LoRaMac.c ****                 return;
 892:Middlewares/Third_Party/LoRaWAN/Mac/LoRaMac.c ****             }
 893:Middlewares/Third_Party/LoRaWAN/Mac/LoRaMac.c ****             macMsgJoinAccept.Buffer = payload;
 894:Middlewares/Third_Party/LoRaWAN/Mac/LoRaMac.c ****             macMsgJoinAccept.BufSize = size;
 895:Middlewares/Third_Party/LoRaWAN/Mac/LoRaMac.c **** 
 896:Middlewares/Third_Party/LoRaWAN/Mac/LoRaMac.c ****             // Abort in case if the device isn't joined yet and no rejoin request is ongoing.
 897:Middlewares/Third_Party/LoRaWAN/Mac/LoRaMac.c ****             if( Nvm.MacGroup2.NetworkActivation != ACTIVATION_TYPE_NONE )
 898:Middlewares/Third_Party/LoRaWAN/Mac/LoRaMac.c ****             {
 899:Middlewares/Third_Party/LoRaWAN/Mac/LoRaMac.c ****                 MacCtx.McpsIndication.Status = LORAMAC_EVENT_INFO_STATUS_ERROR;
 900:Middlewares/Third_Party/LoRaWAN/Mac/LoRaMac.c ****                 PrepareRxDoneAbort( );
 901:Middlewares/Third_Party/LoRaWAN/Mac/LoRaMac.c ****                 return;
 902:Middlewares/Third_Party/LoRaWAN/Mac/LoRaMac.c ****             }
 903:Middlewares/Third_Party/LoRaWAN/Mac/LoRaMac.c ****             macCryptoStatus = LoRaMacCryptoHandleJoinAccept( JOIN_REQ, SecureElementGetJoinEui( ), 
 904:Middlewares/Third_Party/LoRaWAN/Mac/LoRaMac.c **** 
 905:Middlewares/Third_Party/LoRaWAN/Mac/LoRaMac.c ****             if( LORAMAC_CRYPTO_SUCCESS == macCryptoStatus )
 906:Middlewares/Third_Party/LoRaWAN/Mac/LoRaMac.c ****             {
 907:Middlewares/Third_Party/LoRaWAN/Mac/LoRaMac.c ****                 // Network ID
 908:Middlewares/Third_Party/LoRaWAN/Mac/LoRaMac.c ****                 Nvm.MacGroup2.NetID = ( uint32_t ) macMsgJoinAccept.NetID[0];
 909:Middlewares/Third_Party/LoRaWAN/Mac/LoRaMac.c ****                 Nvm.MacGroup2.NetID |= ( ( uint32_t ) macMsgJoinAccept.NetID[1] << 8 );
 910:Middlewares/Third_Party/LoRaWAN/Mac/LoRaMac.c ****                 Nvm.MacGroup2.NetID |= ( ( uint32_t ) macMsgJoinAccept.NetID[2] << 16 );
 911:Middlewares/Third_Party/LoRaWAN/Mac/LoRaMac.c **** 
 912:Middlewares/Third_Party/LoRaWAN/Mac/LoRaMac.c ****                 // Device Address
 913:Middlewares/Third_Party/LoRaWAN/Mac/LoRaMac.c ****                 Nvm.MacGroup2.DevAddr = macMsgJoinAccept.DevAddr;
 914:Middlewares/Third_Party/LoRaWAN/Mac/LoRaMac.c **** 
 915:Middlewares/Third_Party/LoRaWAN/Mac/LoRaMac.c ****                 // DLSettings
 916:Middlewares/Third_Party/LoRaWAN/Mac/LoRaMac.c ****                 Nvm.MacGroup2.MacParams.Rx1DrOffset = macMsgJoinAccept.DLSettings.Bits.RX1DRoffset;
 917:Middlewares/Third_Party/LoRaWAN/Mac/LoRaMac.c ****                 Nvm.MacGroup2.MacParams.Rx2Channel.Datarate = macMsgJoinAccept.DLSettings.Bits.RX2D
 918:Middlewares/Third_Party/LoRaWAN/Mac/LoRaMac.c ****                 Nvm.MacGroup2.MacParams.RxCChannel.Datarate = macMsgJoinAccept.DLSettings.Bits.RX2D
 919:Middlewares/Third_Party/LoRaWAN/Mac/LoRaMac.c **** 
 920:Middlewares/Third_Party/LoRaWAN/Mac/LoRaMac.c ****                 // RxDelay
 921:Middlewares/Third_Party/LoRaWAN/Mac/LoRaMac.c ****                 Nvm.MacGroup2.MacParams.ReceiveDelay1 = macMsgJoinAccept.RxDelay;
 922:Middlewares/Third_Party/LoRaWAN/Mac/LoRaMac.c ****                 if( Nvm.MacGroup2.MacParams.ReceiveDelay1 == 0 )
 923:Middlewares/Third_Party/LoRaWAN/Mac/LoRaMac.c ****                 {
 924:Middlewares/Third_Party/LoRaWAN/Mac/LoRaMac.c ****                     Nvm.MacGroup2.MacParams.ReceiveDelay1 = 1;
 925:Middlewares/Third_Party/LoRaWAN/Mac/LoRaMac.c ****                 }
 926:Middlewares/Third_Party/LoRaWAN/Mac/LoRaMac.c ****                 Nvm.MacGroup2.MacParams.ReceiveDelay1 *= 1000;
 927:Middlewares/Third_Party/LoRaWAN/Mac/LoRaMac.c ****                 Nvm.MacGroup2.MacParams.ReceiveDelay2 = Nvm.MacGroup2.MacParams.ReceiveDelay1 + 100
 928:Middlewares/Third_Party/LoRaWAN/Mac/LoRaMac.c **** 
 929:Middlewares/Third_Party/LoRaWAN/Mac/LoRaMac.c ****                 Nvm.MacGroup2.Version.Fields.Minor = 0;
 930:Middlewares/Third_Party/LoRaWAN/Mac/LoRaMac.c **** 
 931:Middlewares/Third_Party/LoRaWAN/Mac/LoRaMac.c ****                 // Apply CF list
 932:Middlewares/Third_Party/LoRaWAN/Mac/LoRaMac.c ****                 applyCFList.Payload = macMsgJoinAccept.CFList;
 933:Middlewares/Third_Party/LoRaWAN/Mac/LoRaMac.c ****                 // Size of the regular payload is 12. Plus 1 byte MHDR and 4 bytes MIC
 934:Middlewares/Third_Party/LoRaWAN/Mac/LoRaMac.c ****                 applyCFList.Size = size - 17;
ARM GAS  /tmp/cc7YZJrH.s 			page 21


 935:Middlewares/Third_Party/LoRaWAN/Mac/LoRaMac.c **** 
 936:Middlewares/Third_Party/LoRaWAN/Mac/LoRaMac.c ****                 RegionApplyCFList( Nvm.MacGroup2.Region, &applyCFList );
 937:Middlewares/Third_Party/LoRaWAN/Mac/LoRaMac.c **** 
 938:Middlewares/Third_Party/LoRaWAN/Mac/LoRaMac.c ****                 Nvm.MacGroup2.NetworkActivation = ACTIVATION_TYPE_OTAA;
 939:Middlewares/Third_Party/LoRaWAN/Mac/LoRaMac.c **** 
 940:Middlewares/Third_Party/LoRaWAN/Mac/LoRaMac.c ****                 // MLME handling
 941:Middlewares/Third_Party/LoRaWAN/Mac/LoRaMac.c ****                 if( LoRaMacConfirmQueueIsCmdActive( MLME_JOIN ) == true )
 942:Middlewares/Third_Party/LoRaWAN/Mac/LoRaMac.c ****                 {
 943:Middlewares/Third_Party/LoRaWAN/Mac/LoRaMac.c ****                     LoRaMacConfirmQueueSetStatus( LORAMAC_EVENT_INFO_STATUS_OK, MLME_JOIN );
 944:Middlewares/Third_Party/LoRaWAN/Mac/LoRaMac.c ****                 }
 945:Middlewares/Third_Party/LoRaWAN/Mac/LoRaMac.c ****             }
 946:Middlewares/Third_Party/LoRaWAN/Mac/LoRaMac.c ****             else
 947:Middlewares/Third_Party/LoRaWAN/Mac/LoRaMac.c ****             {
 948:Middlewares/Third_Party/LoRaWAN/Mac/LoRaMac.c ****                 // MLME handling
 949:Middlewares/Third_Party/LoRaWAN/Mac/LoRaMac.c ****                 if( LoRaMacConfirmQueueIsCmdActive( MLME_JOIN ) == true )
 950:Middlewares/Third_Party/LoRaWAN/Mac/LoRaMac.c ****                 {
 951:Middlewares/Third_Party/LoRaWAN/Mac/LoRaMac.c ****                     LoRaMacConfirmQueueSetStatus( LORAMAC_EVENT_INFO_STATUS_JOIN_FAIL, MLME_JOIN );
 952:Middlewares/Third_Party/LoRaWAN/Mac/LoRaMac.c ****                 }
 953:Middlewares/Third_Party/LoRaWAN/Mac/LoRaMac.c ****             }
 954:Middlewares/Third_Party/LoRaWAN/Mac/LoRaMac.c ****             MacCtx.MacFlags.Bits.MlmeInd = 1;
 955:Middlewares/Third_Party/LoRaWAN/Mac/LoRaMac.c ****             break;
 956:Middlewares/Third_Party/LoRaWAN/Mac/LoRaMac.c ****         case FRAME_TYPE_DATA_CONFIRMED_DOWN:
 957:Middlewares/Third_Party/LoRaWAN/Mac/LoRaMac.c ****             MacCtx.McpsIndication.McpsIndication = MCPS_CONFIRMED;
 958:Middlewares/Third_Party/LoRaWAN/Mac/LoRaMac.c ****             // Intentional fall through
 959:Middlewares/Third_Party/LoRaWAN/Mac/LoRaMac.c ****         case FRAME_TYPE_DATA_UNCONFIRMED_DOWN:
 960:Middlewares/Third_Party/LoRaWAN/Mac/LoRaMac.c ****             // Check if the received payload size is valid
 961:Middlewares/Third_Party/LoRaWAN/Mac/LoRaMac.c ****             getPhy.UplinkDwellTime = Nvm.MacGroup2.MacParams.DownlinkDwellTime;
 962:Middlewares/Third_Party/LoRaWAN/Mac/LoRaMac.c ****             getPhy.Datarate = MacCtx.McpsIndication.RxDatarate;
 963:Middlewares/Third_Party/LoRaWAN/Mac/LoRaMac.c ****             getPhy.Attribute = PHY_MAX_PAYLOAD;
 964:Middlewares/Third_Party/LoRaWAN/Mac/LoRaMac.c **** 
 965:Middlewares/Third_Party/LoRaWAN/Mac/LoRaMac.c ****             /* ST_WORKAROUND_BEGIN: Keep repeater feature */
 966:Middlewares/Third_Party/LoRaWAN/Mac/LoRaMac.c ****             // Get the maximum payload length
 967:Middlewares/Third_Party/LoRaWAN/Mac/LoRaMac.c ****             if( Nvm.MacGroup2.MacParams.RepeaterSupport == true )
 968:Middlewares/Third_Party/LoRaWAN/Mac/LoRaMac.c ****             {
 969:Middlewares/Third_Party/LoRaWAN/Mac/LoRaMac.c ****                 getPhy.Attribute = PHY_MAX_PAYLOAD_REPEATER;
 970:Middlewares/Third_Party/LoRaWAN/Mac/LoRaMac.c ****             }
 971:Middlewares/Third_Party/LoRaWAN/Mac/LoRaMac.c ****             /* ST_WORKAROUND_END */
 972:Middlewares/Third_Party/LoRaWAN/Mac/LoRaMac.c **** 
 973:Middlewares/Third_Party/LoRaWAN/Mac/LoRaMac.c ****             phyParam = RegionGetPhyParam( Nvm.MacGroup2.Region, &getPhy );
 974:Middlewares/Third_Party/LoRaWAN/Mac/LoRaMac.c ****             if( ( MAX( 0, ( int16_t )( ( int16_t ) size - ( int16_t ) LORAMAC_FRAME_PAYLOAD_OVERHEA
 975:Middlewares/Third_Party/LoRaWAN/Mac/LoRaMac.c ****                 ( size < LORAMAC_FRAME_PAYLOAD_MIN_SIZE ) )
 976:Middlewares/Third_Party/LoRaWAN/Mac/LoRaMac.c ****             {
 977:Middlewares/Third_Party/LoRaWAN/Mac/LoRaMac.c ****                 MacCtx.McpsIndication.Status = LORAMAC_EVENT_INFO_STATUS_ERROR;
 978:Middlewares/Third_Party/LoRaWAN/Mac/LoRaMac.c ****                 PrepareRxDoneAbort( );
 979:Middlewares/Third_Party/LoRaWAN/Mac/LoRaMac.c ****                 return;
 980:Middlewares/Third_Party/LoRaWAN/Mac/LoRaMac.c ****             }
 981:Middlewares/Third_Party/LoRaWAN/Mac/LoRaMac.c ****             macMsgData.Buffer = payload;
 982:Middlewares/Third_Party/LoRaWAN/Mac/LoRaMac.c ****             macMsgData.BufSize = size;
 983:Middlewares/Third_Party/LoRaWAN/Mac/LoRaMac.c ****             macMsgData.FRMPayload = MacCtx.RxPayload;
 984:Middlewares/Third_Party/LoRaWAN/Mac/LoRaMac.c ****             macMsgData.FRMPayloadSize = LORAMAC_PHY_MAXPAYLOAD;
 985:Middlewares/Third_Party/LoRaWAN/Mac/LoRaMac.c **** 
 986:Middlewares/Third_Party/LoRaWAN/Mac/LoRaMac.c ****             if( LORAMAC_PARSER_SUCCESS != LoRaMacParserData( &macMsgData ) )
 987:Middlewares/Third_Party/LoRaWAN/Mac/LoRaMac.c ****             {
 988:Middlewares/Third_Party/LoRaWAN/Mac/LoRaMac.c ****                 MacCtx.McpsIndication.Status = LORAMAC_EVENT_INFO_STATUS_ERROR;
 989:Middlewares/Third_Party/LoRaWAN/Mac/LoRaMac.c ****                 PrepareRxDoneAbort( );
 990:Middlewares/Third_Party/LoRaWAN/Mac/LoRaMac.c ****                 return;
 991:Middlewares/Third_Party/LoRaWAN/Mac/LoRaMac.c ****             }
ARM GAS  /tmp/cc7YZJrH.s 			page 22


 992:Middlewares/Third_Party/LoRaWAN/Mac/LoRaMac.c **** 
 993:Middlewares/Third_Party/LoRaWAN/Mac/LoRaMac.c ****             // Store device address
 994:Middlewares/Third_Party/LoRaWAN/Mac/LoRaMac.c ****             MacCtx.McpsIndication.DevAddress = macMsgData.FHDR.DevAddr;
 995:Middlewares/Third_Party/LoRaWAN/Mac/LoRaMac.c **** 
 996:Middlewares/Third_Party/LoRaWAN/Mac/LoRaMac.c ****             FType_t fType;
 997:Middlewares/Third_Party/LoRaWAN/Mac/LoRaMac.c ****             if( LORAMAC_STATUS_OK != DetermineFrameType( &macMsgData, &fType ) )
 998:Middlewares/Third_Party/LoRaWAN/Mac/LoRaMac.c ****             {
 999:Middlewares/Third_Party/LoRaWAN/Mac/LoRaMac.c ****                 MacCtx.McpsIndication.Status = LORAMAC_EVENT_INFO_STATUS_ERROR;
1000:Middlewares/Third_Party/LoRaWAN/Mac/LoRaMac.c ****                 PrepareRxDoneAbort( );
1001:Middlewares/Third_Party/LoRaWAN/Mac/LoRaMac.c ****                 return;
1002:Middlewares/Third_Party/LoRaWAN/Mac/LoRaMac.c ****             }
1003:Middlewares/Third_Party/LoRaWAN/Mac/LoRaMac.c **** 
1004:Middlewares/Third_Party/LoRaWAN/Mac/LoRaMac.c ****             //Check if it is a multicast message
1005:Middlewares/Third_Party/LoRaWAN/Mac/LoRaMac.c ****             multicast = 0;
1006:Middlewares/Third_Party/LoRaWAN/Mac/LoRaMac.c ****             downLinkCounter = 0;
1007:Middlewares/Third_Party/LoRaWAN/Mac/LoRaMac.c ****             for( uint8_t i = 0; i < LORAMAC_MAX_MC_CTX; i++ )
1008:Middlewares/Third_Party/LoRaWAN/Mac/LoRaMac.c ****             {
1009:Middlewares/Third_Party/LoRaWAN/Mac/LoRaMac.c ****                 if( ( Nvm.MacGroup2.MulticastChannelList[i].ChannelParams.Address == macMsgData.FHD
1010:Middlewares/Third_Party/LoRaWAN/Mac/LoRaMac.c ****                     ( Nvm.MacGroup2.MulticastChannelList[i].ChannelParams.IsEnabled == true ) )
1011:Middlewares/Third_Party/LoRaWAN/Mac/LoRaMac.c ****                 {
1012:Middlewares/Third_Party/LoRaWAN/Mac/LoRaMac.c ****                     multicast = 1;
1013:Middlewares/Third_Party/LoRaWAN/Mac/LoRaMac.c ****                     addrID = Nvm.MacGroup2.MulticastChannelList[i].ChannelParams.GroupID;
1014:Middlewares/Third_Party/LoRaWAN/Mac/LoRaMac.c ****                     downLinkCounter = *( Nvm.MacGroup2.MulticastChannelList[i].DownLinkCounter );
1015:Middlewares/Third_Party/LoRaWAN/Mac/LoRaMac.c ****                     address = Nvm.MacGroup2.MulticastChannelList[i].ChannelParams.Address;
1016:Middlewares/Third_Party/LoRaWAN/Mac/LoRaMac.c ****                     if( Nvm.MacGroup2.DeviceClass == CLASS_C )
1017:Middlewares/Third_Party/LoRaWAN/Mac/LoRaMac.c ****                     {
1018:Middlewares/Third_Party/LoRaWAN/Mac/LoRaMac.c ****                         MacCtx.RxStatus.RxSlot = RX_SLOT_WIN_CLASS_C_MULTICAST;
1019:Middlewares/Third_Party/LoRaWAN/Mac/LoRaMac.c ****                     }
1020:Middlewares/Third_Party/LoRaWAN/Mac/LoRaMac.c ****                     break;
1021:Middlewares/Third_Party/LoRaWAN/Mac/LoRaMac.c ****                 }
1022:Middlewares/Third_Party/LoRaWAN/Mac/LoRaMac.c ****             }
1023:Middlewares/Third_Party/LoRaWAN/Mac/LoRaMac.c **** 
1024:Middlewares/Third_Party/LoRaWAN/Mac/LoRaMac.c ****             // Filter messages according to multicast downlink exceptions
1025:Middlewares/Third_Party/LoRaWAN/Mac/LoRaMac.c ****             if( ( multicast == 1 ) && ( ( fType != FRAME_TYPE_D ) ||
1026:Middlewares/Third_Party/LoRaWAN/Mac/LoRaMac.c ****                                         ( macMsgData.FHDR.FCtrl.Bits.Ack != 0 ) ||
1027:Middlewares/Third_Party/LoRaWAN/Mac/LoRaMac.c ****                                         ( macMsgData.FHDR.FCtrl.Bits.AdrAckReq != 0 ) ) )
1028:Middlewares/Third_Party/LoRaWAN/Mac/LoRaMac.c ****             {
1029:Middlewares/Third_Party/LoRaWAN/Mac/LoRaMac.c ****                 MacCtx.McpsIndication.Status = LORAMAC_EVENT_INFO_STATUS_ERROR;
1030:Middlewares/Third_Party/LoRaWAN/Mac/LoRaMac.c ****                 PrepareRxDoneAbort( );
1031:Middlewares/Third_Party/LoRaWAN/Mac/LoRaMac.c ****                 return;
1032:Middlewares/Third_Party/LoRaWAN/Mac/LoRaMac.c ****             }
1033:Middlewares/Third_Party/LoRaWAN/Mac/LoRaMac.c **** 
1034:Middlewares/Third_Party/LoRaWAN/Mac/LoRaMac.c ****             // Get maximum allowed counter difference
1035:Middlewares/Third_Party/LoRaWAN/Mac/LoRaMac.c ****             getPhy.Attribute = PHY_MAX_FCNT_GAP;
1036:Middlewares/Third_Party/LoRaWAN/Mac/LoRaMac.c ****             phyParam = RegionGetPhyParam( Nvm.MacGroup2.Region, &getPhy );
1037:Middlewares/Third_Party/LoRaWAN/Mac/LoRaMac.c **** 
1038:Middlewares/Third_Party/LoRaWAN/Mac/LoRaMac.c ****             // Get downlink frame counter value
1039:Middlewares/Third_Party/LoRaWAN/Mac/LoRaMac.c ****             macCryptoStatus = GetFCntDown( addrID, fType, &macMsgData, Nvm.MacGroup2.Version, phyPa
1040:Middlewares/Third_Party/LoRaWAN/Mac/LoRaMac.c ****             if( macCryptoStatus != LORAMAC_CRYPTO_SUCCESS )
1041:Middlewares/Third_Party/LoRaWAN/Mac/LoRaMac.c ****             {
1042:Middlewares/Third_Party/LoRaWAN/Mac/LoRaMac.c ****                 if( macCryptoStatus == LORAMAC_CRYPTO_FAIL_FCNT_DUPLICATED )
1043:Middlewares/Third_Party/LoRaWAN/Mac/LoRaMac.c ****                 {
1044:Middlewares/Third_Party/LoRaWAN/Mac/LoRaMac.c ****                     // Catch the case of repeated downlink frame counter
1045:Middlewares/Third_Party/LoRaWAN/Mac/LoRaMac.c ****                     MacCtx.McpsIndication.Status = LORAMAC_EVENT_INFO_STATUS_DOWNLINK_REPEATED;
1046:Middlewares/Third_Party/LoRaWAN/Mac/LoRaMac.c ****                     if( ( Nvm.MacGroup2.Version.Fields.Minor == 0 ) && ( macHdr.Bits.MType == FRAME
1047:Middlewares/Third_Party/LoRaWAN/Mac/LoRaMac.c ****                     {
1048:Middlewares/Third_Party/LoRaWAN/Mac/LoRaMac.c ****                         Nvm.MacGroup1.SrvAckRequested = true;
ARM GAS  /tmp/cc7YZJrH.s 			page 23


1049:Middlewares/Third_Party/LoRaWAN/Mac/LoRaMac.c ****                     }
1050:Middlewares/Third_Party/LoRaWAN/Mac/LoRaMac.c ****                 }
1051:Middlewares/Third_Party/LoRaWAN/Mac/LoRaMac.c ****                 else if( macCryptoStatus == LORAMAC_CRYPTO_FAIL_MAX_GAP_FCNT )
1052:Middlewares/Third_Party/LoRaWAN/Mac/LoRaMac.c ****                 {
1053:Middlewares/Third_Party/LoRaWAN/Mac/LoRaMac.c ****                     // Lost too many frames
1054:Middlewares/Third_Party/LoRaWAN/Mac/LoRaMac.c ****                     MacCtx.McpsIndication.Status = LORAMAC_EVENT_INFO_STATUS_DOWNLINK_TOO_MANY_FRAM
1055:Middlewares/Third_Party/LoRaWAN/Mac/LoRaMac.c ****                 }
1056:Middlewares/Third_Party/LoRaWAN/Mac/LoRaMac.c ****                 else
1057:Middlewares/Third_Party/LoRaWAN/Mac/LoRaMac.c ****                 {
1058:Middlewares/Third_Party/LoRaWAN/Mac/LoRaMac.c ****                     // Other errors
1059:Middlewares/Third_Party/LoRaWAN/Mac/LoRaMac.c ****                     MacCtx.McpsIndication.Status = LORAMAC_EVENT_INFO_STATUS_ERROR;
1060:Middlewares/Third_Party/LoRaWAN/Mac/LoRaMac.c ****                 }
1061:Middlewares/Third_Party/LoRaWAN/Mac/LoRaMac.c ****                 MacCtx.McpsIndication.DownLinkCounter = downLinkCounter;
1062:Middlewares/Third_Party/LoRaWAN/Mac/LoRaMac.c ****                 PrepareRxDoneAbort( );
1063:Middlewares/Third_Party/LoRaWAN/Mac/LoRaMac.c ****                 return;
1064:Middlewares/Third_Party/LoRaWAN/Mac/LoRaMac.c ****             }
1065:Middlewares/Third_Party/LoRaWAN/Mac/LoRaMac.c **** 
1066:Middlewares/Third_Party/LoRaWAN/Mac/LoRaMac.c ****             macCryptoStatus = LoRaMacCryptoUnsecureMessage( addrID, address, fCntID, downLinkCounte
1067:Middlewares/Third_Party/LoRaWAN/Mac/LoRaMac.c ****             if( macCryptoStatus != LORAMAC_CRYPTO_SUCCESS )
1068:Middlewares/Third_Party/LoRaWAN/Mac/LoRaMac.c ****             {
1069:Middlewares/Third_Party/LoRaWAN/Mac/LoRaMac.c ****                 if( macCryptoStatus == LORAMAC_CRYPTO_FAIL_ADDRESS )
1070:Middlewares/Third_Party/LoRaWAN/Mac/LoRaMac.c ****                 {
1071:Middlewares/Third_Party/LoRaWAN/Mac/LoRaMac.c ****                     // We are not the destination of this frame.
1072:Middlewares/Third_Party/LoRaWAN/Mac/LoRaMac.c ****                     MacCtx.McpsIndication.Status = LORAMAC_EVENT_INFO_STATUS_ADDRESS_FAIL;
1073:Middlewares/Third_Party/LoRaWAN/Mac/LoRaMac.c ****                 }
1074:Middlewares/Third_Party/LoRaWAN/Mac/LoRaMac.c ****                 else
1075:Middlewares/Third_Party/LoRaWAN/Mac/LoRaMac.c ****                 {
1076:Middlewares/Third_Party/LoRaWAN/Mac/LoRaMac.c ****                     // MIC calculation fail
1077:Middlewares/Third_Party/LoRaWAN/Mac/LoRaMac.c ****                     MacCtx.McpsIndication.Status = LORAMAC_EVENT_INFO_STATUS_MIC_FAIL;
1078:Middlewares/Third_Party/LoRaWAN/Mac/LoRaMac.c ****                 }
1079:Middlewares/Third_Party/LoRaWAN/Mac/LoRaMac.c ****                 PrepareRxDoneAbort( );
1080:Middlewares/Third_Party/LoRaWAN/Mac/LoRaMac.c ****                 return;
1081:Middlewares/Third_Party/LoRaWAN/Mac/LoRaMac.c ****             }
1082:Middlewares/Third_Party/LoRaWAN/Mac/LoRaMac.c **** 
1083:Middlewares/Third_Party/LoRaWAN/Mac/LoRaMac.c ****             // Frame is valid
1084:Middlewares/Third_Party/LoRaWAN/Mac/LoRaMac.c ****             MacCtx.McpsIndication.Status = LORAMAC_EVENT_INFO_STATUS_OK;
1085:Middlewares/Third_Party/LoRaWAN/Mac/LoRaMac.c ****             MacCtx.McpsIndication.Multicast = multicast;
1086:Middlewares/Third_Party/LoRaWAN/Mac/LoRaMac.c ****             MacCtx.McpsIndication.FramePending = macMsgData.FHDR.FCtrl.Bits.FPending;
1087:Middlewares/Third_Party/LoRaWAN/Mac/LoRaMac.c ****             MacCtx.McpsIndication.Buffer = NULL;
1088:Middlewares/Third_Party/LoRaWAN/Mac/LoRaMac.c ****             MacCtx.McpsIndication.BufferSize = 0;
1089:Middlewares/Third_Party/LoRaWAN/Mac/LoRaMac.c ****             MacCtx.McpsIndication.DownLinkCounter = downLinkCounter;
1090:Middlewares/Third_Party/LoRaWAN/Mac/LoRaMac.c ****             MacCtx.McpsIndication.AckReceived = macMsgData.FHDR.FCtrl.Bits.Ack;
1091:Middlewares/Third_Party/LoRaWAN/Mac/LoRaMac.c **** 
1092:Middlewares/Third_Party/LoRaWAN/Mac/LoRaMac.c ****             MacCtx.McpsConfirm.Status = LORAMAC_EVENT_INFO_STATUS_OK;
1093:Middlewares/Third_Party/LoRaWAN/Mac/LoRaMac.c ****             MacCtx.McpsConfirm.AckReceived = macMsgData.FHDR.FCtrl.Bits.Ack;
1094:Middlewares/Third_Party/LoRaWAN/Mac/LoRaMac.c **** 
1095:Middlewares/Third_Party/LoRaWAN/Mac/LoRaMac.c ****             // Reset ADR ACK Counter only, when RX1 or RX2 slot
1096:Middlewares/Third_Party/LoRaWAN/Mac/LoRaMac.c ****             if( ( MacCtx.RxStatus.RxSlot == RX_SLOT_WIN_1 ) ||
1097:Middlewares/Third_Party/LoRaWAN/Mac/LoRaMac.c ****                 ( MacCtx.RxStatus.RxSlot == RX_SLOT_WIN_2 ) )
1098:Middlewares/Third_Party/LoRaWAN/Mac/LoRaMac.c ****             {
1099:Middlewares/Third_Party/LoRaWAN/Mac/LoRaMac.c ****                 Nvm.MacGroup1.AdrAckCounter = 0;
1100:Middlewares/Third_Party/LoRaWAN/Mac/LoRaMac.c ****             }
1101:Middlewares/Third_Party/LoRaWAN/Mac/LoRaMac.c **** 
1102:Middlewares/Third_Party/LoRaWAN/Mac/LoRaMac.c ****             // MCPS Indication and ack requested handling
1103:Middlewares/Third_Party/LoRaWAN/Mac/LoRaMac.c ****             if( multicast == 1 )
1104:Middlewares/Third_Party/LoRaWAN/Mac/LoRaMac.c ****             {
1105:Middlewares/Third_Party/LoRaWAN/Mac/LoRaMac.c ****                 MacCtx.McpsIndication.McpsIndication = MCPS_MULTICAST;
ARM GAS  /tmp/cc7YZJrH.s 			page 24


1106:Middlewares/Third_Party/LoRaWAN/Mac/LoRaMac.c ****             }
1107:Middlewares/Third_Party/LoRaWAN/Mac/LoRaMac.c ****             else
1108:Middlewares/Third_Party/LoRaWAN/Mac/LoRaMac.c ****             {
1109:Middlewares/Third_Party/LoRaWAN/Mac/LoRaMac.c ****                 if( macHdr.Bits.MType == FRAME_TYPE_DATA_CONFIRMED_DOWN )
1110:Middlewares/Third_Party/LoRaWAN/Mac/LoRaMac.c ****                 {
1111:Middlewares/Third_Party/LoRaWAN/Mac/LoRaMac.c ****                     Nvm.MacGroup1.SrvAckRequested = true;
1112:Middlewares/Third_Party/LoRaWAN/Mac/LoRaMac.c ****                     if( Nvm.MacGroup2.Version.Fields.Minor == 0 )
1113:Middlewares/Third_Party/LoRaWAN/Mac/LoRaMac.c ****                     {
1114:Middlewares/Third_Party/LoRaWAN/Mac/LoRaMac.c ****                         Nvm.MacGroup1.LastRxMic = macMsgData.MIC;
1115:Middlewares/Third_Party/LoRaWAN/Mac/LoRaMac.c ****                     }
1116:Middlewares/Third_Party/LoRaWAN/Mac/LoRaMac.c ****                     MacCtx.McpsIndication.McpsIndication = MCPS_CONFIRMED;
1117:Middlewares/Third_Party/LoRaWAN/Mac/LoRaMac.c ****                 }
1118:Middlewares/Third_Party/LoRaWAN/Mac/LoRaMac.c ****                 else
1119:Middlewares/Third_Party/LoRaWAN/Mac/LoRaMac.c ****                 {
1120:Middlewares/Third_Party/LoRaWAN/Mac/LoRaMac.c ****                     Nvm.MacGroup1.SrvAckRequested = false;
1121:Middlewares/Third_Party/LoRaWAN/Mac/LoRaMac.c ****                     MacCtx.McpsIndication.McpsIndication = MCPS_UNCONFIRMED;
1122:Middlewares/Third_Party/LoRaWAN/Mac/LoRaMac.c ****                 }
1123:Middlewares/Third_Party/LoRaWAN/Mac/LoRaMac.c ****             }
1124:Middlewares/Third_Party/LoRaWAN/Mac/LoRaMac.c **** 
1125:Middlewares/Third_Party/LoRaWAN/Mac/LoRaMac.c ****             RemoveMacCommands( MacCtx.RxStatus.RxSlot, macMsgData.FHDR.FCtrl, MacCtx.McpsConfirm.Mc
1126:Middlewares/Third_Party/LoRaWAN/Mac/LoRaMac.c **** 
1127:Middlewares/Third_Party/LoRaWAN/Mac/LoRaMac.c ****             switch( fType )
1128:Middlewares/Third_Party/LoRaWAN/Mac/LoRaMac.c ****             {
1129:Middlewares/Third_Party/LoRaWAN/Mac/LoRaMac.c ****                 case FRAME_TYPE_A:
1130:Middlewares/Third_Party/LoRaWAN/Mac/LoRaMac.c ****                 {  /* +----------+------+-------+--------------+
1131:Middlewares/Third_Party/LoRaWAN/Mac/LoRaMac.c ****                     * | FOptsLen | Fopt | FPort |  FRMPayload  |
1132:Middlewares/Third_Party/LoRaWAN/Mac/LoRaMac.c ****                     * +----------+------+-------+--------------+
1133:Middlewares/Third_Party/LoRaWAN/Mac/LoRaMac.c ****                     * |    > 0   |   X  |  > 0  |       X      |
1134:Middlewares/Third_Party/LoRaWAN/Mac/LoRaMac.c ****                     * +----------+------+-------+--------------+
1135:Middlewares/Third_Party/LoRaWAN/Mac/LoRaMac.c ****                     */
1136:Middlewares/Third_Party/LoRaWAN/Mac/LoRaMac.c **** 
1137:Middlewares/Third_Party/LoRaWAN/Mac/LoRaMac.c ****                     // Decode MAC commands in FOpts field
1138:Middlewares/Third_Party/LoRaWAN/Mac/LoRaMac.c ****                     ProcessMacCommands( macMsgData.FHDR.FOpts, 0, macMsgData.FHDR.FCtrl.Bits.FOptsL
1139:Middlewares/Third_Party/LoRaWAN/Mac/LoRaMac.c ****                     MacCtx.McpsIndication.Port = macMsgData.FPort;
1140:Middlewares/Third_Party/LoRaWAN/Mac/LoRaMac.c ****                     MacCtx.McpsIndication.Buffer = macMsgData.FRMPayload;
1141:Middlewares/Third_Party/LoRaWAN/Mac/LoRaMac.c ****                     MacCtx.McpsIndication.BufferSize = macMsgData.FRMPayloadSize;
1142:Middlewares/Third_Party/LoRaWAN/Mac/LoRaMac.c ****                     MacCtx.McpsIndication.RxData = true;
1143:Middlewares/Third_Party/LoRaWAN/Mac/LoRaMac.c ****                     break;
1144:Middlewares/Third_Party/LoRaWAN/Mac/LoRaMac.c ****                 }
1145:Middlewares/Third_Party/LoRaWAN/Mac/LoRaMac.c ****                 case FRAME_TYPE_B:
1146:Middlewares/Third_Party/LoRaWAN/Mac/LoRaMac.c ****                 {  /* +----------+------+-------+--------------+
1147:Middlewares/Third_Party/LoRaWAN/Mac/LoRaMac.c ****                     * | FOptsLen | Fopt | FPort |  FRMPayload  |
1148:Middlewares/Third_Party/LoRaWAN/Mac/LoRaMac.c ****                     * +----------+------+-------+--------------+
1149:Middlewares/Third_Party/LoRaWAN/Mac/LoRaMac.c ****                     * |    > 0   |   X  |   -   |       -      |
1150:Middlewares/Third_Party/LoRaWAN/Mac/LoRaMac.c ****                     * +----------+------+-------+--------------+
1151:Middlewares/Third_Party/LoRaWAN/Mac/LoRaMac.c ****                     */
1152:Middlewares/Third_Party/LoRaWAN/Mac/LoRaMac.c **** 
1153:Middlewares/Third_Party/LoRaWAN/Mac/LoRaMac.c ****                     // Decode MAC commands in FOpts field
1154:Middlewares/Third_Party/LoRaWAN/Mac/LoRaMac.c ****                     ProcessMacCommands( macMsgData.FHDR.FOpts, 0, macMsgData.FHDR.FCtrl.Bits.FOptsL
1155:Middlewares/Third_Party/LoRaWAN/Mac/LoRaMac.c ****                     MacCtx.McpsIndication.Port = macMsgData.FPort;
1156:Middlewares/Third_Party/LoRaWAN/Mac/LoRaMac.c ****                     break;
1157:Middlewares/Third_Party/LoRaWAN/Mac/LoRaMac.c ****                 }
1158:Middlewares/Third_Party/LoRaWAN/Mac/LoRaMac.c ****                 case FRAME_TYPE_C:
1159:Middlewares/Third_Party/LoRaWAN/Mac/LoRaMac.c ****                 {  /* +----------+------+-------+--------------+
1160:Middlewares/Third_Party/LoRaWAN/Mac/LoRaMac.c ****                     * | FOptsLen | Fopt | FPort |  FRMPayload  |
1161:Middlewares/Third_Party/LoRaWAN/Mac/LoRaMac.c ****                     * +----------+------+-------+--------------+
1162:Middlewares/Third_Party/LoRaWAN/Mac/LoRaMac.c ****                     * |    = 0   |   -  |  = 0  | MAC commands |
ARM GAS  /tmp/cc7YZJrH.s 			page 25


1163:Middlewares/Third_Party/LoRaWAN/Mac/LoRaMac.c ****                     * +----------+------+-------+--------------+
1164:Middlewares/Third_Party/LoRaWAN/Mac/LoRaMac.c ****                     */
1165:Middlewares/Third_Party/LoRaWAN/Mac/LoRaMac.c **** 
1166:Middlewares/Third_Party/LoRaWAN/Mac/LoRaMac.c ****                     // Decode MAC commands in FRMPayload
1167:Middlewares/Third_Party/LoRaWAN/Mac/LoRaMac.c ****                     ProcessMacCommands( macMsgData.FRMPayload, 0, macMsgData.FRMPayloadSize, snr, M
1168:Middlewares/Third_Party/LoRaWAN/Mac/LoRaMac.c ****                     MacCtx.McpsIndication.Port = macMsgData.FPort;
1169:Middlewares/Third_Party/LoRaWAN/Mac/LoRaMac.c ****                     break;
1170:Middlewares/Third_Party/LoRaWAN/Mac/LoRaMac.c ****                 }
1171:Middlewares/Third_Party/LoRaWAN/Mac/LoRaMac.c ****                 case FRAME_TYPE_D:
1172:Middlewares/Third_Party/LoRaWAN/Mac/LoRaMac.c ****                 {  /* +----------+------+-------+--------------+
1173:Middlewares/Third_Party/LoRaWAN/Mac/LoRaMac.c ****                     * | FOptsLen | Fopt | FPort |  FRMPayload  |
1174:Middlewares/Third_Party/LoRaWAN/Mac/LoRaMac.c ****                     * +----------+------+-------+--------------+
1175:Middlewares/Third_Party/LoRaWAN/Mac/LoRaMac.c ****                     * |    = 0   |   -  |  > 0  |       X      |
1176:Middlewares/Third_Party/LoRaWAN/Mac/LoRaMac.c ****                     * +----------+------+-------+--------------+
1177:Middlewares/Third_Party/LoRaWAN/Mac/LoRaMac.c ****                     */
1178:Middlewares/Third_Party/LoRaWAN/Mac/LoRaMac.c **** 
1179:Middlewares/Third_Party/LoRaWAN/Mac/LoRaMac.c ****                     // No MAC commands just application payload
1180:Middlewares/Third_Party/LoRaWAN/Mac/LoRaMac.c ****                     MacCtx.McpsIndication.Port = macMsgData.FPort;
1181:Middlewares/Third_Party/LoRaWAN/Mac/LoRaMac.c ****                     MacCtx.McpsIndication.Buffer = macMsgData.FRMPayload;
1182:Middlewares/Third_Party/LoRaWAN/Mac/LoRaMac.c ****                     MacCtx.McpsIndication.BufferSize = macMsgData.FRMPayloadSize;
1183:Middlewares/Third_Party/LoRaWAN/Mac/LoRaMac.c ****                     MacCtx.McpsIndication.RxData = true;
1184:Middlewares/Third_Party/LoRaWAN/Mac/LoRaMac.c ****                     break;
1185:Middlewares/Third_Party/LoRaWAN/Mac/LoRaMac.c ****                 }
1186:Middlewares/Third_Party/LoRaWAN/Mac/LoRaMac.c ****                 default:
1187:Middlewares/Third_Party/LoRaWAN/Mac/LoRaMac.c ****                     MacCtx.McpsIndication.Status = LORAMAC_EVENT_INFO_STATUS_ERROR;
1188:Middlewares/Third_Party/LoRaWAN/Mac/LoRaMac.c ****                     PrepareRxDoneAbort( );
1189:Middlewares/Third_Party/LoRaWAN/Mac/LoRaMac.c ****                     break;
1190:Middlewares/Third_Party/LoRaWAN/Mac/LoRaMac.c ****             }
1191:Middlewares/Third_Party/LoRaWAN/Mac/LoRaMac.c **** 
1192:Middlewares/Third_Party/LoRaWAN/Mac/LoRaMac.c ****             // Provide always an indication, skip the callback to the user application,
1193:Middlewares/Third_Party/LoRaWAN/Mac/LoRaMac.c ****             // in case of a confirmed downlink retransmission.
1194:Middlewares/Third_Party/LoRaWAN/Mac/LoRaMac.c ****             MacCtx.MacFlags.Bits.McpsInd = 1;
1195:Middlewares/Third_Party/LoRaWAN/Mac/LoRaMac.c **** 
1196:Middlewares/Third_Party/LoRaWAN/Mac/LoRaMac.c ****             break;
1197:Middlewares/Third_Party/LoRaWAN/Mac/LoRaMac.c ****         case FRAME_TYPE_PROPRIETARY:
1198:Middlewares/Third_Party/LoRaWAN/Mac/LoRaMac.c ****             memcpy1( MacCtx.RxPayload, &payload[pktHeaderLen], size - pktHeaderLen );
1199:Middlewares/Third_Party/LoRaWAN/Mac/LoRaMac.c **** 
1200:Middlewares/Third_Party/LoRaWAN/Mac/LoRaMac.c ****             MacCtx.McpsIndication.McpsIndication = MCPS_PROPRIETARY;
1201:Middlewares/Third_Party/LoRaWAN/Mac/LoRaMac.c ****             MacCtx.McpsIndication.Status = LORAMAC_EVENT_INFO_STATUS_OK;
1202:Middlewares/Third_Party/LoRaWAN/Mac/LoRaMac.c ****             MacCtx.McpsIndication.Buffer = MacCtx.RxPayload;
1203:Middlewares/Third_Party/LoRaWAN/Mac/LoRaMac.c ****             MacCtx.McpsIndication.BufferSize = size - pktHeaderLen;
1204:Middlewares/Third_Party/LoRaWAN/Mac/LoRaMac.c **** 
1205:Middlewares/Third_Party/LoRaWAN/Mac/LoRaMac.c ****             MacCtx.MacFlags.Bits.McpsInd = 1;
1206:Middlewares/Third_Party/LoRaWAN/Mac/LoRaMac.c ****             break;
1207:Middlewares/Third_Party/LoRaWAN/Mac/LoRaMac.c ****         default:
1208:Middlewares/Third_Party/LoRaWAN/Mac/LoRaMac.c ****             MacCtx.McpsIndication.Status = LORAMAC_EVENT_INFO_STATUS_ERROR;
1209:Middlewares/Third_Party/LoRaWAN/Mac/LoRaMac.c ****             PrepareRxDoneAbort( );
1210:Middlewares/Third_Party/LoRaWAN/Mac/LoRaMac.c ****             break;
1211:Middlewares/Third_Party/LoRaWAN/Mac/LoRaMac.c ****     }
1212:Middlewares/Third_Party/LoRaWAN/Mac/LoRaMac.c **** 
1213:Middlewares/Third_Party/LoRaWAN/Mac/LoRaMac.c ****     // Verify if we need to disable the AckTimeoutTimer
1214:Middlewares/Third_Party/LoRaWAN/Mac/LoRaMac.c ****     if( MacCtx.NodeAckRequested == true )
1215:Middlewares/Third_Party/LoRaWAN/Mac/LoRaMac.c ****     {
1216:Middlewares/Third_Party/LoRaWAN/Mac/LoRaMac.c ****         if( MacCtx.McpsConfirm.AckReceived == true )
1217:Middlewares/Third_Party/LoRaWAN/Mac/LoRaMac.c ****         {
1218:Middlewares/Third_Party/LoRaWAN/Mac/LoRaMac.c ****             OnAckTimeoutTimerEvent( NULL );
1219:Middlewares/Third_Party/LoRaWAN/Mac/LoRaMac.c ****         }
ARM GAS  /tmp/cc7YZJrH.s 			page 26


1220:Middlewares/Third_Party/LoRaWAN/Mac/LoRaMac.c ****     }
1221:Middlewares/Third_Party/LoRaWAN/Mac/LoRaMac.c ****     else
1222:Middlewares/Third_Party/LoRaWAN/Mac/LoRaMac.c ****     {
1223:Middlewares/Third_Party/LoRaWAN/Mac/LoRaMac.c ****         if( Nvm.MacGroup2.DeviceClass == CLASS_C )
1224:Middlewares/Third_Party/LoRaWAN/Mac/LoRaMac.c ****         {
1225:Middlewares/Third_Party/LoRaWAN/Mac/LoRaMac.c ****             OnAckTimeoutTimerEvent( NULL );
1226:Middlewares/Third_Party/LoRaWAN/Mac/LoRaMac.c ****         }
1227:Middlewares/Third_Party/LoRaWAN/Mac/LoRaMac.c ****     }
1228:Middlewares/Third_Party/LoRaWAN/Mac/LoRaMac.c ****     MacCtx.MacFlags.Bits.MacDone = 1;
1229:Middlewares/Third_Party/LoRaWAN/Mac/LoRaMac.c **** 
1230:Middlewares/Third_Party/LoRaWAN/Mac/LoRaMac.c ****     UpdateRxSlotIdleState( );
1231:Middlewares/Third_Party/LoRaWAN/Mac/LoRaMac.c **** }
1232:Middlewares/Third_Party/LoRaWAN/Mac/LoRaMac.c **** 
1233:Middlewares/Third_Party/LoRaWAN/Mac/LoRaMac.c **** static void ProcessRadioTxTimeout( void )
1234:Middlewares/Third_Party/LoRaWAN/Mac/LoRaMac.c **** {
1235:Middlewares/Third_Party/LoRaWAN/Mac/LoRaMac.c ****     if( Nvm.MacGroup2.DeviceClass != CLASS_C )
1236:Middlewares/Third_Party/LoRaWAN/Mac/LoRaMac.c ****     {
1237:Middlewares/Third_Party/LoRaWAN/Mac/LoRaMac.c ****         Radio.Sleep( );
1238:Middlewares/Third_Party/LoRaWAN/Mac/LoRaMac.c ****     }
1239:Middlewares/Third_Party/LoRaWAN/Mac/LoRaMac.c ****     UpdateRxSlotIdleState( );
1240:Middlewares/Third_Party/LoRaWAN/Mac/LoRaMac.c **** 
1241:Middlewares/Third_Party/LoRaWAN/Mac/LoRaMac.c ****     MacCtx.McpsConfirm.Status = LORAMAC_EVENT_INFO_STATUS_TX_TIMEOUT;
1242:Middlewares/Third_Party/LoRaWAN/Mac/LoRaMac.c ****     LoRaMacConfirmQueueSetStatusCmn( LORAMAC_EVENT_INFO_STATUS_TX_TIMEOUT );
1243:Middlewares/Third_Party/LoRaWAN/Mac/LoRaMac.c ****     if( MacCtx.NodeAckRequested == true )
1244:Middlewares/Third_Party/LoRaWAN/Mac/LoRaMac.c ****     {
1245:Middlewares/Third_Party/LoRaWAN/Mac/LoRaMac.c ****         MacCtx.AckTimeoutRetry = true;
1246:Middlewares/Third_Party/LoRaWAN/Mac/LoRaMac.c ****     }
1247:Middlewares/Third_Party/LoRaWAN/Mac/LoRaMac.c ****     MacCtx.MacFlags.Bits.MacDone = 1;
1248:Middlewares/Third_Party/LoRaWAN/Mac/LoRaMac.c **** }
1249:Middlewares/Third_Party/LoRaWAN/Mac/LoRaMac.c **** 
1250:Middlewares/Third_Party/LoRaWAN/Mac/LoRaMac.c **** static void HandleRadioRxErrorTimeout( LoRaMacEventInfoStatus_t rx1EventInfoStatus, LoRaMacEventInf
1251:Middlewares/Third_Party/LoRaWAN/Mac/LoRaMac.c **** {
1252:Middlewares/Third_Party/LoRaWAN/Mac/LoRaMac.c ****     bool classBRx = false;
1253:Middlewares/Third_Party/LoRaWAN/Mac/LoRaMac.c **** 
1254:Middlewares/Third_Party/LoRaWAN/Mac/LoRaMac.c ****     if( Nvm.MacGroup2.DeviceClass != CLASS_C )
1255:Middlewares/Third_Party/LoRaWAN/Mac/LoRaMac.c ****     {
1256:Middlewares/Third_Party/LoRaWAN/Mac/LoRaMac.c ****         Radio.Sleep( );
1257:Middlewares/Third_Party/LoRaWAN/Mac/LoRaMac.c ****     }
1258:Middlewares/Third_Party/LoRaWAN/Mac/LoRaMac.c **** 
1259:Middlewares/Third_Party/LoRaWAN/Mac/LoRaMac.c ****     if( LoRaMacClassBIsBeaconExpected( ) == true )
1260:Middlewares/Third_Party/LoRaWAN/Mac/LoRaMac.c ****     {
1261:Middlewares/Third_Party/LoRaWAN/Mac/LoRaMac.c ****         LoRaMacClassBSetBeaconState( BEACON_STATE_TIMEOUT );
1262:Middlewares/Third_Party/LoRaWAN/Mac/LoRaMac.c ****         LoRaMacClassBBeaconTimerEvent( NULL );
1263:Middlewares/Third_Party/LoRaWAN/Mac/LoRaMac.c ****         classBRx = true;
1264:Middlewares/Third_Party/LoRaWAN/Mac/LoRaMac.c ****     }
1265:Middlewares/Third_Party/LoRaWAN/Mac/LoRaMac.c ****     if( Nvm.MacGroup2.DeviceClass == CLASS_B )
1266:Middlewares/Third_Party/LoRaWAN/Mac/LoRaMac.c ****     {
1267:Middlewares/Third_Party/LoRaWAN/Mac/LoRaMac.c ****         if( LoRaMacClassBIsPingExpected( ) == true )
1268:Middlewares/Third_Party/LoRaWAN/Mac/LoRaMac.c ****         {
1269:Middlewares/Third_Party/LoRaWAN/Mac/LoRaMac.c ****             LoRaMacClassBSetPingSlotState( PINGSLOT_STATE_CALC_PING_OFFSET );
1270:Middlewares/Third_Party/LoRaWAN/Mac/LoRaMac.c ****             LoRaMacClassBPingSlotTimerEvent( NULL );
1271:Middlewares/Third_Party/LoRaWAN/Mac/LoRaMac.c ****             classBRx = true;
1272:Middlewares/Third_Party/LoRaWAN/Mac/LoRaMac.c ****         }
1273:Middlewares/Third_Party/LoRaWAN/Mac/LoRaMac.c ****         if( LoRaMacClassBIsMulticastExpected( ) == true )
1274:Middlewares/Third_Party/LoRaWAN/Mac/LoRaMac.c ****         {
1275:Middlewares/Third_Party/LoRaWAN/Mac/LoRaMac.c ****             LoRaMacClassBSetMulticastSlotState( PINGSLOT_STATE_CALC_PING_OFFSET );
1276:Middlewares/Third_Party/LoRaWAN/Mac/LoRaMac.c ****             LoRaMacClassBMulticastSlotTimerEvent( NULL );
ARM GAS  /tmp/cc7YZJrH.s 			page 27


1277:Middlewares/Third_Party/LoRaWAN/Mac/LoRaMac.c ****             classBRx = true;
1278:Middlewares/Third_Party/LoRaWAN/Mac/LoRaMac.c ****         }
1279:Middlewares/Third_Party/LoRaWAN/Mac/LoRaMac.c ****     }
1280:Middlewares/Third_Party/LoRaWAN/Mac/LoRaMac.c **** 
1281:Middlewares/Third_Party/LoRaWAN/Mac/LoRaMac.c ****     if( classBRx == false )
1282:Middlewares/Third_Party/LoRaWAN/Mac/LoRaMac.c ****     {
1283:Middlewares/Third_Party/LoRaWAN/Mac/LoRaMac.c ****         if( MacCtx.RxSlot == RX_SLOT_WIN_1 )
1284:Middlewares/Third_Party/LoRaWAN/Mac/LoRaMac.c ****         {
1285:Middlewares/Third_Party/LoRaWAN/Mac/LoRaMac.c ****             if( MacCtx.NodeAckRequested == true )
1286:Middlewares/Third_Party/LoRaWAN/Mac/LoRaMac.c ****             {
1287:Middlewares/Third_Party/LoRaWAN/Mac/LoRaMac.c ****                 MacCtx.McpsConfirm.Status = rx1EventInfoStatus;
1288:Middlewares/Third_Party/LoRaWAN/Mac/LoRaMac.c ****             }
1289:Middlewares/Third_Party/LoRaWAN/Mac/LoRaMac.c ****             LoRaMacConfirmQueueSetStatusCmn( rx1EventInfoStatus );
1290:Middlewares/Third_Party/LoRaWAN/Mac/LoRaMac.c **** 
1291:Middlewares/Third_Party/LoRaWAN/Mac/LoRaMac.c ****             if( TimerGetElapsedTime( Nvm.MacGroup1.LastTxDoneTime ) >= MacCtx.RxWindow2Delay )
1292:Middlewares/Third_Party/LoRaWAN/Mac/LoRaMac.c ****             {
1293:Middlewares/Third_Party/LoRaWAN/Mac/LoRaMac.c ****                 TimerStop( &MacCtx.RxWindowTimer2 );
1294:Middlewares/Third_Party/LoRaWAN/Mac/LoRaMac.c ****                 MacCtx.MacFlags.Bits.MacDone = 1;
1295:Middlewares/Third_Party/LoRaWAN/Mac/LoRaMac.c ****             }
1296:Middlewares/Third_Party/LoRaWAN/Mac/LoRaMac.c ****         }
1297:Middlewares/Third_Party/LoRaWAN/Mac/LoRaMac.c ****         else
1298:Middlewares/Third_Party/LoRaWAN/Mac/LoRaMac.c ****         {
1299:Middlewares/Third_Party/LoRaWAN/Mac/LoRaMac.c ****             if( MacCtx.NodeAckRequested == true )
1300:Middlewares/Third_Party/LoRaWAN/Mac/LoRaMac.c ****             {
1301:Middlewares/Third_Party/LoRaWAN/Mac/LoRaMac.c ****                 MacCtx.McpsConfirm.Status = rx2EventInfoStatus;
1302:Middlewares/Third_Party/LoRaWAN/Mac/LoRaMac.c ****             }
1303:Middlewares/Third_Party/LoRaWAN/Mac/LoRaMac.c ****             LoRaMacConfirmQueueSetStatusCmn( rx2EventInfoStatus );
1304:Middlewares/Third_Party/LoRaWAN/Mac/LoRaMac.c **** 
1305:Middlewares/Third_Party/LoRaWAN/Mac/LoRaMac.c ****             if( Nvm.MacGroup2.DeviceClass != CLASS_C )
1306:Middlewares/Third_Party/LoRaWAN/Mac/LoRaMac.c ****             {
1307:Middlewares/Third_Party/LoRaWAN/Mac/LoRaMac.c ****                 MacCtx.MacFlags.Bits.MacDone = 1;
1308:Middlewares/Third_Party/LoRaWAN/Mac/LoRaMac.c ****             }
1309:Middlewares/Third_Party/LoRaWAN/Mac/LoRaMac.c ****         }
1310:Middlewares/Third_Party/LoRaWAN/Mac/LoRaMac.c ****     }
1311:Middlewares/Third_Party/LoRaWAN/Mac/LoRaMac.c **** 
1312:Middlewares/Third_Party/LoRaWAN/Mac/LoRaMac.c ****     UpdateRxSlotIdleState( );
1313:Middlewares/Third_Party/LoRaWAN/Mac/LoRaMac.c **** }
1314:Middlewares/Third_Party/LoRaWAN/Mac/LoRaMac.c **** 
1315:Middlewares/Third_Party/LoRaWAN/Mac/LoRaMac.c **** static void ProcessRadioRxError( void )
1316:Middlewares/Third_Party/LoRaWAN/Mac/LoRaMac.c **** {
1317:Middlewares/Third_Party/LoRaWAN/Mac/LoRaMac.c ****     HandleRadioRxErrorTimeout( LORAMAC_EVENT_INFO_STATUS_RX1_ERROR, LORAMAC_EVENT_INFO_STATUS_RX2_E
1318:Middlewares/Third_Party/LoRaWAN/Mac/LoRaMac.c **** }
1319:Middlewares/Third_Party/LoRaWAN/Mac/LoRaMac.c **** 
1320:Middlewares/Third_Party/LoRaWAN/Mac/LoRaMac.c **** static void ProcessRadioRxTimeout( void )
1321:Middlewares/Third_Party/LoRaWAN/Mac/LoRaMac.c **** {
1322:Middlewares/Third_Party/LoRaWAN/Mac/LoRaMac.c ****     HandleRadioRxErrorTimeout( LORAMAC_EVENT_INFO_STATUS_RX1_TIMEOUT, LORAMAC_EVENT_INFO_STATUS_RX2
1323:Middlewares/Third_Party/LoRaWAN/Mac/LoRaMac.c **** }
1324:Middlewares/Third_Party/LoRaWAN/Mac/LoRaMac.c **** 
1325:Middlewares/Third_Party/LoRaWAN/Mac/LoRaMac.c **** static void LoRaMacHandleIrqEvents( void )
1326:Middlewares/Third_Party/LoRaWAN/Mac/LoRaMac.c **** {
1327:Middlewares/Third_Party/LoRaWAN/Mac/LoRaMac.c ****     LoRaMacRadioEvents_t events;
1328:Middlewares/Third_Party/LoRaWAN/Mac/LoRaMac.c **** 
1329:Middlewares/Third_Party/LoRaWAN/Mac/LoRaMac.c ****     CRITICAL_SECTION_BEGIN( );
1330:Middlewares/Third_Party/LoRaWAN/Mac/LoRaMac.c ****     events = LoRaMacRadioEvents;
1331:Middlewares/Third_Party/LoRaWAN/Mac/LoRaMac.c ****     LoRaMacRadioEvents.Value = 0;
1332:Middlewares/Third_Party/LoRaWAN/Mac/LoRaMac.c ****     CRITICAL_SECTION_END( );
1333:Middlewares/Third_Party/LoRaWAN/Mac/LoRaMac.c **** 
ARM GAS  /tmp/cc7YZJrH.s 			page 28


1334:Middlewares/Third_Party/LoRaWAN/Mac/LoRaMac.c ****     if( events.Value != 0 )
1335:Middlewares/Third_Party/LoRaWAN/Mac/LoRaMac.c ****     {
1336:Middlewares/Third_Party/LoRaWAN/Mac/LoRaMac.c ****         if( events.Events.TxDone == 1 )
1337:Middlewares/Third_Party/LoRaWAN/Mac/LoRaMac.c ****         {
1338:Middlewares/Third_Party/LoRaWAN/Mac/LoRaMac.c ****             ProcessRadioTxDone( );
1339:Middlewares/Third_Party/LoRaWAN/Mac/LoRaMac.c ****         }
1340:Middlewares/Third_Party/LoRaWAN/Mac/LoRaMac.c ****         if( events.Events.RxDone == 1 )
1341:Middlewares/Third_Party/LoRaWAN/Mac/LoRaMac.c ****         {
1342:Middlewares/Third_Party/LoRaWAN/Mac/LoRaMac.c ****             ProcessRadioRxDone( );
1343:Middlewares/Third_Party/LoRaWAN/Mac/LoRaMac.c ****         }
1344:Middlewares/Third_Party/LoRaWAN/Mac/LoRaMac.c ****         if( events.Events.TxTimeout == 1 )
1345:Middlewares/Third_Party/LoRaWAN/Mac/LoRaMac.c ****         {
1346:Middlewares/Third_Party/LoRaWAN/Mac/LoRaMac.c ****             ProcessRadioTxTimeout( );
1347:Middlewares/Third_Party/LoRaWAN/Mac/LoRaMac.c ****         }
1348:Middlewares/Third_Party/LoRaWAN/Mac/LoRaMac.c ****         if( events.Events.RxError == 1 )
1349:Middlewares/Third_Party/LoRaWAN/Mac/LoRaMac.c ****         {
1350:Middlewares/Third_Party/LoRaWAN/Mac/LoRaMac.c ****             ProcessRadioRxError( );
1351:Middlewares/Third_Party/LoRaWAN/Mac/LoRaMac.c ****         }
1352:Middlewares/Third_Party/LoRaWAN/Mac/LoRaMac.c ****         if( events.Events.RxTimeout == 1 )
1353:Middlewares/Third_Party/LoRaWAN/Mac/LoRaMac.c ****         {
1354:Middlewares/Third_Party/LoRaWAN/Mac/LoRaMac.c ****             ProcessRadioRxTimeout( );
1355:Middlewares/Third_Party/LoRaWAN/Mac/LoRaMac.c ****         }
1356:Middlewares/Third_Party/LoRaWAN/Mac/LoRaMac.c ****     }
1357:Middlewares/Third_Party/LoRaWAN/Mac/LoRaMac.c **** }
1358:Middlewares/Third_Party/LoRaWAN/Mac/LoRaMac.c **** 
1359:Middlewares/Third_Party/LoRaWAN/Mac/LoRaMac.c **** bool LoRaMacIsBusy( void )
1360:Middlewares/Third_Party/LoRaWAN/Mac/LoRaMac.c **** {
1361:Middlewares/Third_Party/LoRaWAN/Mac/LoRaMac.c ****     if( ( MacCtx.MacState == LORAMAC_IDLE ) &&
1362:Middlewares/Third_Party/LoRaWAN/Mac/LoRaMac.c ****         ( MacCtx.AllowRequests == LORAMAC_REQUEST_HANDLING_ON ) )
1363:Middlewares/Third_Party/LoRaWAN/Mac/LoRaMac.c ****     {
1364:Middlewares/Third_Party/LoRaWAN/Mac/LoRaMac.c ****         return false;
1365:Middlewares/Third_Party/LoRaWAN/Mac/LoRaMac.c ****     }
1366:Middlewares/Third_Party/LoRaWAN/Mac/LoRaMac.c ****     return true;
1367:Middlewares/Third_Party/LoRaWAN/Mac/LoRaMac.c **** }
1368:Middlewares/Third_Party/LoRaWAN/Mac/LoRaMac.c **** 
1369:Middlewares/Third_Party/LoRaWAN/Mac/LoRaMac.c **** 
1370:Middlewares/Third_Party/LoRaWAN/Mac/LoRaMac.c **** static void LoRaMacEnableRequests( LoRaMacRequestHandling_t requestState )
1371:Middlewares/Third_Party/LoRaWAN/Mac/LoRaMac.c **** {
 216              		.loc 1 1371 1 is_stmt 1 view -0
 217              		.cfi_startproc
 218              		@ args = 0, pretend = 0, frame = 0
 219              		@ frame_needed = 0, uses_anonymous_args = 0
 220              		@ link register save eliminated.
1372:Middlewares/Third_Party/LoRaWAN/Mac/LoRaMac.c ****     MacCtx.AllowRequests = requestState;
 221              		.loc 1 1372 5 view .LVU42
 222              		.loc 1 1372 26 is_stmt 0 view .LVU43
 223 0000 014B     		ldr	r3, .L22
 224 0002 83F88204 		strb	r0, [r3, #1154]
1373:Middlewares/Third_Party/LoRaWAN/Mac/LoRaMac.c **** }
 225              		.loc 1 1373 1 view .LVU44
 226 0006 7047     		bx	lr
 227              	.L23:
 228              		.align	2
 229              	.L22:
 230 0008 00000000 		.word	.LANCHOR1
 231              		.cfi_endproc
 232              	.LFE119:
ARM GAS  /tmp/cc7YZJrH.s 			page 29


 234              		.section	.text.LoRaMacHandleIndicationEvents,"ax",%progbits
 235              		.align	1
 236              		.syntax unified
 237              		.thumb
 238              		.thumb_func
 239              		.fpu softvfp
 241              	LoRaMacHandleIndicationEvents:
 242              	.LFB122:
1374:Middlewares/Third_Party/LoRaWAN/Mac/LoRaMac.c **** 
1375:Middlewares/Third_Party/LoRaWAN/Mac/LoRaMac.c **** static void LoRaMacHandleRequestEvents( void )
1376:Middlewares/Third_Party/LoRaWAN/Mac/LoRaMac.c **** {
1377:Middlewares/Third_Party/LoRaWAN/Mac/LoRaMac.c ****     // Handle events
1378:Middlewares/Third_Party/LoRaWAN/Mac/LoRaMac.c ****     LoRaMacFlags_t reqEvents = MacCtx.MacFlags;
1379:Middlewares/Third_Party/LoRaWAN/Mac/LoRaMac.c **** 
1380:Middlewares/Third_Party/LoRaWAN/Mac/LoRaMac.c ****     if( MacCtx.MacState == LORAMAC_IDLE )
1381:Middlewares/Third_Party/LoRaWAN/Mac/LoRaMac.c ****     {
1382:Middlewares/Third_Party/LoRaWAN/Mac/LoRaMac.c ****         // Update event bits
1383:Middlewares/Third_Party/LoRaWAN/Mac/LoRaMac.c ****         if( MacCtx.MacFlags.Bits.McpsReq == 1 )
1384:Middlewares/Third_Party/LoRaWAN/Mac/LoRaMac.c ****         {
1385:Middlewares/Third_Party/LoRaWAN/Mac/LoRaMac.c ****             MacCtx.MacFlags.Bits.McpsReq = 0;
1386:Middlewares/Third_Party/LoRaWAN/Mac/LoRaMac.c ****         }
1387:Middlewares/Third_Party/LoRaWAN/Mac/LoRaMac.c **** 
1388:Middlewares/Third_Party/LoRaWAN/Mac/LoRaMac.c ****         if( MacCtx.MacFlags.Bits.MlmeReq == 1 )
1389:Middlewares/Third_Party/LoRaWAN/Mac/LoRaMac.c ****         {
1390:Middlewares/Third_Party/LoRaWAN/Mac/LoRaMac.c ****             MacCtx.MacFlags.Bits.MlmeReq = 0;
1391:Middlewares/Third_Party/LoRaWAN/Mac/LoRaMac.c ****         }
1392:Middlewares/Third_Party/LoRaWAN/Mac/LoRaMac.c **** 
1393:Middlewares/Third_Party/LoRaWAN/Mac/LoRaMac.c ****         // Allow requests again
1394:Middlewares/Third_Party/LoRaWAN/Mac/LoRaMac.c ****         LoRaMacEnableRequests( LORAMAC_REQUEST_HANDLING_ON );
1395:Middlewares/Third_Party/LoRaWAN/Mac/LoRaMac.c **** 
1396:Middlewares/Third_Party/LoRaWAN/Mac/LoRaMac.c ****         // Handle callbacks
1397:Middlewares/Third_Party/LoRaWAN/Mac/LoRaMac.c ****         if( reqEvents.Bits.McpsReq == 1 )
1398:Middlewares/Third_Party/LoRaWAN/Mac/LoRaMac.c ****         {
1399:Middlewares/Third_Party/LoRaWAN/Mac/LoRaMac.c ****             MacCtx.MacPrimitives->MacMcpsConfirm( &MacCtx.McpsConfirm );
1400:Middlewares/Third_Party/LoRaWAN/Mac/LoRaMac.c ****         }
1401:Middlewares/Third_Party/LoRaWAN/Mac/LoRaMac.c **** 
1402:Middlewares/Third_Party/LoRaWAN/Mac/LoRaMac.c ****         if( reqEvents.Bits.MlmeReq == 1 )
1403:Middlewares/Third_Party/LoRaWAN/Mac/LoRaMac.c ****         {
1404:Middlewares/Third_Party/LoRaWAN/Mac/LoRaMac.c ****             LoRaMacConfirmQueueHandleCb( &MacCtx.MlmeConfirm );
1405:Middlewares/Third_Party/LoRaWAN/Mac/LoRaMac.c ****             if( LoRaMacConfirmQueueGetCnt( ) > 0 )
1406:Middlewares/Third_Party/LoRaWAN/Mac/LoRaMac.c ****             {
1407:Middlewares/Third_Party/LoRaWAN/Mac/LoRaMac.c ****                 MacCtx.MacFlags.Bits.MlmeReq = 1;
1408:Middlewares/Third_Party/LoRaWAN/Mac/LoRaMac.c ****             }
1409:Middlewares/Third_Party/LoRaWAN/Mac/LoRaMac.c ****         }
1410:Middlewares/Third_Party/LoRaWAN/Mac/LoRaMac.c **** 
1411:Middlewares/Third_Party/LoRaWAN/Mac/LoRaMac.c ****         // Start beaconing again
1412:Middlewares/Third_Party/LoRaWAN/Mac/LoRaMac.c ****         LoRaMacClassBResumeBeaconing( );
1413:Middlewares/Third_Party/LoRaWAN/Mac/LoRaMac.c **** 
1414:Middlewares/Third_Party/LoRaWAN/Mac/LoRaMac.c ****         // Procedure done. Reset variables.
1415:Middlewares/Third_Party/LoRaWAN/Mac/LoRaMac.c ****         MacCtx.MacFlags.Bits.MacDone = 0;
1416:Middlewares/Third_Party/LoRaWAN/Mac/LoRaMac.c ****     }
1417:Middlewares/Third_Party/LoRaWAN/Mac/LoRaMac.c **** }
1418:Middlewares/Third_Party/LoRaWAN/Mac/LoRaMac.c **** 
1419:Middlewares/Third_Party/LoRaWAN/Mac/LoRaMac.c **** static void LoRaMacHandleScheduleUplinkEvent( void )
1420:Middlewares/Third_Party/LoRaWAN/Mac/LoRaMac.c **** {
1421:Middlewares/Third_Party/LoRaWAN/Mac/LoRaMac.c ****     // Handle events
1422:Middlewares/Third_Party/LoRaWAN/Mac/LoRaMac.c ****     if( MacCtx.MacState == LORAMAC_IDLE )
ARM GAS  /tmp/cc7YZJrH.s 			page 30


1423:Middlewares/Third_Party/LoRaWAN/Mac/LoRaMac.c ****     {
1424:Middlewares/Third_Party/LoRaWAN/Mac/LoRaMac.c ****         // Verify if sticky MAC commands are pending or not
1425:Middlewares/Third_Party/LoRaWAN/Mac/LoRaMac.c ****         bool isStickyMacCommandPending = false;
1426:Middlewares/Third_Party/LoRaWAN/Mac/LoRaMac.c ****         LoRaMacCommandsStickyCmdsPending( &isStickyMacCommandPending );
1427:Middlewares/Third_Party/LoRaWAN/Mac/LoRaMac.c ****         if( isStickyMacCommandPending == true )
1428:Middlewares/Third_Party/LoRaWAN/Mac/LoRaMac.c ****         {// Setup MLME indication
1429:Middlewares/Third_Party/LoRaWAN/Mac/LoRaMac.c ****             SetMlmeScheduleUplinkIndication( );
1430:Middlewares/Third_Party/LoRaWAN/Mac/LoRaMac.c ****         }
1431:Middlewares/Third_Party/LoRaWAN/Mac/LoRaMac.c ****     }
1432:Middlewares/Third_Party/LoRaWAN/Mac/LoRaMac.c **** }
1433:Middlewares/Third_Party/LoRaWAN/Mac/LoRaMac.c **** 
1434:Middlewares/Third_Party/LoRaWAN/Mac/LoRaMac.c **** static void LoRaMacHandleIndicationEvents( void )
1435:Middlewares/Third_Party/LoRaWAN/Mac/LoRaMac.c **** {
 243              		.loc 1 1435 1 is_stmt 1 view -0
 244              		.cfi_startproc
 245              		@ args = 0, pretend = 0, frame = 32
 246              		@ frame_needed = 0, uses_anonymous_args = 0
 247 0000 30B5     		push	{r4, r5, lr}
 248              	.LCFI3:
 249              		.cfi_def_cfa_offset 12
 250              		.cfi_offset 4, -12
 251              		.cfi_offset 5, -8
 252              		.cfi_offset 14, -4
 253 0002 89B0     		sub	sp, sp, #36
 254              	.LCFI4:
 255              		.cfi_def_cfa_offset 48
1436:Middlewares/Third_Party/LoRaWAN/Mac/LoRaMac.c ****     // Handle MLME indication
1437:Middlewares/Third_Party/LoRaWAN/Mac/LoRaMac.c ****     if( MacCtx.MacFlags.Bits.MlmeInd == 1 )
 256              		.loc 1 1437 5 view .LVU46
 257              		.loc 1 1437 38 is_stmt 0 view .LVU47
 258 0004 224B     		ldr	r3, .L29
 259 0006 93F88134 		ldrb	r3, [r3, #1153]	@ zero_extendqisi2
 260              		.loc 1 1437 7 view .LVU48
 261 000a 13F0080F 		tst	r3, #8
 262 000e 0ED0     		beq	.L25
1438:Middlewares/Third_Party/LoRaWAN/Mac/LoRaMac.c ****     {
1439:Middlewares/Third_Party/LoRaWAN/Mac/LoRaMac.c ****         MacCtx.MacFlags.Bits.MlmeInd = 0;
 263              		.loc 1 1439 9 is_stmt 1 view .LVU49
 264              		.loc 1 1439 38 is_stmt 0 view .LVU50
 265 0010 1F48     		ldr	r0, .L29
 266 0012 90F88134 		ldrb	r3, [r0, #1153]	@ zero_extendqisi2
 267 0016 6FF3C303 		bfc	r3, #3, #1
 268 001a 80F88134 		strb	r3, [r0, #1153]
1440:Middlewares/Third_Party/LoRaWAN/Mac/LoRaMac.c ****         MacCtx.MacPrimitives->MacMlmeIndication( &MacCtx.MlmeIndication, &MacCtx.RxStatus );
 269              		.loc 1 1440 9 is_stmt 1 view .LVU51
 270              		.loc 1 1440 15 is_stmt 0 view .LVU52
 271 001e D0F84433 		ldr	r3, [r0, #836]
 272              		.loc 1 1440 29 view .LVU53
 273 0022 DB68     		ldr	r3, [r3, #12]
 274              		.loc 1 1440 9 view .LVU54
 275 0024 00F27C41 		addw	r1, r0, #1148
 276 0028 00F58C60 		add	r0, r0, #1120
 277 002c 9847     		blx	r3
 278              	.LVL4:
 279              	.L25:
1441:Middlewares/Third_Party/LoRaWAN/Mac/LoRaMac.c ****     }
1442:Middlewares/Third_Party/LoRaWAN/Mac/LoRaMac.c **** 
ARM GAS  /tmp/cc7YZJrH.s 			page 31


1443:Middlewares/Third_Party/LoRaWAN/Mac/LoRaMac.c ****     if( MacCtx.MacFlags.Bits.MlmeSchedUplinkInd == 1 )
 280              		.loc 1 1443 5 is_stmt 1 view .LVU55
 281              		.loc 1 1443 49 is_stmt 0 view .LVU56
 282 002e 184B     		ldr	r3, .L29
 283 0030 93F88134 		ldrb	r3, [r3, #1153]	@ zero_extendqisi2
 284              		.loc 1 1443 7 view .LVU57
 285 0034 13F0100F 		tst	r3, #16
 286 0038 13D0     		beq	.L26
 287              	.LBB8:
1444:Middlewares/Third_Party/LoRaWAN/Mac/LoRaMac.c ****     {
1445:Middlewares/Third_Party/LoRaWAN/Mac/LoRaMac.c ****         MlmeIndication_t schduleUplinkIndication;
 288              		.loc 1 1445 9 is_stmt 1 view .LVU58
1446:Middlewares/Third_Party/LoRaWAN/Mac/LoRaMac.c ****         schduleUplinkIndication.MlmeIndication = MLME_SCHEDULE_UPLINK;
 289              		.loc 1 1446 9 view .LVU59
 290              		.loc 1 1446 48 is_stmt 0 view .LVU60
 291 003a 0723     		movs	r3, #7
 292 003c 8DF80430 		strb	r3, [sp, #4]
1447:Middlewares/Third_Party/LoRaWAN/Mac/LoRaMac.c ****         schduleUplinkIndication.Status = LORAMAC_EVENT_INFO_STATUS_OK;
 293              		.loc 1 1447 9 is_stmt 1 view .LVU61
 294              		.loc 1 1447 40 is_stmt 0 view .LVU62
 295 0040 0025     		movs	r5, #0
 296 0042 8DF80550 		strb	r5, [sp, #5]
1448:Middlewares/Third_Party/LoRaWAN/Mac/LoRaMac.c **** 
1449:Middlewares/Third_Party/LoRaWAN/Mac/LoRaMac.c ****         MacCtx.MacPrimitives->MacMlmeIndication( &schduleUplinkIndication, &MacCtx.RxStatus );
 297              		.loc 1 1449 9 is_stmt 1 view .LVU63
 298              		.loc 1 1449 15 is_stmt 0 view .LVU64
 299 0046 124C     		ldr	r4, .L29
 300 0048 D4F84433 		ldr	r3, [r4, #836]
 301              		.loc 1 1449 29 view .LVU65
 302 004c DB68     		ldr	r3, [r3, #12]
 303              		.loc 1 1449 9 view .LVU66
 304 004e 04F27C41 		addw	r1, r4, #1148
 305 0052 01A8     		add	r0, sp, #4
 306 0054 9847     		blx	r3
 307              	.LVL5:
1450:Middlewares/Third_Party/LoRaWAN/Mac/LoRaMac.c ****         MacCtx.MacFlags.Bits.MlmeSchedUplinkInd = 0;
 308              		.loc 1 1450 9 is_stmt 1 view .LVU67
 309              		.loc 1 1450 49 is_stmt 0 view .LVU68
 310 0056 94F88134 		ldrb	r3, [r4, #1153]	@ zero_extendqisi2
 311 005a 65F30413 		bfi	r3, r5, #4, #1
 312 005e 84F88134 		strb	r3, [r4, #1153]
 313              	.L26:
 314              	.LBE8:
1451:Middlewares/Third_Party/LoRaWAN/Mac/LoRaMac.c ****     }
1452:Middlewares/Third_Party/LoRaWAN/Mac/LoRaMac.c **** 
1453:Middlewares/Third_Party/LoRaWAN/Mac/LoRaMac.c ****     // Handle MCPS indication
1454:Middlewares/Third_Party/LoRaWAN/Mac/LoRaMac.c ****     if( MacCtx.MacFlags.Bits.McpsInd == 1 )
 315              		.loc 1 1454 5 is_stmt 1 view .LVU69
 316              		.loc 1 1454 38 is_stmt 0 view .LVU70
 317 0062 0B4B     		ldr	r3, .L29
 318 0064 93F88134 		ldrb	r3, [r3, #1153]	@ zero_extendqisi2
 319              		.loc 1 1454 7 view .LVU71
 320 0068 13F0020F 		tst	r3, #2
 321 006c 0ED0     		beq	.L24
1455:Middlewares/Third_Party/LoRaWAN/Mac/LoRaMac.c ****     {
1456:Middlewares/Third_Party/LoRaWAN/Mac/LoRaMac.c ****         MacCtx.MacFlags.Bits.McpsInd = 0;
 322              		.loc 1 1456 9 is_stmt 1 view .LVU72
ARM GAS  /tmp/cc7YZJrH.s 			page 32


 323              		.loc 1 1456 38 is_stmt 0 view .LVU73
 324 006e 0848     		ldr	r0, .L29
 325 0070 90F88134 		ldrb	r3, [r0, #1153]	@ zero_extendqisi2
 326 0074 6FF34103 		bfc	r3, #1, #1
 327 0078 80F88134 		strb	r3, [r0, #1153]
1457:Middlewares/Third_Party/LoRaWAN/Mac/LoRaMac.c ****         MacCtx.MacPrimitives->MacMcpsIndication( &MacCtx.McpsIndication, &MacCtx.RxStatus );
 328              		.loc 1 1457 9 is_stmt 1 view .LVU74
 329              		.loc 1 1457 15 is_stmt 0 view .LVU75
 330 007c D0F84433 		ldr	r3, [r0, #836]
 331              		.loc 1 1457 29 view .LVU76
 332 0080 5B68     		ldr	r3, [r3, #4]
 333              		.loc 1 1457 9 view .LVU77
 334 0082 00F27C41 		addw	r1, r0, #1148
 335 0086 00F21C40 		addw	r0, r0, #1052
 336 008a 9847     		blx	r3
 337              	.LVL6:
 338              	.L24:
1458:Middlewares/Third_Party/LoRaWAN/Mac/LoRaMac.c ****     }
1459:Middlewares/Third_Party/LoRaWAN/Mac/LoRaMac.c **** }
 339              		.loc 1 1459 1 view .LVU78
 340 008c 09B0     		add	sp, sp, #36
 341              	.LCFI5:
 342              		.cfi_def_cfa_offset 12
 343              		@ sp needed
 344 008e 30BD     		pop	{r4, r5, pc}
 345              	.L30:
 346              		.align	2
 347              	.L29:
 348 0090 00000000 		.word	.LANCHOR1
 349              		.cfi_endproc
 350              	.LFE122:
 352              		.section	.text.LoRaMacCheckForRxAbort,"ax",%progbits
 353              		.align	1
 354              		.syntax unified
 355              		.thumb
 356              		.thumb_func
 357              		.fpu softvfp
 359              	LoRaMacCheckForRxAbort:
 360              	.LFB126:
1460:Middlewares/Third_Party/LoRaWAN/Mac/LoRaMac.c **** 
1461:Middlewares/Third_Party/LoRaWAN/Mac/LoRaMac.c **** static void LoRaMacHandleMcpsRequest( void )
1462:Middlewares/Third_Party/LoRaWAN/Mac/LoRaMac.c **** {
1463:Middlewares/Third_Party/LoRaWAN/Mac/LoRaMac.c ****     // Handle MCPS uplinks
1464:Middlewares/Third_Party/LoRaWAN/Mac/LoRaMac.c ****     if( MacCtx.MacFlags.Bits.McpsReq == 1 )
1465:Middlewares/Third_Party/LoRaWAN/Mac/LoRaMac.c ****     {
1466:Middlewares/Third_Party/LoRaWAN/Mac/LoRaMac.c ****         bool stopRetransmission = false;
1467:Middlewares/Third_Party/LoRaWAN/Mac/LoRaMac.c ****         bool waitForRetransmission = false;
1468:Middlewares/Third_Party/LoRaWAN/Mac/LoRaMac.c **** 
1469:Middlewares/Third_Party/LoRaWAN/Mac/LoRaMac.c ****         if( ( MacCtx.McpsConfirm.McpsRequest == MCPS_UNCONFIRMED ) ||
1470:Middlewares/Third_Party/LoRaWAN/Mac/LoRaMac.c ****             ( MacCtx.McpsConfirm.McpsRequest == MCPS_PROPRIETARY ) )
1471:Middlewares/Third_Party/LoRaWAN/Mac/LoRaMac.c ****         {
1472:Middlewares/Third_Party/LoRaWAN/Mac/LoRaMac.c ****             stopRetransmission = CheckRetransUnconfirmedUplink( );
1473:Middlewares/Third_Party/LoRaWAN/Mac/LoRaMac.c ****         }
1474:Middlewares/Third_Party/LoRaWAN/Mac/LoRaMac.c ****         else if( MacCtx.McpsConfirm.McpsRequest == MCPS_CONFIRMED )
1475:Middlewares/Third_Party/LoRaWAN/Mac/LoRaMac.c ****         {
1476:Middlewares/Third_Party/LoRaWAN/Mac/LoRaMac.c ****             if( MacCtx.AckTimeoutRetry == true )
1477:Middlewares/Third_Party/LoRaWAN/Mac/LoRaMac.c ****             {
ARM GAS  /tmp/cc7YZJrH.s 			page 33


1478:Middlewares/Third_Party/LoRaWAN/Mac/LoRaMac.c ****                 stopRetransmission = CheckRetransConfirmedUplink( );
1479:Middlewares/Third_Party/LoRaWAN/Mac/LoRaMac.c **** 
1480:Middlewares/Third_Party/LoRaWAN/Mac/LoRaMac.c ****                 if( Nvm.MacGroup2.Version.Fields.Minor == 0 )
1481:Middlewares/Third_Party/LoRaWAN/Mac/LoRaMac.c ****                 {
1482:Middlewares/Third_Party/LoRaWAN/Mac/LoRaMac.c ****                     if( stopRetransmission == false )
1483:Middlewares/Third_Party/LoRaWAN/Mac/LoRaMac.c ****                     {
1484:Middlewares/Third_Party/LoRaWAN/Mac/LoRaMac.c ****                         AckTimeoutRetriesProcess( );
1485:Middlewares/Third_Party/LoRaWAN/Mac/LoRaMac.c ****                     }
1486:Middlewares/Third_Party/LoRaWAN/Mac/LoRaMac.c ****                     else
1487:Middlewares/Third_Party/LoRaWAN/Mac/LoRaMac.c ****                     {
1488:Middlewares/Third_Party/LoRaWAN/Mac/LoRaMac.c ****                         AckTimeoutRetriesFinalize( );
1489:Middlewares/Third_Party/LoRaWAN/Mac/LoRaMac.c ****                     }
1490:Middlewares/Third_Party/LoRaWAN/Mac/LoRaMac.c ****                 }
1491:Middlewares/Third_Party/LoRaWAN/Mac/LoRaMac.c ****             }
1492:Middlewares/Third_Party/LoRaWAN/Mac/LoRaMac.c ****             else
1493:Middlewares/Third_Party/LoRaWAN/Mac/LoRaMac.c ****             {
1494:Middlewares/Third_Party/LoRaWAN/Mac/LoRaMac.c ****                 waitForRetransmission = true;
1495:Middlewares/Third_Party/LoRaWAN/Mac/LoRaMac.c ****             }
1496:Middlewares/Third_Party/LoRaWAN/Mac/LoRaMac.c ****         }
1497:Middlewares/Third_Party/LoRaWAN/Mac/LoRaMac.c **** 
1498:Middlewares/Third_Party/LoRaWAN/Mac/LoRaMac.c ****         if( stopRetransmission == true )
1499:Middlewares/Third_Party/LoRaWAN/Mac/LoRaMac.c ****         {// Stop retransmission
1500:Middlewares/Third_Party/LoRaWAN/Mac/LoRaMac.c ****             TimerStop( &MacCtx.TxDelayedTimer );
1501:Middlewares/Third_Party/LoRaWAN/Mac/LoRaMac.c ****             MacCtx.MacState &= ~LORAMAC_TX_DELAYED;
1502:Middlewares/Third_Party/LoRaWAN/Mac/LoRaMac.c ****             StopRetransmission( );
1503:Middlewares/Third_Party/LoRaWAN/Mac/LoRaMac.c ****         }
1504:Middlewares/Third_Party/LoRaWAN/Mac/LoRaMac.c ****         else if( waitForRetransmission == false )
1505:Middlewares/Third_Party/LoRaWAN/Mac/LoRaMac.c ****         {// Arrange further retransmission
1506:Middlewares/Third_Party/LoRaWAN/Mac/LoRaMac.c ****             MacCtx.MacFlags.Bits.MacDone = 0;
1507:Middlewares/Third_Party/LoRaWAN/Mac/LoRaMac.c ****             // Reset the state of the AckTimeout
1508:Middlewares/Third_Party/LoRaWAN/Mac/LoRaMac.c ****             MacCtx.AckTimeoutRetry = false;
1509:Middlewares/Third_Party/LoRaWAN/Mac/LoRaMac.c ****             // Sends the same frame again
1510:Middlewares/Third_Party/LoRaWAN/Mac/LoRaMac.c ****             OnTxDelayedTimerEvent( NULL );
1511:Middlewares/Third_Party/LoRaWAN/Mac/LoRaMac.c ****         }
1512:Middlewares/Third_Party/LoRaWAN/Mac/LoRaMac.c ****     }
1513:Middlewares/Third_Party/LoRaWAN/Mac/LoRaMac.c **** }
1514:Middlewares/Third_Party/LoRaWAN/Mac/LoRaMac.c **** 
1515:Middlewares/Third_Party/LoRaWAN/Mac/LoRaMac.c **** static void LoRaMacHandleMlmeRequest( void )
1516:Middlewares/Third_Party/LoRaWAN/Mac/LoRaMac.c **** {
1517:Middlewares/Third_Party/LoRaWAN/Mac/LoRaMac.c ****     // Handle join request
1518:Middlewares/Third_Party/LoRaWAN/Mac/LoRaMac.c ****     if( MacCtx.MacFlags.Bits.MlmeReq == 1 )
1519:Middlewares/Third_Party/LoRaWAN/Mac/LoRaMac.c ****     {
1520:Middlewares/Third_Party/LoRaWAN/Mac/LoRaMac.c ****         if( LoRaMacConfirmQueueIsCmdActive( MLME_JOIN ) == true )
1521:Middlewares/Third_Party/LoRaWAN/Mac/LoRaMac.c ****         {
1522:Middlewares/Third_Party/LoRaWAN/Mac/LoRaMac.c ****             if( LoRaMacConfirmQueueGetStatus( MLME_JOIN ) == LORAMAC_EVENT_INFO_STATUS_OK )
1523:Middlewares/Third_Party/LoRaWAN/Mac/LoRaMac.c ****             {// Node joined successfully
1524:Middlewares/Third_Party/LoRaWAN/Mac/LoRaMac.c ****                 MacCtx.ChannelsNbTransCounter = 0;
1525:Middlewares/Third_Party/LoRaWAN/Mac/LoRaMac.c ****             }
1526:Middlewares/Third_Party/LoRaWAN/Mac/LoRaMac.c ****             MacCtx.MacState &= ~LORAMAC_TX_RUNNING;
1527:Middlewares/Third_Party/LoRaWAN/Mac/LoRaMac.c ****         }
1528:Middlewares/Third_Party/LoRaWAN/Mac/LoRaMac.c ****         else if( ( LoRaMacConfirmQueueIsCmdActive( MLME_TXCW ) == true ) ||
1529:Middlewares/Third_Party/LoRaWAN/Mac/LoRaMac.c ****                  ( LoRaMacConfirmQueueIsCmdActive( MLME_TXCW_1 ) == true ) )
1530:Middlewares/Third_Party/LoRaWAN/Mac/LoRaMac.c ****         {
1531:Middlewares/Third_Party/LoRaWAN/Mac/LoRaMac.c ****             MacCtx.MacState &= ~LORAMAC_TX_RUNNING;
1532:Middlewares/Third_Party/LoRaWAN/Mac/LoRaMac.c ****         }
1533:Middlewares/Third_Party/LoRaWAN/Mac/LoRaMac.c ****     }
1534:Middlewares/Third_Party/LoRaWAN/Mac/LoRaMac.c **** }
ARM GAS  /tmp/cc7YZJrH.s 			page 34


1535:Middlewares/Third_Party/LoRaWAN/Mac/LoRaMac.c **** 
1536:Middlewares/Third_Party/LoRaWAN/Mac/LoRaMac.c **** static uint8_t LoRaMacCheckForBeaconAcquisition( void )
1537:Middlewares/Third_Party/LoRaWAN/Mac/LoRaMac.c **** {
1538:Middlewares/Third_Party/LoRaWAN/Mac/LoRaMac.c ****     if( ( LoRaMacConfirmQueueIsCmdActive( MLME_BEACON_ACQUISITION ) == true ) &&
1539:Middlewares/Third_Party/LoRaWAN/Mac/LoRaMac.c ****         ( MacCtx.MacFlags.Bits.McpsReq == 0 ) )
1540:Middlewares/Third_Party/LoRaWAN/Mac/LoRaMac.c ****     {
1541:Middlewares/Third_Party/LoRaWAN/Mac/LoRaMac.c ****         if( MacCtx.MacFlags.Bits.MlmeReq == 1 )
1542:Middlewares/Third_Party/LoRaWAN/Mac/LoRaMac.c ****         {
1543:Middlewares/Third_Party/LoRaWAN/Mac/LoRaMac.c ****             MacCtx.MacState &= ~LORAMAC_TX_RUNNING;
1544:Middlewares/Third_Party/LoRaWAN/Mac/LoRaMac.c ****             return 0x01;
1545:Middlewares/Third_Party/LoRaWAN/Mac/LoRaMac.c ****         }
1546:Middlewares/Third_Party/LoRaWAN/Mac/LoRaMac.c ****     }
1547:Middlewares/Third_Party/LoRaWAN/Mac/LoRaMac.c ****     return 0x00;
1548:Middlewares/Third_Party/LoRaWAN/Mac/LoRaMac.c **** }
1549:Middlewares/Third_Party/LoRaWAN/Mac/LoRaMac.c **** 
1550:Middlewares/Third_Party/LoRaWAN/Mac/LoRaMac.c **** static void LoRaMacCheckForRxAbort( void )
1551:Middlewares/Third_Party/LoRaWAN/Mac/LoRaMac.c **** {
 361              		.loc 1 1551 1 is_stmt 1 view -0
 362              		.cfi_startproc
 363              		@ args = 0, pretend = 0, frame = 0
 364              		@ frame_needed = 0, uses_anonymous_args = 0
 365              		@ link register save eliminated.
1552:Middlewares/Third_Party/LoRaWAN/Mac/LoRaMac.c ****     // A error occurs during receiving
1553:Middlewares/Third_Party/LoRaWAN/Mac/LoRaMac.c ****     if( ( MacCtx.MacState & LORAMAC_RX_ABORT ) == LORAMAC_RX_ABORT )
 366              		.loc 1 1553 5 view .LVU80
 367              		.loc 1 1553 17 is_stmt 0 view .LVU81
 368 0000 074B     		ldr	r3, .L33
 369 0002 D3F84033 		ldr	r3, [r3, #832]
 370              		.loc 1 1553 7 view .LVU82
 371 0006 13F0800F 		tst	r3, #128
 372 000a 08D0     		beq	.L31
1554:Middlewares/Third_Party/LoRaWAN/Mac/LoRaMac.c ****     {
1555:Middlewares/Third_Party/LoRaWAN/Mac/LoRaMac.c ****         MacCtx.MacState &= ~LORAMAC_RX_ABORT;
 373              		.loc 1 1555 9 is_stmt 1 view .LVU83
 374              		.loc 1 1555 25 is_stmt 0 view .LVU84
 375 000c 23F08001 		bic	r1, r3, #128
 376 0010 034A     		ldr	r2, .L33
 377 0012 C2F84013 		str	r1, [r2, #832]
1556:Middlewares/Third_Party/LoRaWAN/Mac/LoRaMac.c ****         MacCtx.MacState &= ~LORAMAC_TX_RUNNING;
 378              		.loc 1 1556 9 is_stmt 1 view .LVU85
 379              		.loc 1 1556 25 is_stmt 0 view .LVU86
 380 0016 23F08203 		bic	r3, r3, #130
 381 001a C2F84033 		str	r3, [r2, #832]
 382              	.L31:
1557:Middlewares/Third_Party/LoRaWAN/Mac/LoRaMac.c ****     }
1558:Middlewares/Third_Party/LoRaWAN/Mac/LoRaMac.c **** }
 383              		.loc 1 1558 1 view .LVU87
 384 001e 7047     		bx	lr
 385              	.L34:
 386              		.align	2
 387              	.L33:
 388 0020 00000000 		.word	.LANCHOR1
 389              		.cfi_endproc
 390              	.LFE126:
 392              		.section	.text.SetMlmeScheduleUplinkIndication,"ax",%progbits
 393              		.align	1
 394              		.syntax unified
ARM GAS  /tmp/cc7YZJrH.s 			page 35


 395              		.thumb
 396              		.thumb_func
 397              		.fpu softvfp
 399              	SetMlmeScheduleUplinkIndication:
 400              	.LFB137:
1559:Middlewares/Third_Party/LoRaWAN/Mac/LoRaMac.c **** 
1560:Middlewares/Third_Party/LoRaWAN/Mac/LoRaMac.c **** static void LoRaMacHandleNvm( LoRaMacNvmData_t* nvmData )
1561:Middlewares/Third_Party/LoRaWAN/Mac/LoRaMac.c **** {
1562:Middlewares/Third_Party/LoRaWAN/Mac/LoRaMac.c ****     uint32_t crc = 0;
1563:Middlewares/Third_Party/LoRaWAN/Mac/LoRaMac.c ****     uint16_t notifyFlags = LORAMAC_NVM_NOTIFY_FLAG_NONE;
1564:Middlewares/Third_Party/LoRaWAN/Mac/LoRaMac.c **** 
1565:Middlewares/Third_Party/LoRaWAN/Mac/LoRaMac.c ****     if( MacCtx.MacState != LORAMAC_IDLE )
1566:Middlewares/Third_Party/LoRaWAN/Mac/LoRaMac.c ****     {
1567:Middlewares/Third_Party/LoRaWAN/Mac/LoRaMac.c ****         return;
1568:Middlewares/Third_Party/LoRaWAN/Mac/LoRaMac.c ****     }
1569:Middlewares/Third_Party/LoRaWAN/Mac/LoRaMac.c **** 
1570:Middlewares/Third_Party/LoRaWAN/Mac/LoRaMac.c ****     // Crypto
1571:Middlewares/Third_Party/LoRaWAN/Mac/LoRaMac.c ****     crc = Crc32( ( uint8_t* ) &nvmData->Crypto, sizeof( nvmData->Crypto ) -
1572:Middlewares/Third_Party/LoRaWAN/Mac/LoRaMac.c ****                                                 sizeof( nvmData->Crypto.Crc32 ) );
1573:Middlewares/Third_Party/LoRaWAN/Mac/LoRaMac.c ****     if( crc != nvmData->Crypto.Crc32 )
1574:Middlewares/Third_Party/LoRaWAN/Mac/LoRaMac.c ****     {
1575:Middlewares/Third_Party/LoRaWAN/Mac/LoRaMac.c ****         nvmData->Crypto.Crc32 = crc;
1576:Middlewares/Third_Party/LoRaWAN/Mac/LoRaMac.c ****         notifyFlags |= LORAMAC_NVM_NOTIFY_FLAG_CRYPTO;
1577:Middlewares/Third_Party/LoRaWAN/Mac/LoRaMac.c ****     }
1578:Middlewares/Third_Party/LoRaWAN/Mac/LoRaMac.c **** 
1579:Middlewares/Third_Party/LoRaWAN/Mac/LoRaMac.c ****     // MacGroup1
1580:Middlewares/Third_Party/LoRaWAN/Mac/LoRaMac.c ****     crc = Crc32( ( uint8_t* ) &nvmData->MacGroup1, sizeof( nvmData->MacGroup1 ) -
1581:Middlewares/Third_Party/LoRaWAN/Mac/LoRaMac.c ****                                                    sizeof( nvmData->MacGroup1.Crc32 ) );
1582:Middlewares/Third_Party/LoRaWAN/Mac/LoRaMac.c ****     if( crc != nvmData->MacGroup1.Crc32 )
1583:Middlewares/Third_Party/LoRaWAN/Mac/LoRaMac.c ****     {
1584:Middlewares/Third_Party/LoRaWAN/Mac/LoRaMac.c ****         nvmData->MacGroup1.Crc32 = crc;
1585:Middlewares/Third_Party/LoRaWAN/Mac/LoRaMac.c ****         notifyFlags |= LORAMAC_NVM_NOTIFY_FLAG_MAC_GROUP1;
1586:Middlewares/Third_Party/LoRaWAN/Mac/LoRaMac.c ****     }
1587:Middlewares/Third_Party/LoRaWAN/Mac/LoRaMac.c **** 
1588:Middlewares/Third_Party/LoRaWAN/Mac/LoRaMac.c ****     // MacGroup2
1589:Middlewares/Third_Party/LoRaWAN/Mac/LoRaMac.c ****     crc = Crc32( ( uint8_t* ) &nvmData->MacGroup2, sizeof( nvmData->MacGroup2 ) -
1590:Middlewares/Third_Party/LoRaWAN/Mac/LoRaMac.c ****                                                    sizeof( nvmData->MacGroup2.Crc32 ) );
1591:Middlewares/Third_Party/LoRaWAN/Mac/LoRaMac.c ****     if( crc != nvmData->MacGroup2.Crc32 )
1592:Middlewares/Third_Party/LoRaWAN/Mac/LoRaMac.c ****     {
1593:Middlewares/Third_Party/LoRaWAN/Mac/LoRaMac.c ****         nvmData->MacGroup2.Crc32 = crc;
1594:Middlewares/Third_Party/LoRaWAN/Mac/LoRaMac.c ****         notifyFlags |= LORAMAC_NVM_NOTIFY_FLAG_MAC_GROUP2;
1595:Middlewares/Third_Party/LoRaWAN/Mac/LoRaMac.c ****     }
1596:Middlewares/Third_Party/LoRaWAN/Mac/LoRaMac.c **** 
1597:Middlewares/Third_Party/LoRaWAN/Mac/LoRaMac.c ****     // Secure Element
1598:Middlewares/Third_Party/LoRaWAN/Mac/LoRaMac.c ****     crc = Crc32( ( uint8_t* ) &nvmData->SecureElement, sizeof( nvmData->SecureElement ) -
1599:Middlewares/Third_Party/LoRaWAN/Mac/LoRaMac.c ****                                                        sizeof( nvmData->SecureElement.Crc32 ) );
1600:Middlewares/Third_Party/LoRaWAN/Mac/LoRaMac.c ****     if( crc != nvmData->SecureElement.Crc32 )
1601:Middlewares/Third_Party/LoRaWAN/Mac/LoRaMac.c ****     {
1602:Middlewares/Third_Party/LoRaWAN/Mac/LoRaMac.c ****         nvmData->SecureElement.Crc32 = crc;
1603:Middlewares/Third_Party/LoRaWAN/Mac/LoRaMac.c ****         notifyFlags |= LORAMAC_NVM_NOTIFY_FLAG_SECURE_ELEMENT;
1604:Middlewares/Third_Party/LoRaWAN/Mac/LoRaMac.c ****     }
1605:Middlewares/Third_Party/LoRaWAN/Mac/LoRaMac.c **** 
1606:Middlewares/Third_Party/LoRaWAN/Mac/LoRaMac.c ****     // Region
1607:Middlewares/Third_Party/LoRaWAN/Mac/LoRaMac.c ****     crc = Crc32( ( uint8_t* ) &nvmData->RegionGroup1, sizeof( nvmData->RegionGroup1 ) -
1608:Middlewares/Third_Party/LoRaWAN/Mac/LoRaMac.c ****                                                 sizeof( nvmData->RegionGroup1.Crc32 ) );
1609:Middlewares/Third_Party/LoRaWAN/Mac/LoRaMac.c ****     if( crc != nvmData->RegionGroup1.Crc32 )
1610:Middlewares/Third_Party/LoRaWAN/Mac/LoRaMac.c ****     {
ARM GAS  /tmp/cc7YZJrH.s 			page 36


1611:Middlewares/Third_Party/LoRaWAN/Mac/LoRaMac.c ****         nvmData->RegionGroup1.Crc32 = crc;
1612:Middlewares/Third_Party/LoRaWAN/Mac/LoRaMac.c ****         notifyFlags |= LORAMAC_NVM_NOTIFY_FLAG_REGION_GROUP1;
1613:Middlewares/Third_Party/LoRaWAN/Mac/LoRaMac.c ****     }
1614:Middlewares/Third_Party/LoRaWAN/Mac/LoRaMac.c **** 
1615:Middlewares/Third_Party/LoRaWAN/Mac/LoRaMac.c ****     crc = Crc32( ( uint8_t* ) &nvmData->RegionGroup2, sizeof( nvmData->RegionGroup2 ) -
1616:Middlewares/Third_Party/LoRaWAN/Mac/LoRaMac.c ****                                                 sizeof( nvmData->RegionGroup2.Crc32 ) );
1617:Middlewares/Third_Party/LoRaWAN/Mac/LoRaMac.c ****     if( crc != nvmData->RegionGroup2.Crc32 )
1618:Middlewares/Third_Party/LoRaWAN/Mac/LoRaMac.c ****     {
1619:Middlewares/Third_Party/LoRaWAN/Mac/LoRaMac.c ****         nvmData->RegionGroup2.Crc32 = crc;
1620:Middlewares/Third_Party/LoRaWAN/Mac/LoRaMac.c ****         notifyFlags |= LORAMAC_NVM_NOTIFY_FLAG_REGION_GROUP2;
1621:Middlewares/Third_Party/LoRaWAN/Mac/LoRaMac.c ****     }
1622:Middlewares/Third_Party/LoRaWAN/Mac/LoRaMac.c **** 
1623:Middlewares/Third_Party/LoRaWAN/Mac/LoRaMac.c ****     // ClassB
1624:Middlewares/Third_Party/LoRaWAN/Mac/LoRaMac.c ****     crc = Crc32( ( uint8_t* ) &nvmData->ClassB, sizeof( nvmData->ClassB ) -
1625:Middlewares/Third_Party/LoRaWAN/Mac/LoRaMac.c ****                                                 sizeof( nvmData->ClassB.Crc32 ) );
1626:Middlewares/Third_Party/LoRaWAN/Mac/LoRaMac.c ****     if( crc != nvmData->ClassB.Crc32 )
1627:Middlewares/Third_Party/LoRaWAN/Mac/LoRaMac.c ****     {
1628:Middlewares/Third_Party/LoRaWAN/Mac/LoRaMac.c ****         nvmData->ClassB.Crc32 = crc;
1629:Middlewares/Third_Party/LoRaWAN/Mac/LoRaMac.c ****         notifyFlags |= LORAMAC_NVM_NOTIFY_FLAG_CLASS_B;
1630:Middlewares/Third_Party/LoRaWAN/Mac/LoRaMac.c ****     }
1631:Middlewares/Third_Party/LoRaWAN/Mac/LoRaMac.c **** 
1632:Middlewares/Third_Party/LoRaWAN/Mac/LoRaMac.c ****     CallNvmDataChangeCallback( notifyFlags );
1633:Middlewares/Third_Party/LoRaWAN/Mac/LoRaMac.c **** }
1634:Middlewares/Third_Party/LoRaWAN/Mac/LoRaMac.c **** 
1635:Middlewares/Third_Party/LoRaWAN/Mac/LoRaMac.c **** 
1636:Middlewares/Third_Party/LoRaWAN/Mac/LoRaMac.c **** void LoRaMacProcess( void )
1637:Middlewares/Third_Party/LoRaWAN/Mac/LoRaMac.c **** {
1638:Middlewares/Third_Party/LoRaWAN/Mac/LoRaMac.c ****     uint8_t noTx = false;
1639:Middlewares/Third_Party/LoRaWAN/Mac/LoRaMac.c **** 
1640:Middlewares/Third_Party/LoRaWAN/Mac/LoRaMac.c ****     LoRaMacHandleIrqEvents( );
1641:Middlewares/Third_Party/LoRaWAN/Mac/LoRaMac.c ****     LoRaMacClassBProcess( );
1642:Middlewares/Third_Party/LoRaWAN/Mac/LoRaMac.c **** 
1643:Middlewares/Third_Party/LoRaWAN/Mac/LoRaMac.c ****     // MAC proceeded a state and is ready to check
1644:Middlewares/Third_Party/LoRaWAN/Mac/LoRaMac.c ****     if( MacCtx.MacFlags.Bits.MacDone == 1 )
1645:Middlewares/Third_Party/LoRaWAN/Mac/LoRaMac.c ****     {
1646:Middlewares/Third_Party/LoRaWAN/Mac/LoRaMac.c ****         LoRaMacEnableRequests( LORAMAC_REQUEST_HANDLING_OFF );
1647:Middlewares/Third_Party/LoRaWAN/Mac/LoRaMac.c ****         LoRaMacCheckForRxAbort( );
1648:Middlewares/Third_Party/LoRaWAN/Mac/LoRaMac.c **** 
1649:Middlewares/Third_Party/LoRaWAN/Mac/LoRaMac.c ****         // An error occurs during transmitting
1650:Middlewares/Third_Party/LoRaWAN/Mac/LoRaMac.c ****         if( IsRequestPending( ) > 0 )
1651:Middlewares/Third_Party/LoRaWAN/Mac/LoRaMac.c ****         {
1652:Middlewares/Third_Party/LoRaWAN/Mac/LoRaMac.c ****             noTx |= LoRaMacCheckForBeaconAcquisition( );
1653:Middlewares/Third_Party/LoRaWAN/Mac/LoRaMac.c ****         }
1654:Middlewares/Third_Party/LoRaWAN/Mac/LoRaMac.c **** 
1655:Middlewares/Third_Party/LoRaWAN/Mac/LoRaMac.c ****         if( noTx == 0x00 )
1656:Middlewares/Third_Party/LoRaWAN/Mac/LoRaMac.c ****         {
1657:Middlewares/Third_Party/LoRaWAN/Mac/LoRaMac.c ****             LoRaMacHandleMlmeRequest( );
1658:Middlewares/Third_Party/LoRaWAN/Mac/LoRaMac.c ****             LoRaMacHandleMcpsRequest( );
1659:Middlewares/Third_Party/LoRaWAN/Mac/LoRaMac.c ****         }
1660:Middlewares/Third_Party/LoRaWAN/Mac/LoRaMac.c ****         LoRaMacHandleRequestEvents( );
1661:Middlewares/Third_Party/LoRaWAN/Mac/LoRaMac.c ****         LoRaMacHandleScheduleUplinkEvent( );
1662:Middlewares/Third_Party/LoRaWAN/Mac/LoRaMac.c ****         LoRaMacHandleNvm( &Nvm );
1663:Middlewares/Third_Party/LoRaWAN/Mac/LoRaMac.c ****         LoRaMacEnableRequests( LORAMAC_REQUEST_HANDLING_ON );
1664:Middlewares/Third_Party/LoRaWAN/Mac/LoRaMac.c ****     }
1665:Middlewares/Third_Party/LoRaWAN/Mac/LoRaMac.c ****     LoRaMacHandleIndicationEvents( );
1666:Middlewares/Third_Party/LoRaWAN/Mac/LoRaMac.c ****     if( MacCtx.RxSlot == RX_SLOT_WIN_CLASS_C )
1667:Middlewares/Third_Party/LoRaWAN/Mac/LoRaMac.c ****     {
ARM GAS  /tmp/cc7YZJrH.s 			page 37


1668:Middlewares/Third_Party/LoRaWAN/Mac/LoRaMac.c ****         OpenContinuousRxCWindow( );
1669:Middlewares/Third_Party/LoRaWAN/Mac/LoRaMac.c ****     }
1670:Middlewares/Third_Party/LoRaWAN/Mac/LoRaMac.c **** }
1671:Middlewares/Third_Party/LoRaWAN/Mac/LoRaMac.c **** 
1672:Middlewares/Third_Party/LoRaWAN/Mac/LoRaMac.c **** static void OnTxDelayedTimerEvent( void* context )
1673:Middlewares/Third_Party/LoRaWAN/Mac/LoRaMac.c **** {
1674:Middlewares/Third_Party/LoRaWAN/Mac/LoRaMac.c ****     TimerStop( &MacCtx.TxDelayedTimer );
1675:Middlewares/Third_Party/LoRaWAN/Mac/LoRaMac.c ****     MacCtx.MacState &= ~LORAMAC_TX_DELAYED;
1676:Middlewares/Third_Party/LoRaWAN/Mac/LoRaMac.c **** 
1677:Middlewares/Third_Party/LoRaWAN/Mac/LoRaMac.c ****     // Schedule frame, allow delayed frame transmissions
1678:Middlewares/Third_Party/LoRaWAN/Mac/LoRaMac.c ****     switch( ScheduleTx( true ) )
1679:Middlewares/Third_Party/LoRaWAN/Mac/LoRaMac.c ****     {
1680:Middlewares/Third_Party/LoRaWAN/Mac/LoRaMac.c ****         case LORAMAC_STATUS_OK:
1681:Middlewares/Third_Party/LoRaWAN/Mac/LoRaMac.c ****         case LORAMAC_STATUS_DUTYCYCLE_RESTRICTED:
1682:Middlewares/Third_Party/LoRaWAN/Mac/LoRaMac.c ****         {
1683:Middlewares/Third_Party/LoRaWAN/Mac/LoRaMac.c ****             break;
1684:Middlewares/Third_Party/LoRaWAN/Mac/LoRaMac.c ****         }
1685:Middlewares/Third_Party/LoRaWAN/Mac/LoRaMac.c ****         default:
1686:Middlewares/Third_Party/LoRaWAN/Mac/LoRaMac.c ****         {
1687:Middlewares/Third_Party/LoRaWAN/Mac/LoRaMac.c ****             // Stop retransmission attempt
1688:Middlewares/Third_Party/LoRaWAN/Mac/LoRaMac.c ****             MacCtx.McpsConfirm.Datarate = Nvm.MacGroup1.ChannelsDatarate;
1689:Middlewares/Third_Party/LoRaWAN/Mac/LoRaMac.c ****             MacCtx.McpsConfirm.NbRetries = MacCtx.AckTimeoutRetriesCounter;
1690:Middlewares/Third_Party/LoRaWAN/Mac/LoRaMac.c ****             MacCtx.McpsConfirm.Status = LORAMAC_EVENT_INFO_STATUS_TX_DR_PAYLOAD_SIZE_ERROR;
1691:Middlewares/Third_Party/LoRaWAN/Mac/LoRaMac.c ****             LoRaMacConfirmQueueSetStatusCmn( LORAMAC_EVENT_INFO_STATUS_TX_DR_PAYLOAD_SIZE_ERROR );
1692:Middlewares/Third_Party/LoRaWAN/Mac/LoRaMac.c ****             StopRetransmission( );
1693:Middlewares/Third_Party/LoRaWAN/Mac/LoRaMac.c ****             break;
1694:Middlewares/Third_Party/LoRaWAN/Mac/LoRaMac.c ****         }
1695:Middlewares/Third_Party/LoRaWAN/Mac/LoRaMac.c ****     }
1696:Middlewares/Third_Party/LoRaWAN/Mac/LoRaMac.c **** }
1697:Middlewares/Third_Party/LoRaWAN/Mac/LoRaMac.c **** 
1698:Middlewares/Third_Party/LoRaWAN/Mac/LoRaMac.c **** static void OnRxWindow1TimerEvent( void* context )
1699:Middlewares/Third_Party/LoRaWAN/Mac/LoRaMac.c **** {
1700:Middlewares/Third_Party/LoRaWAN/Mac/LoRaMac.c ****     MacCtx.RxWindow1Config.Channel = MacCtx.Channel;
1701:Middlewares/Third_Party/LoRaWAN/Mac/LoRaMac.c ****     MacCtx.RxWindow1Config.DrOffset = Nvm.MacGroup2.MacParams.Rx1DrOffset;
1702:Middlewares/Third_Party/LoRaWAN/Mac/LoRaMac.c ****     MacCtx.RxWindow1Config.DownlinkDwellTime = Nvm.MacGroup2.MacParams.DownlinkDwellTime;
1703:Middlewares/Third_Party/LoRaWAN/Mac/LoRaMac.c ****     MacCtx.RxWindow1Config.RepeaterSupport = Nvm.MacGroup2.MacParams.RepeaterSupport; /* ST_WORKARO
1704:Middlewares/Third_Party/LoRaWAN/Mac/LoRaMac.c ****     MacCtx.RxWindow1Config.RxContinuous = false;
1705:Middlewares/Third_Party/LoRaWAN/Mac/LoRaMac.c ****     MacCtx.RxWindow1Config.RxSlot = RX_SLOT_WIN_1;
1706:Middlewares/Third_Party/LoRaWAN/Mac/LoRaMac.c **** 
1707:Middlewares/Third_Party/LoRaWAN/Mac/LoRaMac.c ****     RxWindowSetup( &MacCtx.RxWindowTimer1, &MacCtx.RxWindow1Config );
1708:Middlewares/Third_Party/LoRaWAN/Mac/LoRaMac.c **** }
1709:Middlewares/Third_Party/LoRaWAN/Mac/LoRaMac.c **** 
1710:Middlewares/Third_Party/LoRaWAN/Mac/LoRaMac.c **** static void OnRxWindow2TimerEvent( void* context )
1711:Middlewares/Third_Party/LoRaWAN/Mac/LoRaMac.c **** {
1712:Middlewares/Third_Party/LoRaWAN/Mac/LoRaMac.c ****     // Check if we are processing Rx1 window.
1713:Middlewares/Third_Party/LoRaWAN/Mac/LoRaMac.c ****     // If yes, we don't setup the Rx2 window.
1714:Middlewares/Third_Party/LoRaWAN/Mac/LoRaMac.c ****     if( MacCtx.RxSlot == RX_SLOT_WIN_1 )
1715:Middlewares/Third_Party/LoRaWAN/Mac/LoRaMac.c ****     {
1716:Middlewares/Third_Party/LoRaWAN/Mac/LoRaMac.c ****         return;
1717:Middlewares/Third_Party/LoRaWAN/Mac/LoRaMac.c ****     }
1718:Middlewares/Third_Party/LoRaWAN/Mac/LoRaMac.c ****     MacCtx.RxWindow2Config.Channel = MacCtx.Channel;
1719:Middlewares/Third_Party/LoRaWAN/Mac/LoRaMac.c ****     MacCtx.RxWindow2Config.Frequency = Nvm.MacGroup2.MacParams.Rx2Channel.Frequency;
1720:Middlewares/Third_Party/LoRaWAN/Mac/LoRaMac.c ****     MacCtx.RxWindow2Config.DownlinkDwellTime = Nvm.MacGroup2.MacParams.DownlinkDwellTime;
1721:Middlewares/Third_Party/LoRaWAN/Mac/LoRaMac.c ****     MacCtx.RxWindow2Config.RepeaterSupport = Nvm.MacGroup2.MacParams.RepeaterSupport; /* ST_WORKARO
1722:Middlewares/Third_Party/LoRaWAN/Mac/LoRaMac.c ****     MacCtx.RxWindow2Config.RxContinuous = false;
1723:Middlewares/Third_Party/LoRaWAN/Mac/LoRaMac.c ****     MacCtx.RxWindow2Config.RxSlot = RX_SLOT_WIN_2;
1724:Middlewares/Third_Party/LoRaWAN/Mac/LoRaMac.c **** 
ARM GAS  /tmp/cc7YZJrH.s 			page 38


1725:Middlewares/Third_Party/LoRaWAN/Mac/LoRaMac.c ****     RxWindowSetup( &MacCtx.RxWindowTimer2, &MacCtx.RxWindow2Config );
1726:Middlewares/Third_Party/LoRaWAN/Mac/LoRaMac.c **** }
1727:Middlewares/Third_Party/LoRaWAN/Mac/LoRaMac.c **** 
1728:Middlewares/Third_Party/LoRaWAN/Mac/LoRaMac.c **** static void OnAckTimeoutTimerEvent( void* context )
1729:Middlewares/Third_Party/LoRaWAN/Mac/LoRaMac.c **** {
1730:Middlewares/Third_Party/LoRaWAN/Mac/LoRaMac.c ****     TimerStop( &MacCtx.AckTimeoutTimer );
1731:Middlewares/Third_Party/LoRaWAN/Mac/LoRaMac.c **** 
1732:Middlewares/Third_Party/LoRaWAN/Mac/LoRaMac.c ****     if( MacCtx.NodeAckRequested == true )
1733:Middlewares/Third_Party/LoRaWAN/Mac/LoRaMac.c ****     {
1734:Middlewares/Third_Party/LoRaWAN/Mac/LoRaMac.c ****         MacCtx.AckTimeoutRetry = true;
1735:Middlewares/Third_Party/LoRaWAN/Mac/LoRaMac.c ****     }
1736:Middlewares/Third_Party/LoRaWAN/Mac/LoRaMac.c ****     if( Nvm.MacGroup2.DeviceClass == CLASS_C )
1737:Middlewares/Third_Party/LoRaWAN/Mac/LoRaMac.c ****     {
1738:Middlewares/Third_Party/LoRaWAN/Mac/LoRaMac.c ****         MacCtx.MacFlags.Bits.MacDone = 1;
1739:Middlewares/Third_Party/LoRaWAN/Mac/LoRaMac.c ****     }
1740:Middlewares/Third_Party/LoRaWAN/Mac/LoRaMac.c ****     if( ( MacCtx.MacCallbacks != NULL ) && ( MacCtx.MacCallbacks->MacProcessNotify != NULL ) )
1741:Middlewares/Third_Party/LoRaWAN/Mac/LoRaMac.c ****     {
1742:Middlewares/Third_Party/LoRaWAN/Mac/LoRaMac.c ****         MacCtx.MacCallbacks->MacProcessNotify( );
1743:Middlewares/Third_Party/LoRaWAN/Mac/LoRaMac.c ****     }
1744:Middlewares/Third_Party/LoRaWAN/Mac/LoRaMac.c **** }
1745:Middlewares/Third_Party/LoRaWAN/Mac/LoRaMac.c **** 
1746:Middlewares/Third_Party/LoRaWAN/Mac/LoRaMac.c **** static LoRaMacCryptoStatus_t GetFCntDown( AddressIdentifier_t addrID, FType_t fType, LoRaMacMessage
1747:Middlewares/Third_Party/LoRaWAN/Mac/LoRaMac.c ****                                           uint16_t maxFCntGap, FCntIdentifier_t* fCntID, uint32_t* 
1748:Middlewares/Third_Party/LoRaWAN/Mac/LoRaMac.c **** {
1749:Middlewares/Third_Party/LoRaWAN/Mac/LoRaMac.c ****     if( ( macMsg == NULL ) || ( fCntID == NULL ) ||
1750:Middlewares/Third_Party/LoRaWAN/Mac/LoRaMac.c ****         ( currentDown == NULL ) )
1751:Middlewares/Third_Party/LoRaWAN/Mac/LoRaMac.c ****     {
1752:Middlewares/Third_Party/LoRaWAN/Mac/LoRaMac.c ****         return LORAMAC_CRYPTO_ERROR_NPE;
1753:Middlewares/Third_Party/LoRaWAN/Mac/LoRaMac.c ****     }
1754:Middlewares/Third_Party/LoRaWAN/Mac/LoRaMac.c **** 
1755:Middlewares/Third_Party/LoRaWAN/Mac/LoRaMac.c ****     // Determine the frame counter identifier and choose counter from FCntList
1756:Middlewares/Third_Party/LoRaWAN/Mac/LoRaMac.c ****     switch( addrID )
1757:Middlewares/Third_Party/LoRaWAN/Mac/LoRaMac.c ****     {
1758:Middlewares/Third_Party/LoRaWAN/Mac/LoRaMac.c ****         case UNICAST_DEV_ADDR:
1759:Middlewares/Third_Party/LoRaWAN/Mac/LoRaMac.c ****             if( lrWanVersion.Fields.Minor == 1 )
1760:Middlewares/Third_Party/LoRaWAN/Mac/LoRaMac.c ****             {
1761:Middlewares/Third_Party/LoRaWAN/Mac/LoRaMac.c ****                 if( ( fType == FRAME_TYPE_A ) || ( fType == FRAME_TYPE_D ) )
1762:Middlewares/Third_Party/LoRaWAN/Mac/LoRaMac.c ****                 {
1763:Middlewares/Third_Party/LoRaWAN/Mac/LoRaMac.c ****                     *fCntID = A_FCNT_DOWN;
1764:Middlewares/Third_Party/LoRaWAN/Mac/LoRaMac.c ****                 }
1765:Middlewares/Third_Party/LoRaWAN/Mac/LoRaMac.c ****                 else
1766:Middlewares/Third_Party/LoRaWAN/Mac/LoRaMac.c ****                 {
1767:Middlewares/Third_Party/LoRaWAN/Mac/LoRaMac.c ****                     *fCntID = N_FCNT_DOWN;
1768:Middlewares/Third_Party/LoRaWAN/Mac/LoRaMac.c ****                 }
1769:Middlewares/Third_Party/LoRaWAN/Mac/LoRaMac.c ****             }
1770:Middlewares/Third_Party/LoRaWAN/Mac/LoRaMac.c ****             else
1771:Middlewares/Third_Party/LoRaWAN/Mac/LoRaMac.c ****             { // For LoRaWAN 1.0.X
1772:Middlewares/Third_Party/LoRaWAN/Mac/LoRaMac.c ****                 *fCntID = FCNT_DOWN;
1773:Middlewares/Third_Party/LoRaWAN/Mac/LoRaMac.c ****             }
1774:Middlewares/Third_Party/LoRaWAN/Mac/LoRaMac.c ****             break;
1775:Middlewares/Third_Party/LoRaWAN/Mac/LoRaMac.c ****         /* ST_WORKAROUND_BEGIN: reduced LORAMAC_MAX_MC_CTX */
1776:Middlewares/Third_Party/LoRaWAN/Mac/LoRaMac.c **** #if ( LORAMAC_MAX_MC_CTX > 0 )
1777:Middlewares/Third_Party/LoRaWAN/Mac/LoRaMac.c ****         case MULTICAST_0_ADDR:
1778:Middlewares/Third_Party/LoRaWAN/Mac/LoRaMac.c ****             *fCntID = MC_FCNT_DOWN_0;
1779:Middlewares/Third_Party/LoRaWAN/Mac/LoRaMac.c ****             break;
1780:Middlewares/Third_Party/LoRaWAN/Mac/LoRaMac.c **** #endif /* LORAMAC_MAX_MC_CTX > 0 */
1781:Middlewares/Third_Party/LoRaWAN/Mac/LoRaMac.c **** #if ( LORAMAC_MAX_MC_CTX > 1 )
ARM GAS  /tmp/cc7YZJrH.s 			page 39


1782:Middlewares/Third_Party/LoRaWAN/Mac/LoRaMac.c ****         case MULTICAST_1_ADDR:
1783:Middlewares/Third_Party/LoRaWAN/Mac/LoRaMac.c ****             *fCntID = MC_FCNT_DOWN_1;
1784:Middlewares/Third_Party/LoRaWAN/Mac/LoRaMac.c ****             break;
1785:Middlewares/Third_Party/LoRaWAN/Mac/LoRaMac.c **** #endif /* LORAMAC_MAX_MC_CTX > 1 */
1786:Middlewares/Third_Party/LoRaWAN/Mac/LoRaMac.c **** #if ( LORAMAC_MAX_MC_CTX > 2 )
1787:Middlewares/Third_Party/LoRaWAN/Mac/LoRaMac.c ****         case MULTICAST_2_ADDR:
1788:Middlewares/Third_Party/LoRaWAN/Mac/LoRaMac.c ****             *fCntID = MC_FCNT_DOWN_2;
1789:Middlewares/Third_Party/LoRaWAN/Mac/LoRaMac.c ****             break;
1790:Middlewares/Third_Party/LoRaWAN/Mac/LoRaMac.c **** #endif /* LORAMAC_MAX_MC_CTX > 2 */
1791:Middlewares/Third_Party/LoRaWAN/Mac/LoRaMac.c **** #if ( LORAMAC_MAX_MC_CTX > 3 )
1792:Middlewares/Third_Party/LoRaWAN/Mac/LoRaMac.c ****         case MULTICAST_3_ADDR:
1793:Middlewares/Third_Party/LoRaWAN/Mac/LoRaMac.c ****             *fCntID = MC_FCNT_DOWN_3;
1794:Middlewares/Third_Party/LoRaWAN/Mac/LoRaMac.c ****             break;
1795:Middlewares/Third_Party/LoRaWAN/Mac/LoRaMac.c **** #endif /* LORAMAC_MAX_MC_CTX > 3 */
1796:Middlewares/Third_Party/LoRaWAN/Mac/LoRaMac.c ****         /* ST_WORKAROUND_END */
1797:Middlewares/Third_Party/LoRaWAN/Mac/LoRaMac.c ****         default:
1798:Middlewares/Third_Party/LoRaWAN/Mac/LoRaMac.c ****             return LORAMAC_CRYPTO_FAIL_FCNT_ID;
1799:Middlewares/Third_Party/LoRaWAN/Mac/LoRaMac.c ****     }
1800:Middlewares/Third_Party/LoRaWAN/Mac/LoRaMac.c **** 
1801:Middlewares/Third_Party/LoRaWAN/Mac/LoRaMac.c ****     return LoRaMacCryptoGetFCntDown( *fCntID, maxFCntGap, macMsg->FHDR.FCnt, currentDown );
1802:Middlewares/Third_Party/LoRaWAN/Mac/LoRaMac.c **** }
1803:Middlewares/Third_Party/LoRaWAN/Mac/LoRaMac.c **** 
1804:Middlewares/Third_Party/LoRaWAN/Mac/LoRaMac.c **** static LoRaMacStatus_t SwitchClass( DeviceClass_t deviceClass )
1805:Middlewares/Third_Party/LoRaWAN/Mac/LoRaMac.c **** {
1806:Middlewares/Third_Party/LoRaWAN/Mac/LoRaMac.c ****     LoRaMacStatus_t status = LORAMAC_STATUS_PARAMETER_INVALID;
1807:Middlewares/Third_Party/LoRaWAN/Mac/LoRaMac.c **** 
1808:Middlewares/Third_Party/LoRaWAN/Mac/LoRaMac.c ****     switch( Nvm.MacGroup2.DeviceClass )
1809:Middlewares/Third_Party/LoRaWAN/Mac/LoRaMac.c ****     {
1810:Middlewares/Third_Party/LoRaWAN/Mac/LoRaMac.c ****         case CLASS_A:
1811:Middlewares/Third_Party/LoRaWAN/Mac/LoRaMac.c ****         {
1812:Middlewares/Third_Party/LoRaWAN/Mac/LoRaMac.c ****             if( deviceClass == CLASS_A )
1813:Middlewares/Third_Party/LoRaWAN/Mac/LoRaMac.c ****             {
1814:Middlewares/Third_Party/LoRaWAN/Mac/LoRaMac.c ****                 // Revert back RxC parameters
1815:Middlewares/Third_Party/LoRaWAN/Mac/LoRaMac.c ****                 Nvm.MacGroup2.MacParams.RxCChannel = Nvm.MacGroup2.MacParams.Rx2Channel;
1816:Middlewares/Third_Party/LoRaWAN/Mac/LoRaMac.c ****             }
1817:Middlewares/Third_Party/LoRaWAN/Mac/LoRaMac.c ****             if( deviceClass == CLASS_B )
1818:Middlewares/Third_Party/LoRaWAN/Mac/LoRaMac.c ****             {
1819:Middlewares/Third_Party/LoRaWAN/Mac/LoRaMac.c ****                 status = LoRaMacClassBSwitchClass( deviceClass );
1820:Middlewares/Third_Party/LoRaWAN/Mac/LoRaMac.c ****                 if( status == LORAMAC_STATUS_OK )
1821:Middlewares/Third_Party/LoRaWAN/Mac/LoRaMac.c ****                 {
1822:Middlewares/Third_Party/LoRaWAN/Mac/LoRaMac.c ****                     Nvm.MacGroup2.DeviceClass = deviceClass;
1823:Middlewares/Third_Party/LoRaWAN/Mac/LoRaMac.c ****                 }
1824:Middlewares/Third_Party/LoRaWAN/Mac/LoRaMac.c ****             }
1825:Middlewares/Third_Party/LoRaWAN/Mac/LoRaMac.c **** 
1826:Middlewares/Third_Party/LoRaWAN/Mac/LoRaMac.c ****             if( deviceClass == CLASS_C )
1827:Middlewares/Third_Party/LoRaWAN/Mac/LoRaMac.c ****             {
1828:Middlewares/Third_Party/LoRaWAN/Mac/LoRaMac.c ****                 Nvm.MacGroup2.DeviceClass = deviceClass;
1829:Middlewares/Third_Party/LoRaWAN/Mac/LoRaMac.c **** 
1830:Middlewares/Third_Party/LoRaWAN/Mac/LoRaMac.c ****                 MacCtx.RxWindowCConfig = MacCtx.RxWindow2Config;
1831:Middlewares/Third_Party/LoRaWAN/Mac/LoRaMac.c ****                 MacCtx.RxWindowCConfig.RxSlot = RX_SLOT_WIN_CLASS_C;
1832:Middlewares/Third_Party/LoRaWAN/Mac/LoRaMac.c **** 
1833:Middlewares/Third_Party/LoRaWAN/Mac/LoRaMac.c ****                 for( int8_t i = 0; i < LORAMAC_MAX_MC_CTX; i++ )
1834:Middlewares/Third_Party/LoRaWAN/Mac/LoRaMac.c ****                 {
1835:Middlewares/Third_Party/LoRaWAN/Mac/LoRaMac.c ****                     if( Nvm.MacGroup2.MulticastChannelList[i].ChannelParams.IsEnabled == true )
1836:Middlewares/Third_Party/LoRaWAN/Mac/LoRaMac.c ****                     // TODO: Check multicast channel device class.
1837:Middlewares/Third_Party/LoRaWAN/Mac/LoRaMac.c ****                     {
1838:Middlewares/Third_Party/LoRaWAN/Mac/LoRaMac.c ****                         Nvm.MacGroup2.MacParams.RxCChannel.Frequency = Nvm.MacGroup2.MulticastChann
ARM GAS  /tmp/cc7YZJrH.s 			page 40


1839:Middlewares/Third_Party/LoRaWAN/Mac/LoRaMac.c ****                         Nvm.MacGroup2.MacParams.RxCChannel.Datarate = Nvm.MacGroup2.MulticastChanne
1840:Middlewares/Third_Party/LoRaWAN/Mac/LoRaMac.c **** 
1841:Middlewares/Third_Party/LoRaWAN/Mac/LoRaMac.c ****                         MacCtx.RxWindowCConfig.Channel = MacCtx.Channel;
1842:Middlewares/Third_Party/LoRaWAN/Mac/LoRaMac.c ****                         MacCtx.RxWindowCConfig.Frequency = Nvm.MacGroup2.MacParams.RxCChannel.Frequ
1843:Middlewares/Third_Party/LoRaWAN/Mac/LoRaMac.c ****                         MacCtx.RxWindowCConfig.DownlinkDwellTime = Nvm.MacGroup2.MacParams.Downlink
1844:Middlewares/Third_Party/LoRaWAN/Mac/LoRaMac.c ****                         MacCtx.RxWindowCConfig.RepeaterSupport = Nvm.MacGroup2.MacParams.RepeaterSu
1845:Middlewares/Third_Party/LoRaWAN/Mac/LoRaMac.c ****                         MacCtx.RxWindowCConfig.RxSlot = RX_SLOT_WIN_CLASS_C_MULTICAST;
1846:Middlewares/Third_Party/LoRaWAN/Mac/LoRaMac.c ****                         MacCtx.RxWindowCConfig.RxContinuous = true;
1847:Middlewares/Third_Party/LoRaWAN/Mac/LoRaMac.c ****                         break;
1848:Middlewares/Third_Party/LoRaWAN/Mac/LoRaMac.c ****                     }
1849:Middlewares/Third_Party/LoRaWAN/Mac/LoRaMac.c ****                 }
1850:Middlewares/Third_Party/LoRaWAN/Mac/LoRaMac.c **** 
1851:Middlewares/Third_Party/LoRaWAN/Mac/LoRaMac.c ****                 // Set the NodeAckRequested indicator to default
1852:Middlewares/Third_Party/LoRaWAN/Mac/LoRaMac.c ****                 MacCtx.NodeAckRequested = false;
1853:Middlewares/Third_Party/LoRaWAN/Mac/LoRaMac.c ****                 // Set the radio into sleep mode in case we are still in RX mode
1854:Middlewares/Third_Party/LoRaWAN/Mac/LoRaMac.c ****                 Radio.Sleep( );
1855:Middlewares/Third_Party/LoRaWAN/Mac/LoRaMac.c **** 
1856:Middlewares/Third_Party/LoRaWAN/Mac/LoRaMac.c ****                 OpenContinuousRxCWindow( );
1857:Middlewares/Third_Party/LoRaWAN/Mac/LoRaMac.c **** 
1858:Middlewares/Third_Party/LoRaWAN/Mac/LoRaMac.c ****                 status = LORAMAC_STATUS_OK;
1859:Middlewares/Third_Party/LoRaWAN/Mac/LoRaMac.c ****             }
1860:Middlewares/Third_Party/LoRaWAN/Mac/LoRaMac.c ****             break;
1861:Middlewares/Third_Party/LoRaWAN/Mac/LoRaMac.c ****         }
1862:Middlewares/Third_Party/LoRaWAN/Mac/LoRaMac.c ****         case CLASS_B:
1863:Middlewares/Third_Party/LoRaWAN/Mac/LoRaMac.c ****         {
1864:Middlewares/Third_Party/LoRaWAN/Mac/LoRaMac.c ****             status = LoRaMacClassBSwitchClass( deviceClass );
1865:Middlewares/Third_Party/LoRaWAN/Mac/LoRaMac.c ****             if( status == LORAMAC_STATUS_OK )
1866:Middlewares/Third_Party/LoRaWAN/Mac/LoRaMac.c ****             {
1867:Middlewares/Third_Party/LoRaWAN/Mac/LoRaMac.c ****                 Nvm.MacGroup2.DeviceClass = deviceClass;
1868:Middlewares/Third_Party/LoRaWAN/Mac/LoRaMac.c ****             }
1869:Middlewares/Third_Party/LoRaWAN/Mac/LoRaMac.c ****             break;
1870:Middlewares/Third_Party/LoRaWAN/Mac/LoRaMac.c ****         }
1871:Middlewares/Third_Party/LoRaWAN/Mac/LoRaMac.c ****         case CLASS_C:
1872:Middlewares/Third_Party/LoRaWAN/Mac/LoRaMac.c ****         {
1873:Middlewares/Third_Party/LoRaWAN/Mac/LoRaMac.c ****             if( deviceClass == CLASS_A )
1874:Middlewares/Third_Party/LoRaWAN/Mac/LoRaMac.c ****             {
1875:Middlewares/Third_Party/LoRaWAN/Mac/LoRaMac.c ****                 Nvm.MacGroup2.DeviceClass = deviceClass;
1876:Middlewares/Third_Party/LoRaWAN/Mac/LoRaMac.c **** 
1877:Middlewares/Third_Party/LoRaWAN/Mac/LoRaMac.c ****                 // Set the radio into sleep to setup a defined state
1878:Middlewares/Third_Party/LoRaWAN/Mac/LoRaMac.c ****                 Radio.Sleep( );
1879:Middlewares/Third_Party/LoRaWAN/Mac/LoRaMac.c **** 
1880:Middlewares/Third_Party/LoRaWAN/Mac/LoRaMac.c ****                 status = LORAMAC_STATUS_OK;
1881:Middlewares/Third_Party/LoRaWAN/Mac/LoRaMac.c ****             }
1882:Middlewares/Third_Party/LoRaWAN/Mac/LoRaMac.c ****             break;
1883:Middlewares/Third_Party/LoRaWAN/Mac/LoRaMac.c ****         }
1884:Middlewares/Third_Party/LoRaWAN/Mac/LoRaMac.c ****     }
1885:Middlewares/Third_Party/LoRaWAN/Mac/LoRaMac.c **** 
1886:Middlewares/Third_Party/LoRaWAN/Mac/LoRaMac.c ****     return status;
1887:Middlewares/Third_Party/LoRaWAN/Mac/LoRaMac.c **** }
1888:Middlewares/Third_Party/LoRaWAN/Mac/LoRaMac.c **** 
1889:Middlewares/Third_Party/LoRaWAN/Mac/LoRaMac.c **** static uint8_t GetMaxAppPayloadWithoutFOptsLength( int8_t datarate )
1890:Middlewares/Third_Party/LoRaWAN/Mac/LoRaMac.c **** {
1891:Middlewares/Third_Party/LoRaWAN/Mac/LoRaMac.c ****     GetPhyParams_t getPhy;
1892:Middlewares/Third_Party/LoRaWAN/Mac/LoRaMac.c ****     PhyParam_t phyParam;
1893:Middlewares/Third_Party/LoRaWAN/Mac/LoRaMac.c **** 
1894:Middlewares/Third_Party/LoRaWAN/Mac/LoRaMac.c ****     // Setup PHY request
1895:Middlewares/Third_Party/LoRaWAN/Mac/LoRaMac.c ****     getPhy.UplinkDwellTime = Nvm.MacGroup2.MacParams.UplinkDwellTime;
ARM GAS  /tmp/cc7YZJrH.s 			page 41


1896:Middlewares/Third_Party/LoRaWAN/Mac/LoRaMac.c ****     getPhy.Datarate = datarate;
1897:Middlewares/Third_Party/LoRaWAN/Mac/LoRaMac.c ****     getPhy.Attribute = PHY_MAX_PAYLOAD;
1898:Middlewares/Third_Party/LoRaWAN/Mac/LoRaMac.c ****     /* ST_WORKAROUND_BEGIN: Keep repeater feature */
1899:Middlewares/Third_Party/LoRaWAN/Mac/LoRaMac.c ****     // Get the maximum payload length
1900:Middlewares/Third_Party/LoRaWAN/Mac/LoRaMac.c ****     if( Nvm.MacGroup2.MacParams.RepeaterSupport == true )
1901:Middlewares/Third_Party/LoRaWAN/Mac/LoRaMac.c ****     {
1902:Middlewares/Third_Party/LoRaWAN/Mac/LoRaMac.c ****         getPhy.Attribute = PHY_MAX_PAYLOAD_REPEATER;
1903:Middlewares/Third_Party/LoRaWAN/Mac/LoRaMac.c ****     }
1904:Middlewares/Third_Party/LoRaWAN/Mac/LoRaMac.c ****     /* ST_WORKAROUND_END */
1905:Middlewares/Third_Party/LoRaWAN/Mac/LoRaMac.c ****     phyParam = RegionGetPhyParam( Nvm.MacGroup2.Region, &getPhy );
1906:Middlewares/Third_Party/LoRaWAN/Mac/LoRaMac.c **** 
1907:Middlewares/Third_Party/LoRaWAN/Mac/LoRaMac.c ****     return phyParam.Value;
1908:Middlewares/Third_Party/LoRaWAN/Mac/LoRaMac.c **** }
1909:Middlewares/Third_Party/LoRaWAN/Mac/LoRaMac.c **** 
1910:Middlewares/Third_Party/LoRaWAN/Mac/LoRaMac.c **** static bool ValidatePayloadLength( uint8_t lenN, int8_t datarate, uint8_t fOptsLen )
1911:Middlewares/Third_Party/LoRaWAN/Mac/LoRaMac.c **** {
1912:Middlewares/Third_Party/LoRaWAN/Mac/LoRaMac.c ****     uint16_t maxN = 0;
1913:Middlewares/Third_Party/LoRaWAN/Mac/LoRaMac.c ****     uint16_t payloadSize = 0;
1914:Middlewares/Third_Party/LoRaWAN/Mac/LoRaMac.c **** 
1915:Middlewares/Third_Party/LoRaWAN/Mac/LoRaMac.c ****     maxN = GetMaxAppPayloadWithoutFOptsLength( datarate );
1916:Middlewares/Third_Party/LoRaWAN/Mac/LoRaMac.c **** 
1917:Middlewares/Third_Party/LoRaWAN/Mac/LoRaMac.c ****     // Calculate the resulting payload size
1918:Middlewares/Third_Party/LoRaWAN/Mac/LoRaMac.c ****     payloadSize = ( lenN + fOptsLen );
1919:Middlewares/Third_Party/LoRaWAN/Mac/LoRaMac.c **** 
1920:Middlewares/Third_Party/LoRaWAN/Mac/LoRaMac.c ****     // Validation of the application payload size
1921:Middlewares/Third_Party/LoRaWAN/Mac/LoRaMac.c ****     if( ( payloadSize <= maxN ) && ( payloadSize <= LORAMAC_PHY_MAXPAYLOAD ) )
1922:Middlewares/Third_Party/LoRaWAN/Mac/LoRaMac.c ****     {
1923:Middlewares/Third_Party/LoRaWAN/Mac/LoRaMac.c ****         return true;
1924:Middlewares/Third_Party/LoRaWAN/Mac/LoRaMac.c ****     }
1925:Middlewares/Third_Party/LoRaWAN/Mac/LoRaMac.c ****     return false;
1926:Middlewares/Third_Party/LoRaWAN/Mac/LoRaMac.c **** }
1927:Middlewares/Third_Party/LoRaWAN/Mac/LoRaMac.c **** 
1928:Middlewares/Third_Party/LoRaWAN/Mac/LoRaMac.c **** static void SetMlmeScheduleUplinkIndication( void )
1929:Middlewares/Third_Party/LoRaWAN/Mac/LoRaMac.c **** {
 401              		.loc 1 1929 1 is_stmt 1 view -0
 402              		.cfi_startproc
 403              		@ args = 0, pretend = 0, frame = 0
 404              		@ frame_needed = 0, uses_anonymous_args = 0
 405              		@ link register save eliminated.
1930:Middlewares/Third_Party/LoRaWAN/Mac/LoRaMac.c ****     MacCtx.MacFlags.Bits.MlmeSchedUplinkInd = 1;
 406              		.loc 1 1930 5 view .LVU89
 407              		.loc 1 1930 45 is_stmt 0 view .LVU90
 408 0000 034A     		ldr	r2, .L36
 409 0002 92F88134 		ldrb	r3, [r2, #1153]	@ zero_extendqisi2
 410 0006 43F01003 		orr	r3, r3, #16
 411 000a 82F88134 		strb	r3, [r2, #1153]
1931:Middlewares/Third_Party/LoRaWAN/Mac/LoRaMac.c **** }
 412              		.loc 1 1931 1 view .LVU91
 413 000e 7047     		bx	lr
 414              	.L37:
 415              		.align	2
 416              	.L36:
 417 0010 00000000 		.word	.LANCHOR1
 418              		.cfi_endproc
 419              	.LFE137:
 421              		.section	.text.CalculateBackOff,"ax",%progbits
 422              		.align	1
ARM GAS  /tmp/cc7YZJrH.s 			page 42


 423              		.syntax unified
 424              		.thumb
 425              		.thumb_func
 426              		.fpu softvfp
 428              	CalculateBackOff:
 429              	.LFB147:
1932:Middlewares/Third_Party/LoRaWAN/Mac/LoRaMac.c **** 
1933:Middlewares/Third_Party/LoRaWAN/Mac/LoRaMac.c **** static void ProcessMacCommands( uint8_t *payload, uint8_t macIndex, uint8_t commandsSize, int8_t sn
1934:Middlewares/Third_Party/LoRaWAN/Mac/LoRaMac.c **** {
1935:Middlewares/Third_Party/LoRaWAN/Mac/LoRaMac.c ****     uint8_t status = 0;
1936:Middlewares/Third_Party/LoRaWAN/Mac/LoRaMac.c ****     bool adrBlockFound = false;
1937:Middlewares/Third_Party/LoRaWAN/Mac/LoRaMac.c ****     uint8_t macCmdPayload[2] = { 0x00, 0x00 };
1938:Middlewares/Third_Party/LoRaWAN/Mac/LoRaMac.c **** 
1939:Middlewares/Third_Party/LoRaWAN/Mac/LoRaMac.c ****     while( macIndex < commandsSize )
1940:Middlewares/Third_Party/LoRaWAN/Mac/LoRaMac.c ****     {
1941:Middlewares/Third_Party/LoRaWAN/Mac/LoRaMac.c ****         // Make sure to parse only complete MAC commands
1942:Middlewares/Third_Party/LoRaWAN/Mac/LoRaMac.c ****         if( ( LoRaMacCommandsGetCmdSize( payload[macIndex] ) + macIndex ) > commandsSize )
1943:Middlewares/Third_Party/LoRaWAN/Mac/LoRaMac.c ****         {
1944:Middlewares/Third_Party/LoRaWAN/Mac/LoRaMac.c ****             return;
1945:Middlewares/Third_Party/LoRaWAN/Mac/LoRaMac.c ****         }
1946:Middlewares/Third_Party/LoRaWAN/Mac/LoRaMac.c **** 
1947:Middlewares/Third_Party/LoRaWAN/Mac/LoRaMac.c ****         // Decode Frame MAC commands
1948:Middlewares/Third_Party/LoRaWAN/Mac/LoRaMac.c ****         switch( payload[macIndex++] )
1949:Middlewares/Third_Party/LoRaWAN/Mac/LoRaMac.c ****         {
1950:Middlewares/Third_Party/LoRaWAN/Mac/LoRaMac.c ****             case SRV_MAC_LINK_CHECK_ANS:
1951:Middlewares/Third_Party/LoRaWAN/Mac/LoRaMac.c ****             {
1952:Middlewares/Third_Party/LoRaWAN/Mac/LoRaMac.c ****                 if( LoRaMacConfirmQueueIsCmdActive( MLME_LINK_CHECK ) == true )
1953:Middlewares/Third_Party/LoRaWAN/Mac/LoRaMac.c ****                 {
1954:Middlewares/Third_Party/LoRaWAN/Mac/LoRaMac.c ****                     LoRaMacConfirmQueueSetStatus( LORAMAC_EVENT_INFO_STATUS_OK, MLME_LINK_CHECK );
1955:Middlewares/Third_Party/LoRaWAN/Mac/LoRaMac.c ****                     MacCtx.MlmeConfirm.DemodMargin = payload[macIndex++];
1956:Middlewares/Third_Party/LoRaWAN/Mac/LoRaMac.c ****                     MacCtx.MlmeConfirm.NbGateways = payload[macIndex++];
1957:Middlewares/Third_Party/LoRaWAN/Mac/LoRaMac.c ****                 }
1958:Middlewares/Third_Party/LoRaWAN/Mac/LoRaMac.c ****                 break;
1959:Middlewares/Third_Party/LoRaWAN/Mac/LoRaMac.c ****             }
1960:Middlewares/Third_Party/LoRaWAN/Mac/LoRaMac.c ****             case SRV_MAC_LINK_ADR_REQ:
1961:Middlewares/Third_Party/LoRaWAN/Mac/LoRaMac.c ****             {
1962:Middlewares/Third_Party/LoRaWAN/Mac/LoRaMac.c ****                 LinkAdrReqParams_t linkAdrReq;
1963:Middlewares/Third_Party/LoRaWAN/Mac/LoRaMac.c ****                 int8_t linkAdrDatarate = DR_0;
1964:Middlewares/Third_Party/LoRaWAN/Mac/LoRaMac.c ****                 int8_t linkAdrTxPower = TX_POWER_0;
1965:Middlewares/Third_Party/LoRaWAN/Mac/LoRaMac.c ****                 uint8_t linkAdrNbRep = 0;
1966:Middlewares/Third_Party/LoRaWAN/Mac/LoRaMac.c ****                 uint8_t linkAdrNbBytesParsed = 0;
1967:Middlewares/Third_Party/LoRaWAN/Mac/LoRaMac.c **** 
1968:Middlewares/Third_Party/LoRaWAN/Mac/LoRaMac.c ****                 if( adrBlockFound == false )
1969:Middlewares/Third_Party/LoRaWAN/Mac/LoRaMac.c ****                 {
1970:Middlewares/Third_Party/LoRaWAN/Mac/LoRaMac.c ****                     adrBlockFound = true;
1971:Middlewares/Third_Party/LoRaWAN/Mac/LoRaMac.c **** 
1972:Middlewares/Third_Party/LoRaWAN/Mac/LoRaMac.c ****                     // Fill parameter structure
1973:Middlewares/Third_Party/LoRaWAN/Mac/LoRaMac.c ****                     linkAdrReq.Payload = &payload[macIndex - 1];
1974:Middlewares/Third_Party/LoRaWAN/Mac/LoRaMac.c ****                     linkAdrReq.PayloadSize = commandsSize - ( macIndex - 1 );
1975:Middlewares/Third_Party/LoRaWAN/Mac/LoRaMac.c ****                     linkAdrReq.AdrEnabled = Nvm.MacGroup2.AdrCtrlOn;
1976:Middlewares/Third_Party/LoRaWAN/Mac/LoRaMac.c ****                     linkAdrReq.UplinkDwellTime = Nvm.MacGroup2.MacParams.UplinkDwellTime;
1977:Middlewares/Third_Party/LoRaWAN/Mac/LoRaMac.c ****                     linkAdrReq.CurrentDatarate = Nvm.MacGroup1.ChannelsDatarate;
1978:Middlewares/Third_Party/LoRaWAN/Mac/LoRaMac.c ****                     linkAdrReq.CurrentTxPower = Nvm.MacGroup1.ChannelsTxPower;
1979:Middlewares/Third_Party/LoRaWAN/Mac/LoRaMac.c ****                     linkAdrReq.CurrentNbRep = Nvm.MacGroup2.MacParams.ChannelsNbTrans;
1980:Middlewares/Third_Party/LoRaWAN/Mac/LoRaMac.c ****                     linkAdrReq.Version = Nvm.MacGroup2.Version;
1981:Middlewares/Third_Party/LoRaWAN/Mac/LoRaMac.c **** 
1982:Middlewares/Third_Party/LoRaWAN/Mac/LoRaMac.c ****                     // Process the ADR requests
ARM GAS  /tmp/cc7YZJrH.s 			page 43


1983:Middlewares/Third_Party/LoRaWAN/Mac/LoRaMac.c ****                     status = RegionLinkAdrReq( Nvm.MacGroup2.Region, &linkAdrReq, &linkAdrDatarate,
1984:Middlewares/Third_Party/LoRaWAN/Mac/LoRaMac.c ****                                                &linkAdrTxPower, &linkAdrNbRep, &linkAdrNbBytesParse
1985:Middlewares/Third_Party/LoRaWAN/Mac/LoRaMac.c **** 
1986:Middlewares/Third_Party/LoRaWAN/Mac/LoRaMac.c ****                     if( ( status & 0x07 ) == 0x07 )
1987:Middlewares/Third_Party/LoRaWAN/Mac/LoRaMac.c ****                     {
1988:Middlewares/Third_Party/LoRaWAN/Mac/LoRaMac.c ****                         Nvm.MacGroup1.ChannelsDatarate = linkAdrDatarate;
1989:Middlewares/Third_Party/LoRaWAN/Mac/LoRaMac.c ****                         Nvm.MacGroup1.ChannelsTxPower = linkAdrTxPower;
1990:Middlewares/Third_Party/LoRaWAN/Mac/LoRaMac.c ****                         Nvm.MacGroup2.MacParams.ChannelsNbTrans = linkAdrNbRep;
1991:Middlewares/Third_Party/LoRaWAN/Mac/LoRaMac.c ****                     }
1992:Middlewares/Third_Party/LoRaWAN/Mac/LoRaMac.c **** 
1993:Middlewares/Third_Party/LoRaWAN/Mac/LoRaMac.c ****                     // Add the answers to the buffer
1994:Middlewares/Third_Party/LoRaWAN/Mac/LoRaMac.c ****                     for( uint8_t i = 0; i < ( linkAdrNbBytesParsed / 5 ); i++ )
1995:Middlewares/Third_Party/LoRaWAN/Mac/LoRaMac.c ****                     {
1996:Middlewares/Third_Party/LoRaWAN/Mac/LoRaMac.c ****                         LoRaMacCommandsAddCmd( MOTE_MAC_LINK_ADR_ANS, &status, 1 );
1997:Middlewares/Third_Party/LoRaWAN/Mac/LoRaMac.c ****                     }
1998:Middlewares/Third_Party/LoRaWAN/Mac/LoRaMac.c ****                     // Update MAC index
1999:Middlewares/Third_Party/LoRaWAN/Mac/LoRaMac.c ****                     macIndex += linkAdrNbBytesParsed - 1;
2000:Middlewares/Third_Party/LoRaWAN/Mac/LoRaMac.c ****                 }
2001:Middlewares/Third_Party/LoRaWAN/Mac/LoRaMac.c ****                 break;
2002:Middlewares/Third_Party/LoRaWAN/Mac/LoRaMac.c ****             }
2003:Middlewares/Third_Party/LoRaWAN/Mac/LoRaMac.c ****             case SRV_MAC_DUTY_CYCLE_REQ:
2004:Middlewares/Third_Party/LoRaWAN/Mac/LoRaMac.c ****             {
2005:Middlewares/Third_Party/LoRaWAN/Mac/LoRaMac.c ****                 Nvm.MacGroup2.MaxDCycle = payload[macIndex++] & 0x0F;
2006:Middlewares/Third_Party/LoRaWAN/Mac/LoRaMac.c ****                 Nvm.MacGroup2.AggregatedDCycle = 1 << Nvm.MacGroup2.MaxDCycle;
2007:Middlewares/Third_Party/LoRaWAN/Mac/LoRaMac.c ****                 LoRaMacCommandsAddCmd( MOTE_MAC_DUTY_CYCLE_ANS, macCmdPayload, 0 );
2008:Middlewares/Third_Party/LoRaWAN/Mac/LoRaMac.c ****                 break;
2009:Middlewares/Third_Party/LoRaWAN/Mac/LoRaMac.c ****             }
2010:Middlewares/Third_Party/LoRaWAN/Mac/LoRaMac.c ****             case SRV_MAC_RX_PARAM_SETUP_REQ:
2011:Middlewares/Third_Party/LoRaWAN/Mac/LoRaMac.c ****             {
2012:Middlewares/Third_Party/LoRaWAN/Mac/LoRaMac.c ****                 RxParamSetupReqParams_t rxParamSetupReq;
2013:Middlewares/Third_Party/LoRaWAN/Mac/LoRaMac.c ****                 status = 0x07;
2014:Middlewares/Third_Party/LoRaWAN/Mac/LoRaMac.c **** 
2015:Middlewares/Third_Party/LoRaWAN/Mac/LoRaMac.c ****                 rxParamSetupReq.DrOffset = ( payload[macIndex] >> 4 ) & 0x07;
2016:Middlewares/Third_Party/LoRaWAN/Mac/LoRaMac.c ****                 rxParamSetupReq.Datarate = payload[macIndex] & 0x0F;
2017:Middlewares/Third_Party/LoRaWAN/Mac/LoRaMac.c ****                 macIndex++;
2018:Middlewares/Third_Party/LoRaWAN/Mac/LoRaMac.c **** 
2019:Middlewares/Third_Party/LoRaWAN/Mac/LoRaMac.c ****                 rxParamSetupReq.Frequency = ( uint32_t ) payload[macIndex++];
2020:Middlewares/Third_Party/LoRaWAN/Mac/LoRaMac.c ****                 rxParamSetupReq.Frequency |= ( uint32_t ) payload[macIndex++] << 8;
2021:Middlewares/Third_Party/LoRaWAN/Mac/LoRaMac.c ****                 rxParamSetupReq.Frequency |= ( uint32_t ) payload[macIndex++] << 16;
2022:Middlewares/Third_Party/LoRaWAN/Mac/LoRaMac.c ****                 rxParamSetupReq.Frequency *= 100;
2023:Middlewares/Third_Party/LoRaWAN/Mac/LoRaMac.c **** 
2024:Middlewares/Third_Party/LoRaWAN/Mac/LoRaMac.c ****                 // Perform request on region
2025:Middlewares/Third_Party/LoRaWAN/Mac/LoRaMac.c ****                 status = RegionRxParamSetupReq( Nvm.MacGroup2.Region, &rxParamSetupReq );
2026:Middlewares/Third_Party/LoRaWAN/Mac/LoRaMac.c **** 
2027:Middlewares/Third_Party/LoRaWAN/Mac/LoRaMac.c ****                 if( ( status & 0x07 ) == 0x07 )
2028:Middlewares/Third_Party/LoRaWAN/Mac/LoRaMac.c ****                 {
2029:Middlewares/Third_Party/LoRaWAN/Mac/LoRaMac.c ****                     Nvm.MacGroup2.MacParams.Rx2Channel.Datarate = rxParamSetupReq.Datarate;
2030:Middlewares/Third_Party/LoRaWAN/Mac/LoRaMac.c ****                     Nvm.MacGroup2.MacParams.RxCChannel.Datarate = rxParamSetupReq.Datarate;
2031:Middlewares/Third_Party/LoRaWAN/Mac/LoRaMac.c ****                     Nvm.MacGroup2.MacParams.Rx2Channel.Frequency = rxParamSetupReq.Frequency;
2032:Middlewares/Third_Party/LoRaWAN/Mac/LoRaMac.c ****                     Nvm.MacGroup2.MacParams.RxCChannel.Frequency = rxParamSetupReq.Frequency;
2033:Middlewares/Third_Party/LoRaWAN/Mac/LoRaMac.c ****                     Nvm.MacGroup2.MacParams.Rx1DrOffset = rxParamSetupReq.DrOffset;
2034:Middlewares/Third_Party/LoRaWAN/Mac/LoRaMac.c ****                 }
2035:Middlewares/Third_Party/LoRaWAN/Mac/LoRaMac.c ****                 macCmdPayload[0] = status;
2036:Middlewares/Third_Party/LoRaWAN/Mac/LoRaMac.c ****                 LoRaMacCommandsAddCmd( MOTE_MAC_RX_PARAM_SETUP_ANS, macCmdPayload, 1 );
2037:Middlewares/Third_Party/LoRaWAN/Mac/LoRaMac.c ****                 // Setup indication to inform the application
2038:Middlewares/Third_Party/LoRaWAN/Mac/LoRaMac.c ****                 SetMlmeScheduleUplinkIndication( );
2039:Middlewares/Third_Party/LoRaWAN/Mac/LoRaMac.c ****                 break;
ARM GAS  /tmp/cc7YZJrH.s 			page 44


2040:Middlewares/Third_Party/LoRaWAN/Mac/LoRaMac.c ****             }
2041:Middlewares/Third_Party/LoRaWAN/Mac/LoRaMac.c ****             case SRV_MAC_DEV_STATUS_REQ:
2042:Middlewares/Third_Party/LoRaWAN/Mac/LoRaMac.c ****             {
2043:Middlewares/Third_Party/LoRaWAN/Mac/LoRaMac.c ****                 uint8_t batteryLevel = BAT_LEVEL_NO_MEASURE;
2044:Middlewares/Third_Party/LoRaWAN/Mac/LoRaMac.c ****                 if( ( MacCtx.MacCallbacks != NULL ) && ( MacCtx.MacCallbacks->GetBatteryLevel != NU
2045:Middlewares/Third_Party/LoRaWAN/Mac/LoRaMac.c ****                 {
2046:Middlewares/Third_Party/LoRaWAN/Mac/LoRaMac.c ****                     batteryLevel = MacCtx.MacCallbacks->GetBatteryLevel( );
2047:Middlewares/Third_Party/LoRaWAN/Mac/LoRaMac.c ****                 }
2048:Middlewares/Third_Party/LoRaWAN/Mac/LoRaMac.c ****                 macCmdPayload[0] = batteryLevel;
2049:Middlewares/Third_Party/LoRaWAN/Mac/LoRaMac.c ****                 macCmdPayload[1] = ( uint8_t )( snr & 0x3F );
2050:Middlewares/Third_Party/LoRaWAN/Mac/LoRaMac.c ****                 LoRaMacCommandsAddCmd( MOTE_MAC_DEV_STATUS_ANS, macCmdPayload, 2 );
2051:Middlewares/Third_Party/LoRaWAN/Mac/LoRaMac.c ****                 break;
2052:Middlewares/Third_Party/LoRaWAN/Mac/LoRaMac.c ****             }
2053:Middlewares/Third_Party/LoRaWAN/Mac/LoRaMac.c ****             case SRV_MAC_NEW_CHANNEL_REQ:
2054:Middlewares/Third_Party/LoRaWAN/Mac/LoRaMac.c ****             {
2055:Middlewares/Third_Party/LoRaWAN/Mac/LoRaMac.c ****                 NewChannelReqParams_t newChannelReq;
2056:Middlewares/Third_Party/LoRaWAN/Mac/LoRaMac.c ****                 ChannelParams_t chParam;
2057:Middlewares/Third_Party/LoRaWAN/Mac/LoRaMac.c ****                 status = 0x03;
2058:Middlewares/Third_Party/LoRaWAN/Mac/LoRaMac.c **** 
2059:Middlewares/Third_Party/LoRaWAN/Mac/LoRaMac.c ****                 newChannelReq.ChannelId = payload[macIndex++];
2060:Middlewares/Third_Party/LoRaWAN/Mac/LoRaMac.c ****                 newChannelReq.NewChannel = &chParam;
2061:Middlewares/Third_Party/LoRaWAN/Mac/LoRaMac.c **** 
2062:Middlewares/Third_Party/LoRaWAN/Mac/LoRaMac.c ****                 chParam.Frequency = ( uint32_t ) payload[macIndex++];
2063:Middlewares/Third_Party/LoRaWAN/Mac/LoRaMac.c ****                 chParam.Frequency |= ( uint32_t ) payload[macIndex++] << 8;
2064:Middlewares/Third_Party/LoRaWAN/Mac/LoRaMac.c ****                 chParam.Frequency |= ( uint32_t ) payload[macIndex++] << 16;
2065:Middlewares/Third_Party/LoRaWAN/Mac/LoRaMac.c ****                 chParam.Frequency *= 100;
2066:Middlewares/Third_Party/LoRaWAN/Mac/LoRaMac.c ****                 chParam.Rx1Frequency = 0;
2067:Middlewares/Third_Party/LoRaWAN/Mac/LoRaMac.c ****                 chParam.DrRange.Value = payload[macIndex++];
2068:Middlewares/Third_Party/LoRaWAN/Mac/LoRaMac.c **** 
2069:Middlewares/Third_Party/LoRaWAN/Mac/LoRaMac.c ****                 status = ( uint8_t )RegionNewChannelReq( Nvm.MacGroup2.Region, &newChannelReq );
2070:Middlewares/Third_Party/LoRaWAN/Mac/LoRaMac.c **** 
2071:Middlewares/Third_Party/LoRaWAN/Mac/LoRaMac.c ****                 if( ( int8_t )status >= 0 )
2072:Middlewares/Third_Party/LoRaWAN/Mac/LoRaMac.c ****                 {
2073:Middlewares/Third_Party/LoRaWAN/Mac/LoRaMac.c ****                     macCmdPayload[0] = status;
2074:Middlewares/Third_Party/LoRaWAN/Mac/LoRaMac.c ****                     LoRaMacCommandsAddCmd( MOTE_MAC_NEW_CHANNEL_ANS, macCmdPayload, 1 );
2075:Middlewares/Third_Party/LoRaWAN/Mac/LoRaMac.c ****                 }
2076:Middlewares/Third_Party/LoRaWAN/Mac/LoRaMac.c ****                 break;
2077:Middlewares/Third_Party/LoRaWAN/Mac/LoRaMac.c ****             }
2078:Middlewares/Third_Party/LoRaWAN/Mac/LoRaMac.c ****             case SRV_MAC_RX_TIMING_SETUP_REQ:
2079:Middlewares/Third_Party/LoRaWAN/Mac/LoRaMac.c ****             {
2080:Middlewares/Third_Party/LoRaWAN/Mac/LoRaMac.c ****                 uint8_t delay = payload[macIndex++] & 0x0F;
2081:Middlewares/Third_Party/LoRaWAN/Mac/LoRaMac.c **** 
2082:Middlewares/Third_Party/LoRaWAN/Mac/LoRaMac.c ****                 if( delay == 0 )
2083:Middlewares/Third_Party/LoRaWAN/Mac/LoRaMac.c ****                 {
2084:Middlewares/Third_Party/LoRaWAN/Mac/LoRaMac.c ****                     delay++;
2085:Middlewares/Third_Party/LoRaWAN/Mac/LoRaMac.c ****                 }
2086:Middlewares/Third_Party/LoRaWAN/Mac/LoRaMac.c ****                 Nvm.MacGroup2.MacParams.ReceiveDelay1 = delay * 1000;
2087:Middlewares/Third_Party/LoRaWAN/Mac/LoRaMac.c ****                 Nvm.MacGroup2.MacParams.ReceiveDelay2 = Nvm.MacGroup2.MacParams.ReceiveDelay1 + 100
2088:Middlewares/Third_Party/LoRaWAN/Mac/LoRaMac.c ****                 LoRaMacCommandsAddCmd( MOTE_MAC_RX_TIMING_SETUP_ANS, macCmdPayload, 0 );
2089:Middlewares/Third_Party/LoRaWAN/Mac/LoRaMac.c ****                 // Setup indication to inform the application
2090:Middlewares/Third_Party/LoRaWAN/Mac/LoRaMac.c ****                 SetMlmeScheduleUplinkIndication( );
2091:Middlewares/Third_Party/LoRaWAN/Mac/LoRaMac.c ****                 break;
2092:Middlewares/Third_Party/LoRaWAN/Mac/LoRaMac.c ****             }
2093:Middlewares/Third_Party/LoRaWAN/Mac/LoRaMac.c ****             case SRV_MAC_TX_PARAM_SETUP_REQ:
2094:Middlewares/Third_Party/LoRaWAN/Mac/LoRaMac.c ****             {
2095:Middlewares/Third_Party/LoRaWAN/Mac/LoRaMac.c ****                 TxParamSetupReqParams_t txParamSetupReq;
2096:Middlewares/Third_Party/LoRaWAN/Mac/LoRaMac.c ****                 GetPhyParams_t getPhy;
ARM GAS  /tmp/cc7YZJrH.s 			page 45


2097:Middlewares/Third_Party/LoRaWAN/Mac/LoRaMac.c ****                 PhyParam_t phyParam;
2098:Middlewares/Third_Party/LoRaWAN/Mac/LoRaMac.c ****                 uint8_t eirpDwellTime = payload[macIndex++];
2099:Middlewares/Third_Party/LoRaWAN/Mac/LoRaMac.c **** 
2100:Middlewares/Third_Party/LoRaWAN/Mac/LoRaMac.c ****                 txParamSetupReq.UplinkDwellTime = 0;
2101:Middlewares/Third_Party/LoRaWAN/Mac/LoRaMac.c ****                 txParamSetupReq.DownlinkDwellTime = 0;
2102:Middlewares/Third_Party/LoRaWAN/Mac/LoRaMac.c **** 
2103:Middlewares/Third_Party/LoRaWAN/Mac/LoRaMac.c ****                 if( ( eirpDwellTime & 0x20 ) == 0x20 )
2104:Middlewares/Third_Party/LoRaWAN/Mac/LoRaMac.c ****                 {
2105:Middlewares/Third_Party/LoRaWAN/Mac/LoRaMac.c ****                     txParamSetupReq.DownlinkDwellTime = 1;
2106:Middlewares/Third_Party/LoRaWAN/Mac/LoRaMac.c ****                 }
2107:Middlewares/Third_Party/LoRaWAN/Mac/LoRaMac.c ****                 if( ( eirpDwellTime & 0x10 ) == 0x10 )
2108:Middlewares/Third_Party/LoRaWAN/Mac/LoRaMac.c ****                 {
2109:Middlewares/Third_Party/LoRaWAN/Mac/LoRaMac.c ****                     txParamSetupReq.UplinkDwellTime = 1;
2110:Middlewares/Third_Party/LoRaWAN/Mac/LoRaMac.c ****                 }
2111:Middlewares/Third_Party/LoRaWAN/Mac/LoRaMac.c ****                 txParamSetupReq.MaxEirp = eirpDwellTime & 0x0F;
2112:Middlewares/Third_Party/LoRaWAN/Mac/LoRaMac.c **** 
2113:Middlewares/Third_Party/LoRaWAN/Mac/LoRaMac.c ****                 // Check the status for correctness
2114:Middlewares/Third_Party/LoRaWAN/Mac/LoRaMac.c ****                 if( RegionTxParamSetupReq( Nvm.MacGroup2.Region, &txParamSetupReq ) != -1 )
2115:Middlewares/Third_Party/LoRaWAN/Mac/LoRaMac.c ****                 {
2116:Middlewares/Third_Party/LoRaWAN/Mac/LoRaMac.c ****                     // Accept command
2117:Middlewares/Third_Party/LoRaWAN/Mac/LoRaMac.c ****                     Nvm.MacGroup2.MacParams.UplinkDwellTime = txParamSetupReq.UplinkDwellTime;
2118:Middlewares/Third_Party/LoRaWAN/Mac/LoRaMac.c ****                     Nvm.MacGroup2.MacParams.DownlinkDwellTime = txParamSetupReq.DownlinkDwellTime;
2119:Middlewares/Third_Party/LoRaWAN/Mac/LoRaMac.c ****                     Nvm.MacGroup2.MacParams.MaxEirp = LoRaMacMaxEirpTable[txParamSetupReq.MaxEirp];
2120:Middlewares/Third_Party/LoRaWAN/Mac/LoRaMac.c ****                     // Update the datarate in case of the new configuration limits it
2121:Middlewares/Third_Party/LoRaWAN/Mac/LoRaMac.c ****                     getPhy.Attribute = PHY_MIN_TX_DR;
2122:Middlewares/Third_Party/LoRaWAN/Mac/LoRaMac.c ****                     getPhy.UplinkDwellTime = Nvm.MacGroup2.MacParams.UplinkDwellTime;
2123:Middlewares/Third_Party/LoRaWAN/Mac/LoRaMac.c ****                     phyParam = RegionGetPhyParam( Nvm.MacGroup2.Region, &getPhy );
2124:Middlewares/Third_Party/LoRaWAN/Mac/LoRaMac.c ****                     Nvm.MacGroup1.ChannelsDatarate = MAX( Nvm.MacGroup1.ChannelsDatarate, ( int8_t 
2125:Middlewares/Third_Party/LoRaWAN/Mac/LoRaMac.c **** 
2126:Middlewares/Third_Party/LoRaWAN/Mac/LoRaMac.c ****                     // Add command response
2127:Middlewares/Third_Party/LoRaWAN/Mac/LoRaMac.c ****                     LoRaMacCommandsAddCmd( MOTE_MAC_TX_PARAM_SETUP_ANS, macCmdPayload, 0 );
2128:Middlewares/Third_Party/LoRaWAN/Mac/LoRaMac.c ****                 }
2129:Middlewares/Third_Party/LoRaWAN/Mac/LoRaMac.c ****                 break;
2130:Middlewares/Third_Party/LoRaWAN/Mac/LoRaMac.c ****             }
2131:Middlewares/Third_Party/LoRaWAN/Mac/LoRaMac.c ****             case SRV_MAC_DL_CHANNEL_REQ:
2132:Middlewares/Third_Party/LoRaWAN/Mac/LoRaMac.c ****             {
2133:Middlewares/Third_Party/LoRaWAN/Mac/LoRaMac.c ****                 DlChannelReqParams_t dlChannelReq;
2134:Middlewares/Third_Party/LoRaWAN/Mac/LoRaMac.c ****                 status = 0x03;
2135:Middlewares/Third_Party/LoRaWAN/Mac/LoRaMac.c **** 
2136:Middlewares/Third_Party/LoRaWAN/Mac/LoRaMac.c ****                 dlChannelReq.ChannelId = payload[macIndex++];
2137:Middlewares/Third_Party/LoRaWAN/Mac/LoRaMac.c ****                 dlChannelReq.Rx1Frequency = ( uint32_t ) payload[macIndex++];
2138:Middlewares/Third_Party/LoRaWAN/Mac/LoRaMac.c ****                 dlChannelReq.Rx1Frequency |= ( uint32_t ) payload[macIndex++] << 8;
2139:Middlewares/Third_Party/LoRaWAN/Mac/LoRaMac.c ****                 dlChannelReq.Rx1Frequency |= ( uint32_t ) payload[macIndex++] << 16;
2140:Middlewares/Third_Party/LoRaWAN/Mac/LoRaMac.c ****                 dlChannelReq.Rx1Frequency *= 100;
2141:Middlewares/Third_Party/LoRaWAN/Mac/LoRaMac.c **** 
2142:Middlewares/Third_Party/LoRaWAN/Mac/LoRaMac.c ****                 status = ( uint8_t )RegionDlChannelReq( Nvm.MacGroup2.Region, &dlChannelReq );
2143:Middlewares/Third_Party/LoRaWAN/Mac/LoRaMac.c **** 
2144:Middlewares/Third_Party/LoRaWAN/Mac/LoRaMac.c ****                 if( ( int8_t )status >= 0 )
2145:Middlewares/Third_Party/LoRaWAN/Mac/LoRaMac.c ****                 {
2146:Middlewares/Third_Party/LoRaWAN/Mac/LoRaMac.c ****                     macCmdPayload[0] = status;
2147:Middlewares/Third_Party/LoRaWAN/Mac/LoRaMac.c ****                     LoRaMacCommandsAddCmd( MOTE_MAC_DL_CHANNEL_ANS, macCmdPayload, 1 );
2148:Middlewares/Third_Party/LoRaWAN/Mac/LoRaMac.c ****                     // Setup indication to inform the application
2149:Middlewares/Third_Party/LoRaWAN/Mac/LoRaMac.c ****                     SetMlmeScheduleUplinkIndication( );
2150:Middlewares/Third_Party/LoRaWAN/Mac/LoRaMac.c ****                 }
2151:Middlewares/Third_Party/LoRaWAN/Mac/LoRaMac.c ****                 break;
2152:Middlewares/Third_Party/LoRaWAN/Mac/LoRaMac.c ****             }
2153:Middlewares/Third_Party/LoRaWAN/Mac/LoRaMac.c ****             case SRV_MAC_DEVICE_TIME_ANS:
ARM GAS  /tmp/cc7YZJrH.s 			page 46


2154:Middlewares/Third_Party/LoRaWAN/Mac/LoRaMac.c ****             {
2155:Middlewares/Third_Party/LoRaWAN/Mac/LoRaMac.c ****                 if( LoRaMacConfirmQueueIsCmdActive( MLME_DEVICE_TIME ) == true )
2156:Middlewares/Third_Party/LoRaWAN/Mac/LoRaMac.c ****                 {
2157:Middlewares/Third_Party/LoRaWAN/Mac/LoRaMac.c ****                     LoRaMacConfirmQueueSetStatus( LORAMAC_EVENT_INFO_STATUS_OK, MLME_DEVICE_TIME );
2158:Middlewares/Third_Party/LoRaWAN/Mac/LoRaMac.c ****                     SysTime_t gpsEpochTime = { 0 };
2159:Middlewares/Third_Party/LoRaWAN/Mac/LoRaMac.c ****                     SysTime_t sysTime = { 0 };
2160:Middlewares/Third_Party/LoRaWAN/Mac/LoRaMac.c ****                     SysTime_t sysTimeCurrent = { 0 };
2161:Middlewares/Third_Party/LoRaWAN/Mac/LoRaMac.c **** 
2162:Middlewares/Third_Party/LoRaWAN/Mac/LoRaMac.c ****                     gpsEpochTime.Seconds = ( uint32_t )payload[macIndex++];
2163:Middlewares/Third_Party/LoRaWAN/Mac/LoRaMac.c ****                     gpsEpochTime.Seconds |= ( uint32_t )payload[macIndex++] << 8;
2164:Middlewares/Third_Party/LoRaWAN/Mac/LoRaMac.c ****                     gpsEpochTime.Seconds |= ( uint32_t )payload[macIndex++] << 16;
2165:Middlewares/Third_Party/LoRaWAN/Mac/LoRaMac.c ****                     gpsEpochTime.Seconds |= ( uint32_t )payload[macIndex++] << 24;
2166:Middlewares/Third_Party/LoRaWAN/Mac/LoRaMac.c ****                     gpsEpochTime.SubSeconds = payload[macIndex++];
2167:Middlewares/Third_Party/LoRaWAN/Mac/LoRaMac.c **** 
2168:Middlewares/Third_Party/LoRaWAN/Mac/LoRaMac.c ****                     // Convert the fractional second received in ms
2169:Middlewares/Third_Party/LoRaWAN/Mac/LoRaMac.c ****                     // round( pow( 0.5, 8.0 ) * 1000 ) = 3.90625
2170:Middlewares/Third_Party/LoRaWAN/Mac/LoRaMac.c ****                     gpsEpochTime.SubSeconds = ( int16_t )( ( ( int32_t )gpsEpochTime.SubSeconds * 1
2171:Middlewares/Third_Party/LoRaWAN/Mac/LoRaMac.c **** 
2172:Middlewares/Third_Party/LoRaWAN/Mac/LoRaMac.c ****                     // Copy received GPS Epoch time into system time
2173:Middlewares/Third_Party/LoRaWAN/Mac/LoRaMac.c ****                     sysTime = gpsEpochTime;
2174:Middlewares/Third_Party/LoRaWAN/Mac/LoRaMac.c ****                     // Add Unix to Gps epcoh offset. The system time is based on Unix time.
2175:Middlewares/Third_Party/LoRaWAN/Mac/LoRaMac.c ****                     sysTime.Seconds += UNIX_GPS_EPOCH_OFFSET;
2176:Middlewares/Third_Party/LoRaWAN/Mac/LoRaMac.c **** 
2177:Middlewares/Third_Party/LoRaWAN/Mac/LoRaMac.c ****                     // Compensate time difference between Tx Done time and now
2178:Middlewares/Third_Party/LoRaWAN/Mac/LoRaMac.c ****                     sysTimeCurrent = SysTimeGet( );
2179:Middlewares/Third_Party/LoRaWAN/Mac/LoRaMac.c ****                     sysTime = SysTimeAdd( sysTimeCurrent, SysTimeSub( sysTime, MacCtx.LastTxSysTime
2180:Middlewares/Third_Party/LoRaWAN/Mac/LoRaMac.c **** 
2181:Middlewares/Third_Party/LoRaWAN/Mac/LoRaMac.c ****                     // Apply the new system time.
2182:Middlewares/Third_Party/LoRaWAN/Mac/LoRaMac.c ****                     SysTimeSet( sysTime );
2183:Middlewares/Third_Party/LoRaWAN/Mac/LoRaMac.c ****                     LoRaMacClassBDeviceTimeAns( );
2184:Middlewares/Third_Party/LoRaWAN/Mac/LoRaMac.c ****                     MacCtx.McpsIndication.DeviceTimeAnsReceived = true;
2185:Middlewares/Third_Party/LoRaWAN/Mac/LoRaMac.c ****                 }
2186:Middlewares/Third_Party/LoRaWAN/Mac/LoRaMac.c ****                 break;
2187:Middlewares/Third_Party/LoRaWAN/Mac/LoRaMac.c ****             }
2188:Middlewares/Third_Party/LoRaWAN/Mac/LoRaMac.c ****             case SRV_MAC_PING_SLOT_INFO_ANS:
2189:Middlewares/Third_Party/LoRaWAN/Mac/LoRaMac.c ****             {
2190:Middlewares/Third_Party/LoRaWAN/Mac/LoRaMac.c ****                 if( LoRaMacConfirmQueueIsCmdActive( MLME_PING_SLOT_INFO ) == true )
2191:Middlewares/Third_Party/LoRaWAN/Mac/LoRaMac.c ****                 {
2192:Middlewares/Third_Party/LoRaWAN/Mac/LoRaMac.c ****                     LoRaMacConfirmQueueSetStatus( LORAMAC_EVENT_INFO_STATUS_OK, MLME_PING_SLOT_INFO
2193:Middlewares/Third_Party/LoRaWAN/Mac/LoRaMac.c ****                     // According to the specification, it is not allowed to process this answer in
2194:Middlewares/Third_Party/LoRaWAN/Mac/LoRaMac.c ****                     // a ping or multicast slot
2195:Middlewares/Third_Party/LoRaWAN/Mac/LoRaMac.c ****                     if( ( MacCtx.RxSlot != RX_SLOT_WIN_CLASS_B_PING_SLOT ) && ( MacCtx.RxSlot != RX
2196:Middlewares/Third_Party/LoRaWAN/Mac/LoRaMac.c ****                     {
2197:Middlewares/Third_Party/LoRaWAN/Mac/LoRaMac.c ****                         LoRaMacClassBPingSlotInfoAns( );
2198:Middlewares/Third_Party/LoRaWAN/Mac/LoRaMac.c ****                     }
2199:Middlewares/Third_Party/LoRaWAN/Mac/LoRaMac.c ****                 }
2200:Middlewares/Third_Party/LoRaWAN/Mac/LoRaMac.c ****                 break;
2201:Middlewares/Third_Party/LoRaWAN/Mac/LoRaMac.c ****             }
2202:Middlewares/Third_Party/LoRaWAN/Mac/LoRaMac.c ****             case SRV_MAC_PING_SLOT_CHANNEL_REQ:
2203:Middlewares/Third_Party/LoRaWAN/Mac/LoRaMac.c ****             {
2204:Middlewares/Third_Party/LoRaWAN/Mac/LoRaMac.c ****                 uint8_t status = 0x03;
2205:Middlewares/Third_Party/LoRaWAN/Mac/LoRaMac.c ****                 uint32_t frequency = 0;
2206:Middlewares/Third_Party/LoRaWAN/Mac/LoRaMac.c ****                 uint8_t datarate;
2207:Middlewares/Third_Party/LoRaWAN/Mac/LoRaMac.c **** 
2208:Middlewares/Third_Party/LoRaWAN/Mac/LoRaMac.c ****                 frequency = ( uint32_t )payload[macIndex++];
2209:Middlewares/Third_Party/LoRaWAN/Mac/LoRaMac.c ****                 frequency |= ( uint32_t )payload[macIndex++] << 8;
2210:Middlewares/Third_Party/LoRaWAN/Mac/LoRaMac.c ****                 frequency |= ( uint32_t )payload[macIndex++] << 16;
ARM GAS  /tmp/cc7YZJrH.s 			page 47


2211:Middlewares/Third_Party/LoRaWAN/Mac/LoRaMac.c ****                 frequency *= 100;
2212:Middlewares/Third_Party/LoRaWAN/Mac/LoRaMac.c ****                 datarate = payload[macIndex++] & 0x0F;
2213:Middlewares/Third_Party/LoRaWAN/Mac/LoRaMac.c **** 
2214:Middlewares/Third_Party/LoRaWAN/Mac/LoRaMac.c ****                 status = LoRaMacClassBPingSlotChannelReq( datarate, frequency );
2215:Middlewares/Third_Party/LoRaWAN/Mac/LoRaMac.c ****                 macCmdPayload[0] = status;
2216:Middlewares/Third_Party/LoRaWAN/Mac/LoRaMac.c ****                 LoRaMacCommandsAddCmd( MOTE_MAC_PING_SLOT_FREQ_ANS, macCmdPayload, 1 );
2217:Middlewares/Third_Party/LoRaWAN/Mac/LoRaMac.c ****                 break;
2218:Middlewares/Third_Party/LoRaWAN/Mac/LoRaMac.c ****             }
2219:Middlewares/Third_Party/LoRaWAN/Mac/LoRaMac.c ****             case SRV_MAC_BEACON_TIMING_ANS:
2220:Middlewares/Third_Party/LoRaWAN/Mac/LoRaMac.c ****             {
2221:Middlewares/Third_Party/LoRaWAN/Mac/LoRaMac.c ****                 if( LoRaMacConfirmQueueIsCmdActive( MLME_BEACON_TIMING ) == true )
2222:Middlewares/Third_Party/LoRaWAN/Mac/LoRaMac.c ****                 {
2223:Middlewares/Third_Party/LoRaWAN/Mac/LoRaMac.c ****                     LoRaMacConfirmQueueSetStatus( LORAMAC_EVENT_INFO_STATUS_OK, MLME_BEACON_TIMING 
2224:Middlewares/Third_Party/LoRaWAN/Mac/LoRaMac.c ****                     uint16_t beaconTimingDelay = 0;
2225:Middlewares/Third_Party/LoRaWAN/Mac/LoRaMac.c ****                     uint8_t beaconTimingChannel = 0;
2226:Middlewares/Third_Party/LoRaWAN/Mac/LoRaMac.c **** 
2227:Middlewares/Third_Party/LoRaWAN/Mac/LoRaMac.c ****                     beaconTimingDelay = ( uint16_t )payload[macIndex++];
2228:Middlewares/Third_Party/LoRaWAN/Mac/LoRaMac.c ****                     beaconTimingDelay |= ( uint16_t )payload[macIndex++] << 8;
2229:Middlewares/Third_Party/LoRaWAN/Mac/LoRaMac.c ****                     beaconTimingChannel = payload[macIndex++];
2230:Middlewares/Third_Party/LoRaWAN/Mac/LoRaMac.c **** 
2231:Middlewares/Third_Party/LoRaWAN/Mac/LoRaMac.c ****                     LoRaMacClassBBeaconTimingAns( beaconTimingDelay, beaconTimingChannel, RxDonePar
2232:Middlewares/Third_Party/LoRaWAN/Mac/LoRaMac.c ****                 }
2233:Middlewares/Third_Party/LoRaWAN/Mac/LoRaMac.c ****                 break;
2234:Middlewares/Third_Party/LoRaWAN/Mac/LoRaMac.c ****             }
2235:Middlewares/Third_Party/LoRaWAN/Mac/LoRaMac.c ****             case SRV_MAC_BEACON_FREQ_REQ:
2236:Middlewares/Third_Party/LoRaWAN/Mac/LoRaMac.c ****                 {
2237:Middlewares/Third_Party/LoRaWAN/Mac/LoRaMac.c ****                     uint32_t frequency = 0;
2238:Middlewares/Third_Party/LoRaWAN/Mac/LoRaMac.c **** 
2239:Middlewares/Third_Party/LoRaWAN/Mac/LoRaMac.c ****                     frequency = ( uint32_t )payload[macIndex++];
2240:Middlewares/Third_Party/LoRaWAN/Mac/LoRaMac.c ****                     frequency |= ( uint32_t )payload[macIndex++] << 8;
2241:Middlewares/Third_Party/LoRaWAN/Mac/LoRaMac.c ****                     frequency |= ( uint32_t )payload[macIndex++] << 16;
2242:Middlewares/Third_Party/LoRaWAN/Mac/LoRaMac.c ****                     frequency *= 100;
2243:Middlewares/Third_Party/LoRaWAN/Mac/LoRaMac.c **** 
2244:Middlewares/Third_Party/LoRaWAN/Mac/LoRaMac.c ****                     if( LoRaMacClassBBeaconFreqReq( frequency ) == true )
2245:Middlewares/Third_Party/LoRaWAN/Mac/LoRaMac.c ****                     {
2246:Middlewares/Third_Party/LoRaWAN/Mac/LoRaMac.c ****                         macCmdPayload[0] = 1;
2247:Middlewares/Third_Party/LoRaWAN/Mac/LoRaMac.c ****                     }
2248:Middlewares/Third_Party/LoRaWAN/Mac/LoRaMac.c ****                     else
2249:Middlewares/Third_Party/LoRaWAN/Mac/LoRaMac.c ****                     {
2250:Middlewares/Third_Party/LoRaWAN/Mac/LoRaMac.c ****                         macCmdPayload[0] = 0;
2251:Middlewares/Third_Party/LoRaWAN/Mac/LoRaMac.c ****                     }
2252:Middlewares/Third_Party/LoRaWAN/Mac/LoRaMac.c ****                     LoRaMacCommandsAddCmd( MOTE_MAC_BEACON_FREQ_ANS, macCmdPayload, 1 );
2253:Middlewares/Third_Party/LoRaWAN/Mac/LoRaMac.c ****                 }
2254:Middlewares/Third_Party/LoRaWAN/Mac/LoRaMac.c ****                 break;
2255:Middlewares/Third_Party/LoRaWAN/Mac/LoRaMac.c ****             default:
2256:Middlewares/Third_Party/LoRaWAN/Mac/LoRaMac.c ****                 // Unknown command. ABORT MAC commands processing
2257:Middlewares/Third_Party/LoRaWAN/Mac/LoRaMac.c ****                 return;
2258:Middlewares/Third_Party/LoRaWAN/Mac/LoRaMac.c ****         }
2259:Middlewares/Third_Party/LoRaWAN/Mac/LoRaMac.c ****     }
2260:Middlewares/Third_Party/LoRaWAN/Mac/LoRaMac.c **** }
2261:Middlewares/Third_Party/LoRaWAN/Mac/LoRaMac.c **** 
2262:Middlewares/Third_Party/LoRaWAN/Mac/LoRaMac.c **** /* ST_WORKAROUND: Update Send request with new input parameter to allow delayed tx */
2263:Middlewares/Third_Party/LoRaWAN/Mac/LoRaMac.c **** static LoRaMacStatus_t Send( LoRaMacHeader_t* macHdr, uint8_t fPort, void* fBuffer, uint16_t fBuffe
2264:Middlewares/Third_Party/LoRaWAN/Mac/LoRaMac.c **** {
2265:Middlewares/Third_Party/LoRaWAN/Mac/LoRaMac.c ****     LoRaMacFrameCtrl_t fCtrl;
2266:Middlewares/Third_Party/LoRaWAN/Mac/LoRaMac.c ****     LoRaMacStatus_t status = LORAMAC_STATUS_PARAMETER_INVALID;
2267:Middlewares/Third_Party/LoRaWAN/Mac/LoRaMac.c ****     int8_t datarate = Nvm.MacGroup1.ChannelsDatarate;
ARM GAS  /tmp/cc7YZJrH.s 			page 48


2268:Middlewares/Third_Party/LoRaWAN/Mac/LoRaMac.c ****     int8_t txPower = Nvm.MacGroup1.ChannelsTxPower;
2269:Middlewares/Third_Party/LoRaWAN/Mac/LoRaMac.c ****     uint32_t adrAckCounter = Nvm.MacGroup1.AdrAckCounter;
2270:Middlewares/Third_Party/LoRaWAN/Mac/LoRaMac.c ****     CalcNextAdrParams_t adrNext;
2271:Middlewares/Third_Party/LoRaWAN/Mac/LoRaMac.c **** 
2272:Middlewares/Third_Party/LoRaWAN/Mac/LoRaMac.c ****     // Check if we are joined
2273:Middlewares/Third_Party/LoRaWAN/Mac/LoRaMac.c ****     if( Nvm.MacGroup2.NetworkActivation == ACTIVATION_TYPE_NONE )
2274:Middlewares/Third_Party/LoRaWAN/Mac/LoRaMac.c ****     {
2275:Middlewares/Third_Party/LoRaWAN/Mac/LoRaMac.c ****         return LORAMAC_STATUS_NO_NETWORK_JOINED;
2276:Middlewares/Third_Party/LoRaWAN/Mac/LoRaMac.c ****     }
2277:Middlewares/Third_Party/LoRaWAN/Mac/LoRaMac.c ****     if( Nvm.MacGroup2.MaxDCycle == 0 )
2278:Middlewares/Third_Party/LoRaWAN/Mac/LoRaMac.c ****     {
2279:Middlewares/Third_Party/LoRaWAN/Mac/LoRaMac.c ****         Nvm.MacGroup1.AggregatedTimeOff = 0;
2280:Middlewares/Third_Party/LoRaWAN/Mac/LoRaMac.c ****     }
2281:Middlewares/Third_Party/LoRaWAN/Mac/LoRaMac.c **** 
2282:Middlewares/Third_Party/LoRaWAN/Mac/LoRaMac.c ****     fCtrl.Value = 0;
2283:Middlewares/Third_Party/LoRaWAN/Mac/LoRaMac.c ****     fCtrl.Bits.FOptsLen      = 0;
2284:Middlewares/Third_Party/LoRaWAN/Mac/LoRaMac.c ****     fCtrl.Bits.Adr           = Nvm.MacGroup2.AdrCtrlOn;
2285:Middlewares/Third_Party/LoRaWAN/Mac/LoRaMac.c **** 
2286:Middlewares/Third_Party/LoRaWAN/Mac/LoRaMac.c ****     // Check class b
2287:Middlewares/Third_Party/LoRaWAN/Mac/LoRaMac.c ****     if( Nvm.MacGroup2.DeviceClass == CLASS_B )
2288:Middlewares/Third_Party/LoRaWAN/Mac/LoRaMac.c ****     {
2289:Middlewares/Third_Party/LoRaWAN/Mac/LoRaMac.c ****         fCtrl.Bits.FPending      = 1;
2290:Middlewares/Third_Party/LoRaWAN/Mac/LoRaMac.c ****     }
2291:Middlewares/Third_Party/LoRaWAN/Mac/LoRaMac.c ****     else
2292:Middlewares/Third_Party/LoRaWAN/Mac/LoRaMac.c ****     {
2293:Middlewares/Third_Party/LoRaWAN/Mac/LoRaMac.c ****         fCtrl.Bits.FPending      = 0;
2294:Middlewares/Third_Party/LoRaWAN/Mac/LoRaMac.c ****     }
2295:Middlewares/Third_Party/LoRaWAN/Mac/LoRaMac.c **** 
2296:Middlewares/Third_Party/LoRaWAN/Mac/LoRaMac.c ****     // Check server ack
2297:Middlewares/Third_Party/LoRaWAN/Mac/LoRaMac.c ****     if( Nvm.MacGroup1.SrvAckRequested == true )
2298:Middlewares/Third_Party/LoRaWAN/Mac/LoRaMac.c ****     {
2299:Middlewares/Third_Party/LoRaWAN/Mac/LoRaMac.c ****         fCtrl.Bits.Ack = 1;
2300:Middlewares/Third_Party/LoRaWAN/Mac/LoRaMac.c ****     }
2301:Middlewares/Third_Party/LoRaWAN/Mac/LoRaMac.c **** 
2302:Middlewares/Third_Party/LoRaWAN/Mac/LoRaMac.c ****     // ADR next request
2303:Middlewares/Third_Party/LoRaWAN/Mac/LoRaMac.c ****     adrNext.Version = Nvm.MacGroup2.Version;
2304:Middlewares/Third_Party/LoRaWAN/Mac/LoRaMac.c ****     adrNext.UpdateChanMask = true;
2305:Middlewares/Third_Party/LoRaWAN/Mac/LoRaMac.c ****     adrNext.AdrEnabled = fCtrl.Bits.Adr;
2306:Middlewares/Third_Party/LoRaWAN/Mac/LoRaMac.c ****     adrNext.AdrAckCounter = Nvm.MacGroup1.AdrAckCounter;
2307:Middlewares/Third_Party/LoRaWAN/Mac/LoRaMac.c ****     adrNext.AdrAckLimit = MacCtx.AdrAckLimit;
2308:Middlewares/Third_Party/LoRaWAN/Mac/LoRaMac.c ****     adrNext.AdrAckDelay = MacCtx.AdrAckDelay;
2309:Middlewares/Third_Party/LoRaWAN/Mac/LoRaMac.c ****     adrNext.Datarate = Nvm.MacGroup1.ChannelsDatarate;
2310:Middlewares/Third_Party/LoRaWAN/Mac/LoRaMac.c ****     adrNext.TxPower = Nvm.MacGroup1.ChannelsTxPower;
2311:Middlewares/Third_Party/LoRaWAN/Mac/LoRaMac.c ****     adrNext.UplinkDwellTime = Nvm.MacGroup2.MacParams.UplinkDwellTime;
2312:Middlewares/Third_Party/LoRaWAN/Mac/LoRaMac.c ****     adrNext.Region = Nvm.MacGroup2.Region;
2313:Middlewares/Third_Party/LoRaWAN/Mac/LoRaMac.c **** 
2314:Middlewares/Third_Party/LoRaWAN/Mac/LoRaMac.c ****     fCtrl.Bits.AdrAckReq = LoRaMacAdrCalcNext( &adrNext, &Nvm.MacGroup1.ChannelsDatarate,
2315:Middlewares/Third_Party/LoRaWAN/Mac/LoRaMac.c ****                                                &Nvm.MacGroup1.ChannelsTxPower, &adrAckCounter );
2316:Middlewares/Third_Party/LoRaWAN/Mac/LoRaMac.c **** 
2317:Middlewares/Third_Party/LoRaWAN/Mac/LoRaMac.c ****     // Prepare the frame
2318:Middlewares/Third_Party/LoRaWAN/Mac/LoRaMac.c ****     status = PrepareFrame( macHdr, &fCtrl, fPort, fBuffer, fBufferSize );
2319:Middlewares/Third_Party/LoRaWAN/Mac/LoRaMac.c **** 
2320:Middlewares/Third_Party/LoRaWAN/Mac/LoRaMac.c ****     // Validate status
2321:Middlewares/Third_Party/LoRaWAN/Mac/LoRaMac.c ****     if( ( status == LORAMAC_STATUS_OK ) || ( status == LORAMAC_STATUS_SKIPPED_APP_DATA ) )
2322:Middlewares/Third_Party/LoRaWAN/Mac/LoRaMac.c ****     {
2323:Middlewares/Third_Party/LoRaWAN/Mac/LoRaMac.c ****         // Schedule frame, do not allow delayed transmissions
2324:Middlewares/Third_Party/LoRaWAN/Mac/LoRaMac.c ****         status = ScheduleTx( allowDelayedTx ); /* ST_WORKAROUND: Update Send request with new input
ARM GAS  /tmp/cc7YZJrH.s 			page 49


2325:Middlewares/Third_Party/LoRaWAN/Mac/LoRaMac.c ****     }
2326:Middlewares/Third_Party/LoRaWAN/Mac/LoRaMac.c **** 
2327:Middlewares/Third_Party/LoRaWAN/Mac/LoRaMac.c ****     // Post processing
2328:Middlewares/Third_Party/LoRaWAN/Mac/LoRaMac.c ****     if( status != LORAMAC_STATUS_OK )
2329:Middlewares/Third_Party/LoRaWAN/Mac/LoRaMac.c ****     {
2330:Middlewares/Third_Party/LoRaWAN/Mac/LoRaMac.c ****         // Bad case - restore
2331:Middlewares/Third_Party/LoRaWAN/Mac/LoRaMac.c ****         // Store local variables
2332:Middlewares/Third_Party/LoRaWAN/Mac/LoRaMac.c ****         Nvm.MacGroup1.ChannelsDatarate = datarate;
2333:Middlewares/Third_Party/LoRaWAN/Mac/LoRaMac.c ****         Nvm.MacGroup1.ChannelsTxPower = txPower;
2334:Middlewares/Third_Party/LoRaWAN/Mac/LoRaMac.c ****     }
2335:Middlewares/Third_Party/LoRaWAN/Mac/LoRaMac.c ****     else
2336:Middlewares/Third_Party/LoRaWAN/Mac/LoRaMac.c ****     {
2337:Middlewares/Third_Party/LoRaWAN/Mac/LoRaMac.c ****         // Good case
2338:Middlewares/Third_Party/LoRaWAN/Mac/LoRaMac.c ****         Nvm.MacGroup1.SrvAckRequested = false;
2339:Middlewares/Third_Party/LoRaWAN/Mac/LoRaMac.c ****         Nvm.MacGroup1.AdrAckCounter = adrAckCounter;
2340:Middlewares/Third_Party/LoRaWAN/Mac/LoRaMac.c ****         // Remove all none sticky MAC commands
2341:Middlewares/Third_Party/LoRaWAN/Mac/LoRaMac.c ****         if( LoRaMacCommandsRemoveNoneStickyCmds( ) != LORAMAC_COMMANDS_SUCCESS )
2342:Middlewares/Third_Party/LoRaWAN/Mac/LoRaMac.c ****         {
2343:Middlewares/Third_Party/LoRaWAN/Mac/LoRaMac.c ****             return LORAMAC_STATUS_MAC_COMMAD_ERROR;
2344:Middlewares/Third_Party/LoRaWAN/Mac/LoRaMac.c ****         }
2345:Middlewares/Third_Party/LoRaWAN/Mac/LoRaMac.c ****     }
2346:Middlewares/Third_Party/LoRaWAN/Mac/LoRaMac.c ****     return status;
2347:Middlewares/Third_Party/LoRaWAN/Mac/LoRaMac.c **** }
2348:Middlewares/Third_Party/LoRaWAN/Mac/LoRaMac.c **** 
2349:Middlewares/Third_Party/LoRaWAN/Mac/LoRaMac.c **** static LoRaMacStatus_t SendReJoinReq( JoinReqIdentifier_t joinReqType )
2350:Middlewares/Third_Party/LoRaWAN/Mac/LoRaMac.c **** {
2351:Middlewares/Third_Party/LoRaWAN/Mac/LoRaMac.c ****     LoRaMacStatus_t status = LORAMAC_STATUS_OK;
2352:Middlewares/Third_Party/LoRaWAN/Mac/LoRaMac.c ****     LoRaMacHeader_t macHdr;
2353:Middlewares/Third_Party/LoRaWAN/Mac/LoRaMac.c ****     macHdr.Value = 0;
2354:Middlewares/Third_Party/LoRaWAN/Mac/LoRaMac.c ****     bool allowDelayedTx = true;
2355:Middlewares/Third_Party/LoRaWAN/Mac/LoRaMac.c **** 
2356:Middlewares/Third_Party/LoRaWAN/Mac/LoRaMac.c ****     // Setup join/rejoin message
2357:Middlewares/Third_Party/LoRaWAN/Mac/LoRaMac.c ****     switch( joinReqType )
2358:Middlewares/Third_Party/LoRaWAN/Mac/LoRaMac.c ****     {
2359:Middlewares/Third_Party/LoRaWAN/Mac/LoRaMac.c ****         case JOIN_REQ:
2360:Middlewares/Third_Party/LoRaWAN/Mac/LoRaMac.c ****         {
2361:Middlewares/Third_Party/LoRaWAN/Mac/LoRaMac.c ****             SwitchClass( CLASS_A );
2362:Middlewares/Third_Party/LoRaWAN/Mac/LoRaMac.c **** 
2363:Middlewares/Third_Party/LoRaWAN/Mac/LoRaMac.c ****             MacCtx.TxMsg.Type = LORAMAC_MSG_TYPE_JOIN_REQUEST;
2364:Middlewares/Third_Party/LoRaWAN/Mac/LoRaMac.c ****             MacCtx.TxMsg.Message.JoinReq.Buffer = MacCtx.PktBuffer;
2365:Middlewares/Third_Party/LoRaWAN/Mac/LoRaMac.c ****             MacCtx.TxMsg.Message.JoinReq.BufSize = LORAMAC_PHY_MAXPAYLOAD;
2366:Middlewares/Third_Party/LoRaWAN/Mac/LoRaMac.c **** 
2367:Middlewares/Third_Party/LoRaWAN/Mac/LoRaMac.c ****             macHdr.Bits.MType = FRAME_TYPE_JOIN_REQ;
2368:Middlewares/Third_Party/LoRaWAN/Mac/LoRaMac.c ****             MacCtx.TxMsg.Message.JoinReq.MHDR.Value = macHdr.Value;
2369:Middlewares/Third_Party/LoRaWAN/Mac/LoRaMac.c **** 
2370:Middlewares/Third_Party/LoRaWAN/Mac/LoRaMac.c ****             memcpy1( MacCtx.TxMsg.Message.JoinReq.JoinEUI, SecureElementGetJoinEui( ), LORAMAC_JOIN
2371:Middlewares/Third_Party/LoRaWAN/Mac/LoRaMac.c ****             memcpy1( MacCtx.TxMsg.Message.JoinReq.DevEUI, SecureElementGetDevEui( ), LORAMAC_DEV_EU
2372:Middlewares/Third_Party/LoRaWAN/Mac/LoRaMac.c **** 
2373:Middlewares/Third_Party/LoRaWAN/Mac/LoRaMac.c ****             allowDelayedTx = false;
2374:Middlewares/Third_Party/LoRaWAN/Mac/LoRaMac.c **** 
2375:Middlewares/Third_Party/LoRaWAN/Mac/LoRaMac.c ****             break;
2376:Middlewares/Third_Party/LoRaWAN/Mac/LoRaMac.c ****         }
2377:Middlewares/Third_Party/LoRaWAN/Mac/LoRaMac.c ****         default:
2378:Middlewares/Third_Party/LoRaWAN/Mac/LoRaMac.c ****             status = LORAMAC_STATUS_SERVICE_UNKNOWN;
2379:Middlewares/Third_Party/LoRaWAN/Mac/LoRaMac.c ****             break;
2380:Middlewares/Third_Party/LoRaWAN/Mac/LoRaMac.c ****     }
2381:Middlewares/Third_Party/LoRaWAN/Mac/LoRaMac.c **** 
ARM GAS  /tmp/cc7YZJrH.s 			page 50


2382:Middlewares/Third_Party/LoRaWAN/Mac/LoRaMac.c ****     // Schedule frame
2383:Middlewares/Third_Party/LoRaWAN/Mac/LoRaMac.c ****     status = ScheduleTx( allowDelayedTx );
2384:Middlewares/Third_Party/LoRaWAN/Mac/LoRaMac.c ****     return status;
2385:Middlewares/Third_Party/LoRaWAN/Mac/LoRaMac.c **** }
2386:Middlewares/Third_Party/LoRaWAN/Mac/LoRaMac.c **** 
2387:Middlewares/Third_Party/LoRaWAN/Mac/LoRaMac.c **** static LoRaMacStatus_t CheckForClassBCollision( void )
2388:Middlewares/Third_Party/LoRaWAN/Mac/LoRaMac.c **** {
2389:Middlewares/Third_Party/LoRaWAN/Mac/LoRaMac.c ****     if( LoRaMacClassBIsBeaconExpected( ) == true )
2390:Middlewares/Third_Party/LoRaWAN/Mac/LoRaMac.c ****     {
2391:Middlewares/Third_Party/LoRaWAN/Mac/LoRaMac.c ****         return LORAMAC_STATUS_BUSY_BEACON_RESERVED_TIME;
2392:Middlewares/Third_Party/LoRaWAN/Mac/LoRaMac.c ****     }
2393:Middlewares/Third_Party/LoRaWAN/Mac/LoRaMac.c **** 
2394:Middlewares/Third_Party/LoRaWAN/Mac/LoRaMac.c ****     if( Nvm.MacGroup2.DeviceClass == CLASS_B )
2395:Middlewares/Third_Party/LoRaWAN/Mac/LoRaMac.c ****     {
2396:Middlewares/Third_Party/LoRaWAN/Mac/LoRaMac.c ****         if( LoRaMacClassBIsPingExpected( ) == true )
2397:Middlewares/Third_Party/LoRaWAN/Mac/LoRaMac.c ****         {
2398:Middlewares/Third_Party/LoRaWAN/Mac/LoRaMac.c ****             return LORAMAC_STATUS_BUSY_PING_SLOT_WINDOW_TIME;
2399:Middlewares/Third_Party/LoRaWAN/Mac/LoRaMac.c ****         }
2400:Middlewares/Third_Party/LoRaWAN/Mac/LoRaMac.c ****         else if( LoRaMacClassBIsMulticastExpected( ) == true )
2401:Middlewares/Third_Party/LoRaWAN/Mac/LoRaMac.c ****         {
2402:Middlewares/Third_Party/LoRaWAN/Mac/LoRaMac.c ****             return LORAMAC_STATUS_BUSY_PING_SLOT_WINDOW_TIME;
2403:Middlewares/Third_Party/LoRaWAN/Mac/LoRaMac.c ****         }
2404:Middlewares/Third_Party/LoRaWAN/Mac/LoRaMac.c ****     }
2405:Middlewares/Third_Party/LoRaWAN/Mac/LoRaMac.c ****     return LORAMAC_STATUS_OK;
2406:Middlewares/Third_Party/LoRaWAN/Mac/LoRaMac.c **** }
2407:Middlewares/Third_Party/LoRaWAN/Mac/LoRaMac.c **** 
2408:Middlewares/Third_Party/LoRaWAN/Mac/LoRaMac.c **** static void ComputeRxWindowParameters( void )
2409:Middlewares/Third_Party/LoRaWAN/Mac/LoRaMac.c **** {
2410:Middlewares/Third_Party/LoRaWAN/Mac/LoRaMac.c ****     // Compute Rx1 windows parameters
2411:Middlewares/Third_Party/LoRaWAN/Mac/LoRaMac.c ****     RegionComputeRxWindowParameters( Nvm.MacGroup2.Region,
2412:Middlewares/Third_Party/LoRaWAN/Mac/LoRaMac.c ****                                      RegionApplyDrOffset( Nvm.MacGroup2.Region,
2413:Middlewares/Third_Party/LoRaWAN/Mac/LoRaMac.c ****                                                           Nvm.MacGroup2.MacParams.DownlinkDwellTime
2414:Middlewares/Third_Party/LoRaWAN/Mac/LoRaMac.c ****                                                           Nvm.MacGroup1.ChannelsDatarate,
2415:Middlewares/Third_Party/LoRaWAN/Mac/LoRaMac.c ****                                                           Nvm.MacGroup2.MacParams.Rx1DrOffset ),
2416:Middlewares/Third_Party/LoRaWAN/Mac/LoRaMac.c ****                                      Nvm.MacGroup2.MacParams.MinRxSymbols,
2417:Middlewares/Third_Party/LoRaWAN/Mac/LoRaMac.c ****                                      Nvm.MacGroup2.MacParams.SystemMaxRxError,
2418:Middlewares/Third_Party/LoRaWAN/Mac/LoRaMac.c ****                                      &MacCtx.RxWindow1Config );
2419:Middlewares/Third_Party/LoRaWAN/Mac/LoRaMac.c ****     // Compute Rx2 windows parameters
2420:Middlewares/Third_Party/LoRaWAN/Mac/LoRaMac.c ****     RegionComputeRxWindowParameters( Nvm.MacGroup2.Region,
2421:Middlewares/Third_Party/LoRaWAN/Mac/LoRaMac.c ****                                      Nvm.MacGroup2.MacParams.Rx2Channel.Datarate,
2422:Middlewares/Third_Party/LoRaWAN/Mac/LoRaMac.c ****                                      Nvm.MacGroup2.MacParams.MinRxSymbols,
2423:Middlewares/Third_Party/LoRaWAN/Mac/LoRaMac.c ****                                      Nvm.MacGroup2.MacParams.SystemMaxRxError,
2424:Middlewares/Third_Party/LoRaWAN/Mac/LoRaMac.c ****                                      &MacCtx.RxWindow2Config );
2425:Middlewares/Third_Party/LoRaWAN/Mac/LoRaMac.c **** 
2426:Middlewares/Third_Party/LoRaWAN/Mac/LoRaMac.c ****     // Default setup, in case the device joined
2427:Middlewares/Third_Party/LoRaWAN/Mac/LoRaMac.c ****     MacCtx.RxWindow1Delay = Nvm.MacGroup2.MacParams.ReceiveDelay1 + MacCtx.RxWindow1Config.WindowOf
2428:Middlewares/Third_Party/LoRaWAN/Mac/LoRaMac.c ****     MacCtx.RxWindow2Delay = Nvm.MacGroup2.MacParams.ReceiveDelay2 + MacCtx.RxWindow2Config.WindowOf
2429:Middlewares/Third_Party/LoRaWAN/Mac/LoRaMac.c **** 
2430:Middlewares/Third_Party/LoRaWAN/Mac/LoRaMac.c ****     if( Nvm.MacGroup2.NetworkActivation == ACTIVATION_TYPE_NONE )
2431:Middlewares/Third_Party/LoRaWAN/Mac/LoRaMac.c ****     {
2432:Middlewares/Third_Party/LoRaWAN/Mac/LoRaMac.c ****         MacCtx.RxWindow1Delay = Nvm.MacGroup2.MacParams.JoinAcceptDelay1 + MacCtx.RxWindow1Config.W
2433:Middlewares/Third_Party/LoRaWAN/Mac/LoRaMac.c ****         MacCtx.RxWindow2Delay = Nvm.MacGroup2.MacParams.JoinAcceptDelay2 + MacCtx.RxWindow2Config.W
2434:Middlewares/Third_Party/LoRaWAN/Mac/LoRaMac.c ****     }
2435:Middlewares/Third_Party/LoRaWAN/Mac/LoRaMac.c **** }
2436:Middlewares/Third_Party/LoRaWAN/Mac/LoRaMac.c **** 
2437:Middlewares/Third_Party/LoRaWAN/Mac/LoRaMac.c **** static LoRaMacStatus_t VerifyTxFrame( void )
2438:Middlewares/Third_Party/LoRaWAN/Mac/LoRaMac.c **** {
ARM GAS  /tmp/cc7YZJrH.s 			page 51


2439:Middlewares/Third_Party/LoRaWAN/Mac/LoRaMac.c ****     size_t macCmdsSize = 0;
2440:Middlewares/Third_Party/LoRaWAN/Mac/LoRaMac.c **** 
2441:Middlewares/Third_Party/LoRaWAN/Mac/LoRaMac.c ****     if( Nvm.MacGroup2.NetworkActivation != ACTIVATION_TYPE_NONE )
2442:Middlewares/Third_Party/LoRaWAN/Mac/LoRaMac.c ****     {
2443:Middlewares/Third_Party/LoRaWAN/Mac/LoRaMac.c ****         if( LoRaMacCommandsGetSizeSerializedCmds( &macCmdsSize ) != LORAMAC_COMMANDS_SUCCESS )
2444:Middlewares/Third_Party/LoRaWAN/Mac/LoRaMac.c ****         {
2445:Middlewares/Third_Party/LoRaWAN/Mac/LoRaMac.c ****             return LORAMAC_STATUS_MAC_COMMAD_ERROR;
2446:Middlewares/Third_Party/LoRaWAN/Mac/LoRaMac.c ****         }
2447:Middlewares/Third_Party/LoRaWAN/Mac/LoRaMac.c **** 
2448:Middlewares/Third_Party/LoRaWAN/Mac/LoRaMac.c ****         if( ValidatePayloadLength( MacCtx.AppDataSize, Nvm.MacGroup1.ChannelsDatarate, macCmdsSize 
2449:Middlewares/Third_Party/LoRaWAN/Mac/LoRaMac.c ****         {
2450:Middlewares/Third_Party/LoRaWAN/Mac/LoRaMac.c ****             return LORAMAC_STATUS_LENGTH_ERROR;
2451:Middlewares/Third_Party/LoRaWAN/Mac/LoRaMac.c ****         }
2452:Middlewares/Third_Party/LoRaWAN/Mac/LoRaMac.c ****     }
2453:Middlewares/Third_Party/LoRaWAN/Mac/LoRaMac.c ****     return LORAMAC_STATUS_OK;
2454:Middlewares/Third_Party/LoRaWAN/Mac/LoRaMac.c **** }
2455:Middlewares/Third_Party/LoRaWAN/Mac/LoRaMac.c **** 
2456:Middlewares/Third_Party/LoRaWAN/Mac/LoRaMac.c **** static LoRaMacStatus_t SerializeTxFrame( void )
2457:Middlewares/Third_Party/LoRaWAN/Mac/LoRaMac.c **** {
2458:Middlewares/Third_Party/LoRaWAN/Mac/LoRaMac.c ****     LoRaMacSerializerStatus_t serializeStatus;
2459:Middlewares/Third_Party/LoRaWAN/Mac/LoRaMac.c **** 
2460:Middlewares/Third_Party/LoRaWAN/Mac/LoRaMac.c ****     switch( MacCtx.TxMsg.Type )
2461:Middlewares/Third_Party/LoRaWAN/Mac/LoRaMac.c ****     {
2462:Middlewares/Third_Party/LoRaWAN/Mac/LoRaMac.c ****         case LORAMAC_MSG_TYPE_JOIN_REQUEST:
2463:Middlewares/Third_Party/LoRaWAN/Mac/LoRaMac.c ****             serializeStatus = LoRaMacSerializerJoinRequest( &MacCtx.TxMsg.Message.JoinReq );
2464:Middlewares/Third_Party/LoRaWAN/Mac/LoRaMac.c ****             if( LORAMAC_SERIALIZER_SUCCESS != serializeStatus )
2465:Middlewares/Third_Party/LoRaWAN/Mac/LoRaMac.c ****             {
2466:Middlewares/Third_Party/LoRaWAN/Mac/LoRaMac.c ****                 return LORAMAC_STATUS_CRYPTO_ERROR;
2467:Middlewares/Third_Party/LoRaWAN/Mac/LoRaMac.c ****             }
2468:Middlewares/Third_Party/LoRaWAN/Mac/LoRaMac.c ****             MacCtx.PktBufferLen = MacCtx.TxMsg.Message.JoinReq.BufSize;
2469:Middlewares/Third_Party/LoRaWAN/Mac/LoRaMac.c ****             break;
2470:Middlewares/Third_Party/LoRaWAN/Mac/LoRaMac.c ****         case LORAMAC_MSG_TYPE_DATA:
2471:Middlewares/Third_Party/LoRaWAN/Mac/LoRaMac.c ****             serializeStatus = LoRaMacSerializerData( &MacCtx.TxMsg.Message.Data );
2472:Middlewares/Third_Party/LoRaWAN/Mac/LoRaMac.c ****             if( LORAMAC_SERIALIZER_SUCCESS != serializeStatus )
2473:Middlewares/Third_Party/LoRaWAN/Mac/LoRaMac.c ****             {
2474:Middlewares/Third_Party/LoRaWAN/Mac/LoRaMac.c ****                 return LORAMAC_STATUS_CRYPTO_ERROR;
2475:Middlewares/Third_Party/LoRaWAN/Mac/LoRaMac.c ****             }
2476:Middlewares/Third_Party/LoRaWAN/Mac/LoRaMac.c ****             MacCtx.PktBufferLen = MacCtx.TxMsg.Message.Data.BufSize;
2477:Middlewares/Third_Party/LoRaWAN/Mac/LoRaMac.c ****             break;
2478:Middlewares/Third_Party/LoRaWAN/Mac/LoRaMac.c ****         case LORAMAC_MSG_TYPE_JOIN_ACCEPT:
2479:Middlewares/Third_Party/LoRaWAN/Mac/LoRaMac.c ****         case LORAMAC_MSG_TYPE_UNDEF:
2480:Middlewares/Third_Party/LoRaWAN/Mac/LoRaMac.c ****         default:
2481:Middlewares/Third_Party/LoRaWAN/Mac/LoRaMac.c ****             return LORAMAC_STATUS_PARAMETER_INVALID;
2482:Middlewares/Third_Party/LoRaWAN/Mac/LoRaMac.c ****     }
2483:Middlewares/Third_Party/LoRaWAN/Mac/LoRaMac.c ****     return LORAMAC_STATUS_OK;
2484:Middlewares/Third_Party/LoRaWAN/Mac/LoRaMac.c **** }
2485:Middlewares/Third_Party/LoRaWAN/Mac/LoRaMac.c **** 
2486:Middlewares/Third_Party/LoRaWAN/Mac/LoRaMac.c **** static LoRaMacStatus_t ScheduleTx( bool allowDelayedTx )
2487:Middlewares/Third_Party/LoRaWAN/Mac/LoRaMac.c **** {
2488:Middlewares/Third_Party/LoRaWAN/Mac/LoRaMac.c ****     LoRaMacStatus_t status = LORAMAC_STATUS_PARAMETER_INVALID;
2489:Middlewares/Third_Party/LoRaWAN/Mac/LoRaMac.c ****     NextChanParams_t nextChan;
2490:Middlewares/Third_Party/LoRaWAN/Mac/LoRaMac.c **** 
2491:Middlewares/Third_Party/LoRaWAN/Mac/LoRaMac.c ****     // Check class b collisions
2492:Middlewares/Third_Party/LoRaWAN/Mac/LoRaMac.c ****     status = CheckForClassBCollision( );
2493:Middlewares/Third_Party/LoRaWAN/Mac/LoRaMac.c ****     if( status != LORAMAC_STATUS_OK )
2494:Middlewares/Third_Party/LoRaWAN/Mac/LoRaMac.c ****     {
2495:Middlewares/Third_Party/LoRaWAN/Mac/LoRaMac.c ****         return status;
ARM GAS  /tmp/cc7YZJrH.s 			page 52


2496:Middlewares/Third_Party/LoRaWAN/Mac/LoRaMac.c ****     }
2497:Middlewares/Third_Party/LoRaWAN/Mac/LoRaMac.c **** 
2498:Middlewares/Third_Party/LoRaWAN/Mac/LoRaMac.c ****     // Update back-off
2499:Middlewares/Third_Party/LoRaWAN/Mac/LoRaMac.c ****     CalculateBackOff( );
2500:Middlewares/Third_Party/LoRaWAN/Mac/LoRaMac.c **** 
2501:Middlewares/Third_Party/LoRaWAN/Mac/LoRaMac.c ****     // Serialize frame
2502:Middlewares/Third_Party/LoRaWAN/Mac/LoRaMac.c ****     status = SerializeTxFrame( );
2503:Middlewares/Third_Party/LoRaWAN/Mac/LoRaMac.c ****     if( status != LORAMAC_STATUS_OK )
2504:Middlewares/Third_Party/LoRaWAN/Mac/LoRaMac.c ****     {
2505:Middlewares/Third_Party/LoRaWAN/Mac/LoRaMac.c ****         return status;
2506:Middlewares/Third_Party/LoRaWAN/Mac/LoRaMac.c ****     }
2507:Middlewares/Third_Party/LoRaWAN/Mac/LoRaMac.c **** 
2508:Middlewares/Third_Party/LoRaWAN/Mac/LoRaMac.c ****     nextChan.AggrTimeOff = Nvm.MacGroup1.AggregatedTimeOff;
2509:Middlewares/Third_Party/LoRaWAN/Mac/LoRaMac.c ****     nextChan.Datarate = Nvm.MacGroup1.ChannelsDatarate;
2510:Middlewares/Third_Party/LoRaWAN/Mac/LoRaMac.c ****     nextChan.DutyCycleEnabled = Nvm.MacGroup2.DutyCycleOn;
2511:Middlewares/Third_Party/LoRaWAN/Mac/LoRaMac.c ****     nextChan.ElapsedTimeSinceStartUp = SysTimeSub( SysTimeGetMcuTime( ), Nvm.MacGroup2.Initializati
2512:Middlewares/Third_Party/LoRaWAN/Mac/LoRaMac.c ****     nextChan.LastAggrTx = Nvm.MacGroup1.LastTxDoneTime;
2513:Middlewares/Third_Party/LoRaWAN/Mac/LoRaMac.c ****     nextChan.LastTxIsJoinRequest = false;
2514:Middlewares/Third_Party/LoRaWAN/Mac/LoRaMac.c ****     nextChan.Joined = true;
2515:Middlewares/Third_Party/LoRaWAN/Mac/LoRaMac.c ****     nextChan.PktLen = MacCtx.PktBufferLen;
2516:Middlewares/Third_Party/LoRaWAN/Mac/LoRaMac.c **** 
2517:Middlewares/Third_Party/LoRaWAN/Mac/LoRaMac.c ****     // Setup the parameters based on the join status
2518:Middlewares/Third_Party/LoRaWAN/Mac/LoRaMac.c ****     if( Nvm.MacGroup2.NetworkActivation == ACTIVATION_TYPE_NONE )
2519:Middlewares/Third_Party/LoRaWAN/Mac/LoRaMac.c ****     {
2520:Middlewares/Third_Party/LoRaWAN/Mac/LoRaMac.c ****         nextChan.LastTxIsJoinRequest = true;
2521:Middlewares/Third_Party/LoRaWAN/Mac/LoRaMac.c ****         nextChan.Joined = false;
2522:Middlewares/Third_Party/LoRaWAN/Mac/LoRaMac.c ****     }
2523:Middlewares/Third_Party/LoRaWAN/Mac/LoRaMac.c **** 
2524:Middlewares/Third_Party/LoRaWAN/Mac/LoRaMac.c ****     // Select channel
2525:Middlewares/Third_Party/LoRaWAN/Mac/LoRaMac.c ****     status = RegionNextChannel( Nvm.MacGroup2.Region, &nextChan, &MacCtx.Channel, &MacCtx.DutyCycle
2526:Middlewares/Third_Party/LoRaWAN/Mac/LoRaMac.c **** 
2527:Middlewares/Third_Party/LoRaWAN/Mac/LoRaMac.c ****     if( status != LORAMAC_STATUS_OK )
2528:Middlewares/Third_Party/LoRaWAN/Mac/LoRaMac.c ****     {
2529:Middlewares/Third_Party/LoRaWAN/Mac/LoRaMac.c ****         if( ( status == LORAMAC_STATUS_DUTYCYCLE_RESTRICTED ) &&
2530:Middlewares/Third_Party/LoRaWAN/Mac/LoRaMac.c ****             ( allowDelayedTx == true ) )
2531:Middlewares/Third_Party/LoRaWAN/Mac/LoRaMac.c ****         {
2532:Middlewares/Third_Party/LoRaWAN/Mac/LoRaMac.c ****             // Allow delayed transmissions. We have to allow it in case
2533:Middlewares/Third_Party/LoRaWAN/Mac/LoRaMac.c ****             // the MAC must retransmit a frame with the frame repetitions
2534:Middlewares/Third_Party/LoRaWAN/Mac/LoRaMac.c ****             if( MacCtx.DutyCycleWaitTime != 0 )
2535:Middlewares/Third_Party/LoRaWAN/Mac/LoRaMac.c ****             {// Send later - prepare timer
2536:Middlewares/Third_Party/LoRaWAN/Mac/LoRaMac.c ****                 MacCtx.MacState |= LORAMAC_TX_DELAYED;
2537:Middlewares/Third_Party/LoRaWAN/Mac/LoRaMac.c ****                 TimerSetValue( &MacCtx.TxDelayedTimer, MacCtx.DutyCycleWaitTime );
2538:Middlewares/Third_Party/LoRaWAN/Mac/LoRaMac.c ****                 TimerStart( &MacCtx.TxDelayedTimer );
2539:Middlewares/Third_Party/LoRaWAN/Mac/LoRaMac.c ****             }
2540:Middlewares/Third_Party/LoRaWAN/Mac/LoRaMac.c ****             return LORAMAC_STATUS_OK;
2541:Middlewares/Third_Party/LoRaWAN/Mac/LoRaMac.c ****         }
2542:Middlewares/Third_Party/LoRaWAN/Mac/LoRaMac.c ****         else
2543:Middlewares/Third_Party/LoRaWAN/Mac/LoRaMac.c ****         {// State where the MAC cannot send a frame
2544:Middlewares/Third_Party/LoRaWAN/Mac/LoRaMac.c ****             return status;
2545:Middlewares/Third_Party/LoRaWAN/Mac/LoRaMac.c ****         }
2546:Middlewares/Third_Party/LoRaWAN/Mac/LoRaMac.c ****     }
2547:Middlewares/Third_Party/LoRaWAN/Mac/LoRaMac.c **** 
2548:Middlewares/Third_Party/LoRaWAN/Mac/LoRaMac.c ****     // Compute window parameters, offsets, rx symbols, system errors etc.
2549:Middlewares/Third_Party/LoRaWAN/Mac/LoRaMac.c ****     ComputeRxWindowParameters( );
2550:Middlewares/Third_Party/LoRaWAN/Mac/LoRaMac.c **** 
2551:Middlewares/Third_Party/LoRaWAN/Mac/LoRaMac.c ****     // Verify TX frame
2552:Middlewares/Third_Party/LoRaWAN/Mac/LoRaMac.c ****     status = VerifyTxFrame( );
ARM GAS  /tmp/cc7YZJrH.s 			page 53


2553:Middlewares/Third_Party/LoRaWAN/Mac/LoRaMac.c ****     if( status != LORAMAC_STATUS_OK )
2554:Middlewares/Third_Party/LoRaWAN/Mac/LoRaMac.c ****     {
2555:Middlewares/Third_Party/LoRaWAN/Mac/LoRaMac.c ****         return status;
2556:Middlewares/Third_Party/LoRaWAN/Mac/LoRaMac.c ****     }
2557:Middlewares/Third_Party/LoRaWAN/Mac/LoRaMac.c **** 
2558:Middlewares/Third_Party/LoRaWAN/Mac/LoRaMac.c ****     // Try to send now
2559:Middlewares/Third_Party/LoRaWAN/Mac/LoRaMac.c ****     return SendFrameOnChannel( MacCtx.Channel );
2560:Middlewares/Third_Party/LoRaWAN/Mac/LoRaMac.c **** }
2561:Middlewares/Third_Party/LoRaWAN/Mac/LoRaMac.c **** 
2562:Middlewares/Third_Party/LoRaWAN/Mac/LoRaMac.c **** static LoRaMacStatus_t SecureFrame( uint8_t txDr, uint8_t txCh )
2563:Middlewares/Third_Party/LoRaWAN/Mac/LoRaMac.c **** {
2564:Middlewares/Third_Party/LoRaWAN/Mac/LoRaMac.c ****     LoRaMacCryptoStatus_t macCryptoStatus = LORAMAC_CRYPTO_ERROR;
2565:Middlewares/Third_Party/LoRaWAN/Mac/LoRaMac.c ****     uint32_t fCntUp = 0;
2566:Middlewares/Third_Party/LoRaWAN/Mac/LoRaMac.c **** 
2567:Middlewares/Third_Party/LoRaWAN/Mac/LoRaMac.c ****     switch( MacCtx.TxMsg.Type )
2568:Middlewares/Third_Party/LoRaWAN/Mac/LoRaMac.c ****     {
2569:Middlewares/Third_Party/LoRaWAN/Mac/LoRaMac.c ****         case LORAMAC_MSG_TYPE_JOIN_REQUEST:
2570:Middlewares/Third_Party/LoRaWAN/Mac/LoRaMac.c ****             macCryptoStatus = LoRaMacCryptoPrepareJoinRequest( &MacCtx.TxMsg.Message.JoinReq );
2571:Middlewares/Third_Party/LoRaWAN/Mac/LoRaMac.c ****             if( LORAMAC_CRYPTO_SUCCESS != macCryptoStatus )
2572:Middlewares/Third_Party/LoRaWAN/Mac/LoRaMac.c ****             {
2573:Middlewares/Third_Party/LoRaWAN/Mac/LoRaMac.c ****                 return LORAMAC_STATUS_CRYPTO_ERROR;
2574:Middlewares/Third_Party/LoRaWAN/Mac/LoRaMac.c ****             }
2575:Middlewares/Third_Party/LoRaWAN/Mac/LoRaMac.c ****             MacCtx.PktBufferLen = MacCtx.TxMsg.Message.JoinReq.BufSize;
2576:Middlewares/Third_Party/LoRaWAN/Mac/LoRaMac.c ****             break;
2577:Middlewares/Third_Party/LoRaWAN/Mac/LoRaMac.c ****         case LORAMAC_MSG_TYPE_DATA:
