ARM GAS  /tmp/ccldRdip.s 			page 1


   1              		.cpu cortex-m4
   2              		.eabi_attribute 20, 1
   3              		.eabi_attribute 21, 1
   4              		.eabi_attribute 23, 3
   5              		.eabi_attribute 24, 1
   6              		.eabi_attribute 25, 1
   7              		.eabi_attribute 26, 1
   8              		.eabi_attribute 30, 1
   9              		.eabi_attribute 34, 1
  10              		.eabi_attribute 18, 4
  11              		.file	"radio.c"
  12              		.text
  13              	.Ltext0:
  14              		.cfi_sections	.debug_frame
  15              		.section	.text.RadioCheckRfFrequency,"ax",%progbits
  16              		.align	1
  17              		.arch armv7e-m
  18              		.syntax unified
  19              		.thumb
  20              		.thumb_func
  21              		.fpu softvfp
  23              	RadioCheckRfFrequency:
  24              	.LVL0:
  25              	.LFB992:
  26              		.file 1 "Middlewares/Third_Party/SubGHz_Phy/stm32_radio_driver/radio.c"
   1:Middlewares/Third_Party/SubGHz_Phy/stm32_radio_driver/radio.c **** /*!
   2:Middlewares/Third_Party/SubGHz_Phy/stm32_radio_driver/radio.c ****  * \file      radio.c
   3:Middlewares/Third_Party/SubGHz_Phy/stm32_radio_driver/radio.c ****  *
   4:Middlewares/Third_Party/SubGHz_Phy/stm32_radio_driver/radio.c ****  * \brief     Radio driver API definition
   5:Middlewares/Third_Party/SubGHz_Phy/stm32_radio_driver/radio.c ****  *
   6:Middlewares/Third_Party/SubGHz_Phy/stm32_radio_driver/radio.c ****  * \copyright Revised BSD License, see section \ref LICENSE.
   7:Middlewares/Third_Party/SubGHz_Phy/stm32_radio_driver/radio.c ****  *
   8:Middlewares/Third_Party/SubGHz_Phy/stm32_radio_driver/radio.c ****  * \code
   9:Middlewares/Third_Party/SubGHz_Phy/stm32_radio_driver/radio.c ****  *                ______                              _
  10:Middlewares/Third_Party/SubGHz_Phy/stm32_radio_driver/radio.c ****  *               / _____)             _              | |
  11:Middlewares/Third_Party/SubGHz_Phy/stm32_radio_driver/radio.c ****  *              ( (____  _____ ____ _| |_ _____  ____| |__
  12:Middlewares/Third_Party/SubGHz_Phy/stm32_radio_driver/radio.c ****  *               \____ \| ___ |    (_   _) ___ |/ ___)  _ \
  13:Middlewares/Third_Party/SubGHz_Phy/stm32_radio_driver/radio.c ****  *               _____) ) ____| | | || |_| ____( (___| | | |
  14:Middlewares/Third_Party/SubGHz_Phy/stm32_radio_driver/radio.c ****  *              (______/|_____)_|_|_| \__)_____)\____)_| |_|
  15:Middlewares/Third_Party/SubGHz_Phy/stm32_radio_driver/radio.c ****  *              (C)2013-2017 Semtech
  16:Middlewares/Third_Party/SubGHz_Phy/stm32_radio_driver/radio.c ****  *
  17:Middlewares/Third_Party/SubGHz_Phy/stm32_radio_driver/radio.c ****  * \endcode
  18:Middlewares/Third_Party/SubGHz_Phy/stm32_radio_driver/radio.c ****  *
  19:Middlewares/Third_Party/SubGHz_Phy/stm32_radio_driver/radio.c ****  * \author    Miguel Luis ( Semtech )
  20:Middlewares/Third_Party/SubGHz_Phy/stm32_radio_driver/radio.c ****  *
  21:Middlewares/Third_Party/SubGHz_Phy/stm32_radio_driver/radio.c ****  * \author    Gregory Cristian ( Semtech )
  22:Middlewares/Third_Party/SubGHz_Phy/stm32_radio_driver/radio.c ****  */
  23:Middlewares/Third_Party/SubGHz_Phy/stm32_radio_driver/radio.c **** /**
  24:Middlewares/Third_Party/SubGHz_Phy/stm32_radio_driver/radio.c ****   ******************************************************************************
  25:Middlewares/Third_Party/SubGHz_Phy/stm32_radio_driver/radio.c ****   *
  26:Middlewares/Third_Party/SubGHz_Phy/stm32_radio_driver/radio.c ****   *          Portions COPYRIGHT 2020 STMicroelectronics
  27:Middlewares/Third_Party/SubGHz_Phy/stm32_radio_driver/radio.c ****   *
  28:Middlewares/Third_Party/SubGHz_Phy/stm32_radio_driver/radio.c ****   * @file    radio.c
  29:Middlewares/Third_Party/SubGHz_Phy/stm32_radio_driver/radio.c ****   * @author  MCD Application Team
  30:Middlewares/Third_Party/SubGHz_Phy/stm32_radio_driver/radio.c ****   * @brief   Radio driver API definition
  31:Middlewares/Third_Party/SubGHz_Phy/stm32_radio_driver/radio.c ****   ******************************************************************************
  32:Middlewares/Third_Party/SubGHz_Phy/stm32_radio_driver/radio.c ****   */
ARM GAS  /tmp/ccldRdip.s 			page 2


  33:Middlewares/Third_Party/SubGHz_Phy/stm32_radio_driver/radio.c **** /* Includes ------------------------------------------------------------------*/
  34:Middlewares/Third_Party/SubGHz_Phy/stm32_radio_driver/radio.c **** #include <math.h>
  35:Middlewares/Third_Party/SubGHz_Phy/stm32_radio_driver/radio.c **** #include "timer.h"
  36:Middlewares/Third_Party/SubGHz_Phy/stm32_radio_driver/radio.c **** #include "radio.h"
  37:Middlewares/Third_Party/SubGHz_Phy/stm32_radio_driver/radio.c **** #include "radio_fw.h"
  38:Middlewares/Third_Party/SubGHz_Phy/stm32_radio_driver/radio.c **** #include "radio_driver.h"
  39:Middlewares/Third_Party/SubGHz_Phy/stm32_radio_driver/radio.c **** #include "radio_conf.h"
  40:Middlewares/Third_Party/SubGHz_Phy/stm32_radio_driver/radio.c **** #include "mw_log_conf.h"
  41:Middlewares/Third_Party/SubGHz_Phy/stm32_radio_driver/radio.c **** 
  42:Middlewares/Third_Party/SubGHz_Phy/stm32_radio_driver/radio.c **** /* Private typedef -----------------------------------------------------------*/
  43:Middlewares/Third_Party/SubGHz_Phy/stm32_radio_driver/radio.c **** /* ST_WORKAROUND_BEGIN: Replace global variables by typedef struct */
  44:Middlewares/Third_Party/SubGHz_Phy/stm32_radio_driver/radio.c **** /*!
  45:Middlewares/Third_Party/SubGHz_Phy/stm32_radio_driver/radio.c ****  * Radio hardware and global parameters
  46:Middlewares/Third_Party/SubGHz_Phy/stm32_radio_driver/radio.c ****  */
  47:Middlewares/Third_Party/SubGHz_Phy/stm32_radio_driver/radio.c **** typedef struct SubgRf_s
  48:Middlewares/Third_Party/SubGHz_Phy/stm32_radio_driver/radio.c **** {
  49:Middlewares/Third_Party/SubGHz_Phy/stm32_radio_driver/radio.c ****     RadioModems_t Modem;
  50:Middlewares/Third_Party/SubGHz_Phy/stm32_radio_driver/radio.c ****     bool RxContinuous;
  51:Middlewares/Third_Party/SubGHz_Phy/stm32_radio_driver/radio.c ****     uint32_t TxTimeout;
  52:Middlewares/Third_Party/SubGHz_Phy/stm32_radio_driver/radio.c ****     uint32_t RxTimeout;
  53:Middlewares/Third_Party/SubGHz_Phy/stm32_radio_driver/radio.c ****     struct
  54:Middlewares/Third_Party/SubGHz_Phy/stm32_radio_driver/radio.c ****     {
  55:Middlewares/Third_Party/SubGHz_Phy/stm32_radio_driver/radio.c ****         bool Previous;
  56:Middlewares/Third_Party/SubGHz_Phy/stm32_radio_driver/radio.c ****         bool Current;
  57:Middlewares/Third_Party/SubGHz_Phy/stm32_radio_driver/radio.c ****     } PublicNetwork;
  58:Middlewares/Third_Party/SubGHz_Phy/stm32_radio_driver/radio.c ****     PacketParams_t PacketParams;
  59:Middlewares/Third_Party/SubGHz_Phy/stm32_radio_driver/radio.c ****     PacketStatus_t PacketStatus;
  60:Middlewares/Third_Party/SubGHz_Phy/stm32_radio_driver/radio.c ****     ModulationParams_t ModulationParams;
  61:Middlewares/Third_Party/SubGHz_Phy/stm32_radio_driver/radio.c ****     RadioIrqMasks_t RadioIrq;
  62:Middlewares/Third_Party/SubGHz_Phy/stm32_radio_driver/radio.c ****     uint8_t AntSwitchPaSelect;
  63:Middlewares/Third_Party/SubGHz_Phy/stm32_radio_driver/radio.c **** } SubgRf_t;
  64:Middlewares/Third_Party/SubGHz_Phy/stm32_radio_driver/radio.c **** /* ST_WORKAROUND_END */
  65:Middlewares/Third_Party/SubGHz_Phy/stm32_radio_driver/radio.c **** 
  66:Middlewares/Third_Party/SubGHz_Phy/stm32_radio_driver/radio.c **** /* Private macro -------------------------------------------------------------*/
  67:Middlewares/Third_Party/SubGHz_Phy/stm32_radio_driver/radio.c **** /* ST_WORKAROUND_BEGIN: Add utilities macro to prevent missing header file */
  68:Middlewares/Third_Party/SubGHz_Phy/stm32_radio_driver/radio.c **** #define RADIO_BIT_MASK(__n)  (~(1<<__n))
  69:Middlewares/Third_Party/SubGHz_Phy/stm32_radio_driver/radio.c **** 
  70:Middlewares/Third_Party/SubGHz_Phy/stm32_radio_driver/radio.c **** /**
  71:Middlewares/Third_Party/SubGHz_Phy/stm32_radio_driver/radio.c ****   * \brief Calculates ceiling division of ( X / N )
  72:Middlewares/Third_Party/SubGHz_Phy/stm32_radio_driver/radio.c ****   *
  73:Middlewares/Third_Party/SubGHz_Phy/stm32_radio_driver/radio.c ****   * \param [IN] X numerator
  74:Middlewares/Third_Party/SubGHz_Phy/stm32_radio_driver/radio.c ****   * \param [IN] N denominator
  75:Middlewares/Third_Party/SubGHz_Phy/stm32_radio_driver/radio.c ****   *
  76:Middlewares/Third_Party/SubGHz_Phy/stm32_radio_driver/radio.c ****   */
  77:Middlewares/Third_Party/SubGHz_Phy/stm32_radio_driver/radio.c **** #ifndef DIVC
  78:Middlewares/Third_Party/SubGHz_Phy/stm32_radio_driver/radio.c **** #define DIVC( X, N )                ( ( ( X ) + ( N ) - 1 ) / ( N ) )
  79:Middlewares/Third_Party/SubGHz_Phy/stm32_radio_driver/radio.c **** #endif
  80:Middlewares/Third_Party/SubGHz_Phy/stm32_radio_driver/radio.c **** 
  81:Middlewares/Third_Party/SubGHz_Phy/stm32_radio_driver/radio.c **** /**
  82:Middlewares/Third_Party/SubGHz_Phy/stm32_radio_driver/radio.c ****   * \brief Calculates rounding division of ( X / N )
  83:Middlewares/Third_Party/SubGHz_Phy/stm32_radio_driver/radio.c ****   *
  84:Middlewares/Third_Party/SubGHz_Phy/stm32_radio_driver/radio.c ****   * \param [IN] X numerator
  85:Middlewares/Third_Party/SubGHz_Phy/stm32_radio_driver/radio.c ****   * \param [IN] N denominator
  86:Middlewares/Third_Party/SubGHz_Phy/stm32_radio_driver/radio.c ****   *
  87:Middlewares/Third_Party/SubGHz_Phy/stm32_radio_driver/radio.c ****   */
  88:Middlewares/Third_Party/SubGHz_Phy/stm32_radio_driver/radio.c **** #ifndef DIVR
  89:Middlewares/Third_Party/SubGHz_Phy/stm32_radio_driver/radio.c **** #define DIVR( X, N )                ( ( ( X ) + ( ((X)>0?(N):(N))>>1 ) ) / ( N ) )
ARM GAS  /tmp/ccldRdip.s 			page 3


  90:Middlewares/Third_Party/SubGHz_Phy/stm32_radio_driver/radio.c **** #endif
  91:Middlewares/Third_Party/SubGHz_Phy/stm32_radio_driver/radio.c **** /* ST_WORKAROUND_END */
  92:Middlewares/Third_Party/SubGHz_Phy/stm32_radio_driver/radio.c **** 
  93:Middlewares/Third_Party/SubGHz_Phy/stm32_radio_driver/radio.c **** /* Private define ------------------------------------------------------------*/
  94:Middlewares/Third_Party/SubGHz_Phy/stm32_radio_driver/radio.c **** /* ST_WORKAROUND_BEGIN: Add radio defines to prevent missing header file */
  95:Middlewares/Third_Party/SubGHz_Phy/stm32_radio_driver/radio.c **** /*can be overridden in radio_conf.h*/
  96:Middlewares/Third_Party/SubGHz_Phy/stm32_radio_driver/radio.c **** #ifndef XTAL_FREQ
  97:Middlewares/Third_Party/SubGHz_Phy/stm32_radio_driver/radio.c **** #define XTAL_FREQ                                   32000000UL
  98:Middlewares/Third_Party/SubGHz_Phy/stm32_radio_driver/radio.c **** #endif
  99:Middlewares/Third_Party/SubGHz_Phy/stm32_radio_driver/radio.c **** /*can be overridden in radio_conf.h*/
 100:Middlewares/Third_Party/SubGHz_Phy/stm32_radio_driver/radio.c **** #ifndef RADIO_IRQ_PROCESS_INIT
 101:Middlewares/Third_Party/SubGHz_Phy/stm32_radio_driver/radio.c **** #define RADIO_IRQ_PROCESS_INIT()
 102:Middlewares/Third_Party/SubGHz_Phy/stm32_radio_driver/radio.c **** #endif
 103:Middlewares/Third_Party/SubGHz_Phy/stm32_radio_driver/radio.c **** /*can be overridden in radio_conf.h*/
 104:Middlewares/Third_Party/SubGHz_Phy/stm32_radio_driver/radio.c **** #ifndef RADIO_IRQ_PROCESS
 105:Middlewares/Third_Party/SubGHz_Phy/stm32_radio_driver/radio.c **** #define RADIO_IRQ_PROCESS()        RadioIrqProcess()
 106:Middlewares/Third_Party/SubGHz_Phy/stm32_radio_driver/radio.c **** #endif
 107:Middlewares/Third_Party/SubGHz_Phy/stm32_radio_driver/radio.c **** /*can be overridden in radio_conf.h*/
 108:Middlewares/Third_Party/SubGHz_Phy/stm32_radio_driver/radio.c **** #ifndef RADIO_RX_TIMEOUT_PROCESS
 109:Middlewares/Third_Party/SubGHz_Phy/stm32_radio_driver/radio.c **** #define RADIO_RX_TIMEOUT_PROCESS() RadioOnRxTimeoutProcess()
 110:Middlewares/Third_Party/SubGHz_Phy/stm32_radio_driver/radio.c **** #endif
 111:Middlewares/Third_Party/SubGHz_Phy/stm32_radio_driver/radio.c **** /*can be overridden in radio_conf.h*/
 112:Middlewares/Third_Party/SubGHz_Phy/stm32_radio_driver/radio.c **** #ifndef RADIO_TX_TIMEOUT_PROCESS
 113:Middlewares/Third_Party/SubGHz_Phy/stm32_radio_driver/radio.c **** #define RADIO_TX_TIMEOUT_PROCESS() RadioOnTxTimeoutProcess()
 114:Middlewares/Third_Party/SubGHz_Phy/stm32_radio_driver/radio.c **** #endif
 115:Middlewares/Third_Party/SubGHz_Phy/stm32_radio_driver/radio.c **** 
 116:Middlewares/Third_Party/SubGHz_Phy/stm32_radio_driver/radio.c **** #ifndef IRQ_TX_DBG
 117:Middlewares/Third_Party/SubGHz_Phy/stm32_radio_driver/radio.c **** #define IRQ_TX_DBG ((uint16_t) 0)
 118:Middlewares/Third_Party/SubGHz_Phy/stm32_radio_driver/radio.c **** #endif
 119:Middlewares/Third_Party/SubGHz_Phy/stm32_radio_driver/radio.c **** 
 120:Middlewares/Third_Party/SubGHz_Phy/stm32_radio_driver/radio.c **** #ifndef IRQ_RX_DBG
 121:Middlewares/Third_Party/SubGHz_Phy/stm32_radio_driver/radio.c **** #define IRQ_RX_DBG ((uint16_t) 0)
 122:Middlewares/Third_Party/SubGHz_Phy/stm32_radio_driver/radio.c **** #endif
 123:Middlewares/Third_Party/SubGHz_Phy/stm32_radio_driver/radio.c **** 
 124:Middlewares/Third_Party/SubGHz_Phy/stm32_radio_driver/radio.c **** #define RADIO_BUF_SIZE 255
 125:Middlewares/Third_Party/SubGHz_Phy/stm32_radio_driver/radio.c **** /* ST_WORKAROUND_END */
 126:Middlewares/Third_Party/SubGHz_Phy/stm32_radio_driver/radio.c **** 
 127:Middlewares/Third_Party/SubGHz_Phy/stm32_radio_driver/radio.c **** /* Private function prototypes -----------------------------------------------*/
 128:Middlewares/Third_Party/SubGHz_Phy/stm32_radio_driver/radio.c **** /*!
 129:Middlewares/Third_Party/SubGHz_Phy/stm32_radio_driver/radio.c ****  * \brief Initializes the radio
 130:Middlewares/Third_Party/SubGHz_Phy/stm32_radio_driver/radio.c ****  *
 131:Middlewares/Third_Party/SubGHz_Phy/stm32_radio_driver/radio.c ****  * \param [IN] events Structure containing the driver callback functions
 132:Middlewares/Third_Party/SubGHz_Phy/stm32_radio_driver/radio.c ****  */
 133:Middlewares/Third_Party/SubGHz_Phy/stm32_radio_driver/radio.c **** static void RadioInit( RadioEvents_t *events );
 134:Middlewares/Third_Party/SubGHz_Phy/stm32_radio_driver/radio.c **** 
 135:Middlewares/Third_Party/SubGHz_Phy/stm32_radio_driver/radio.c **** /*!
 136:Middlewares/Third_Party/SubGHz_Phy/stm32_radio_driver/radio.c ****  * Return current radio status
 137:Middlewares/Third_Party/SubGHz_Phy/stm32_radio_driver/radio.c ****  *
 138:Middlewares/Third_Party/SubGHz_Phy/stm32_radio_driver/radio.c ****  * \param status Radio status.[RF_IDLE, RF_RX_RUNNING, RF_TX_RUNNING]
 139:Middlewares/Third_Party/SubGHz_Phy/stm32_radio_driver/radio.c ****  */
 140:Middlewares/Third_Party/SubGHz_Phy/stm32_radio_driver/radio.c **** static RadioState_t RadioGetStatus( void );
 141:Middlewares/Third_Party/SubGHz_Phy/stm32_radio_driver/radio.c **** 
 142:Middlewares/Third_Party/SubGHz_Phy/stm32_radio_driver/radio.c **** /*!
 143:Middlewares/Third_Party/SubGHz_Phy/stm32_radio_driver/radio.c ****  * \brief Configures the radio with the given modem
 144:Middlewares/Third_Party/SubGHz_Phy/stm32_radio_driver/radio.c ****  *
 145:Middlewares/Third_Party/SubGHz_Phy/stm32_radio_driver/radio.c ****  * \param [IN] modem Modem to be used [0: FSK, 1: LoRa]
 146:Middlewares/Third_Party/SubGHz_Phy/stm32_radio_driver/radio.c ****  */
ARM GAS  /tmp/ccldRdip.s 			page 4


 147:Middlewares/Third_Party/SubGHz_Phy/stm32_radio_driver/radio.c **** static void RadioSetModem( RadioModems_t modem );
 148:Middlewares/Third_Party/SubGHz_Phy/stm32_radio_driver/radio.c **** 
 149:Middlewares/Third_Party/SubGHz_Phy/stm32_radio_driver/radio.c **** /*!
 150:Middlewares/Third_Party/SubGHz_Phy/stm32_radio_driver/radio.c ****  * \brief Sets the channel frequency
 151:Middlewares/Third_Party/SubGHz_Phy/stm32_radio_driver/radio.c ****  *
 152:Middlewares/Third_Party/SubGHz_Phy/stm32_radio_driver/radio.c ****  * \param [IN] freq         Channel RF frequency
 153:Middlewares/Third_Party/SubGHz_Phy/stm32_radio_driver/radio.c ****  */
 154:Middlewares/Third_Party/SubGHz_Phy/stm32_radio_driver/radio.c **** static void RadioSetChannel( uint32_t freq );
 155:Middlewares/Third_Party/SubGHz_Phy/stm32_radio_driver/radio.c **** 
 156:Middlewares/Third_Party/SubGHz_Phy/stm32_radio_driver/radio.c **** /*!
 157:Middlewares/Third_Party/SubGHz_Phy/stm32_radio_driver/radio.c ****  * \brief Checks if the channel is free for the given time
 158:Middlewares/Third_Party/SubGHz_Phy/stm32_radio_driver/radio.c ****  *
 159:Middlewares/Third_Party/SubGHz_Phy/stm32_radio_driver/radio.c ****  * \remark The FSK modem is always used for this task as we can select the Rx bandwidth at will.
 160:Middlewares/Third_Party/SubGHz_Phy/stm32_radio_driver/radio.c ****  *
 161:Middlewares/Third_Party/SubGHz_Phy/stm32_radio_driver/radio.c ****  * \param [IN] freq                Channel RF frequency in Hertz
 162:Middlewares/Third_Party/SubGHz_Phy/stm32_radio_driver/radio.c ****  * \param [IN] rxBandwidth         Rx bandwidth in Hertz
 163:Middlewares/Third_Party/SubGHz_Phy/stm32_radio_driver/radio.c ****  * \param [IN] rssiThresh          RSSI threshold in dBm
 164:Middlewares/Third_Party/SubGHz_Phy/stm32_radio_driver/radio.c ****  * \param [IN] maxCarrierSenseTime Max time in milliseconds while the RSSI is measured
 165:Middlewares/Third_Party/SubGHz_Phy/stm32_radio_driver/radio.c ****  *
 166:Middlewares/Third_Party/SubGHz_Phy/stm32_radio_driver/radio.c ****  * \retval isFree         [true: Channel is free, false: Channel is not free]
 167:Middlewares/Third_Party/SubGHz_Phy/stm32_radio_driver/radio.c ****  */
 168:Middlewares/Third_Party/SubGHz_Phy/stm32_radio_driver/radio.c **** static bool RadioIsChannelFree( uint32_t freq, uint32_t rxBandwidth, int16_t rssiThresh, uint32_t m
 169:Middlewares/Third_Party/SubGHz_Phy/stm32_radio_driver/radio.c **** 
 170:Middlewares/Third_Party/SubGHz_Phy/stm32_radio_driver/radio.c **** /*!
 171:Middlewares/Third_Party/SubGHz_Phy/stm32_radio_driver/radio.c ****  * \brief Generates a 32 bits random value based on the RSSI readings
 172:Middlewares/Third_Party/SubGHz_Phy/stm32_radio_driver/radio.c ****  *
 173:Middlewares/Third_Party/SubGHz_Phy/stm32_radio_driver/radio.c ****  * \remark This function sets the radio in LoRa modem mode and disables
 174:Middlewares/Third_Party/SubGHz_Phy/stm32_radio_driver/radio.c ****  *         all interrupts.
 175:Middlewares/Third_Party/SubGHz_Phy/stm32_radio_driver/radio.c ****  *         After calling this function either Radio.SetRxConfig or
 176:Middlewares/Third_Party/SubGHz_Phy/stm32_radio_driver/radio.c ****  *         Radio.SetTxConfig functions must be called.
 177:Middlewares/Third_Party/SubGHz_Phy/stm32_radio_driver/radio.c ****  *
 178:Middlewares/Third_Party/SubGHz_Phy/stm32_radio_driver/radio.c ****  * \retval randomValue    32 bits random value
 179:Middlewares/Third_Party/SubGHz_Phy/stm32_radio_driver/radio.c ****  */
 180:Middlewares/Third_Party/SubGHz_Phy/stm32_radio_driver/radio.c **** static uint32_t RadioRandom( void );
 181:Middlewares/Third_Party/SubGHz_Phy/stm32_radio_driver/radio.c **** 
 182:Middlewares/Third_Party/SubGHz_Phy/stm32_radio_driver/radio.c **** /*!
 183:Middlewares/Third_Party/SubGHz_Phy/stm32_radio_driver/radio.c ****  * \brief Sets the reception parameters
 184:Middlewares/Third_Party/SubGHz_Phy/stm32_radio_driver/radio.c ****  *
 185:Middlewares/Third_Party/SubGHz_Phy/stm32_radio_driver/radio.c ****  * \param [IN] modem        Radio modem to be used [0: FSK, 1: LoRa]
 186:Middlewares/Third_Party/SubGHz_Phy/stm32_radio_driver/radio.c ****  * \param [IN] bandwidth    Sets the bandwidth
 187:Middlewares/Third_Party/SubGHz_Phy/stm32_radio_driver/radio.c ****  *                          FSK : >= 2600 and <= 250000 Hz
 188:Middlewares/Third_Party/SubGHz_Phy/stm32_radio_driver/radio.c ****  *                          LoRa: [0: 125 kHz, 1: 250 kHz,
 189:Middlewares/Third_Party/SubGHz_Phy/stm32_radio_driver/radio.c ****  *                                 2: 500 kHz, 3: Reserved]
 190:Middlewares/Third_Party/SubGHz_Phy/stm32_radio_driver/radio.c ****  * \param [IN] datarate     Sets the Datarate
 191:Middlewares/Third_Party/SubGHz_Phy/stm32_radio_driver/radio.c ****  *                          FSK : 600..300000 bits/s
 192:Middlewares/Third_Party/SubGHz_Phy/stm32_radio_driver/radio.c ****  *                          LoRa: [6: 64, 7: 128, 8: 256, 9: 512,
 193:Middlewares/Third_Party/SubGHz_Phy/stm32_radio_driver/radio.c ****  *                                10: 1024, 11: 2048, 12: 4096  chips]
 194:Middlewares/Third_Party/SubGHz_Phy/stm32_radio_driver/radio.c ****  * \param [IN] coderate     Sets the coding rate (LoRa only)
 195:Middlewares/Third_Party/SubGHz_Phy/stm32_radio_driver/radio.c ****  *                          FSK : N/A ( set to 0 )
 196:Middlewares/Third_Party/SubGHz_Phy/stm32_radio_driver/radio.c ****  *                          LoRa: [1: 4/5, 2: 4/6, 3: 4/7, 4: 4/8]
 197:Middlewares/Third_Party/SubGHz_Phy/stm32_radio_driver/radio.c ****  * \param [IN] bandwidthAfc Sets the AFC Bandwidth (FSK only)
 198:Middlewares/Third_Party/SubGHz_Phy/stm32_radio_driver/radio.c ****  *                          FSK : >= 2600 and <= 250000 Hz
 199:Middlewares/Third_Party/SubGHz_Phy/stm32_radio_driver/radio.c ****  *                          LoRa: N/A ( set to 0 )
 200:Middlewares/Third_Party/SubGHz_Phy/stm32_radio_driver/radio.c ****  * \param [IN] preambleLen  Sets the Preamble length
 201:Middlewares/Third_Party/SubGHz_Phy/stm32_radio_driver/radio.c ****  *                          FSK : Number of bytes
 202:Middlewares/Third_Party/SubGHz_Phy/stm32_radio_driver/radio.c ****  *                          LoRa: Length in symbols (the hardware adds 4 more symbols)
 203:Middlewares/Third_Party/SubGHz_Phy/stm32_radio_driver/radio.c ****  * \param [IN] symbTimeout  Sets the RxSingle timeout value
ARM GAS  /tmp/ccldRdip.s 			page 5


 204:Middlewares/Third_Party/SubGHz_Phy/stm32_radio_driver/radio.c ****  *                          FSK : timeout in number of bytes
 205:Middlewares/Third_Party/SubGHz_Phy/stm32_radio_driver/radio.c ****  *                          LoRa: timeout in symbols
 206:Middlewares/Third_Party/SubGHz_Phy/stm32_radio_driver/radio.c ****  * \param [IN] fixLen       Fixed length packets [0: variable, 1: fixed]
 207:Middlewares/Third_Party/SubGHz_Phy/stm32_radio_driver/radio.c ****  * \param [IN] payloadLen   Sets payload length when fixed length is used
 208:Middlewares/Third_Party/SubGHz_Phy/stm32_radio_driver/radio.c ****  * \param [IN] crcOn        Enables/Disables the CRC [0: OFF, 1: ON]
 209:Middlewares/Third_Party/SubGHz_Phy/stm32_radio_driver/radio.c ****  * \param [IN] FreqHopOn    Enables disables the intra-packet frequency hopping
 210:Middlewares/Third_Party/SubGHz_Phy/stm32_radio_driver/radio.c ****  *                          FSK : N/A ( set to 0 )
 211:Middlewares/Third_Party/SubGHz_Phy/stm32_radio_driver/radio.c ****  *                          LoRa: [0: OFF, 1: ON]
 212:Middlewares/Third_Party/SubGHz_Phy/stm32_radio_driver/radio.c ****  * \param [IN] HopPeriod    Number of symbols between each hop
 213:Middlewares/Third_Party/SubGHz_Phy/stm32_radio_driver/radio.c ****  *                          FSK : N/A ( set to 0 )
 214:Middlewares/Third_Party/SubGHz_Phy/stm32_radio_driver/radio.c ****  *                          LoRa: Number of symbols
 215:Middlewares/Third_Party/SubGHz_Phy/stm32_radio_driver/radio.c ****  * \param [IN] iqInverted   Inverts IQ signals (LoRa only)
 216:Middlewares/Third_Party/SubGHz_Phy/stm32_radio_driver/radio.c ****  *                          FSK : N/A ( set to 0 )
 217:Middlewares/Third_Party/SubGHz_Phy/stm32_radio_driver/radio.c ****  *                          LoRa: [0: not inverted, 1: inverted]
 218:Middlewares/Third_Party/SubGHz_Phy/stm32_radio_driver/radio.c ****  * \param [IN] rxContinuous Sets the reception in continuous mode
 219:Middlewares/Third_Party/SubGHz_Phy/stm32_radio_driver/radio.c ****  *                          [false: single mode, true: continuous mode]
 220:Middlewares/Third_Party/SubGHz_Phy/stm32_radio_driver/radio.c ****  */
 221:Middlewares/Third_Party/SubGHz_Phy/stm32_radio_driver/radio.c **** static void RadioSetRxConfig( RadioModems_t modem, uint32_t bandwidth,
 222:Middlewares/Third_Party/SubGHz_Phy/stm32_radio_driver/radio.c ****                               uint32_t datarate, uint8_t coderate,
 223:Middlewares/Third_Party/SubGHz_Phy/stm32_radio_driver/radio.c ****                               uint32_t bandwidthAfc, uint16_t preambleLen,
 224:Middlewares/Third_Party/SubGHz_Phy/stm32_radio_driver/radio.c ****                               uint16_t symbTimeout, bool fixLen,
 225:Middlewares/Third_Party/SubGHz_Phy/stm32_radio_driver/radio.c ****                               uint8_t payloadLen,
 226:Middlewares/Third_Party/SubGHz_Phy/stm32_radio_driver/radio.c ****                               bool crcOn, bool FreqHopOn, uint8_t HopPeriod,
 227:Middlewares/Third_Party/SubGHz_Phy/stm32_radio_driver/radio.c ****                               bool iqInverted, bool rxContinuous );
 228:Middlewares/Third_Party/SubGHz_Phy/stm32_radio_driver/radio.c **** 
 229:Middlewares/Third_Party/SubGHz_Phy/stm32_radio_driver/radio.c **** /*!
 230:Middlewares/Third_Party/SubGHz_Phy/stm32_radio_driver/radio.c ****  * \brief Sets the transmission parameters
 231:Middlewares/Third_Party/SubGHz_Phy/stm32_radio_driver/radio.c ****  *
 232:Middlewares/Third_Party/SubGHz_Phy/stm32_radio_driver/radio.c ****  * \param [IN] modem        Radio modem to be used [0: FSK, 1: LoRa]
 233:Middlewares/Third_Party/SubGHz_Phy/stm32_radio_driver/radio.c ****  * \param [IN] power        Sets the output power [dBm]
 234:Middlewares/Third_Party/SubGHz_Phy/stm32_radio_driver/radio.c ****  * \param [IN] fdev         Sets the frequency deviation (FSK only)
 235:Middlewares/Third_Party/SubGHz_Phy/stm32_radio_driver/radio.c ****  *                          FSK : [Hz]
 236:Middlewares/Third_Party/SubGHz_Phy/stm32_radio_driver/radio.c ****  *                          LoRa: 0
 237:Middlewares/Third_Party/SubGHz_Phy/stm32_radio_driver/radio.c ****  * \param [IN] bandwidth    Sets the bandwidth (LoRa only)
 238:Middlewares/Third_Party/SubGHz_Phy/stm32_radio_driver/radio.c ****  *                          FSK : 0
 239:Middlewares/Third_Party/SubGHz_Phy/stm32_radio_driver/radio.c ****  *                          LoRa: [0: 125 kHz, 1: 250 kHz,
 240:Middlewares/Third_Party/SubGHz_Phy/stm32_radio_driver/radio.c ****  *                                 2: 500 kHz, 3: Reserved]
 241:Middlewares/Third_Party/SubGHz_Phy/stm32_radio_driver/radio.c ****  * \param [IN] datarate     Sets the Datarate
 242:Middlewares/Third_Party/SubGHz_Phy/stm32_radio_driver/radio.c ****  *                          FSK : 600..300000 bits/s
 243:Middlewares/Third_Party/SubGHz_Phy/stm32_radio_driver/radio.c ****  *                          LoRa: [6: 64, 7: 128, 8: 256, 9: 512,
 244:Middlewares/Third_Party/SubGHz_Phy/stm32_radio_driver/radio.c ****  *                                10: 1024, 11: 2048, 12: 4096  chips]
 245:Middlewares/Third_Party/SubGHz_Phy/stm32_radio_driver/radio.c ****  * \param [IN] coderate     Sets the coding rate (LoRa only)
 246:Middlewares/Third_Party/SubGHz_Phy/stm32_radio_driver/radio.c ****  *                          FSK : N/A ( set to 0 )
 247:Middlewares/Third_Party/SubGHz_Phy/stm32_radio_driver/radio.c ****  *                          LoRa: [1: 4/5, 2: 4/6, 3: 4/7, 4: 4/8]
 248:Middlewares/Third_Party/SubGHz_Phy/stm32_radio_driver/radio.c ****  * \param [IN] preambleLen  Sets the preamble length
 249:Middlewares/Third_Party/SubGHz_Phy/stm32_radio_driver/radio.c ****  *                          FSK : Number of bytes
 250:Middlewares/Third_Party/SubGHz_Phy/stm32_radio_driver/radio.c ****  *                          LoRa: Length in symbols (the hardware adds 4 more symbols)
 251:Middlewares/Third_Party/SubGHz_Phy/stm32_radio_driver/radio.c ****  * \param [IN] fixLen       Fixed length packets [0: variable, 1: fixed]
 252:Middlewares/Third_Party/SubGHz_Phy/stm32_radio_driver/radio.c ****  * \param [IN] crcOn        Enables disables the CRC [0: OFF, 1: ON]
 253:Middlewares/Third_Party/SubGHz_Phy/stm32_radio_driver/radio.c ****  * \param [IN] FreqHopOn    Enables disables the intra-packet frequency hopping
 254:Middlewares/Third_Party/SubGHz_Phy/stm32_radio_driver/radio.c ****  *                          FSK : N/A ( set to 0 )
 255:Middlewares/Third_Party/SubGHz_Phy/stm32_radio_driver/radio.c ****  *                          LoRa: [0: OFF, 1: ON]
 256:Middlewares/Third_Party/SubGHz_Phy/stm32_radio_driver/radio.c ****  * \param [IN] HopPeriod    Number of symbols between each hop
 257:Middlewares/Third_Party/SubGHz_Phy/stm32_radio_driver/radio.c ****  *                          FSK : N/A ( set to 0 )
 258:Middlewares/Third_Party/SubGHz_Phy/stm32_radio_driver/radio.c ****  *                          LoRa: Number of symbols
 259:Middlewares/Third_Party/SubGHz_Phy/stm32_radio_driver/radio.c ****  * \param [IN] iqInverted   Inverts IQ signals (LoRa only)
 260:Middlewares/Third_Party/SubGHz_Phy/stm32_radio_driver/radio.c ****  *                          FSK : N/A ( set to 0 )
ARM GAS  /tmp/ccldRdip.s 			page 6


 261:Middlewares/Third_Party/SubGHz_Phy/stm32_radio_driver/radio.c ****  *                          LoRa: [0: not inverted, 1: inverted]
 262:Middlewares/Third_Party/SubGHz_Phy/stm32_radio_driver/radio.c ****  * \param [IN] timeout      Transmission timeout [ms]
 263:Middlewares/Third_Party/SubGHz_Phy/stm32_radio_driver/radio.c ****  */
 264:Middlewares/Third_Party/SubGHz_Phy/stm32_radio_driver/radio.c **** static void RadioSetTxConfig( RadioModems_t modem, int8_t power, uint32_t fdev,
 265:Middlewares/Third_Party/SubGHz_Phy/stm32_radio_driver/radio.c ****                               uint32_t bandwidth, uint32_t datarate,
 266:Middlewares/Third_Party/SubGHz_Phy/stm32_radio_driver/radio.c ****                               uint8_t coderate, uint16_t preambleLen,
 267:Middlewares/Third_Party/SubGHz_Phy/stm32_radio_driver/radio.c ****                               bool fixLen, bool crcOn, bool FreqHopOn,
 268:Middlewares/Third_Party/SubGHz_Phy/stm32_radio_driver/radio.c ****                               uint8_t HopPeriod, bool iqInverted, uint32_t timeout );
 269:Middlewares/Third_Party/SubGHz_Phy/stm32_radio_driver/radio.c **** 
 270:Middlewares/Third_Party/SubGHz_Phy/stm32_radio_driver/radio.c **** /*!
 271:Middlewares/Third_Party/SubGHz_Phy/stm32_radio_driver/radio.c ****  * \brief Checks if the given RF frequency is supported by the hardware
 272:Middlewares/Third_Party/SubGHz_Phy/stm32_radio_driver/radio.c ****  *
 273:Middlewares/Third_Party/SubGHz_Phy/stm32_radio_driver/radio.c ****  * \param [IN] frequency RF frequency to be checked
 274:Middlewares/Third_Party/SubGHz_Phy/stm32_radio_driver/radio.c ****  * \retval isSupported [true: supported, false: unsupported]
 275:Middlewares/Third_Party/SubGHz_Phy/stm32_radio_driver/radio.c ****  */
 276:Middlewares/Third_Party/SubGHz_Phy/stm32_radio_driver/radio.c **** static bool RadioCheckRfFrequency( uint32_t frequency );
 277:Middlewares/Third_Party/SubGHz_Phy/stm32_radio_driver/radio.c **** 
 278:Middlewares/Third_Party/SubGHz_Phy/stm32_radio_driver/radio.c **** /*!
 279:Middlewares/Third_Party/SubGHz_Phy/stm32_radio_driver/radio.c ****  * \brief Computes the packet time on air in ms for the given payload
 280:Middlewares/Third_Party/SubGHz_Phy/stm32_radio_driver/radio.c ****  *
 281:Middlewares/Third_Party/SubGHz_Phy/stm32_radio_driver/radio.c ****  * \Remark Can only be called once SetRxConfig or SetTxConfig have been called
 282:Middlewares/Third_Party/SubGHz_Phy/stm32_radio_driver/radio.c ****  *
 283:Middlewares/Third_Party/SubGHz_Phy/stm32_radio_driver/radio.c ****  * \param [IN] modem      Radio modem to be used [0: FSK, 1: LoRa]
 284:Middlewares/Third_Party/SubGHz_Phy/stm32_radio_driver/radio.c ****  * \param [IN] bandwidth    Sets the bandwidth
 285:Middlewares/Third_Party/SubGHz_Phy/stm32_radio_driver/radio.c ****  *                          FSK : >= 2600 and <= 250000 Hz
 286:Middlewares/Third_Party/SubGHz_Phy/stm32_radio_driver/radio.c ****  *                          LoRa: [0: 125 kHz, 1: 250 kHz,
 287:Middlewares/Third_Party/SubGHz_Phy/stm32_radio_driver/radio.c ****  *                                 2: 500 kHz, 3: Reserved]
 288:Middlewares/Third_Party/SubGHz_Phy/stm32_radio_driver/radio.c ****  * \param [IN] datarate     Sets the Datarate
 289:Middlewares/Third_Party/SubGHz_Phy/stm32_radio_driver/radio.c ****  *                          FSK : 600..300000 bits/s
 290:Middlewares/Third_Party/SubGHz_Phy/stm32_radio_driver/radio.c ****  *                          LoRa: [6: 64, 7: 128, 8: 256, 9: 512,
 291:Middlewares/Third_Party/SubGHz_Phy/stm32_radio_driver/radio.c ****  *                                10: 1024, 11: 2048, 12: 4096  chips]
 292:Middlewares/Third_Party/SubGHz_Phy/stm32_radio_driver/radio.c ****  * \param [IN] coderate     Sets the coding rate (LoRa only)
 293:Middlewares/Third_Party/SubGHz_Phy/stm32_radio_driver/radio.c ****  *                          FSK : N/A ( set to 0 )
 294:Middlewares/Third_Party/SubGHz_Phy/stm32_radio_driver/radio.c ****  *                          LoRa: [1: 4/5, 2: 4/6, 3: 4/7, 4: 4/8]
 295:Middlewares/Third_Party/SubGHz_Phy/stm32_radio_driver/radio.c ****  * \param [IN] preambleLen  Sets the Preamble length
 296:Middlewares/Third_Party/SubGHz_Phy/stm32_radio_driver/radio.c ****  *                          FSK : Number of bytes
 297:Middlewares/Third_Party/SubGHz_Phy/stm32_radio_driver/radio.c ****  *                          LoRa: Length in symbols (the hardware adds 4 more symbols)
 298:Middlewares/Third_Party/SubGHz_Phy/stm32_radio_driver/radio.c ****  * \param [IN] fixLen       Fixed length packets [0: variable, 1: fixed]
 299:Middlewares/Third_Party/SubGHz_Phy/stm32_radio_driver/radio.c ****  * \param [IN] payloadLen   Sets payload length when fixed length is used
 300:Middlewares/Third_Party/SubGHz_Phy/stm32_radio_driver/radio.c ****  * \param [IN] crcOn        Enables/Disables the CRC [0: OFF, 1: ON]
 301:Middlewares/Third_Party/SubGHz_Phy/stm32_radio_driver/radio.c ****  *
 302:Middlewares/Third_Party/SubGHz_Phy/stm32_radio_driver/radio.c ****  * \retval airTime        Computed airTime (ms) for the given packet payload length
 303:Middlewares/Third_Party/SubGHz_Phy/stm32_radio_driver/radio.c ****  */
 304:Middlewares/Third_Party/SubGHz_Phy/stm32_radio_driver/radio.c **** static uint32_t RadioTimeOnAir( RadioModems_t modem, uint32_t bandwidth,
 305:Middlewares/Third_Party/SubGHz_Phy/stm32_radio_driver/radio.c ****                                 uint32_t datarate, uint8_t coderate,
 306:Middlewares/Third_Party/SubGHz_Phy/stm32_radio_driver/radio.c ****                                 uint16_t preambleLen, bool fixLen, uint8_t payloadLen,
 307:Middlewares/Third_Party/SubGHz_Phy/stm32_radio_driver/radio.c ****                                 bool crcOn );
 308:Middlewares/Third_Party/SubGHz_Phy/stm32_radio_driver/radio.c **** 
 309:Middlewares/Third_Party/SubGHz_Phy/stm32_radio_driver/radio.c **** /*!
 310:Middlewares/Third_Party/SubGHz_Phy/stm32_radio_driver/radio.c ****  * \brief Sends the buffer of size. Prepares the packet to be sent and sets
 311:Middlewares/Third_Party/SubGHz_Phy/stm32_radio_driver/radio.c ****  *        the radio in transmission
 312:Middlewares/Third_Party/SubGHz_Phy/stm32_radio_driver/radio.c ****  *
 313:Middlewares/Third_Party/SubGHz_Phy/stm32_radio_driver/radio.c ****  * \param [IN]: buffer     Buffer pointer
 314:Middlewares/Third_Party/SubGHz_Phy/stm32_radio_driver/radio.c ****  * \param [IN]: size       Buffer size
 315:Middlewares/Third_Party/SubGHz_Phy/stm32_radio_driver/radio.c ****  */
 316:Middlewares/Third_Party/SubGHz_Phy/stm32_radio_driver/radio.c **** static void RadioSend( uint8_t *buffer, uint8_t size );
 317:Middlewares/Third_Party/SubGHz_Phy/stm32_radio_driver/radio.c **** 
ARM GAS  /tmp/ccldRdip.s 			page 7


 318:Middlewares/Third_Party/SubGHz_Phy/stm32_radio_driver/radio.c **** /*!
 319:Middlewares/Third_Party/SubGHz_Phy/stm32_radio_driver/radio.c ****  * \brief Sets the radio in sleep mode
 320:Middlewares/Third_Party/SubGHz_Phy/stm32_radio_driver/radio.c ****  */
 321:Middlewares/Third_Party/SubGHz_Phy/stm32_radio_driver/radio.c **** static void RadioSleep( void );
 322:Middlewares/Third_Party/SubGHz_Phy/stm32_radio_driver/radio.c **** 
 323:Middlewares/Third_Party/SubGHz_Phy/stm32_radio_driver/radio.c **** /*!
 324:Middlewares/Third_Party/SubGHz_Phy/stm32_radio_driver/radio.c ****  * \brief Sets the radio in standby mode
 325:Middlewares/Third_Party/SubGHz_Phy/stm32_radio_driver/radio.c ****  */
 326:Middlewares/Third_Party/SubGHz_Phy/stm32_radio_driver/radio.c **** static void RadioStandby( void );
 327:Middlewares/Third_Party/SubGHz_Phy/stm32_radio_driver/radio.c **** 
 328:Middlewares/Third_Party/SubGHz_Phy/stm32_radio_driver/radio.c **** /*!
 329:Middlewares/Third_Party/SubGHz_Phy/stm32_radio_driver/radio.c ****  * \brief Sets the radio in reception mode for the given time
 330:Middlewares/Third_Party/SubGHz_Phy/stm32_radio_driver/radio.c ****  * \param [IN] timeout Reception timeout [ms]
 331:Middlewares/Third_Party/SubGHz_Phy/stm32_radio_driver/radio.c ****  *                     [0: continuous, others timeout]
 332:Middlewares/Third_Party/SubGHz_Phy/stm32_radio_driver/radio.c ****  */
 333:Middlewares/Third_Party/SubGHz_Phy/stm32_radio_driver/radio.c **** static void RadioRx( uint32_t timeout );
 334:Middlewares/Third_Party/SubGHz_Phy/stm32_radio_driver/radio.c **** 
 335:Middlewares/Third_Party/SubGHz_Phy/stm32_radio_driver/radio.c **** /*!
 336:Middlewares/Third_Party/SubGHz_Phy/stm32_radio_driver/radio.c ****  * \brief Start a Channel Activity Detection
 337:Middlewares/Third_Party/SubGHz_Phy/stm32_radio_driver/radio.c ****  */
 338:Middlewares/Third_Party/SubGHz_Phy/stm32_radio_driver/radio.c **** static void RadioStartCad( void );
 339:Middlewares/Third_Party/SubGHz_Phy/stm32_radio_driver/radio.c **** 
 340:Middlewares/Third_Party/SubGHz_Phy/stm32_radio_driver/radio.c **** /*!
 341:Middlewares/Third_Party/SubGHz_Phy/stm32_radio_driver/radio.c ****  * \brief Sets the radio in continuous wave transmission mode
 342:Middlewares/Third_Party/SubGHz_Phy/stm32_radio_driver/radio.c ****  *
 343:Middlewares/Third_Party/SubGHz_Phy/stm32_radio_driver/radio.c ****  * \param [IN]: freq       Channel RF frequency
 344:Middlewares/Third_Party/SubGHz_Phy/stm32_radio_driver/radio.c ****  * \param [IN]: power      Sets the output power [dBm]
 345:Middlewares/Third_Party/SubGHz_Phy/stm32_radio_driver/radio.c ****  * \param [IN]: time       Transmission mode timeout [s]
 346:Middlewares/Third_Party/SubGHz_Phy/stm32_radio_driver/radio.c ****  */
 347:Middlewares/Third_Party/SubGHz_Phy/stm32_radio_driver/radio.c **** static void RadioSetTxContinuousWave( uint32_t freq, int8_t power, uint16_t time );
 348:Middlewares/Third_Party/SubGHz_Phy/stm32_radio_driver/radio.c **** 
 349:Middlewares/Third_Party/SubGHz_Phy/stm32_radio_driver/radio.c **** /*!
 350:Middlewares/Third_Party/SubGHz_Phy/stm32_radio_driver/radio.c ****  * \brief Reads the current RSSI value
 351:Middlewares/Third_Party/SubGHz_Phy/stm32_radio_driver/radio.c ****  *
 352:Middlewares/Third_Party/SubGHz_Phy/stm32_radio_driver/radio.c ****  * \retval rssiValue Current RSSI value in [dBm]
 353:Middlewares/Third_Party/SubGHz_Phy/stm32_radio_driver/radio.c ****  */
 354:Middlewares/Third_Party/SubGHz_Phy/stm32_radio_driver/radio.c **** static int16_t RadioRssi( RadioModems_t modem );
 355:Middlewares/Third_Party/SubGHz_Phy/stm32_radio_driver/radio.c **** 
 356:Middlewares/Third_Party/SubGHz_Phy/stm32_radio_driver/radio.c **** /* ST_WORKAROUND_BEGIN: Force register addr to uint16_t */
 357:Middlewares/Third_Party/SubGHz_Phy/stm32_radio_driver/radio.c **** /*!
 358:Middlewares/Third_Party/SubGHz_Phy/stm32_radio_driver/radio.c ****  * \brief Writes the radio register at the specified address
 359:Middlewares/Third_Party/SubGHz_Phy/stm32_radio_driver/radio.c ****  *
 360:Middlewares/Third_Party/SubGHz_Phy/stm32_radio_driver/radio.c ****  * \param [IN]: addr Register address
 361:Middlewares/Third_Party/SubGHz_Phy/stm32_radio_driver/radio.c ****  * \param [IN]: data New register value
 362:Middlewares/Third_Party/SubGHz_Phy/stm32_radio_driver/radio.c ****  */
 363:Middlewares/Third_Party/SubGHz_Phy/stm32_radio_driver/radio.c **** static void RadioWrite( uint16_t addr, uint8_t data );
 364:Middlewares/Third_Party/SubGHz_Phy/stm32_radio_driver/radio.c **** 
 365:Middlewares/Third_Party/SubGHz_Phy/stm32_radio_driver/radio.c **** /*!
 366:Middlewares/Third_Party/SubGHz_Phy/stm32_radio_driver/radio.c ****  * \brief Reads the radio register at the specified address
 367:Middlewares/Third_Party/SubGHz_Phy/stm32_radio_driver/radio.c ****  *
 368:Middlewares/Third_Party/SubGHz_Phy/stm32_radio_driver/radio.c ****  * \param [IN]: addr Register address
 369:Middlewares/Third_Party/SubGHz_Phy/stm32_radio_driver/radio.c ****  * \retval data Register value
 370:Middlewares/Third_Party/SubGHz_Phy/stm32_radio_driver/radio.c ****  */
 371:Middlewares/Third_Party/SubGHz_Phy/stm32_radio_driver/radio.c **** static uint8_t RadioRead( uint16_t addr );
 372:Middlewares/Third_Party/SubGHz_Phy/stm32_radio_driver/radio.c **** 
 373:Middlewares/Third_Party/SubGHz_Phy/stm32_radio_driver/radio.c **** /*!
 374:Middlewares/Third_Party/SubGHz_Phy/stm32_radio_driver/radio.c ****  * \brief Writes multiple radio registers starting at address
ARM GAS  /tmp/ccldRdip.s 			page 8


 375:Middlewares/Third_Party/SubGHz_Phy/stm32_radio_driver/radio.c ****  *
 376:Middlewares/Third_Party/SubGHz_Phy/stm32_radio_driver/radio.c ****  * \param [IN] addr   First Radio register address
 377:Middlewares/Third_Party/SubGHz_Phy/stm32_radio_driver/radio.c ****  * \param [IN] buffer Buffer containing the new register's values
 378:Middlewares/Third_Party/SubGHz_Phy/stm32_radio_driver/radio.c ****  * \param [IN] size   Number of registers to be written
 379:Middlewares/Third_Party/SubGHz_Phy/stm32_radio_driver/radio.c ****  */
 380:Middlewares/Third_Party/SubGHz_Phy/stm32_radio_driver/radio.c **** static void RadioWriteRegisters( uint16_t addr, uint8_t *buffer, uint8_t size );
 381:Middlewares/Third_Party/SubGHz_Phy/stm32_radio_driver/radio.c **** 
 382:Middlewares/Third_Party/SubGHz_Phy/stm32_radio_driver/radio.c **** /*!
 383:Middlewares/Third_Party/SubGHz_Phy/stm32_radio_driver/radio.c ****  * \brief Reads multiple radio registers starting at address
 384:Middlewares/Third_Party/SubGHz_Phy/stm32_radio_driver/radio.c ****  *
 385:Middlewares/Third_Party/SubGHz_Phy/stm32_radio_driver/radio.c ****  * \param [IN] addr First Radio register address
 386:Middlewares/Third_Party/SubGHz_Phy/stm32_radio_driver/radio.c ****  * \param [OUT] buffer Buffer where to copy the registers data
 387:Middlewares/Third_Party/SubGHz_Phy/stm32_radio_driver/radio.c ****  * \param [IN] size Number of registers to be read
 388:Middlewares/Third_Party/SubGHz_Phy/stm32_radio_driver/radio.c ****  */
 389:Middlewares/Third_Party/SubGHz_Phy/stm32_radio_driver/radio.c **** static void RadioReadRegisters( uint16_t addr, uint8_t *buffer, uint8_t size );
 390:Middlewares/Third_Party/SubGHz_Phy/stm32_radio_driver/radio.c **** /* ST_WORKAROUND_END */
 391:Middlewares/Third_Party/SubGHz_Phy/stm32_radio_driver/radio.c **** 
 392:Middlewares/Third_Party/SubGHz_Phy/stm32_radio_driver/radio.c **** /*!
 393:Middlewares/Third_Party/SubGHz_Phy/stm32_radio_driver/radio.c ****  * \brief Sets the maximum payload length.
 394:Middlewares/Third_Party/SubGHz_Phy/stm32_radio_driver/radio.c ****  *
 395:Middlewares/Third_Party/SubGHz_Phy/stm32_radio_driver/radio.c ****  * \param [IN] modem      Radio modem to be used [0: FSK, 1: LoRa]
 396:Middlewares/Third_Party/SubGHz_Phy/stm32_radio_driver/radio.c ****  * \param [IN] max        Maximum payload length in bytes
 397:Middlewares/Third_Party/SubGHz_Phy/stm32_radio_driver/radio.c ****  */
 398:Middlewares/Third_Party/SubGHz_Phy/stm32_radio_driver/radio.c **** static void RadioSetMaxPayloadLength( RadioModems_t modem, uint8_t max );
 399:Middlewares/Third_Party/SubGHz_Phy/stm32_radio_driver/radio.c **** 
 400:Middlewares/Third_Party/SubGHz_Phy/stm32_radio_driver/radio.c **** /*!
 401:Middlewares/Third_Party/SubGHz_Phy/stm32_radio_driver/radio.c ****  * \brief Sets the network to public or private. Updates the sync byte.
 402:Middlewares/Third_Party/SubGHz_Phy/stm32_radio_driver/radio.c ****  *
 403:Middlewares/Third_Party/SubGHz_Phy/stm32_radio_driver/radio.c ****  * \remark Applies to LoRa modem only
 404:Middlewares/Third_Party/SubGHz_Phy/stm32_radio_driver/radio.c ****  *
 405:Middlewares/Third_Party/SubGHz_Phy/stm32_radio_driver/radio.c ****  * \param [IN] enable if true, it enables a public network
 406:Middlewares/Third_Party/SubGHz_Phy/stm32_radio_driver/radio.c ****  */
 407:Middlewares/Third_Party/SubGHz_Phy/stm32_radio_driver/radio.c **** static void RadioSetPublicNetwork( bool enable );
 408:Middlewares/Third_Party/SubGHz_Phy/stm32_radio_driver/radio.c **** 
 409:Middlewares/Third_Party/SubGHz_Phy/stm32_radio_driver/radio.c **** /*!
 410:Middlewares/Third_Party/SubGHz_Phy/stm32_radio_driver/radio.c ****  * \brief Gets the time required for the board plus radio to get out of sleep.[ms]
 411:Middlewares/Third_Party/SubGHz_Phy/stm32_radio_driver/radio.c ****  *
 412:Middlewares/Third_Party/SubGHz_Phy/stm32_radio_driver/radio.c ****  * \retval time Radio plus board wakeup time in ms.
 413:Middlewares/Third_Party/SubGHz_Phy/stm32_radio_driver/radio.c ****  */
 414:Middlewares/Third_Party/SubGHz_Phy/stm32_radio_driver/radio.c **** static uint32_t RadioGetWakeupTime( void );
 415:Middlewares/Third_Party/SubGHz_Phy/stm32_radio_driver/radio.c **** 
 416:Middlewares/Third_Party/SubGHz_Phy/stm32_radio_driver/radio.c **** /*!
 417:Middlewares/Third_Party/SubGHz_Phy/stm32_radio_driver/radio.c ****  * \brief Process radio irq
 418:Middlewares/Third_Party/SubGHz_Phy/stm32_radio_driver/radio.c ****  */
 419:Middlewares/Third_Party/SubGHz_Phy/stm32_radio_driver/radio.c **** static void RadioIrqProcess( void );
 420:Middlewares/Third_Party/SubGHz_Phy/stm32_radio_driver/radio.c **** 
 421:Middlewares/Third_Party/SubGHz_Phy/stm32_radio_driver/radio.c **** /*!
 422:Middlewares/Third_Party/SubGHz_Phy/stm32_radio_driver/radio.c ****  * \brief Sets the radio in reception mode with Max LNA gain for the given time
 423:Middlewares/Third_Party/SubGHz_Phy/stm32_radio_driver/radio.c ****  * \param [IN] timeout Reception timeout [ms]
 424:Middlewares/Third_Party/SubGHz_Phy/stm32_radio_driver/radio.c ****  *                     [0: continuous, others timeout]
 425:Middlewares/Third_Party/SubGHz_Phy/stm32_radio_driver/radio.c ****  */
 426:Middlewares/Third_Party/SubGHz_Phy/stm32_radio_driver/radio.c **** static void RadioRxBoosted( uint32_t timeout );
 427:Middlewares/Third_Party/SubGHz_Phy/stm32_radio_driver/radio.c **** 
 428:Middlewares/Third_Party/SubGHz_Phy/stm32_radio_driver/radio.c **** /*!
 429:Middlewares/Third_Party/SubGHz_Phy/stm32_radio_driver/radio.c ****  * \brief Sets the Rx duty cycle management parameters
 430:Middlewares/Third_Party/SubGHz_Phy/stm32_radio_driver/radio.c ****  *
 431:Middlewares/Third_Party/SubGHz_Phy/stm32_radio_driver/radio.c ****  * \param [in]  rxTime        Structure describing reception timeout value
ARM GAS  /tmp/ccldRdip.s 			page 9


 432:Middlewares/Third_Party/SubGHz_Phy/stm32_radio_driver/radio.c ****  * \param [in]  sleepTime     Structure describing sleep timeout value
 433:Middlewares/Third_Party/SubGHz_Phy/stm32_radio_driver/radio.c ****  */
 434:Middlewares/Third_Party/SubGHz_Phy/stm32_radio_driver/radio.c **** static void RadioSetRxDutyCycle( uint32_t rxTime, uint32_t sleepTime );
 435:Middlewares/Third_Party/SubGHz_Phy/stm32_radio_driver/radio.c **** 
 436:Middlewares/Third_Party/SubGHz_Phy/stm32_radio_driver/radio.c **** /*!
 437:Middlewares/Third_Party/SubGHz_Phy/stm32_radio_driver/radio.c ****  * \brief DIO 0 IRQ callback
 438:Middlewares/Third_Party/SubGHz_Phy/stm32_radio_driver/radio.c ****  */
 439:Middlewares/Third_Party/SubGHz_Phy/stm32_radio_driver/radio.c **** static void RadioOnDioIrq( RadioIrqMasks_t radioIrq );
 440:Middlewares/Third_Party/SubGHz_Phy/stm32_radio_driver/radio.c **** 
 441:Middlewares/Third_Party/SubGHz_Phy/stm32_radio_driver/radio.c **** /*!
 442:Middlewares/Third_Party/SubGHz_Phy/stm32_radio_driver/radio.c ****  * \brief Tx timeout timer callback
 443:Middlewares/Third_Party/SubGHz_Phy/stm32_radio_driver/radio.c ****  */
 444:Middlewares/Third_Party/SubGHz_Phy/stm32_radio_driver/radio.c **** static void RadioOnTxTimeoutIrq( void * context );
 445:Middlewares/Third_Party/SubGHz_Phy/stm32_radio_driver/radio.c **** 
 446:Middlewares/Third_Party/SubGHz_Phy/stm32_radio_driver/radio.c **** /*!
 447:Middlewares/Third_Party/SubGHz_Phy/stm32_radio_driver/radio.c ****  * \brief Rx timeout timer callback
 448:Middlewares/Third_Party/SubGHz_Phy/stm32_radio_driver/radio.c ****  */
 449:Middlewares/Third_Party/SubGHz_Phy/stm32_radio_driver/radio.c **** static void RadioOnRxTimeoutIrq( void * context );
 450:Middlewares/Third_Party/SubGHz_Phy/stm32_radio_driver/radio.c **** 
 451:Middlewares/Third_Party/SubGHz_Phy/stm32_radio_driver/radio.c **** /*!
 452:Middlewares/Third_Party/SubGHz_Phy/stm32_radio_driver/radio.c ****  * \brief Rx timeout timer process
 453:Middlewares/Third_Party/SubGHz_Phy/stm32_radio_driver/radio.c ****  */
 454:Middlewares/Third_Party/SubGHz_Phy/stm32_radio_driver/radio.c **** static void RadioOnRxTimeoutProcess( void );
 455:Middlewares/Third_Party/SubGHz_Phy/stm32_radio_driver/radio.c **** 
 456:Middlewares/Third_Party/SubGHz_Phy/stm32_radio_driver/radio.c **** /*!
 457:Middlewares/Third_Party/SubGHz_Phy/stm32_radio_driver/radio.c ****  * \brief Tx timeout timer process
 458:Middlewares/Third_Party/SubGHz_Phy/stm32_radio_driver/radio.c ****  */
 459:Middlewares/Third_Party/SubGHz_Phy/stm32_radio_driver/radio.c **** static void RadioOnTxTimeoutProcess( void );
 460:Middlewares/Third_Party/SubGHz_Phy/stm32_radio_driver/radio.c **** 
 461:Middlewares/Third_Party/SubGHz_Phy/stm32_radio_driver/radio.c **** /* ST_WORKAROUND_BEGIN: extended radio functions */
 462:Middlewares/Third_Party/SubGHz_Phy/stm32_radio_driver/radio.c **** /*!
 463:Middlewares/Third_Party/SubGHz_Phy/stm32_radio_driver/radio.c ****  * @brief D-BPSK to BPSK
 464:Middlewares/Third_Party/SubGHz_Phy/stm32_radio_driver/radio.c ****  *
 465:Middlewares/Third_Party/SubGHz_Phy/stm32_radio_driver/radio.c ****  * @param [out] outBuffer     buffer with frame encoded
 466:Middlewares/Third_Party/SubGHz_Phy/stm32_radio_driver/radio.c ****  * @param [in]  inBuffer      buffer with frame to encode
 467:Middlewares/Third_Party/SubGHz_Phy/stm32_radio_driver/radio.c ****  * @param [in]  size          size of the payload to encode
 468:Middlewares/Third_Party/SubGHz_Phy/stm32_radio_driver/radio.c ****  */
 469:Middlewares/Third_Party/SubGHz_Phy/stm32_radio_driver/radio.c **** static void payload_integration( uint8_t *outBuffer, uint8_t *inBuffer, uint8_t size);
 470:Middlewares/Third_Party/SubGHz_Phy/stm32_radio_driver/radio.c **** 
 471:Middlewares/Third_Party/SubGHz_Phy/stm32_radio_driver/radio.c **** /*!
 472:Middlewares/Third_Party/SubGHz_Phy/stm32_radio_driver/radio.c ****  * \brief Set Tx PRBS modulated wave
 473:Middlewares/Third_Party/SubGHz_Phy/stm32_radio_driver/radio.c ****  * \retval none
 474:Middlewares/Third_Party/SubGHz_Phy/stm32_radio_driver/radio.c ****  */
 475:Middlewares/Third_Party/SubGHz_Phy/stm32_radio_driver/radio.c **** static void RadioTxPrbs( void );
 476:Middlewares/Third_Party/SubGHz_Phy/stm32_radio_driver/radio.c **** 
 477:Middlewares/Third_Party/SubGHz_Phy/stm32_radio_driver/radio.c **** /*!
 478:Middlewares/Third_Party/SubGHz_Phy/stm32_radio_driver/radio.c ****  * \brief Set Tx continuous wave
 479:Middlewares/Third_Party/SubGHz_Phy/stm32_radio_driver/radio.c ****  * \retval none
 480:Middlewares/Third_Party/SubGHz_Phy/stm32_radio_driver/radio.c ****  */
 481:Middlewares/Third_Party/SubGHz_Phy/stm32_radio_driver/radio.c **** static void RadioTxCw( int8_t power );
 482:Middlewares/Third_Party/SubGHz_Phy/stm32_radio_driver/radio.c **** 
 483:Middlewares/Third_Party/SubGHz_Phy/stm32_radio_driver/radio.c **** /*!
 484:Middlewares/Third_Party/SubGHz_Phy/stm32_radio_driver/radio.c ****  * \brief Sets the reception parameters
 485:Middlewares/Third_Party/SubGHz_Phy/stm32_radio_driver/radio.c ****  *
 486:Middlewares/Third_Party/SubGHz_Phy/stm32_radio_driver/radio.c ****  * \param [IN] modem        Radio modem to be used [GENERIC_FSK or GENERIC_FSK]
 487:Middlewares/Third_Party/SubGHz_Phy/stm32_radio_driver/radio.c ****  * \param [IN] config       configuration of receiver
 488:Middlewares/Third_Party/SubGHz_Phy/stm32_radio_driver/radio.c ****  *                          fsk field to be used if modem =GENERIC_FSK
ARM GAS  /tmp/ccldRdip.s 			page 10


 489:Middlewares/Third_Party/SubGHz_Phy/stm32_radio_driver/radio.c **** *                           lora field to be used if modem =GENERIC_LORA
 490:Middlewares/Third_Party/SubGHz_Phy/stm32_radio_driver/radio.c ****  * \param [IN] rxContinuous Sets the reception in continuous mode
 491:Middlewares/Third_Party/SubGHz_Phy/stm32_radio_driver/radio.c ****  *                          [0: single mode, otherwise continuous mode]
 492:Middlewares/Third_Party/SubGHz_Phy/stm32_radio_driver/radio.c ****  * \param [IN] symbTimeout  Sets the RxSingle timeout value
 493:Middlewares/Third_Party/SubGHz_Phy/stm32_radio_driver/radio.c ****  *                          FSK : timeout in number of bytes
 494:Middlewares/Third_Party/SubGHz_Phy/stm32_radio_driver/radio.c ****  *                          LoRa: timeout in symbols
 495:Middlewares/Third_Party/SubGHz_Phy/stm32_radio_driver/radio.c ****  * \return 0 when no parameters error, -1 otherwise
 496:Middlewares/Third_Party/SubGHz_Phy/stm32_radio_driver/radio.c ****  */
 497:Middlewares/Third_Party/SubGHz_Phy/stm32_radio_driver/radio.c **** static int32_t RadioSetRxGenericConfig(GenericModems_t modem, RxConfigGeneric_t* config,
 498:Middlewares/Third_Party/SubGHz_Phy/stm32_radio_driver/radio.c ****                                        uint32_t rxContinuous, uint32_t symbTimeout);
 499:Middlewares/Third_Party/SubGHz_Phy/stm32_radio_driver/radio.c **** 
 500:Middlewares/Third_Party/SubGHz_Phy/stm32_radio_driver/radio.c **** /*!
 501:Middlewares/Third_Party/SubGHz_Phy/stm32_radio_driver/radio.c ****  * \brief Sets the transmission parameters
 502:Middlewares/Third_Party/SubGHz_Phy/stm32_radio_driver/radio.c ****  *
 503:Middlewares/Third_Party/SubGHz_Phy/stm32_radio_driver/radio.c ****  * \param [IN] modem        Radio modem to be used [GENERIC_FSK or GENERIC_FSK or GENERIC_BPSK]
 504:Middlewares/Third_Party/SubGHz_Phy/stm32_radio_driver/radio.c ****  * \param [IN] config       configuration of receiver
 505:Middlewares/Third_Party/SubGHz_Phy/stm32_radio_driver/radio.c ****  *                          fsk field to be used if modem =GENERIC_FSK
 506:Middlewares/Third_Party/SubGHz_Phy/stm32_radio_driver/radio.c **** *                           lora field to be used if modem =GENERIC_LORA
 507:Middlewares/Third_Party/SubGHz_Phy/stm32_radio_driver/radio.c ****                             bpsk field to be used if modem =GENERIC_BPSK
 508:Middlewares/Third_Party/SubGHz_Phy/stm32_radio_driver/radio.c ****  * \param [IN] power        Sets the output power [dBm]
 509:Middlewares/Third_Party/SubGHz_Phy/stm32_radio_driver/radio.c ****  * \param [IN] timeout      Transmission timeout [ms]
 510:Middlewares/Third_Party/SubGHz_Phy/stm32_radio_driver/radio.c ****  * \return 0 when no parameters error, -1 otherwise
 511:Middlewares/Third_Party/SubGHz_Phy/stm32_radio_driver/radio.c ****  */
 512:Middlewares/Third_Party/SubGHz_Phy/stm32_radio_driver/radio.c **** static int32_t RadioSetTxGenericConfig(GenericModems_t modem, TxConfigGeneric_t *config,
 513:Middlewares/Third_Party/SubGHz_Phy/stm32_radio_driver/radio.c ****                                        int8_t power, uint32_t timeout);
 514:Middlewares/Third_Party/SubGHz_Phy/stm32_radio_driver/radio.c **** 
 515:Middlewares/Third_Party/SubGHz_Phy/stm32_radio_driver/radio.c **** /*!
 516:Middlewares/Third_Party/SubGHz_Phy/stm32_radio_driver/radio.c ****  * \brief Convert the bandwidth enum to Hz value
 517:Middlewares/Third_Party/SubGHz_Phy/stm32_radio_driver/radio.c ****  *
 518:Middlewares/Third_Party/SubGHz_Phy/stm32_radio_driver/radio.c ****  * \param [IN] bw RF frequency to be checked
 519:Middlewares/Third_Party/SubGHz_Phy/stm32_radio_driver/radio.c ****  * \retval bandwidthInHz bandwidth value in Hertz
 520:Middlewares/Third_Party/SubGHz_Phy/stm32_radio_driver/radio.c ****  */
 521:Middlewares/Third_Party/SubGHz_Phy/stm32_radio_driver/radio.c **** static uint32_t RadioGetLoRaBandwidthInHz( RadioLoRaBandwidths_t bw );
 522:Middlewares/Third_Party/SubGHz_Phy/stm32_radio_driver/radio.c **** 
 523:Middlewares/Third_Party/SubGHz_Phy/stm32_radio_driver/radio.c **** /*!
 524:Middlewares/Third_Party/SubGHz_Phy/stm32_radio_driver/radio.c ****  * \brief Computes the time on air GFSK numerator
 525:Middlewares/Third_Party/SubGHz_Phy/stm32_radio_driver/radio.c ****  *
 526:Middlewares/Third_Party/SubGHz_Phy/stm32_radio_driver/radio.c ****  * \param [IN] datarate     Sets the Datarate
 527:Middlewares/Third_Party/SubGHz_Phy/stm32_radio_driver/radio.c ****  *                          FSK : 600..300000 bits/s
 528:Middlewares/Third_Party/SubGHz_Phy/stm32_radio_driver/radio.c ****  *                          LoRa: [6: 64, 7: 128, 8: 256, 9: 512,
 529:Middlewares/Third_Party/SubGHz_Phy/stm32_radio_driver/radio.c ****  *                                10: 1024, 11: 2048, 12: 4096  chips]
 530:Middlewares/Third_Party/SubGHz_Phy/stm32_radio_driver/radio.c ****  * \param [IN] coderate     Sets the coding rate (LoRa only)
 531:Middlewares/Third_Party/SubGHz_Phy/stm32_radio_driver/radio.c ****  *                          FSK : N/A ( set to 0 )
 532:Middlewares/Third_Party/SubGHz_Phy/stm32_radio_driver/radio.c ****  *                          LoRa: [1: 4/5, 2: 4/6, 3: 4/7, 4: 4/8]
 533:Middlewares/Third_Party/SubGHz_Phy/stm32_radio_driver/radio.c ****  * \param [IN] preambleLen  Sets the Preamble length
 534:Middlewares/Third_Party/SubGHz_Phy/stm32_radio_driver/radio.c ****  *                          FSK : Number of bytes
 535:Middlewares/Third_Party/SubGHz_Phy/stm32_radio_driver/radio.c ****  *                          LoRa: Length in symbols (the hardware adds 4 more symbols)
 536:Middlewares/Third_Party/SubGHz_Phy/stm32_radio_driver/radio.c ****  * \param [IN] fixLen       Fixed length packets [0: variable, 1: fixed]
 537:Middlewares/Third_Party/SubGHz_Phy/stm32_radio_driver/radio.c ****  * \param [IN] payloadLen   Sets payload length when fixed length is used
 538:Middlewares/Third_Party/SubGHz_Phy/stm32_radio_driver/radio.c ****  * \param [IN] crcOn        Enables/Disables the CRC [0: OFF, 1: ON]
 539:Middlewares/Third_Party/SubGHz_Phy/stm32_radio_driver/radio.c ****  * \retval numerator        time on air GFSK numerator
 540:Middlewares/Third_Party/SubGHz_Phy/stm32_radio_driver/radio.c ****  */
 541:Middlewares/Third_Party/SubGHz_Phy/stm32_radio_driver/radio.c **** static uint32_t RadioGetGfskTimeOnAirNumerator( uint32_t datarate, uint8_t coderate,
 542:Middlewares/Third_Party/SubGHz_Phy/stm32_radio_driver/radio.c ****                                                 uint16_t preambleLen, bool fixLen, uint8_t payloadL
 543:Middlewares/Third_Party/SubGHz_Phy/stm32_radio_driver/radio.c ****                                                 bool crcOn );
 544:Middlewares/Third_Party/SubGHz_Phy/stm32_radio_driver/radio.c **** 
 545:Middlewares/Third_Party/SubGHz_Phy/stm32_radio_driver/radio.c **** /*!
ARM GAS  /tmp/ccldRdip.s 			page 11


 546:Middlewares/Third_Party/SubGHz_Phy/stm32_radio_driver/radio.c ****  * \brief Computes the time on air LoRa numerator
 547:Middlewares/Third_Party/SubGHz_Phy/stm32_radio_driver/radio.c ****  *
 548:Middlewares/Third_Party/SubGHz_Phy/stm32_radio_driver/radio.c ****  * \param [IN] bandwidth    Sets the bandwidth
 549:Middlewares/Third_Party/SubGHz_Phy/stm32_radio_driver/radio.c ****  *                          FSK : >= 2600 and <= 250000 Hz
 550:Middlewares/Third_Party/SubGHz_Phy/stm32_radio_driver/radio.c ****  *                          LoRa: [0: 125 kHz, 1: 250 kHz,
 551:Middlewares/Third_Party/SubGHz_Phy/stm32_radio_driver/radio.c ****  *                                 2: 500 kHz, 3: Reserved]
 552:Middlewares/Third_Party/SubGHz_Phy/stm32_radio_driver/radio.c ****  * \param [IN] datarate     Sets the Datarate
 553:Middlewares/Third_Party/SubGHz_Phy/stm32_radio_driver/radio.c ****  *                          FSK : 600..300000 bits/s
 554:Middlewares/Third_Party/SubGHz_Phy/stm32_radio_driver/radio.c ****  *                          LoRa: [6: 64, 7: 128, 8: 256, 9: 512,
 555:Middlewares/Third_Party/SubGHz_Phy/stm32_radio_driver/radio.c ****  *                                10: 1024, 11: 2048, 12: 4096  chips]
 556:Middlewares/Third_Party/SubGHz_Phy/stm32_radio_driver/radio.c ****  * \param [IN] coderate     Sets the coding rate (LoRa only)
 557:Middlewares/Third_Party/SubGHz_Phy/stm32_radio_driver/radio.c ****  *                          FSK : N/A ( set to 0 )
 558:Middlewares/Third_Party/SubGHz_Phy/stm32_radio_driver/radio.c ****  *                          LoRa: [1: 4/5, 2: 4/6, 3: 4/7, 4: 4/8]
 559:Middlewares/Third_Party/SubGHz_Phy/stm32_radio_driver/radio.c ****  * \param [IN] preambleLen  Sets the Preamble length
 560:Middlewares/Third_Party/SubGHz_Phy/stm32_radio_driver/radio.c ****  *                          FSK : Number of bytes
 561:Middlewares/Third_Party/SubGHz_Phy/stm32_radio_driver/radio.c ****  *                          LoRa: Length in symbols (the hardware adds 4 more symbols)
 562:Middlewares/Third_Party/SubGHz_Phy/stm32_radio_driver/radio.c ****  * \param [IN] fixLen       Fixed length packets [0: variable, 1: fixed]
 563:Middlewares/Third_Party/SubGHz_Phy/stm32_radio_driver/radio.c ****  * \param [IN] payloadLen   Sets payload length when fixed length is used
 564:Middlewares/Third_Party/SubGHz_Phy/stm32_radio_driver/radio.c ****  * \param [IN] crcOn        Enables/Disables the CRC [0: OFF, 1: ON]
 565:Middlewares/Third_Party/SubGHz_Phy/stm32_radio_driver/radio.c ****  * \retval numerator        time on air LoRa numerator
 566:Middlewares/Third_Party/SubGHz_Phy/stm32_radio_driver/radio.c ****  */
 567:Middlewares/Third_Party/SubGHz_Phy/stm32_radio_driver/radio.c **** static uint32_t RadioGetLoRaTimeOnAirNumerator( uint32_t bandwidth,
 568:Middlewares/Third_Party/SubGHz_Phy/stm32_radio_driver/radio.c ****                                                 uint32_t datarate, uint8_t coderate,
 569:Middlewares/Third_Party/SubGHz_Phy/stm32_radio_driver/radio.c ****                                                 uint16_t preambleLen, bool fixLen, uint8_t payloadL
 570:Middlewares/Third_Party/SubGHz_Phy/stm32_radio_driver/radio.c ****                                                 bool crcOn );
 571:Middlewares/Third_Party/SubGHz_Phy/stm32_radio_driver/radio.c **** /* ST_WORKAROUND_END */
 572:Middlewares/Third_Party/SubGHz_Phy/stm32_radio_driver/radio.c **** 
 573:Middlewares/Third_Party/SubGHz_Phy/stm32_radio_driver/radio.c **** /* Private variables ---------------------------------------------------------*/
 574:Middlewares/Third_Party/SubGHz_Phy/stm32_radio_driver/radio.c **** /*!
 575:Middlewares/Third_Party/SubGHz_Phy/stm32_radio_driver/radio.c ****  * Radio driver structure initialization
 576:Middlewares/Third_Party/SubGHz_Phy/stm32_radio_driver/radio.c ****  */
 577:Middlewares/Third_Party/SubGHz_Phy/stm32_radio_driver/radio.c **** const struct Radio_s Radio =
 578:Middlewares/Third_Party/SubGHz_Phy/stm32_radio_driver/radio.c **** {
 579:Middlewares/Third_Party/SubGHz_Phy/stm32_radio_driver/radio.c ****     RadioInit,
 580:Middlewares/Third_Party/SubGHz_Phy/stm32_radio_driver/radio.c ****     RadioGetStatus,
 581:Middlewares/Third_Party/SubGHz_Phy/stm32_radio_driver/radio.c ****     RadioSetModem,
 582:Middlewares/Third_Party/SubGHz_Phy/stm32_radio_driver/radio.c ****     RadioSetChannel,
 583:Middlewares/Third_Party/SubGHz_Phy/stm32_radio_driver/radio.c ****     RadioIsChannelFree,
 584:Middlewares/Third_Party/SubGHz_Phy/stm32_radio_driver/radio.c ****     RadioRandom,
 585:Middlewares/Third_Party/SubGHz_Phy/stm32_radio_driver/radio.c ****     RadioSetRxConfig,
 586:Middlewares/Third_Party/SubGHz_Phy/stm32_radio_driver/radio.c ****     RadioSetTxConfig,
 587:Middlewares/Third_Party/SubGHz_Phy/stm32_radio_driver/radio.c ****     RadioCheckRfFrequency,
 588:Middlewares/Third_Party/SubGHz_Phy/stm32_radio_driver/radio.c ****     RadioTimeOnAir,
 589:Middlewares/Third_Party/SubGHz_Phy/stm32_radio_driver/radio.c ****     RadioSend,
 590:Middlewares/Third_Party/SubGHz_Phy/stm32_radio_driver/radio.c ****     RadioSleep,
 591:Middlewares/Third_Party/SubGHz_Phy/stm32_radio_driver/radio.c ****     RadioStandby,
 592:Middlewares/Third_Party/SubGHz_Phy/stm32_radio_driver/radio.c ****     RadioRx,
 593:Middlewares/Third_Party/SubGHz_Phy/stm32_radio_driver/radio.c ****     RadioStartCad,
 594:Middlewares/Third_Party/SubGHz_Phy/stm32_radio_driver/radio.c ****     RadioSetTxContinuousWave,
 595:Middlewares/Third_Party/SubGHz_Phy/stm32_radio_driver/radio.c ****     RadioRssi,
 596:Middlewares/Third_Party/SubGHz_Phy/stm32_radio_driver/radio.c ****     RadioWrite,
 597:Middlewares/Third_Party/SubGHz_Phy/stm32_radio_driver/radio.c ****     RadioRead,
 598:Middlewares/Third_Party/SubGHz_Phy/stm32_radio_driver/radio.c ****     RadioWriteRegisters,
 599:Middlewares/Third_Party/SubGHz_Phy/stm32_radio_driver/radio.c ****     RadioReadRegisters,
 600:Middlewares/Third_Party/SubGHz_Phy/stm32_radio_driver/radio.c ****     RadioSetMaxPayloadLength,
 601:Middlewares/Third_Party/SubGHz_Phy/stm32_radio_driver/radio.c ****     RadioSetPublicNetwork,
 602:Middlewares/Third_Party/SubGHz_Phy/stm32_radio_driver/radio.c ****     RadioGetWakeupTime,
ARM GAS  /tmp/ccldRdip.s 			page 12


 603:Middlewares/Third_Party/SubGHz_Phy/stm32_radio_driver/radio.c ****     RadioIrqProcess,
 604:Middlewares/Third_Party/SubGHz_Phy/stm32_radio_driver/radio.c ****     RadioRxBoosted,
 605:Middlewares/Third_Party/SubGHz_Phy/stm32_radio_driver/radio.c ****     RadioSetRxDutyCycle,
 606:Middlewares/Third_Party/SubGHz_Phy/stm32_radio_driver/radio.c ****     /* ST_WORKAROUND_BEGIN: extended radio functions */
 607:Middlewares/Third_Party/SubGHz_Phy/stm32_radio_driver/radio.c ****     RadioTxPrbs,
 608:Middlewares/Third_Party/SubGHz_Phy/stm32_radio_driver/radio.c ****     RadioTxCw,
 609:Middlewares/Third_Party/SubGHz_Phy/stm32_radio_driver/radio.c ****     RadioSetRxGenericConfig,
 610:Middlewares/Third_Party/SubGHz_Phy/stm32_radio_driver/radio.c ****     RadioSetTxGenericConfig,
 611:Middlewares/Third_Party/SubGHz_Phy/stm32_radio_driver/radio.c ****     RFW_TransmitLongPacket,
 612:Middlewares/Third_Party/SubGHz_Phy/stm32_radio_driver/radio.c ****     RFW_ReceiveLongPacket
 613:Middlewares/Third_Party/SubGHz_Phy/stm32_radio_driver/radio.c ****     /* ST_WORKAROUND_END */
 614:Middlewares/Third_Party/SubGHz_Phy/stm32_radio_driver/radio.c **** };
 615:Middlewares/Third_Party/SubGHz_Phy/stm32_radio_driver/radio.c **** 
 616:Middlewares/Third_Party/SubGHz_Phy/stm32_radio_driver/radio.c **** const RadioLoRaBandwidths_t Bandwidths[] = { LORA_BW_125, LORA_BW_250, LORA_BW_500 };
 617:Middlewares/Third_Party/SubGHz_Phy/stm32_radio_driver/radio.c **** 
 618:Middlewares/Third_Party/SubGHz_Phy/stm32_radio_driver/radio.c **** static uint8_t MaxPayloadLength = RADIO_BUF_SIZE;
 619:Middlewares/Third_Party/SubGHz_Phy/stm32_radio_driver/radio.c **** 
 620:Middlewares/Third_Party/SubGHz_Phy/stm32_radio_driver/radio.c **** static uint8_t RadioBuffer[RADIO_BUF_SIZE];
 621:Middlewares/Third_Party/SubGHz_Phy/stm32_radio_driver/radio.c **** 
 622:Middlewares/Third_Party/SubGHz_Phy/stm32_radio_driver/radio.c **** /*
 623:Middlewares/Third_Party/SubGHz_Phy/stm32_radio_driver/radio.c ****  * Radio callbacks variable
 624:Middlewares/Third_Party/SubGHz_Phy/stm32_radio_driver/radio.c ****  */
 625:Middlewares/Third_Party/SubGHz_Phy/stm32_radio_driver/radio.c **** static RadioEvents_t* RadioEvents;
 626:Middlewares/Third_Party/SubGHz_Phy/stm32_radio_driver/radio.c **** 
 627:Middlewares/Third_Party/SubGHz_Phy/stm32_radio_driver/radio.c **** /*!
 628:Middlewares/Third_Party/SubGHz_Phy/stm32_radio_driver/radio.c ****  * Radio hardware and global parameters
 629:Middlewares/Third_Party/SubGHz_Phy/stm32_radio_driver/radio.c ****  */
 630:Middlewares/Third_Party/SubGHz_Phy/stm32_radio_driver/radio.c **** SubgRf_t SubgRf;
 631:Middlewares/Third_Party/SubGHz_Phy/stm32_radio_driver/radio.c **** 
 632:Middlewares/Third_Party/SubGHz_Phy/stm32_radio_driver/radio.c **** /*!
 633:Middlewares/Third_Party/SubGHz_Phy/stm32_radio_driver/radio.c ****  * Tx and Rx timers
 634:Middlewares/Third_Party/SubGHz_Phy/stm32_radio_driver/radio.c ****  */
 635:Middlewares/Third_Party/SubGHz_Phy/stm32_radio_driver/radio.c **** TimerEvent_t TxTimeoutTimer;
 636:Middlewares/Third_Party/SubGHz_Phy/stm32_radio_driver/radio.c **** TimerEvent_t RxTimeoutTimer;
 637:Middlewares/Third_Party/SubGHz_Phy/stm32_radio_driver/radio.c **** 
 638:Middlewares/Third_Party/SubGHz_Phy/stm32_radio_driver/radio.c **** /* Private  functions ---------------------------------------------------------*/
 639:Middlewares/Third_Party/SubGHz_Phy/stm32_radio_driver/radio.c **** 
 640:Middlewares/Third_Party/SubGHz_Phy/stm32_radio_driver/radio.c **** static void RadioInit( RadioEvents_t *events )
 641:Middlewares/Third_Party/SubGHz_Phy/stm32_radio_driver/radio.c **** {
 642:Middlewares/Third_Party/SubGHz_Phy/stm32_radio_driver/radio.c ****     RadioEvents = events;
 643:Middlewares/Third_Party/SubGHz_Phy/stm32_radio_driver/radio.c **** 
 644:Middlewares/Third_Party/SubGHz_Phy/stm32_radio_driver/radio.c ****     SubgRf.RxContinuous = false;
 645:Middlewares/Third_Party/SubGHz_Phy/stm32_radio_driver/radio.c ****     SubgRf.TxTimeout = 0;
 646:Middlewares/Third_Party/SubGHz_Phy/stm32_radio_driver/radio.c ****     SubgRf.RxTimeout = 0;
 647:Middlewares/Third_Party/SubGHz_Phy/stm32_radio_driver/radio.c **** 
 648:Middlewares/Third_Party/SubGHz_Phy/stm32_radio_driver/radio.c ****     SUBGRF_Init( RadioOnDioIrq );
 649:Middlewares/Third_Party/SubGHz_Phy/stm32_radio_driver/radio.c ****     /*SubgRf.publicNetwork set to false*/
 650:Middlewares/Third_Party/SubGHz_Phy/stm32_radio_driver/radio.c ****     RadioSetPublicNetwork( false );
 651:Middlewares/Third_Party/SubGHz_Phy/stm32_radio_driver/radio.c **** 
 652:Middlewares/Third_Party/SubGHz_Phy/stm32_radio_driver/radio.c ****     RADIO_IRQ_PROCESS_INIT();
 653:Middlewares/Third_Party/SubGHz_Phy/stm32_radio_driver/radio.c **** 
 654:Middlewares/Third_Party/SubGHz_Phy/stm32_radio_driver/radio.c ****     SUBGRF_SetRegulatorMode(  );
 655:Middlewares/Third_Party/SubGHz_Phy/stm32_radio_driver/radio.c **** 
 656:Middlewares/Third_Party/SubGHz_Phy/stm32_radio_driver/radio.c ****     SUBGRF_SetBufferBaseAddress( 0x00, 0x00 );
 657:Middlewares/Third_Party/SubGHz_Phy/stm32_radio_driver/radio.c ****     SUBGRF_SetTxParams(RFO_LP, 0, RADIO_RAMP_200_US);
 658:Middlewares/Third_Party/SubGHz_Phy/stm32_radio_driver/radio.c ****     SUBGRF_SetDioIrqParams( IRQ_RADIO_ALL, IRQ_RADIO_ALL, IRQ_RADIO_NONE, IRQ_RADIO_NONE );
 659:Middlewares/Third_Party/SubGHz_Phy/stm32_radio_driver/radio.c **** 
ARM GAS  /tmp/ccldRdip.s 			page 13


 660:Middlewares/Third_Party/SubGHz_Phy/stm32_radio_driver/radio.c ****     /* ST_WORKAROUND_BEGIN: Sleep radio */
 661:Middlewares/Third_Party/SubGHz_Phy/stm32_radio_driver/radio.c ****     RadioSleep();
 662:Middlewares/Third_Party/SubGHz_Phy/stm32_radio_driver/radio.c ****     /* ST_WORKAROUND_END */
 663:Middlewares/Third_Party/SubGHz_Phy/stm32_radio_driver/radio.c ****     // Initialize driver timeout timers
 664:Middlewares/Third_Party/SubGHz_Phy/stm32_radio_driver/radio.c ****     TimerInit( &TxTimeoutTimer, RadioOnTxTimeoutIrq );
 665:Middlewares/Third_Party/SubGHz_Phy/stm32_radio_driver/radio.c ****     TimerInit( &RxTimeoutTimer, RadioOnRxTimeoutIrq );
 666:Middlewares/Third_Party/SubGHz_Phy/stm32_radio_driver/radio.c ****     TimerStop( &TxTimeoutTimer );
 667:Middlewares/Third_Party/SubGHz_Phy/stm32_radio_driver/radio.c ****     TimerStop( &RxTimeoutTimer );
 668:Middlewares/Third_Party/SubGHz_Phy/stm32_radio_driver/radio.c **** }
 669:Middlewares/Third_Party/SubGHz_Phy/stm32_radio_driver/radio.c **** 
 670:Middlewares/Third_Party/SubGHz_Phy/stm32_radio_driver/radio.c **** static RadioState_t RadioGetStatus( void )
 671:Middlewares/Third_Party/SubGHz_Phy/stm32_radio_driver/radio.c **** {
 672:Middlewares/Third_Party/SubGHz_Phy/stm32_radio_driver/radio.c ****     switch( SUBGRF_GetOperatingMode( ) )
 673:Middlewares/Third_Party/SubGHz_Phy/stm32_radio_driver/radio.c ****     {
 674:Middlewares/Third_Party/SubGHz_Phy/stm32_radio_driver/radio.c ****         case MODE_TX:
 675:Middlewares/Third_Party/SubGHz_Phy/stm32_radio_driver/radio.c ****             return RF_TX_RUNNING;
 676:Middlewares/Third_Party/SubGHz_Phy/stm32_radio_driver/radio.c ****         case MODE_RX:
 677:Middlewares/Third_Party/SubGHz_Phy/stm32_radio_driver/radio.c ****             return RF_RX_RUNNING;
 678:Middlewares/Third_Party/SubGHz_Phy/stm32_radio_driver/radio.c ****         case MODE_CAD:
 679:Middlewares/Third_Party/SubGHz_Phy/stm32_radio_driver/radio.c ****             return RF_CAD;
 680:Middlewares/Third_Party/SubGHz_Phy/stm32_radio_driver/radio.c ****         default:
 681:Middlewares/Third_Party/SubGHz_Phy/stm32_radio_driver/radio.c ****             return RF_IDLE;
 682:Middlewares/Third_Party/SubGHz_Phy/stm32_radio_driver/radio.c ****     }
 683:Middlewares/Third_Party/SubGHz_Phy/stm32_radio_driver/radio.c **** }
 684:Middlewares/Third_Party/SubGHz_Phy/stm32_radio_driver/radio.c **** 
 685:Middlewares/Third_Party/SubGHz_Phy/stm32_radio_driver/radio.c **** static void RadioSetModem( RadioModems_t modem )
 686:Middlewares/Third_Party/SubGHz_Phy/stm32_radio_driver/radio.c **** {
 687:Middlewares/Third_Party/SubGHz_Phy/stm32_radio_driver/radio.c ****     SubgRf.Modem = modem;
 688:Middlewares/Third_Party/SubGHz_Phy/stm32_radio_driver/radio.c ****     RFW_SetRadioModem(modem);
 689:Middlewares/Third_Party/SubGHz_Phy/stm32_radio_driver/radio.c ****     switch( modem )
 690:Middlewares/Third_Party/SubGHz_Phy/stm32_radio_driver/radio.c ****     {
 691:Middlewares/Third_Party/SubGHz_Phy/stm32_radio_driver/radio.c ****     default:
 692:Middlewares/Third_Party/SubGHz_Phy/stm32_radio_driver/radio.c ****     case MODEM_FSK:
 693:Middlewares/Third_Party/SubGHz_Phy/stm32_radio_driver/radio.c ****         SUBGRF_SetPacketType( PACKET_TYPE_GFSK );
 694:Middlewares/Third_Party/SubGHz_Phy/stm32_radio_driver/radio.c ****         // When switching to GFSK mode the LoRa SyncWord register value is reset
 695:Middlewares/Third_Party/SubGHz_Phy/stm32_radio_driver/radio.c ****         // Thus, we also reset the RadioPublicNetwork variable
 696:Middlewares/Third_Party/SubGHz_Phy/stm32_radio_driver/radio.c ****         SubgRf.PublicNetwork.Current = false;
 697:Middlewares/Third_Party/SubGHz_Phy/stm32_radio_driver/radio.c ****         break;
 698:Middlewares/Third_Party/SubGHz_Phy/stm32_radio_driver/radio.c ****     case MODEM_LORA:
 699:Middlewares/Third_Party/SubGHz_Phy/stm32_radio_driver/radio.c ****         SUBGRF_SetPacketType( PACKET_TYPE_LORA );
 700:Middlewares/Third_Party/SubGHz_Phy/stm32_radio_driver/radio.c ****         // Public/Private network register is reset when switching modems
 701:Middlewares/Third_Party/SubGHz_Phy/stm32_radio_driver/radio.c ****         if( SubgRf.PublicNetwork.Current != SubgRf.PublicNetwork.Previous )
 702:Middlewares/Third_Party/SubGHz_Phy/stm32_radio_driver/radio.c ****         {
 703:Middlewares/Third_Party/SubGHz_Phy/stm32_radio_driver/radio.c ****             SubgRf.PublicNetwork.Current = SubgRf.PublicNetwork.Previous;
 704:Middlewares/Third_Party/SubGHz_Phy/stm32_radio_driver/radio.c ****             RadioSetPublicNetwork( SubgRf.PublicNetwork.Current );
 705:Middlewares/Third_Party/SubGHz_Phy/stm32_radio_driver/radio.c ****         }
 706:Middlewares/Third_Party/SubGHz_Phy/stm32_radio_driver/radio.c ****         break;
 707:Middlewares/Third_Party/SubGHz_Phy/stm32_radio_driver/radio.c ****     case MODEM_BPSK:
 708:Middlewares/Third_Party/SubGHz_Phy/stm32_radio_driver/radio.c ****         SUBGRF_SetPacketType( PACKET_TYPE_BPSK );
 709:Middlewares/Third_Party/SubGHz_Phy/stm32_radio_driver/radio.c ****         // When switching to BPSK mode the LoRa SyncWord register value is reset
 710:Middlewares/Third_Party/SubGHz_Phy/stm32_radio_driver/radio.c ****         // Thus, we also reset the RadioPublicNetwork variable
 711:Middlewares/Third_Party/SubGHz_Phy/stm32_radio_driver/radio.c ****         SubgRf.PublicNetwork.Current = false;
 712:Middlewares/Third_Party/SubGHz_Phy/stm32_radio_driver/radio.c ****         break;
 713:Middlewares/Third_Party/SubGHz_Phy/stm32_radio_driver/radio.c ****     case MODEM_SIGFOX_TX:
 714:Middlewares/Third_Party/SubGHz_Phy/stm32_radio_driver/radio.c ****         SUBGRF_SetPacketType( PACKET_TYPE_BPSK );
 715:Middlewares/Third_Party/SubGHz_Phy/stm32_radio_driver/radio.c ****         // When switching to BPSK mode the LoRa SyncWord register value is reset
 716:Middlewares/Third_Party/SubGHz_Phy/stm32_radio_driver/radio.c ****         // Thus, we also reset the RadioPublicNetwork variable
ARM GAS  /tmp/ccldRdip.s 			page 14


 717:Middlewares/Third_Party/SubGHz_Phy/stm32_radio_driver/radio.c ****         SubgRf.PublicNetwork.Current = false;
 718:Middlewares/Third_Party/SubGHz_Phy/stm32_radio_driver/radio.c ****         break;
 719:Middlewares/Third_Party/SubGHz_Phy/stm32_radio_driver/radio.c ****     case MODEM_SIGFOX_RX:
 720:Middlewares/Third_Party/SubGHz_Phy/stm32_radio_driver/radio.c ****         SUBGRF_SetPacketType( PACKET_TYPE_GFSK );
 721:Middlewares/Third_Party/SubGHz_Phy/stm32_radio_driver/radio.c ****         // When switching to GFSK mode the LoRa SyncWord register value is reset
 722:Middlewares/Third_Party/SubGHz_Phy/stm32_radio_driver/radio.c ****         // Thus, we also reset the RadioPublicNetwork variable
 723:Middlewares/Third_Party/SubGHz_Phy/stm32_radio_driver/radio.c ****         SubgRf.PublicNetwork.Current = false;
 724:Middlewares/Third_Party/SubGHz_Phy/stm32_radio_driver/radio.c ****         break;
 725:Middlewares/Third_Party/SubGHz_Phy/stm32_radio_driver/radio.c ****     }
 726:Middlewares/Third_Party/SubGHz_Phy/stm32_radio_driver/radio.c **** }
 727:Middlewares/Third_Party/SubGHz_Phy/stm32_radio_driver/radio.c **** 
 728:Middlewares/Third_Party/SubGHz_Phy/stm32_radio_driver/radio.c **** static void RadioSetChannel( uint32_t freq )
 729:Middlewares/Third_Party/SubGHz_Phy/stm32_radio_driver/radio.c **** {
 730:Middlewares/Third_Party/SubGHz_Phy/stm32_radio_driver/radio.c ****     SUBGRF_SetRfFrequency( freq );
 731:Middlewares/Third_Party/SubGHz_Phy/stm32_radio_driver/radio.c **** }
 732:Middlewares/Third_Party/SubGHz_Phy/stm32_radio_driver/radio.c **** 
 733:Middlewares/Third_Party/SubGHz_Phy/stm32_radio_driver/radio.c **** static bool RadioIsChannelFree( uint32_t freq, uint32_t rxBandwidth, int16_t rssiThresh, uint32_t m
 734:Middlewares/Third_Party/SubGHz_Phy/stm32_radio_driver/radio.c **** {
 735:Middlewares/Third_Party/SubGHz_Phy/stm32_radio_driver/radio.c ****     bool status = true;
 736:Middlewares/Third_Party/SubGHz_Phy/stm32_radio_driver/radio.c ****     int16_t rssi = 0;
 737:Middlewares/Third_Party/SubGHz_Phy/stm32_radio_driver/radio.c ****     uint32_t carrierSenseTime = 0;
 738:Middlewares/Third_Party/SubGHz_Phy/stm32_radio_driver/radio.c **** 
 739:Middlewares/Third_Party/SubGHz_Phy/stm32_radio_driver/radio.c ****     /* ST_WORKAROUND_BEGIN: Prevent multiple sleeps with TXCO delay */
 740:Middlewares/Third_Party/SubGHz_Phy/stm32_radio_driver/radio.c ****     RadioStandby( );
 741:Middlewares/Third_Party/SubGHz_Phy/stm32_radio_driver/radio.c ****     /* ST_WORKAROUND_END */
 742:Middlewares/Third_Party/SubGHz_Phy/stm32_radio_driver/radio.c **** 
 743:Middlewares/Third_Party/SubGHz_Phy/stm32_radio_driver/radio.c ****     RadioSetModem( MODEM_FSK );
 744:Middlewares/Third_Party/SubGHz_Phy/stm32_radio_driver/radio.c **** 
 745:Middlewares/Third_Party/SubGHz_Phy/stm32_radio_driver/radio.c ****     RadioSetChannel( freq );
 746:Middlewares/Third_Party/SubGHz_Phy/stm32_radio_driver/radio.c **** 
 747:Middlewares/Third_Party/SubGHz_Phy/stm32_radio_driver/radio.c ****     // Set Rx bandwidth. Other parameters are not used.
 748:Middlewares/Third_Party/SubGHz_Phy/stm32_radio_driver/radio.c ****     RadioSetRxConfig( MODEM_FSK, rxBandwidth, 600, 0, rxBandwidth, 3, 0, false,
 749:Middlewares/Third_Party/SubGHz_Phy/stm32_radio_driver/radio.c ****                       0, false, 0, 0, false, true );
 750:Middlewares/Third_Party/SubGHz_Phy/stm32_radio_driver/radio.c ****     RadioRx( 0 );
 751:Middlewares/Third_Party/SubGHz_Phy/stm32_radio_driver/radio.c **** 
 752:Middlewares/Third_Party/SubGHz_Phy/stm32_radio_driver/radio.c ****     RADIO_DELAY_MS( RadioGetWakeupTime( ) );
 753:Middlewares/Third_Party/SubGHz_Phy/stm32_radio_driver/radio.c **** 
 754:Middlewares/Third_Party/SubGHz_Phy/stm32_radio_driver/radio.c ****     carrierSenseTime = TimerGetCurrentTime( );
 755:Middlewares/Third_Party/SubGHz_Phy/stm32_radio_driver/radio.c **** 
 756:Middlewares/Third_Party/SubGHz_Phy/stm32_radio_driver/radio.c ****     // Perform carrier sense for maxCarrierSenseTime
 757:Middlewares/Third_Party/SubGHz_Phy/stm32_radio_driver/radio.c ****     while( TimerGetElapsedTime( carrierSenseTime ) < maxCarrierSenseTime )
 758:Middlewares/Third_Party/SubGHz_Phy/stm32_radio_driver/radio.c ****     {
 759:Middlewares/Third_Party/SubGHz_Phy/stm32_radio_driver/radio.c ****         rssi = RadioRssi( MODEM_FSK );
 760:Middlewares/Third_Party/SubGHz_Phy/stm32_radio_driver/radio.c **** 
 761:Middlewares/Third_Party/SubGHz_Phy/stm32_radio_driver/radio.c ****         if( rssi > rssiThresh )
 762:Middlewares/Third_Party/SubGHz_Phy/stm32_radio_driver/radio.c ****         {
 763:Middlewares/Third_Party/SubGHz_Phy/stm32_radio_driver/radio.c ****             status = false;
 764:Middlewares/Third_Party/SubGHz_Phy/stm32_radio_driver/radio.c ****             break;
 765:Middlewares/Third_Party/SubGHz_Phy/stm32_radio_driver/radio.c ****         }
 766:Middlewares/Third_Party/SubGHz_Phy/stm32_radio_driver/radio.c ****     }
 767:Middlewares/Third_Party/SubGHz_Phy/stm32_radio_driver/radio.c ****     /* ST_WORKAROUND_BEGIN: Prevent multiple sleeps with TXCO delay */
 768:Middlewares/Third_Party/SubGHz_Phy/stm32_radio_driver/radio.c ****     RadioStandby( );
 769:Middlewares/Third_Party/SubGHz_Phy/stm32_radio_driver/radio.c ****     /* ST_WORKAROUND_END */
 770:Middlewares/Third_Party/SubGHz_Phy/stm32_radio_driver/radio.c ****     return status;
 771:Middlewares/Third_Party/SubGHz_Phy/stm32_radio_driver/radio.c **** }
 772:Middlewares/Third_Party/SubGHz_Phy/stm32_radio_driver/radio.c **** 
 773:Middlewares/Third_Party/SubGHz_Phy/stm32_radio_driver/radio.c **** static uint32_t RadioRandom( void )
ARM GAS  /tmp/ccldRdip.s 			page 15


 774:Middlewares/Third_Party/SubGHz_Phy/stm32_radio_driver/radio.c **** {
 775:Middlewares/Third_Party/SubGHz_Phy/stm32_radio_driver/radio.c ****     uint32_t rnd = 0;
 776:Middlewares/Third_Party/SubGHz_Phy/stm32_radio_driver/radio.c **** 
 777:Middlewares/Third_Party/SubGHz_Phy/stm32_radio_driver/radio.c ****     /*
 778:Middlewares/Third_Party/SubGHz_Phy/stm32_radio_driver/radio.c ****      * Radio setup for random number generation
 779:Middlewares/Third_Party/SubGHz_Phy/stm32_radio_driver/radio.c ****      */
 780:Middlewares/Third_Party/SubGHz_Phy/stm32_radio_driver/radio.c ****     // Set LoRa modem ON
 781:Middlewares/Third_Party/SubGHz_Phy/stm32_radio_driver/radio.c ****     RadioSetModem( MODEM_LORA );
 782:Middlewares/Third_Party/SubGHz_Phy/stm32_radio_driver/radio.c **** 
 783:Middlewares/Third_Party/SubGHz_Phy/stm32_radio_driver/radio.c ****     // Disable LoRa modem interrupts
 784:Middlewares/Third_Party/SubGHz_Phy/stm32_radio_driver/radio.c ****     SUBGRF_SetDioIrqParams( IRQ_RADIO_NONE, IRQ_RADIO_NONE, IRQ_RADIO_NONE, IRQ_RADIO_NONE );
 785:Middlewares/Third_Party/SubGHz_Phy/stm32_radio_driver/radio.c **** 
 786:Middlewares/Third_Party/SubGHz_Phy/stm32_radio_driver/radio.c ****     rnd = SUBGRF_GetRandom();
 787:Middlewares/Third_Party/SubGHz_Phy/stm32_radio_driver/radio.c **** 
 788:Middlewares/Third_Party/SubGHz_Phy/stm32_radio_driver/radio.c ****     return rnd;
 789:Middlewares/Third_Party/SubGHz_Phy/stm32_radio_driver/radio.c **** }
 790:Middlewares/Third_Party/SubGHz_Phy/stm32_radio_driver/radio.c **** 
 791:Middlewares/Third_Party/SubGHz_Phy/stm32_radio_driver/radio.c **** static void RadioSetRxConfig( RadioModems_t modem, uint32_t bandwidth,
 792:Middlewares/Third_Party/SubGHz_Phy/stm32_radio_driver/radio.c ****                               uint32_t datarate, uint8_t coderate,
 793:Middlewares/Third_Party/SubGHz_Phy/stm32_radio_driver/radio.c ****                               uint32_t bandwidthAfc, uint16_t preambleLen,
 794:Middlewares/Third_Party/SubGHz_Phy/stm32_radio_driver/radio.c ****                               uint16_t symbTimeout, bool fixLen,
 795:Middlewares/Third_Party/SubGHz_Phy/stm32_radio_driver/radio.c ****                               uint8_t payloadLen,
 796:Middlewares/Third_Party/SubGHz_Phy/stm32_radio_driver/radio.c ****                               bool crcOn, bool freqHopOn, uint8_t hopPeriod,
 797:Middlewares/Third_Party/SubGHz_Phy/stm32_radio_driver/radio.c ****                               bool iqInverted, bool rxContinuous )
 798:Middlewares/Third_Party/SubGHz_Phy/stm32_radio_driver/radio.c **** {
 799:Middlewares/Third_Party/SubGHz_Phy/stm32_radio_driver/radio.c **** 
 800:Middlewares/Third_Party/SubGHz_Phy/stm32_radio_driver/radio.c ****     uint8_t modReg;
 801:Middlewares/Third_Party/SubGHz_Phy/stm32_radio_driver/radio.c ****     SubgRf.RxContinuous = rxContinuous;
 802:Middlewares/Third_Party/SubGHz_Phy/stm32_radio_driver/radio.c ****     RFW_DeInit(); /* ST_WORKAROUND: Switch Off FwPacketDecoding by default */
 803:Middlewares/Third_Party/SubGHz_Phy/stm32_radio_driver/radio.c ****     if( rxContinuous == true )
 804:Middlewares/Third_Party/SubGHz_Phy/stm32_radio_driver/radio.c ****     {
 805:Middlewares/Third_Party/SubGHz_Phy/stm32_radio_driver/radio.c ****         symbTimeout = 0;
 806:Middlewares/Third_Party/SubGHz_Phy/stm32_radio_driver/radio.c ****     }
 807:Middlewares/Third_Party/SubGHz_Phy/stm32_radio_driver/radio.c ****     if( fixLen == true )
 808:Middlewares/Third_Party/SubGHz_Phy/stm32_radio_driver/radio.c ****     {
 809:Middlewares/Third_Party/SubGHz_Phy/stm32_radio_driver/radio.c ****         MaxPayloadLength = payloadLen;
 810:Middlewares/Third_Party/SubGHz_Phy/stm32_radio_driver/radio.c ****     }
 811:Middlewares/Third_Party/SubGHz_Phy/stm32_radio_driver/radio.c ****     else
 812:Middlewares/Third_Party/SubGHz_Phy/stm32_radio_driver/radio.c ****     {
 813:Middlewares/Third_Party/SubGHz_Phy/stm32_radio_driver/radio.c ****         MaxPayloadLength = 0xFF;
 814:Middlewares/Third_Party/SubGHz_Phy/stm32_radio_driver/radio.c ****     }
 815:Middlewares/Third_Party/SubGHz_Phy/stm32_radio_driver/radio.c **** 
 816:Middlewares/Third_Party/SubGHz_Phy/stm32_radio_driver/radio.c ****     switch( modem )
 817:Middlewares/Third_Party/SubGHz_Phy/stm32_radio_driver/radio.c ****     {
 818:Middlewares/Third_Party/SubGHz_Phy/stm32_radio_driver/radio.c ****         case MODEM_SIGFOX_RX:
 819:Middlewares/Third_Party/SubGHz_Phy/stm32_radio_driver/radio.c ****             SUBGRF_SetStopRxTimerOnPreambleDetect( true );
 820:Middlewares/Third_Party/SubGHz_Phy/stm32_radio_driver/radio.c ****             SubgRf.ModulationParams.PacketType = PACKET_TYPE_GFSK;
 821:Middlewares/Third_Party/SubGHz_Phy/stm32_radio_driver/radio.c **** 
 822:Middlewares/Third_Party/SubGHz_Phy/stm32_radio_driver/radio.c ****             SubgRf.ModulationParams.Params.Gfsk.BitRate = datarate;
 823:Middlewares/Third_Party/SubGHz_Phy/stm32_radio_driver/radio.c ****             SubgRf.ModulationParams.Params.Gfsk.ModulationShaping = MOD_SHAPING_G_BT_05;
 824:Middlewares/Third_Party/SubGHz_Phy/stm32_radio_driver/radio.c ****             SubgRf.ModulationParams.Params.Gfsk.Fdev = 800;
 825:Middlewares/Third_Party/SubGHz_Phy/stm32_radio_driver/radio.c ****             SubgRf.ModulationParams.Params.Gfsk.Bandwidth = SUBGRF_GetFskBandwidthRegValue( bandwid
 826:Middlewares/Third_Party/SubGHz_Phy/stm32_radio_driver/radio.c **** 
 827:Middlewares/Third_Party/SubGHz_Phy/stm32_radio_driver/radio.c ****             SubgRf.PacketParams.PacketType = PACKET_TYPE_GFSK;
 828:Middlewares/Third_Party/SubGHz_Phy/stm32_radio_driver/radio.c ****             SubgRf.PacketParams.Params.Gfsk.PreambleLength = ( preambleLen << 3 ); // convert byte 
 829:Middlewares/Third_Party/SubGHz_Phy/stm32_radio_driver/radio.c ****             SubgRf.PacketParams.Params.Gfsk.PreambleMinDetect = RADIO_PREAMBLE_DETECTOR_OFF;
 830:Middlewares/Third_Party/SubGHz_Phy/stm32_radio_driver/radio.c ****             SubgRf.PacketParams.Params.Gfsk.SyncWordLength = 2 << 3; // convert byte into bit
ARM GAS  /tmp/ccldRdip.s 			page 16


 831:Middlewares/Third_Party/SubGHz_Phy/stm32_radio_driver/radio.c ****             SubgRf.PacketParams.Params.Gfsk.AddrComp = RADIO_ADDRESSCOMP_FILT_OFF;
 832:Middlewares/Third_Party/SubGHz_Phy/stm32_radio_driver/radio.c ****             SubgRf.PacketParams.Params.Gfsk.HeaderType = RADIO_PACKET_FIXED_LENGTH;
 833:Middlewares/Third_Party/SubGHz_Phy/stm32_radio_driver/radio.c ****             SubgRf.PacketParams.Params.Gfsk.PayloadLength = MaxPayloadLength;
 834:Middlewares/Third_Party/SubGHz_Phy/stm32_radio_driver/radio.c ****             SubgRf.PacketParams.Params.Gfsk.CrcLength = RADIO_CRC_OFF;
 835:Middlewares/Third_Party/SubGHz_Phy/stm32_radio_driver/radio.c **** 
 836:Middlewares/Third_Party/SubGHz_Phy/stm32_radio_driver/radio.c ****             SubgRf.PacketParams.Params.Gfsk.DcFree = RADIO_DC_FREE_OFF;
 837:Middlewares/Third_Party/SubGHz_Phy/stm32_radio_driver/radio.c **** 
 838:Middlewares/Third_Party/SubGHz_Phy/stm32_radio_driver/radio.c ****             RadioSetModem( MODEM_SIGFOX_RX );
 839:Middlewares/Third_Party/SubGHz_Phy/stm32_radio_driver/radio.c ****             SUBGRF_SetModulationParams( &SubgRf.ModulationParams );
 840:Middlewares/Third_Party/SubGHz_Phy/stm32_radio_driver/radio.c ****             SUBGRF_SetPacketParams( &SubgRf.PacketParams );
 841:Middlewares/Third_Party/SubGHz_Phy/stm32_radio_driver/radio.c ****             SUBGRF_SetSyncWord( ( uint8_t[] ){0xB2, 0x27, 0x00, 0x00, 0x00, 0x00, 0x00, 0x00 } );
 842:Middlewares/Third_Party/SubGHz_Phy/stm32_radio_driver/radio.c ****             SUBGRF_SetWhiteningSeed( 0x01FF );
 843:Middlewares/Third_Party/SubGHz_Phy/stm32_radio_driver/radio.c **** 
 844:Middlewares/Third_Party/SubGHz_Phy/stm32_radio_driver/radio.c ****             /* NO gfo reset (better sensitivity). Reg 0x8b8, bit4 = 0 */
 845:Middlewares/Third_Party/SubGHz_Phy/stm32_radio_driver/radio.c ****             modReg= RadioRead(0x8b8);
 846:Middlewares/Third_Party/SubGHz_Phy/stm32_radio_driver/radio.c ****             modReg&=RADIO_BIT_MASK(4);
 847:Middlewares/Third_Party/SubGHz_Phy/stm32_radio_driver/radio.c ****             RadioWrite(0x8b8, modReg);
 848:Middlewares/Third_Party/SubGHz_Phy/stm32_radio_driver/radio.c ****             /* Lower the threshold of cfo_reset */
 849:Middlewares/Third_Party/SubGHz_Phy/stm32_radio_driver/radio.c ****             RadioWrite(0x8b9, 0x4 );
 850:Middlewares/Third_Party/SubGHz_Phy/stm32_radio_driver/radio.c **** 
 851:Middlewares/Third_Party/SubGHz_Phy/stm32_radio_driver/radio.c ****             /* Bigger rssi_len (stability AGC). Reg 0x89b, bits[2 :4] = 0x1 */
 852:Middlewares/Third_Party/SubGHz_Phy/stm32_radio_driver/radio.c ****             modReg= RadioRead(0x89b);
 853:Middlewares/Third_Party/SubGHz_Phy/stm32_radio_driver/radio.c ****             modReg&=( RADIO_BIT_MASK(2) & RADIO_BIT_MASK(3) & RADIO_BIT_MASK(4) );
 854:Middlewares/Third_Party/SubGHz_Phy/stm32_radio_driver/radio.c ****             RadioWrite(0x89b, (modReg| (0x1<<3) ) );
 855:Middlewares/Third_Party/SubGHz_Phy/stm32_radio_driver/radio.c **** 
 856:Middlewares/Third_Party/SubGHz_Phy/stm32_radio_driver/radio.c ****             /* Bigger afc_pbl_len (better frequency correction). Reg 0x6d1, bits[3 :4] = 0x3 */
 857:Middlewares/Third_Party/SubGHz_Phy/stm32_radio_driver/radio.c ****             modReg= RadioRead(0x6d1);
 858:Middlewares/Third_Party/SubGHz_Phy/stm32_radio_driver/radio.c ****             modReg&=( RADIO_BIT_MASK(3) & RADIO_BIT_MASK(4) );
 859:Middlewares/Third_Party/SubGHz_Phy/stm32_radio_driver/radio.c ****             RadioWrite(0x6d1, (modReg| (0x3<<3) ));
 860:Middlewares/Third_Party/SubGHz_Phy/stm32_radio_driver/radio.c **** 
 861:Middlewares/Third_Party/SubGHz_Phy/stm32_radio_driver/radio.c ****             /* Use of new bit synchronizer (to avoid CRC errors during PER for payloads with a smal
 862:Middlewares/Third_Party/SubGHz_Phy/stm32_radio_driver/radio.c ****             modReg= RadioRead(0x6ac);
 863:Middlewares/Third_Party/SubGHz_Phy/stm32_radio_driver/radio.c ****             modReg&=( RADIO_BIT_MASK(4) & RADIO_BIT_MASK(5) & RADIO_BIT_MASK(6) );
 864:Middlewares/Third_Party/SubGHz_Phy/stm32_radio_driver/radio.c ****             RadioWrite(0x6ac, (modReg| (0x5<<4) ));
 865:Middlewares/Third_Party/SubGHz_Phy/stm32_radio_driver/radio.c ****             /*timeout unused when SubgRf.RxContinuous*/
 866:Middlewares/Third_Party/SubGHz_Phy/stm32_radio_driver/radio.c ****             SubgRf.RxTimeout = ( uint32_t )(( symbTimeout * 8 * 1000 ) /datarate);
 867:Middlewares/Third_Party/SubGHz_Phy/stm32_radio_driver/radio.c ****             break;
 868:Middlewares/Third_Party/SubGHz_Phy/stm32_radio_driver/radio.c ****         case MODEM_FSK:
 869:Middlewares/Third_Party/SubGHz_Phy/stm32_radio_driver/radio.c ****             SUBGRF_SetStopRxTimerOnPreambleDetect( false );
 870:Middlewares/Third_Party/SubGHz_Phy/stm32_radio_driver/radio.c ****             SubgRf.ModulationParams.PacketType = PACKET_TYPE_GFSK;
 871:Middlewares/Third_Party/SubGHz_Phy/stm32_radio_driver/radio.c **** 
 872:Middlewares/Third_Party/SubGHz_Phy/stm32_radio_driver/radio.c ****             SubgRf.ModulationParams.Params.Gfsk.BitRate = datarate;
 873:Middlewares/Third_Party/SubGHz_Phy/stm32_radio_driver/radio.c ****             SubgRf.ModulationParams.Params.Gfsk.ModulationShaping = MOD_SHAPING_G_BT_1;
 874:Middlewares/Third_Party/SubGHz_Phy/stm32_radio_driver/radio.c ****             SubgRf.ModulationParams.Params.Gfsk.Bandwidth = SUBGRF_GetFskBandwidthRegValue( bandwid
 875:Middlewares/Third_Party/SubGHz_Phy/stm32_radio_driver/radio.c **** 
 876:Middlewares/Third_Party/SubGHz_Phy/stm32_radio_driver/radio.c ****             SubgRf.PacketParams.PacketType = PACKET_TYPE_GFSK;
 877:Middlewares/Third_Party/SubGHz_Phy/stm32_radio_driver/radio.c ****             SubgRf.PacketParams.Params.Gfsk.PreambleLength = ( preambleLen << 3 ); // convert byte 
 878:Middlewares/Third_Party/SubGHz_Phy/stm32_radio_driver/radio.c ****             SubgRf.PacketParams.Params.Gfsk.PreambleMinDetect = RADIO_PREAMBLE_DETECTOR_08_BITS;
 879:Middlewares/Third_Party/SubGHz_Phy/stm32_radio_driver/radio.c ****             SubgRf.PacketParams.Params.Gfsk.SyncWordLength = 3 << 3; // convert byte into bit
 880:Middlewares/Third_Party/SubGHz_Phy/stm32_radio_driver/radio.c ****             SubgRf.PacketParams.Params.Gfsk.AddrComp = RADIO_ADDRESSCOMP_FILT_OFF;
 881:Middlewares/Third_Party/SubGHz_Phy/stm32_radio_driver/radio.c ****             SubgRf.PacketParams.Params.Gfsk.HeaderType = ( fixLen == true ) ? RADIO_PACKET_FIXED_LE
 882:Middlewares/Third_Party/SubGHz_Phy/stm32_radio_driver/radio.c ****             SubgRf.PacketParams.Params.Gfsk.PayloadLength = MaxPayloadLength;
 883:Middlewares/Third_Party/SubGHz_Phy/stm32_radio_driver/radio.c ****             if( crcOn == true )
 884:Middlewares/Third_Party/SubGHz_Phy/stm32_radio_driver/radio.c ****             {
 885:Middlewares/Third_Party/SubGHz_Phy/stm32_radio_driver/radio.c ****                 SubgRf.PacketParams.Params.Gfsk.CrcLength = RADIO_CRC_2_BYTES_CCIT;
 886:Middlewares/Third_Party/SubGHz_Phy/stm32_radio_driver/radio.c ****             }
 887:Middlewares/Third_Party/SubGHz_Phy/stm32_radio_driver/radio.c ****             else
ARM GAS  /tmp/ccldRdip.s 			page 17


 888:Middlewares/Third_Party/SubGHz_Phy/stm32_radio_driver/radio.c ****             {
 889:Middlewares/Third_Party/SubGHz_Phy/stm32_radio_driver/radio.c ****                 SubgRf.PacketParams.Params.Gfsk.CrcLength = RADIO_CRC_OFF;
 890:Middlewares/Third_Party/SubGHz_Phy/stm32_radio_driver/radio.c ****             }
 891:Middlewares/Third_Party/SubGHz_Phy/stm32_radio_driver/radio.c ****             SubgRf.PacketParams.Params.Gfsk.DcFree = RADIO_DC_FREEWHITENING;
 892:Middlewares/Third_Party/SubGHz_Phy/stm32_radio_driver/radio.c **** 
 893:Middlewares/Third_Party/SubGHz_Phy/stm32_radio_driver/radio.c ****             RadioStandby( );
 894:Middlewares/Third_Party/SubGHz_Phy/stm32_radio_driver/radio.c ****             RadioSetModem( ( SubgRf.ModulationParams.PacketType == PACKET_TYPE_GFSK ) ? MODEM_FSK :
 895:Middlewares/Third_Party/SubGHz_Phy/stm32_radio_driver/radio.c ****             SUBGRF_SetModulationParams( &SubgRf.ModulationParams );
 896:Middlewares/Third_Party/SubGHz_Phy/stm32_radio_driver/radio.c ****             SUBGRF_SetPacketParams( &SubgRf.PacketParams );
 897:Middlewares/Third_Party/SubGHz_Phy/stm32_radio_driver/radio.c ****             SUBGRF_SetSyncWord( ( uint8_t[] ){ 0xC1, 0x94, 0xC1, 0x00, 0x00, 0x00, 0x00, 0x00 } );
 898:Middlewares/Third_Party/SubGHz_Phy/stm32_radio_driver/radio.c ****             SUBGRF_SetWhiteningSeed( 0x01FF );
 899:Middlewares/Third_Party/SubGHz_Phy/stm32_radio_driver/radio.c **** 
 900:Middlewares/Third_Party/SubGHz_Phy/stm32_radio_driver/radio.c ****             /*timeout unused when SubgRf.RxContinuous*/
 901:Middlewares/Third_Party/SubGHz_Phy/stm32_radio_driver/radio.c ****             SubgRf.RxTimeout = ( uint32_t )(( symbTimeout * 8 * 1000 ) /datarate);
 902:Middlewares/Third_Party/SubGHz_Phy/stm32_radio_driver/radio.c ****             break;
 903:Middlewares/Third_Party/SubGHz_Phy/stm32_radio_driver/radio.c **** 
 904:Middlewares/Third_Party/SubGHz_Phy/stm32_radio_driver/radio.c ****         case MODEM_LORA:
 905:Middlewares/Third_Party/SubGHz_Phy/stm32_radio_driver/radio.c ****             SUBGRF_SetStopRxTimerOnPreambleDetect( false );
 906:Middlewares/Third_Party/SubGHz_Phy/stm32_radio_driver/radio.c ****             SubgRf.ModulationParams.PacketType = PACKET_TYPE_LORA;
 907:Middlewares/Third_Party/SubGHz_Phy/stm32_radio_driver/radio.c ****             SubgRf.ModulationParams.Params.LoRa.SpreadingFactor = ( RadioLoRaSpreadingFactors_t )da
 908:Middlewares/Third_Party/SubGHz_Phy/stm32_radio_driver/radio.c ****             SubgRf.ModulationParams.Params.LoRa.Bandwidth = Bandwidths[bandwidth];
 909:Middlewares/Third_Party/SubGHz_Phy/stm32_radio_driver/radio.c ****             SubgRf.ModulationParams.Params.LoRa.CodingRate = ( RadioLoRaCodingRates_t )coderate;
 910:Middlewares/Third_Party/SubGHz_Phy/stm32_radio_driver/radio.c **** 
 911:Middlewares/Third_Party/SubGHz_Phy/stm32_radio_driver/radio.c ****             if( ( ( bandwidth == 0 ) && ( ( datarate == 11 ) || ( datarate == 12 ) ) ) ||
 912:Middlewares/Third_Party/SubGHz_Phy/stm32_radio_driver/radio.c ****                 ( ( bandwidth == 1 ) && ( datarate == 12 ) ) )
 913:Middlewares/Third_Party/SubGHz_Phy/stm32_radio_driver/radio.c ****             {
 914:Middlewares/Third_Party/SubGHz_Phy/stm32_radio_driver/radio.c ****                 SubgRf.ModulationParams.Params.LoRa.LowDatarateOptimize = 0x01;
 915:Middlewares/Third_Party/SubGHz_Phy/stm32_radio_driver/radio.c ****             }
 916:Middlewares/Third_Party/SubGHz_Phy/stm32_radio_driver/radio.c ****             else
 917:Middlewares/Third_Party/SubGHz_Phy/stm32_radio_driver/radio.c ****             {
 918:Middlewares/Third_Party/SubGHz_Phy/stm32_radio_driver/radio.c ****                 SubgRf.ModulationParams.Params.LoRa.LowDatarateOptimize = 0x00;
 919:Middlewares/Third_Party/SubGHz_Phy/stm32_radio_driver/radio.c ****             }
 920:Middlewares/Third_Party/SubGHz_Phy/stm32_radio_driver/radio.c **** 
 921:Middlewares/Third_Party/SubGHz_Phy/stm32_radio_driver/radio.c ****             SubgRf.PacketParams.PacketType = PACKET_TYPE_LORA;
 922:Middlewares/Third_Party/SubGHz_Phy/stm32_radio_driver/radio.c **** 
 923:Middlewares/Third_Party/SubGHz_Phy/stm32_radio_driver/radio.c ****             if( ( SubgRf.ModulationParams.Params.LoRa.SpreadingFactor == LORA_SF5 ) ||
 924:Middlewares/Third_Party/SubGHz_Phy/stm32_radio_driver/radio.c ****                 ( SubgRf.ModulationParams.Params.LoRa.SpreadingFactor == LORA_SF6 ) )
 925:Middlewares/Third_Party/SubGHz_Phy/stm32_radio_driver/radio.c ****             {
 926:Middlewares/Third_Party/SubGHz_Phy/stm32_radio_driver/radio.c ****                 if( preambleLen < 12 )
 927:Middlewares/Third_Party/SubGHz_Phy/stm32_radio_driver/radio.c ****                 {
 928:Middlewares/Third_Party/SubGHz_Phy/stm32_radio_driver/radio.c ****                     SubgRf.PacketParams.Params.LoRa.PreambleLength = 12;
 929:Middlewares/Third_Party/SubGHz_Phy/stm32_radio_driver/radio.c ****                 }
 930:Middlewares/Third_Party/SubGHz_Phy/stm32_radio_driver/radio.c ****                 else
 931:Middlewares/Third_Party/SubGHz_Phy/stm32_radio_driver/radio.c ****                 {
 932:Middlewares/Third_Party/SubGHz_Phy/stm32_radio_driver/radio.c ****                     SubgRf.PacketParams.Params.LoRa.PreambleLength = preambleLen;
 933:Middlewares/Third_Party/SubGHz_Phy/stm32_radio_driver/radio.c ****                 }
 934:Middlewares/Third_Party/SubGHz_Phy/stm32_radio_driver/radio.c ****             }
 935:Middlewares/Third_Party/SubGHz_Phy/stm32_radio_driver/radio.c ****             else
 936:Middlewares/Third_Party/SubGHz_Phy/stm32_radio_driver/radio.c ****             {
 937:Middlewares/Third_Party/SubGHz_Phy/stm32_radio_driver/radio.c ****                 SubgRf.PacketParams.Params.LoRa.PreambleLength = preambleLen;
 938:Middlewares/Third_Party/SubGHz_Phy/stm32_radio_driver/radio.c ****             }
 939:Middlewares/Third_Party/SubGHz_Phy/stm32_radio_driver/radio.c **** 
 940:Middlewares/Third_Party/SubGHz_Phy/stm32_radio_driver/radio.c ****             SubgRf.PacketParams.Params.LoRa.HeaderType = ( RadioLoRaPacketLengthsMode_t )fixLen;
 941:Middlewares/Third_Party/SubGHz_Phy/stm32_radio_driver/radio.c **** 
 942:Middlewares/Third_Party/SubGHz_Phy/stm32_radio_driver/radio.c ****             SubgRf.PacketParams.Params.LoRa.PayloadLength = MaxPayloadLength;
 943:Middlewares/Third_Party/SubGHz_Phy/stm32_radio_driver/radio.c ****             SubgRf.PacketParams.Params.LoRa.CrcMode = ( RadioLoRaCrcModes_t )crcOn;
 944:Middlewares/Third_Party/SubGHz_Phy/stm32_radio_driver/radio.c ****             SubgRf.PacketParams.Params.LoRa.InvertIQ = ( RadioLoRaIQModes_t )iqInverted;
ARM GAS  /tmp/ccldRdip.s 			page 18


 945:Middlewares/Third_Party/SubGHz_Phy/stm32_radio_driver/radio.c **** 
 946:Middlewares/Third_Party/SubGHz_Phy/stm32_radio_driver/radio.c ****             RadioStandby( );
 947:Middlewares/Third_Party/SubGHz_Phy/stm32_radio_driver/radio.c ****             RadioSetModem( ( SubgRf.ModulationParams.PacketType == PACKET_TYPE_GFSK ) ? MODEM_FSK :
 948:Middlewares/Third_Party/SubGHz_Phy/stm32_radio_driver/radio.c ****             SUBGRF_SetModulationParams( &SubgRf.ModulationParams );
 949:Middlewares/Third_Party/SubGHz_Phy/stm32_radio_driver/radio.c ****             SUBGRF_SetPacketParams( &SubgRf.PacketParams );
 950:Middlewares/Third_Party/SubGHz_Phy/stm32_radio_driver/radio.c ****             SUBGRF_SetLoRaSymbNumTimeout( symbTimeout );
 951:Middlewares/Third_Party/SubGHz_Phy/stm32_radio_driver/radio.c **** 
 952:Middlewares/Third_Party/SubGHz_Phy/stm32_radio_driver/radio.c ****             // WORKAROUND - Optimizing the Inverted IQ Operation, see DS_SX1261-2_V1.2 datasheet ch
 953:Middlewares/Third_Party/SubGHz_Phy/stm32_radio_driver/radio.c ****             if( SubgRf.PacketParams.Params.LoRa.InvertIQ == LORA_IQ_INVERTED )
 954:Middlewares/Third_Party/SubGHz_Phy/stm32_radio_driver/radio.c ****             {
 955:Middlewares/Third_Party/SubGHz_Phy/stm32_radio_driver/radio.c ****                 // RegIqPolaritySetup = @address 0x0736
 956:Middlewares/Third_Party/SubGHz_Phy/stm32_radio_driver/radio.c ****                 SUBGRF_WriteRegister( 0x0736, SUBGRF_ReadRegister( 0x0736 ) & ~( 1 << 2 ) );
 957:Middlewares/Third_Party/SubGHz_Phy/stm32_radio_driver/radio.c ****             }
 958:Middlewares/Third_Party/SubGHz_Phy/stm32_radio_driver/radio.c ****             else
 959:Middlewares/Third_Party/SubGHz_Phy/stm32_radio_driver/radio.c ****             {
 960:Middlewares/Third_Party/SubGHz_Phy/stm32_radio_driver/radio.c ****                 // RegIqPolaritySetup @address 0x0736
 961:Middlewares/Third_Party/SubGHz_Phy/stm32_radio_driver/radio.c ****                 SUBGRF_WriteRegister( 0x0736, SUBGRF_ReadRegister( 0x0736 ) | ( 1 << 2 ) );
 962:Middlewares/Third_Party/SubGHz_Phy/stm32_radio_driver/radio.c ****             }
 963:Middlewares/Third_Party/SubGHz_Phy/stm32_radio_driver/radio.c ****             // WORKAROUND END
 964:Middlewares/Third_Party/SubGHz_Phy/stm32_radio_driver/radio.c **** 
 965:Middlewares/Third_Party/SubGHz_Phy/stm32_radio_driver/radio.c ****             // Timeout Max, Timeout handled directly in SetRx function
 966:Middlewares/Third_Party/SubGHz_Phy/stm32_radio_driver/radio.c ****             SubgRf.RxTimeout = 0xFFFF;
 967:Middlewares/Third_Party/SubGHz_Phy/stm32_radio_driver/radio.c **** 
 968:Middlewares/Third_Party/SubGHz_Phy/stm32_radio_driver/radio.c ****             break;
 969:Middlewares/Third_Party/SubGHz_Phy/stm32_radio_driver/radio.c ****         default:
 970:Middlewares/Third_Party/SubGHz_Phy/stm32_radio_driver/radio.c ****             break;
 971:Middlewares/Third_Party/SubGHz_Phy/stm32_radio_driver/radio.c ****     }
 972:Middlewares/Third_Party/SubGHz_Phy/stm32_radio_driver/radio.c **** }
 973:Middlewares/Third_Party/SubGHz_Phy/stm32_radio_driver/radio.c **** 
 974:Middlewares/Third_Party/SubGHz_Phy/stm32_radio_driver/radio.c **** static void RadioSetTxConfig( RadioModems_t modem, int8_t power, uint32_t fdev,
 975:Middlewares/Third_Party/SubGHz_Phy/stm32_radio_driver/radio.c ****                               uint32_t bandwidth, uint32_t datarate,
 976:Middlewares/Third_Party/SubGHz_Phy/stm32_radio_driver/radio.c ****                               uint8_t coderate, uint16_t preambleLen,
 977:Middlewares/Third_Party/SubGHz_Phy/stm32_radio_driver/radio.c ****                               bool fixLen, bool crcOn, bool freqHopOn,
 978:Middlewares/Third_Party/SubGHz_Phy/stm32_radio_driver/radio.c ****                               uint8_t hopPeriod, bool iqInverted, uint32_t timeout )
 979:Middlewares/Third_Party/SubGHz_Phy/stm32_radio_driver/radio.c **** {
 980:Middlewares/Third_Party/SubGHz_Phy/stm32_radio_driver/radio.c ****     RFW_DeInit(); /* ST_WORKAROUND: Switch Off FwPacketDecoding by default */
 981:Middlewares/Third_Party/SubGHz_Phy/stm32_radio_driver/radio.c ****     switch( modem )
 982:Middlewares/Third_Party/SubGHz_Phy/stm32_radio_driver/radio.c ****     {
 983:Middlewares/Third_Party/SubGHz_Phy/stm32_radio_driver/radio.c ****         case MODEM_FSK:
 984:Middlewares/Third_Party/SubGHz_Phy/stm32_radio_driver/radio.c ****             SubgRf.ModulationParams.PacketType = PACKET_TYPE_GFSK;
 985:Middlewares/Third_Party/SubGHz_Phy/stm32_radio_driver/radio.c ****             SubgRf.ModulationParams.Params.Gfsk.BitRate = datarate;
 986:Middlewares/Third_Party/SubGHz_Phy/stm32_radio_driver/radio.c **** 
 987:Middlewares/Third_Party/SubGHz_Phy/stm32_radio_driver/radio.c ****             SubgRf.ModulationParams.Params.Gfsk.ModulationShaping = MOD_SHAPING_G_BT_1;
 988:Middlewares/Third_Party/SubGHz_Phy/stm32_radio_driver/radio.c ****             SubgRf.ModulationParams.Params.Gfsk.Bandwidth = SUBGRF_GetFskBandwidthRegValue( bandwid
 989:Middlewares/Third_Party/SubGHz_Phy/stm32_radio_driver/radio.c ****             SubgRf.ModulationParams.Params.Gfsk.Fdev = fdev;
 990:Middlewares/Third_Party/SubGHz_Phy/stm32_radio_driver/radio.c **** 
 991:Middlewares/Third_Party/SubGHz_Phy/stm32_radio_driver/radio.c ****             SubgRf.PacketParams.PacketType = PACKET_TYPE_GFSK;
 992:Middlewares/Third_Party/SubGHz_Phy/stm32_radio_driver/radio.c ****             SubgRf.PacketParams.Params.Gfsk.PreambleLength = ( preambleLen << 3 ); // convert byte 
 993:Middlewares/Third_Party/SubGHz_Phy/stm32_radio_driver/radio.c ****             SubgRf.PacketParams.Params.Gfsk.PreambleMinDetect = RADIO_PREAMBLE_DETECTOR_08_BITS;
 994:Middlewares/Third_Party/SubGHz_Phy/stm32_radio_driver/radio.c ****             SubgRf.PacketParams.Params.Gfsk.SyncWordLength = 3 << 3 ; // convert byte into bit
 995:Middlewares/Third_Party/SubGHz_Phy/stm32_radio_driver/radio.c ****             SubgRf.PacketParams.Params.Gfsk.AddrComp = RADIO_ADDRESSCOMP_FILT_OFF;
 996:Middlewares/Third_Party/SubGHz_Phy/stm32_radio_driver/radio.c ****             SubgRf.PacketParams.Params.Gfsk.HeaderType = ( fixLen == true ) ? RADIO_PACKET_FIXED_LE
 997:Middlewares/Third_Party/SubGHz_Phy/stm32_radio_driver/radio.c **** 
 998:Middlewares/Third_Party/SubGHz_Phy/stm32_radio_driver/radio.c ****             if( crcOn == true )
 999:Middlewares/Third_Party/SubGHz_Phy/stm32_radio_driver/radio.c ****             {
1000:Middlewares/Third_Party/SubGHz_Phy/stm32_radio_driver/radio.c ****                 SubgRf.PacketParams.Params.Gfsk.CrcLength = RADIO_CRC_2_BYTES_CCIT;
1001:Middlewares/Third_Party/SubGHz_Phy/stm32_radio_driver/radio.c ****             }
ARM GAS  /tmp/ccldRdip.s 			page 19


1002:Middlewares/Third_Party/SubGHz_Phy/stm32_radio_driver/radio.c ****             else
1003:Middlewares/Third_Party/SubGHz_Phy/stm32_radio_driver/radio.c ****             {
1004:Middlewares/Third_Party/SubGHz_Phy/stm32_radio_driver/radio.c ****                 SubgRf.PacketParams.Params.Gfsk.CrcLength = RADIO_CRC_OFF;
1005:Middlewares/Third_Party/SubGHz_Phy/stm32_radio_driver/radio.c ****             }
1006:Middlewares/Third_Party/SubGHz_Phy/stm32_radio_driver/radio.c ****             SubgRf.PacketParams.Params.Gfsk.DcFree = RADIO_DC_FREEWHITENING;
1007:Middlewares/Third_Party/SubGHz_Phy/stm32_radio_driver/radio.c **** 
1008:Middlewares/Third_Party/SubGHz_Phy/stm32_radio_driver/radio.c ****             RadioStandby( );
1009:Middlewares/Third_Party/SubGHz_Phy/stm32_radio_driver/radio.c ****             RadioSetModem( ( SubgRf.ModulationParams.PacketType == PACKET_TYPE_GFSK ) ? MODEM_FSK :
1010:Middlewares/Third_Party/SubGHz_Phy/stm32_radio_driver/radio.c ****             SUBGRF_SetModulationParams( &SubgRf.ModulationParams );
1011:Middlewares/Third_Party/SubGHz_Phy/stm32_radio_driver/radio.c ****             SUBGRF_SetPacketParams( &SubgRf.PacketParams );
1012:Middlewares/Third_Party/SubGHz_Phy/stm32_radio_driver/radio.c ****             SUBGRF_SetSyncWord( ( uint8_t[] ){ 0xC1, 0x94, 0xC1, 0x00, 0x00, 0x00, 0x00, 0x00 } );
1013:Middlewares/Third_Party/SubGHz_Phy/stm32_radio_driver/radio.c ****             SUBGRF_SetWhiteningSeed( 0x01FF );
1014:Middlewares/Third_Party/SubGHz_Phy/stm32_radio_driver/radio.c ****             break;
1015:Middlewares/Third_Party/SubGHz_Phy/stm32_radio_driver/radio.c **** 
1016:Middlewares/Third_Party/SubGHz_Phy/stm32_radio_driver/radio.c ****         case MODEM_LORA:
1017:Middlewares/Third_Party/SubGHz_Phy/stm32_radio_driver/radio.c ****             SubgRf.ModulationParams.PacketType = PACKET_TYPE_LORA;
1018:Middlewares/Third_Party/SubGHz_Phy/stm32_radio_driver/radio.c ****             SubgRf.ModulationParams.Params.LoRa.SpreadingFactor = ( RadioLoRaSpreadingFactors_t ) d
1019:Middlewares/Third_Party/SubGHz_Phy/stm32_radio_driver/radio.c ****             SubgRf.ModulationParams.Params.LoRa.Bandwidth =  Bandwidths[bandwidth];
1020:Middlewares/Third_Party/SubGHz_Phy/stm32_radio_driver/radio.c ****             SubgRf.ModulationParams.Params.LoRa.CodingRate= ( RadioLoRaCodingRates_t )coderate;
1021:Middlewares/Third_Party/SubGHz_Phy/stm32_radio_driver/radio.c **** 
1022:Middlewares/Third_Party/SubGHz_Phy/stm32_radio_driver/radio.c ****             if( ( ( bandwidth == 0 ) && ( ( datarate == 11 ) || ( datarate == 12 ) ) ) ||
1023:Middlewares/Third_Party/SubGHz_Phy/stm32_radio_driver/radio.c ****                 ( ( bandwidth == 1 ) && ( datarate == 12 ) ) )
1024:Middlewares/Third_Party/SubGHz_Phy/stm32_radio_driver/radio.c ****             {
1025:Middlewares/Third_Party/SubGHz_Phy/stm32_radio_driver/radio.c ****                 SubgRf.ModulationParams.Params.LoRa.LowDatarateOptimize = 0x01;
1026:Middlewares/Third_Party/SubGHz_Phy/stm32_radio_driver/radio.c ****             }
1027:Middlewares/Third_Party/SubGHz_Phy/stm32_radio_driver/radio.c ****             else
1028:Middlewares/Third_Party/SubGHz_Phy/stm32_radio_driver/radio.c ****             {
1029:Middlewares/Third_Party/SubGHz_Phy/stm32_radio_driver/radio.c ****                 SubgRf.ModulationParams.Params.LoRa.LowDatarateOptimize = 0x00;
1030:Middlewares/Third_Party/SubGHz_Phy/stm32_radio_driver/radio.c ****             }
1031:Middlewares/Third_Party/SubGHz_Phy/stm32_radio_driver/radio.c **** 
1032:Middlewares/Third_Party/SubGHz_Phy/stm32_radio_driver/radio.c ****             SubgRf.PacketParams.PacketType = PACKET_TYPE_LORA;
1033:Middlewares/Third_Party/SubGHz_Phy/stm32_radio_driver/radio.c **** 
1034:Middlewares/Third_Party/SubGHz_Phy/stm32_radio_driver/radio.c ****             if( ( SubgRf.ModulationParams.Params.LoRa.SpreadingFactor == LORA_SF5 ) ||
1035:Middlewares/Third_Party/SubGHz_Phy/stm32_radio_driver/radio.c ****                 ( SubgRf.ModulationParams.Params.LoRa.SpreadingFactor == LORA_SF6 ) )
1036:Middlewares/Third_Party/SubGHz_Phy/stm32_radio_driver/radio.c ****             {
1037:Middlewares/Third_Party/SubGHz_Phy/stm32_radio_driver/radio.c ****                 if( preambleLen < 12 )
1038:Middlewares/Third_Party/SubGHz_Phy/stm32_radio_driver/radio.c ****                 {
1039:Middlewares/Third_Party/SubGHz_Phy/stm32_radio_driver/radio.c ****                     SubgRf.PacketParams.Params.LoRa.PreambleLength = 12;
1040:Middlewares/Third_Party/SubGHz_Phy/stm32_radio_driver/radio.c ****                 }
1041:Middlewares/Third_Party/SubGHz_Phy/stm32_radio_driver/radio.c ****                 else
1042:Middlewares/Third_Party/SubGHz_Phy/stm32_radio_driver/radio.c ****                 {
1043:Middlewares/Third_Party/SubGHz_Phy/stm32_radio_driver/radio.c ****                     SubgRf.PacketParams.Params.LoRa.PreambleLength = preambleLen;
1044:Middlewares/Third_Party/SubGHz_Phy/stm32_radio_driver/radio.c ****                 }
1045:Middlewares/Third_Party/SubGHz_Phy/stm32_radio_driver/radio.c ****             }
1046:Middlewares/Third_Party/SubGHz_Phy/stm32_radio_driver/radio.c ****             else
1047:Middlewares/Third_Party/SubGHz_Phy/stm32_radio_driver/radio.c ****             {
1048:Middlewares/Third_Party/SubGHz_Phy/stm32_radio_driver/radio.c ****                 SubgRf.PacketParams.Params.LoRa.PreambleLength = preambleLen;
1049:Middlewares/Third_Party/SubGHz_Phy/stm32_radio_driver/radio.c ****             }
1050:Middlewares/Third_Party/SubGHz_Phy/stm32_radio_driver/radio.c ****             SubgRf.PacketParams.Params.LoRa.HeaderType = ( RadioLoRaPacketLengthsMode_t )fixLen;
1051:Middlewares/Third_Party/SubGHz_Phy/stm32_radio_driver/radio.c ****             SubgRf.PacketParams.Params.LoRa.PayloadLength = MaxPayloadLength;
1052:Middlewares/Third_Party/SubGHz_Phy/stm32_radio_driver/radio.c ****             SubgRf.PacketParams.Params.LoRa.CrcMode = ( RadioLoRaCrcModes_t )crcOn;
1053:Middlewares/Third_Party/SubGHz_Phy/stm32_radio_driver/radio.c ****             SubgRf.PacketParams.Params.LoRa.InvertIQ = ( RadioLoRaIQModes_t )iqInverted;
1054:Middlewares/Third_Party/SubGHz_Phy/stm32_radio_driver/radio.c **** 
1055:Middlewares/Third_Party/SubGHz_Phy/stm32_radio_driver/radio.c ****             RadioStandby( );
1056:Middlewares/Third_Party/SubGHz_Phy/stm32_radio_driver/radio.c ****             RadioSetModem( ( SubgRf.ModulationParams.PacketType == PACKET_TYPE_GFSK ) ? MODEM_FSK :
1057:Middlewares/Third_Party/SubGHz_Phy/stm32_radio_driver/radio.c ****             SUBGRF_SetModulationParams( &SubgRf.ModulationParams );
1058:Middlewares/Third_Party/SubGHz_Phy/stm32_radio_driver/radio.c ****             SUBGRF_SetPacketParams( &SubgRf.PacketParams );
ARM GAS  /tmp/ccldRdip.s 			page 20


1059:Middlewares/Third_Party/SubGHz_Phy/stm32_radio_driver/radio.c ****             break;
1060:Middlewares/Third_Party/SubGHz_Phy/stm32_radio_driver/radio.c **** 
1061:Middlewares/Third_Party/SubGHz_Phy/stm32_radio_driver/radio.c ****         case MODEM_SIGFOX_TX:
1062:Middlewares/Third_Party/SubGHz_Phy/stm32_radio_driver/radio.c ****             RadioSetModem(MODEM_SIGFOX_TX);
1063:Middlewares/Third_Party/SubGHz_Phy/stm32_radio_driver/radio.c ****             SubgRf.ModulationParams.PacketType = PACKET_TYPE_BPSK;
1064:Middlewares/Third_Party/SubGHz_Phy/stm32_radio_driver/radio.c ****             SubgRf.ModulationParams.Params.Bpsk.BitRate           = datarate;
1065:Middlewares/Third_Party/SubGHz_Phy/stm32_radio_driver/radio.c ****             SubgRf.ModulationParams.Params.Bpsk.ModulationShaping = MOD_SHAPING_DBPSK;
1066:Middlewares/Third_Party/SubGHz_Phy/stm32_radio_driver/radio.c ****             SUBGRF_SetModulationParams( &SubgRf.ModulationParams );
1067:Middlewares/Third_Party/SubGHz_Phy/stm32_radio_driver/radio.c ****             break;
1068:Middlewares/Third_Party/SubGHz_Phy/stm32_radio_driver/radio.c **** 
1069:Middlewares/Third_Party/SubGHz_Phy/stm32_radio_driver/radio.c ****         default:
1070:Middlewares/Third_Party/SubGHz_Phy/stm32_radio_driver/radio.c ****             break;
1071:Middlewares/Third_Party/SubGHz_Phy/stm32_radio_driver/radio.c ****     }
1072:Middlewares/Third_Party/SubGHz_Phy/stm32_radio_driver/radio.c **** 
1073:Middlewares/Third_Party/SubGHz_Phy/stm32_radio_driver/radio.c **** 
1074:Middlewares/Third_Party/SubGHz_Phy/stm32_radio_driver/radio.c **** 
1075:Middlewares/Third_Party/SubGHz_Phy/stm32_radio_driver/radio.c ****     SubgRf.AntSwitchPaSelect = SUBGRF_SetRfTxPower( power );
1076:Middlewares/Third_Party/SubGHz_Phy/stm32_radio_driver/radio.c ****     RFW_SetAntSwitch( SubgRf.AntSwitchPaSelect ); /* ST_WORKAROUND: ?????? */
1077:Middlewares/Third_Party/SubGHz_Phy/stm32_radio_driver/radio.c ****     SubgRf.TxTimeout = timeout;
1078:Middlewares/Third_Party/SubGHz_Phy/stm32_radio_driver/radio.c **** }
1079:Middlewares/Third_Party/SubGHz_Phy/stm32_radio_driver/radio.c **** 
1080:Middlewares/Third_Party/SubGHz_Phy/stm32_radio_driver/radio.c **** static bool RadioCheckRfFrequency( uint32_t frequency )
1081:Middlewares/Third_Party/SubGHz_Phy/stm32_radio_driver/radio.c **** {
  27              		.loc 1 1081 1 view -0
  28              		.cfi_startproc
  29              		@ args = 0, pretend = 0, frame = 0
  30              		@ frame_needed = 0, uses_anonymous_args = 0
  31              		@ link register save eliminated.
1082:Middlewares/Third_Party/SubGHz_Phy/stm32_radio_driver/radio.c ****     return true;
  32              		.loc 1 1082 5 view .LVU1
1083:Middlewares/Third_Party/SubGHz_Phy/stm32_radio_driver/radio.c **** }
  33              		.loc 1 1083 1 is_stmt 0 view .LVU2
  34 0000 0120     		movs	r0, #1
  35              	.LVL1:
  36              		.loc 1 1083 1 view .LVU3
  37 0002 7047     		bx	lr
  38              		.cfi_endproc
  39              	.LFE992:
  41              		.section	.text.RadioGetLoRaBandwidthInHz,"ax",%progbits
  42              		.align	1
  43              		.syntax unified
  44              		.thumb
  45              		.thumb_func
  46              		.fpu softvfp
  48              	RadioGetLoRaBandwidthInHz:
  49              	.LVL2:
  50              	.LFB993:
1084:Middlewares/Third_Party/SubGHz_Phy/stm32_radio_driver/radio.c **** 
1085:Middlewares/Third_Party/SubGHz_Phy/stm32_radio_driver/radio.c **** static uint32_t RadioGetLoRaBandwidthInHz( RadioLoRaBandwidths_t bw )
1086:Middlewares/Third_Party/SubGHz_Phy/stm32_radio_driver/radio.c **** {
  51              		.loc 1 1086 1 is_stmt 1 view -0
  52              		.cfi_startproc
  53              		@ args = 0, pretend = 0, frame = 0
  54              		@ frame_needed = 0, uses_anonymous_args = 0
  55              		@ link register save eliminated.
1087:Middlewares/Third_Party/SubGHz_Phy/stm32_radio_driver/radio.c ****     uint32_t bandwidthInHz = 0;
  56              		.loc 1 1087 5 view .LVU5
ARM GAS  /tmp/ccldRdip.s 			page 21


1088:Middlewares/Third_Party/SubGHz_Phy/stm32_radio_driver/radio.c **** 
1089:Middlewares/Third_Party/SubGHz_Phy/stm32_radio_driver/radio.c ****     switch( bw )
  57              		.loc 1 1089 5 view .LVU6
  58 0000 0A28     		cmp	r0, #10
  59 0002 07D8     		bhi	.L3
  60 0004 DFE800F0 		tbb	[pc, r0]
  61              	.L5:
  62 0008 20       		.byte	(.L15-.L5)/2
  63 0009 0B       		.byte	(.L13-.L5)/2
  64 000a 11       		.byte	(.L12-.L5)/2
  65 000b 17       		.byte	(.L11-.L5)/2
  66 000c 1A       		.byte	(.L10-.L5)/2
  67 000d 1C       		.byte	(.L9-.L5)/2
  68 000e 1E       		.byte	(.L8-.L5)/2
  69 000f 06       		.byte	(.L3-.L5)/2
  70 0010 08       		.byte	(.L7-.L5)/2
  71 0011 0E       		.byte	(.L6-.L5)/2
  72 0012 14       		.byte	(.L4-.L5)/2
  73 0013 00       		.p2align 1
  74              	.L3:
  75 0014 0020     		movs	r0, #0
  76              	.LVL3:
  77              		.loc 1 1089 5 is_stmt 0 view .LVU7
  78 0016 7047     		bx	lr
  79              	.LVL4:
  80              	.L7:
1090:Middlewares/Third_Party/SubGHz_Phy/stm32_radio_driver/radio.c ****     {
1091:Middlewares/Third_Party/SubGHz_Phy/stm32_radio_driver/radio.c ****     case LORA_BW_007:
1092:Middlewares/Third_Party/SubGHz_Phy/stm32_radio_driver/radio.c ****         bandwidthInHz = 7812UL;
1093:Middlewares/Third_Party/SubGHz_Phy/stm32_radio_driver/radio.c ****         break;
1094:Middlewares/Third_Party/SubGHz_Phy/stm32_radio_driver/radio.c ****     case LORA_BW_010:
1095:Middlewares/Third_Party/SubGHz_Phy/stm32_radio_driver/radio.c ****         bandwidthInHz = 10417UL;
  81              		.loc 1 1095 9 is_stmt 1 view .LVU8
1096:Middlewares/Third_Party/SubGHz_Phy/stm32_radio_driver/radio.c ****         break;
  82              		.loc 1 1096 9 view .LVU9
1095:Middlewares/Third_Party/SubGHz_Phy/stm32_radio_driver/radio.c ****         break;
  83              		.loc 1 1095 23 is_stmt 0 view .LVU10
  84 0018 42F6B100 		movw	r0, #10417
  85              	.LVL5:
  86              		.loc 1 1096 9 view .LVU11
  87 001c 7047     		bx	lr
  88              	.LVL6:
  89              	.L13:
1097:Middlewares/Third_Party/SubGHz_Phy/stm32_radio_driver/radio.c ****     case LORA_BW_015:
1098:Middlewares/Third_Party/SubGHz_Phy/stm32_radio_driver/radio.c ****         bandwidthInHz = 15625UL;
  90              		.loc 1 1098 9 is_stmt 1 view .LVU12
1099:Middlewares/Third_Party/SubGHz_Phy/stm32_radio_driver/radio.c ****         break;
  91              		.loc 1 1099 9 view .LVU13
1098:Middlewares/Third_Party/SubGHz_Phy/stm32_radio_driver/radio.c ****         break;
  92              		.loc 1 1098 23 is_stmt 0 view .LVU14
  93 001e 43F60950 		movw	r0, #15625
  94              	.LVL7:
  95              		.loc 1 1099 9 view .LVU15
  96 0022 7047     		bx	lr
  97              	.LVL8:
  98              	.L6:
1100:Middlewares/Third_Party/SubGHz_Phy/stm32_radio_driver/radio.c ****     case LORA_BW_020:
ARM GAS  /tmp/ccldRdip.s 			page 22


1101:Middlewares/Third_Party/SubGHz_Phy/stm32_radio_driver/radio.c ****         bandwidthInHz = 20833UL;
  99              		.loc 1 1101 9 is_stmt 1 view .LVU16
1102:Middlewares/Third_Party/SubGHz_Phy/stm32_radio_driver/radio.c ****         break;
 100              		.loc 1 1102 9 view .LVU17
1101:Middlewares/Third_Party/SubGHz_Phy/stm32_radio_driver/radio.c ****         break;
 101              		.loc 1 1101 23 is_stmt 0 view .LVU18
 102 0024 45F26110 		movw	r0, #20833
 103              	.LVL9:
 104              		.loc 1 1102 9 view .LVU19
 105 0028 7047     		bx	lr
 106              	.LVL10:
 107              	.L12:
1103:Middlewares/Third_Party/SubGHz_Phy/stm32_radio_driver/radio.c ****     case LORA_BW_031:
1104:Middlewares/Third_Party/SubGHz_Phy/stm32_radio_driver/radio.c ****         bandwidthInHz = 31250UL;
 108              		.loc 1 1104 9 is_stmt 1 view .LVU20
1105:Middlewares/Third_Party/SubGHz_Phy/stm32_radio_driver/radio.c ****         break;
 109              		.loc 1 1105 9 view .LVU21
1104:Middlewares/Third_Party/SubGHz_Phy/stm32_radio_driver/radio.c ****         break;
 110              		.loc 1 1104 23 is_stmt 0 view .LVU22
 111 002a 47F61220 		movw	r0, #31250
 112              	.LVL11:
 113              		.loc 1 1105 9 view .LVU23
 114 002e 7047     		bx	lr
 115              	.LVL12:
 116              	.L4:
1106:Middlewares/Third_Party/SubGHz_Phy/stm32_radio_driver/radio.c ****     case LORA_BW_041:
1107:Middlewares/Third_Party/SubGHz_Phy/stm32_radio_driver/radio.c ****         bandwidthInHz = 41667UL;
 117              		.loc 1 1107 9 is_stmt 1 view .LVU24
1108:Middlewares/Third_Party/SubGHz_Phy/stm32_radio_driver/radio.c ****         break;
 118              		.loc 1 1108 9 view .LVU25
1107:Middlewares/Third_Party/SubGHz_Phy/stm32_radio_driver/radio.c ****         break;
 119              		.loc 1 1107 23 is_stmt 0 view .LVU26
 120 0030 4AF2C320 		movw	r0, #41667
 121              	.LVL13:
 122              		.loc 1 1108 9 view .LVU27
 123 0034 7047     		bx	lr
 124              	.LVL14:
 125              	.L11:
1109:Middlewares/Third_Party/SubGHz_Phy/stm32_radio_driver/radio.c ****     case LORA_BW_062:
1110:Middlewares/Third_Party/SubGHz_Phy/stm32_radio_driver/radio.c ****         bandwidthInHz = 62500UL;
 126              		.loc 1 1110 9 is_stmt 1 view .LVU28
1111:Middlewares/Third_Party/SubGHz_Phy/stm32_radio_driver/radio.c ****         break;
 127              		.loc 1 1111 9 view .LVU29
1110:Middlewares/Third_Party/SubGHz_Phy/stm32_radio_driver/radio.c ****         break;
 128              		.loc 1 1110 23 is_stmt 0 view .LVU30
 129 0036 4FF22440 		movw	r0, #62500
 130              	.LVL15:
 131              		.loc 1 1111 9 view .LVU31
 132 003a 7047     		bx	lr
 133              	.LVL16:
 134              	.L10:
1112:Middlewares/Third_Party/SubGHz_Phy/stm32_radio_driver/radio.c ****     case LORA_BW_125:
1113:Middlewares/Third_Party/SubGHz_Phy/stm32_radio_driver/radio.c ****         bandwidthInHz = 125000UL;
 135              		.loc 1 1113 9 is_stmt 1 view .LVU32
1114:Middlewares/Third_Party/SubGHz_Phy/stm32_radio_driver/radio.c ****         break;
 136              		.loc 1 1114 9 view .LVU33
1113:Middlewares/Third_Party/SubGHz_Phy/stm32_radio_driver/radio.c ****         break;
ARM GAS  /tmp/ccldRdip.s 			page 23


 137              		.loc 1 1113 23 is_stmt 0 view .LVU34
 138 003c 0448     		ldr	r0, .L16
 139              	.LVL17:
 140              		.loc 1 1114 9 view .LVU35
 141 003e 7047     		bx	lr
 142              	.LVL18:
 143              	.L9:
1115:Middlewares/Third_Party/SubGHz_Phy/stm32_radio_driver/radio.c ****     case LORA_BW_250:
1116:Middlewares/Third_Party/SubGHz_Phy/stm32_radio_driver/radio.c ****         bandwidthInHz = 250000UL;
 144              		.loc 1 1116 9 is_stmt 1 view .LVU36
1117:Middlewares/Third_Party/SubGHz_Phy/stm32_radio_driver/radio.c ****         break;
 145              		.loc 1 1117 9 view .LVU37
1116:Middlewares/Third_Party/SubGHz_Phy/stm32_radio_driver/radio.c ****         break;
 146              		.loc 1 1116 23 is_stmt 0 view .LVU38
 147 0040 0448     		ldr	r0, .L16+4
 148              	.LVL19:
 149              		.loc 1 1117 9 view .LVU39
 150 0042 7047     		bx	lr
 151              	.LVL20:
 152              	.L8:
1118:Middlewares/Third_Party/SubGHz_Phy/stm32_radio_driver/radio.c ****     case LORA_BW_500:
1119:Middlewares/Third_Party/SubGHz_Phy/stm32_radio_driver/radio.c ****         bandwidthInHz = 500000UL;
 153              		.loc 1 1119 9 is_stmt 1 view .LVU40
1120:Middlewares/Third_Party/SubGHz_Phy/stm32_radio_driver/radio.c ****         break;
 154              		.loc 1 1120 9 view .LVU41
1119:Middlewares/Third_Party/SubGHz_Phy/stm32_radio_driver/radio.c ****         break;
 155              		.loc 1 1119 23 is_stmt 0 view .LVU42
 156 0044 0448     		ldr	r0, .L16+8
 157              	.LVL21:
 158              		.loc 1 1120 9 view .LVU43
 159 0046 7047     		bx	lr
 160              	.LVL22:
 161              	.L15:
1092:Middlewares/Third_Party/SubGHz_Phy/stm32_radio_driver/radio.c ****         break;
 162              		.loc 1 1092 23 view .LVU44
 163 0048 41F68460 		movw	r0, #7812
 164              	.LVL23:
1121:Middlewares/Third_Party/SubGHz_Phy/stm32_radio_driver/radio.c ****     }
1122:Middlewares/Third_Party/SubGHz_Phy/stm32_radio_driver/radio.c **** 
1123:Middlewares/Third_Party/SubGHz_Phy/stm32_radio_driver/radio.c ****     return bandwidthInHz;
 165              		.loc 1 1123 5 is_stmt 1 view .LVU45
1124:Middlewares/Third_Party/SubGHz_Phy/stm32_radio_driver/radio.c **** }
 166              		.loc 1 1124 1 is_stmt 0 view .LVU46
 167 004c 7047     		bx	lr
 168              	.L17:
 169 004e 00BF     		.align	2
 170              	.L16:
 171 0050 48E80100 		.word	125000
 172 0054 90D00300 		.word	250000
 173 0058 20A10700 		.word	500000
 174              		.cfi_endproc
 175              	.LFE993:
 177              		.section	.text.RadioGetGfskTimeOnAirNumerator,"ax",%progbits
 178              		.align	1
 179              		.syntax unified
 180              		.thumb
 181              		.thumb_func
ARM GAS  /tmp/ccldRdip.s 			page 24


 182              		.fpu softvfp
 184              	RadioGetGfskTimeOnAirNumerator:
 185              	.LVL24:
 186              	.LFB994:
1125:Middlewares/Third_Party/SubGHz_Phy/stm32_radio_driver/radio.c **** 
1126:Middlewares/Third_Party/SubGHz_Phy/stm32_radio_driver/radio.c **** static uint32_t RadioGetGfskTimeOnAirNumerator( uint32_t datarate, uint8_t coderate,
1127:Middlewares/Third_Party/SubGHz_Phy/stm32_radio_driver/radio.c ****                                                 uint16_t preambleLen, bool fixLen, uint8_t payloadL
1128:Middlewares/Third_Party/SubGHz_Phy/stm32_radio_driver/radio.c ****                                                 bool crcOn )
1129:Middlewares/Third_Party/SubGHz_Phy/stm32_radio_driver/radio.c **** {
 187              		.loc 1 1129 1 is_stmt 1 view -0
 188              		.cfi_startproc
 189              		@ args = 8, pretend = 0, frame = 0
 190              		@ frame_needed = 0, uses_anonymous_args = 0
 191              		@ link register save eliminated.
 192              		.loc 1 1129 1 is_stmt 0 view .LVU48
 193 0000 9DF80410 		ldrb	r1, [sp, #4]	@ zero_extendqisi2
 194              	.LVL25:
1130:Middlewares/Third_Party/SubGHz_Phy/stm32_radio_driver/radio.c ****     /* ST_WORKAROUND_BEGIN: Simplified calculation without const values */
1131:Middlewares/Third_Party/SubGHz_Phy/stm32_radio_driver/radio.c ****     return ( preambleLen << 3 ) +
 195              		.loc 1 1131 5 is_stmt 1 view .LVU49
 196              		.loc 1 1131 26 is_stmt 0 view .LVU50
 197 0004 D200     		lsls	r2, r2, #3
 198              	.LVL26:
1132:Middlewares/Third_Party/SubGHz_Phy/stm32_radio_driver/radio.c ****            ( ( fixLen == false ) ? 8 : 0 ) + 24 +
 199              		.loc 1 1132 38 view .LVU51
 200 0006 53B9     		cbnz	r3, .L21
 201 0008 0820     		movs	r0, #8
 202              	.LVL27:
 203              	.L19:
1131:Middlewares/Third_Party/SubGHz_Phy/stm32_radio_driver/radio.c ****            ( ( fixLen == false ) ? 8 : 0 ) + 24 +
 204              		.loc 1 1131 33 view .LVU52
 205 000a 0244     		add	r2, r2, r0
 206              		.loc 1 1132 44 view .LVU53
 207 000c 1832     		adds	r2, r2, #24
1133:Middlewares/Third_Party/SubGHz_Phy/stm32_radio_driver/radio.c ****            ( ( payloadLen + ( ( crcOn == true ) ? 2 : 0 ) ) << 3 );
 208              		.loc 1 1133 53 view .LVU54
 209 000e 41B1     		cbz	r1, .L22
 210 0010 0223     		movs	r3, #2
 211              	.LVL28:
 212              	.L20:
 213              		.loc 1 1133 27 discriminator 4 view .LVU55
 214 0012 9DF80000 		ldrb	r0, [sp]	@ zero_extendqisi2
 215 0016 1844     		add	r0, r0, r3
1134:Middlewares/Third_Party/SubGHz_Phy/stm32_radio_driver/radio.c ****     /* ST_WORKAROUND_END */
1135:Middlewares/Third_Party/SubGHz_Phy/stm32_radio_driver/radio.c **** }
 216              		.loc 1 1135 1 discriminator 4 view .LVU56
 217 0018 02EBC000 		add	r0, r2, r0, lsl #3
 218 001c 7047     		bx	lr
 219              	.LVL29:
 220              	.L21:
1132:Middlewares/Third_Party/SubGHz_Phy/stm32_radio_driver/radio.c ****            ( ( payloadLen + ( ( crcOn == true ) ? 2 : 0 ) ) << 3 );
 221              		.loc 1 1132 38 view .LVU57
 222 001e 0020     		movs	r0, #0
 223              	.LVL30:
1132:Middlewares/Third_Party/SubGHz_Phy/stm32_radio_driver/radio.c ****            ( ( payloadLen + ( ( crcOn == true ) ? 2 : 0 ) ) << 3 );
 224              		.loc 1 1132 38 view .LVU58
 225 0020 F3E7     		b	.L19
ARM GAS  /tmp/ccldRdip.s 			page 25


 226              	.L22:
1133:Middlewares/Third_Party/SubGHz_Phy/stm32_radio_driver/radio.c ****            ( ( payloadLen + ( ( crcOn == true ) ? 2 : 0 ) ) << 3 );
 227              		.loc 1 1133 53 view .LVU59
 228 0022 0023     		movs	r3, #0
 229              	.LVL31:
1133:Middlewares/Third_Party/SubGHz_Phy/stm32_radio_driver/radio.c ****            ( ( payloadLen + ( ( crcOn == true ) ? 2 : 0 ) ) << 3 );
 230              		.loc 1 1133 53 view .LVU60
 231 0024 F5E7     		b	.L20
 232              		.cfi_endproc
 233              	.LFE994:
 235              		.section	.text.RadioGetLoRaTimeOnAirNumerator,"ax",%progbits
 236              		.align	1
 237              		.syntax unified
 238              		.thumb
 239              		.thumb_func
 240              		.fpu softvfp
 242              	RadioGetLoRaTimeOnAirNumerator:
 243              	.LVL32:
 244              	.LFB995:
1136:Middlewares/Third_Party/SubGHz_Phy/stm32_radio_driver/radio.c **** 
1137:Middlewares/Third_Party/SubGHz_Phy/stm32_radio_driver/radio.c **** static uint32_t RadioGetLoRaTimeOnAirNumerator( uint32_t bandwidth,
1138:Middlewares/Third_Party/SubGHz_Phy/stm32_radio_driver/radio.c ****                                                 uint32_t datarate, uint8_t coderate,
1139:Middlewares/Third_Party/SubGHz_Phy/stm32_radio_driver/radio.c ****                                                 uint16_t preambleLen, bool fixLen, uint8_t payloadL
1140:Middlewares/Third_Party/SubGHz_Phy/stm32_radio_driver/radio.c ****                                                 bool crcOn )
1141:Middlewares/Third_Party/SubGHz_Phy/stm32_radio_driver/radio.c **** {
 245              		.loc 1 1141 1 is_stmt 1 view -0
 246              		.cfi_startproc
 247              		@ args = 12, pretend = 0, frame = 0
 248              		@ frame_needed = 0, uses_anonymous_args = 0
 249              		.loc 1 1141 1 is_stmt 0 view .LVU62
 250 0000 70B5     		push	{r4, r5, r6, lr}
 251              	.LCFI0:
 252              		.cfi_def_cfa_offset 16
 253              		.cfi_offset 4, -16
 254              		.cfi_offset 5, -12
 255              		.cfi_offset 6, -8
 256              		.cfi_offset 14, -4
 257 0002 9DF81040 		ldrb	r4, [sp, #16]	@ zero_extendqisi2
 258 0006 9DF81850 		ldrb	r5, [sp, #24]	@ zero_extendqisi2
1142:Middlewares/Third_Party/SubGHz_Phy/stm32_radio_driver/radio.c ****     int32_t crDenom           = coderate + 4;
 259              		.loc 1 1142 5 is_stmt 1 view .LVU63
 260              		.loc 1 1142 13 is_stmt 0 view .LVU64
 261 000a 0432     		adds	r2, r2, #4
 262              	.LVL33:
1143:Middlewares/Third_Party/SubGHz_Phy/stm32_radio_driver/radio.c ****     bool    lowDatareOptimize = false;
 263              		.loc 1 1143 5 is_stmt 1 view .LVU65
1144:Middlewares/Third_Party/SubGHz_Phy/stm32_radio_driver/radio.c **** 
1145:Middlewares/Third_Party/SubGHz_Phy/stm32_radio_driver/radio.c ****     // Ensure that the preamble length is at least 12 symbols when using SF5 or SF6
1146:Middlewares/Third_Party/SubGHz_Phy/stm32_radio_driver/radio.c ****     if( ( datarate == 5 ) || ( datarate == 6 ) )
 264              		.loc 1 1146 5 view .LVU66
 265              		.loc 1 1146 27 is_stmt 0 view .LVU67
 266 000c A1F1050C 		sub	ip, r1, #5
 267              		.loc 1 1146 7 view .LVU68
 268 0010 BCF1010F 		cmp	ip, #1
 269 0014 32D9     		bls	.L42
 270              	.LVL34:
 271              	.L24:
ARM GAS  /tmp/ccldRdip.s 			page 26


1147:Middlewares/Third_Party/SubGHz_Phy/stm32_radio_driver/radio.c ****     {
1148:Middlewares/Third_Party/SubGHz_Phy/stm32_radio_driver/radio.c ****         if( preambleLen < 12 )
1149:Middlewares/Third_Party/SubGHz_Phy/stm32_radio_driver/radio.c ****         {
1150:Middlewares/Third_Party/SubGHz_Phy/stm32_radio_driver/radio.c ****             preambleLen = 12;
1151:Middlewares/Third_Party/SubGHz_Phy/stm32_radio_driver/radio.c ****         }
1152:Middlewares/Third_Party/SubGHz_Phy/stm32_radio_driver/radio.c ****     }
1153:Middlewares/Third_Party/SubGHz_Phy/stm32_radio_driver/radio.c **** 
1154:Middlewares/Third_Party/SubGHz_Phy/stm32_radio_driver/radio.c ****     if( ( ( bandwidth == 0 ) && ( ( datarate == 11 ) || ( datarate == 12 ) ) ) ||
 272              		.loc 1 1154 5 is_stmt 1 view .LVU69
 273              		.loc 1 1154 7 is_stmt 0 view .LVU70
 274 0016 18B9     		cbnz	r0, .L25
 275              		.loc 1 1154 54 discriminator 1 view .LVU71
 276 0018 A1F10B06 		sub	r6, r1, #11
 277              		.loc 1 1154 30 discriminator 1 view .LVU72
 278 001c 012E     		cmp	r6, #1
 279 001e 35D9     		bls	.L35
 280              	.L25:
 281              		.loc 1 1154 80 discriminator 3 view .LVU73
 282 0020 0128     		cmp	r0, #1
 283 0022 2FD0     		beq	.L43
1143:Middlewares/Third_Party/SubGHz_Phy/stm32_radio_driver/radio.c **** 
 284              		.loc 1 1143 13 view .LVU74
 285 0024 0026     		movs	r6, #0
 286              	.L26:
 287              	.LVL35:
1155:Middlewares/Third_Party/SubGHz_Phy/stm32_radio_driver/radio.c ****         ( ( bandwidth == 1 ) && ( datarate == 12 ) ) )
1156:Middlewares/Third_Party/SubGHz_Phy/stm32_radio_driver/radio.c ****     {
1157:Middlewares/Third_Party/SubGHz_Phy/stm32_radio_driver/radio.c ****         lowDatareOptimize = true;
1158:Middlewares/Third_Party/SubGHz_Phy/stm32_radio_driver/radio.c ****     }
1159:Middlewares/Third_Party/SubGHz_Phy/stm32_radio_driver/radio.c **** 
1160:Middlewares/Third_Party/SubGHz_Phy/stm32_radio_driver/radio.c ****     int32_t ceilDenominator;
 288              		.loc 1 1160 5 is_stmt 1 view .LVU75
1161:Middlewares/Third_Party/SubGHz_Phy/stm32_radio_driver/radio.c ****     int32_t ceilNumerator = ( payloadLen << 3 ) +
 289              		.loc 1 1161 5 view .LVU76
 290              		.loc 1 1161 42 is_stmt 0 view .LVU77
 291 0026 9DF814E0 		ldrb	lr, [sp, #20]	@ zero_extendqisi2
 292 002a 4FEACE0E 		lsl	lr, lr, #3
1162:Middlewares/Third_Party/SubGHz_Phy/stm32_radio_driver/radio.c ****                             ( crcOn ? 16 : 0 ) -
 293              		.loc 1 1162 42 view .LVU78
 294 002e 8DB3     		cbz	r5, .L38
 295 0030 4FF0100C 		mov	ip, #16
 296              	.L27:
1161:Middlewares/Third_Party/SubGHz_Phy/stm32_radio_driver/radio.c ****     int32_t ceilNumerator = ( payloadLen << 3 ) +
 297              		.loc 1 1161 49 view .LVU79
 298 0034 E644     		add	lr, lr, ip
1163:Middlewares/Third_Party/SubGHz_Phy/stm32_radio_driver/radio.c ****                             ( 4 * datarate ) +
 299              		.loc 1 1163 33 view .LVU80
 300 0036 8800     		lsls	r0, r1, #2
 301              	.LVL36:
1162:Middlewares/Third_Party/SubGHz_Phy/stm32_radio_driver/radio.c ****                             ( crcOn ? 16 : 0 ) -
 302              		.loc 1 1162 48 view .LVU81
 303 0038 AEEB810E 		sub	lr, lr, r1, lsl #2
1164:Middlewares/Third_Party/SubGHz_Phy/stm32_radio_driver/radio.c ****                             ( fixLen ? 0 : 20 );
 304              		.loc 1 1164 42 view .LVU82
 305 003c 6CB3     		cbz	r4, .L39
 306 003e 4FF0000C 		mov	ip, #0
 307              	.L28:
ARM GAS  /tmp/ccldRdip.s 			page 27


1163:Middlewares/Third_Party/SubGHz_Phy/stm32_radio_driver/radio.c ****                             ( 4 * datarate ) +
 308              		.loc 1 1163 46 view .LVU83
 309 0042 F444     		add	ip, ip, lr
 310              	.LVL37:
1165:Middlewares/Third_Party/SubGHz_Phy/stm32_radio_driver/radio.c **** 
1166:Middlewares/Third_Party/SubGHz_Phy/stm32_radio_driver/radio.c ****     if( datarate <= 6 )
 311              		.loc 1 1166 5 is_stmt 1 view .LVU84
 312              		.loc 1 1166 7 is_stmt 0 view .LVU85
 313 0044 0629     		cmp	r1, #6
 314 0046 04D9     		bls	.L30
1167:Middlewares/Third_Party/SubGHz_Phy/stm32_radio_driver/radio.c ****     {
1168:Middlewares/Third_Party/SubGHz_Phy/stm32_radio_driver/radio.c ****         ceilDenominator = 4 * datarate;
1169:Middlewares/Third_Party/SubGHz_Phy/stm32_radio_driver/radio.c ****     }
1170:Middlewares/Third_Party/SubGHz_Phy/stm32_radio_driver/radio.c ****     else
1171:Middlewares/Third_Party/SubGHz_Phy/stm32_radio_driver/radio.c ****     {
1172:Middlewares/Third_Party/SubGHz_Phy/stm32_radio_driver/radio.c ****         ceilNumerator += 8;
 315              		.loc 1 1172 9 is_stmt 1 view .LVU86
 316              		.loc 1 1172 23 is_stmt 0 view .LVU87
 317 0048 0CF1080C 		add	ip, ip, #8
 318              	.LVL38:
1173:Middlewares/Third_Party/SubGHz_Phy/stm32_radio_driver/radio.c **** 
1174:Middlewares/Third_Party/SubGHz_Phy/stm32_radio_driver/radio.c ****         if( lowDatareOptimize == true )
 319              		.loc 1 1174 9 is_stmt 1 view .LVU88
 320              		.loc 1 1174 11 is_stmt 0 view .LVU89
 321 004c 0EB1     		cbz	r6, .L30
1175:Middlewares/Third_Party/SubGHz_Phy/stm32_radio_driver/radio.c ****         {
1176:Middlewares/Third_Party/SubGHz_Phy/stm32_radio_driver/radio.c ****             ceilDenominator = 4 * ( datarate - 2 );
 322              		.loc 1 1176 13 is_stmt 1 view .LVU90
 323              		.loc 1 1176 46 is_stmt 0 view .LVU91
 324 004e 881E     		subs	r0, r1, #2
 325              		.loc 1 1176 33 view .LVU92
 326 0050 8000     		lsls	r0, r0, #2
 327              	.LVL39:
 328              	.L30:
1177:Middlewares/Third_Party/SubGHz_Phy/stm32_radio_driver/radio.c ****         }
1178:Middlewares/Third_Party/SubGHz_Phy/stm32_radio_driver/radio.c ****         else
1179:Middlewares/Third_Party/SubGHz_Phy/stm32_radio_driver/radio.c ****         {
1180:Middlewares/Third_Party/SubGHz_Phy/stm32_radio_driver/radio.c ****             ceilDenominator = 4 * datarate;
1181:Middlewares/Third_Party/SubGHz_Phy/stm32_radio_driver/radio.c ****         }
1182:Middlewares/Third_Party/SubGHz_Phy/stm32_radio_driver/radio.c ****     }
1183:Middlewares/Third_Party/SubGHz_Phy/stm32_radio_driver/radio.c **** 
1184:Middlewares/Third_Party/SubGHz_Phy/stm32_radio_driver/radio.c ****     if( ceilNumerator < 0 )
 329              		.loc 1 1184 5 is_stmt 1 view .LVU93
 330              		.loc 1 1184 7 is_stmt 0 view .LVU94
 331 0052 BCF1000F 		cmp	ip, #0
 332 0056 23DB     		blt	.L44
 333              	.LVL40:
 334              	.L32:
1185:Middlewares/Third_Party/SubGHz_Phy/stm32_radio_driver/radio.c ****     {
1186:Middlewares/Third_Party/SubGHz_Phy/stm32_radio_driver/radio.c ****         ceilNumerator = 0;
1187:Middlewares/Third_Party/SubGHz_Phy/stm32_radio_driver/radio.c ****     }
1188:Middlewares/Third_Party/SubGHz_Phy/stm32_radio_driver/radio.c **** 
1189:Middlewares/Third_Party/SubGHz_Phy/stm32_radio_driver/radio.c ****     // Perform integral ceil()
1190:Middlewares/Third_Party/SubGHz_Phy/stm32_radio_driver/radio.c ****     int32_t intermediate =
 335              		.loc 1 1190 5 is_stmt 1 view .LVU95
1191:Middlewares/Third_Party/SubGHz_Phy/stm32_radio_driver/radio.c ****         ( ( ceilNumerator + ceilDenominator - 1 ) / ceilDenominator ) * crDenom + preambleLen + 12;
 336              		.loc 1 1191 27 is_stmt 0 view .LVU96
ARM GAS  /tmp/ccldRdip.s 			page 28


 337 0058 8444     		add	ip, ip, r0
 338              	.LVL41:
 339              		.loc 1 1191 45 view .LVU97
 340 005a 0CF1FF3C 		add	ip, ip, #-1
 341              		.loc 1 1191 51 view .LVU98
 342 005e 9CFBF0FC 		sdiv	ip, ip, r0
 343              		.loc 1 1191 81 view .LVU99
 344 0062 02FB0C33 		mla	r3, r2, ip, r3
 345              	.LVL42:
1190:Middlewares/Third_Party/SubGHz_Phy/stm32_radio_driver/radio.c ****         ( ( ceilNumerator + ceilDenominator - 1 ) / ceilDenominator ) * crDenom + preambleLen + 12;
 346              		.loc 1 1190 13 view .LVU100
 347 0066 03F10C00 		add	r0, r3, #12
 348              	.LVL43:
1192:Middlewares/Third_Party/SubGHz_Phy/stm32_radio_driver/radio.c **** 
1193:Middlewares/Third_Party/SubGHz_Phy/stm32_radio_driver/radio.c ****     if( datarate <= 6 )
 349              		.loc 1 1193 5 is_stmt 1 view .LVU101
 350              		.loc 1 1193 7 is_stmt 0 view .LVU102
 351 006a 0629     		cmp	r1, #6
 352 006c 01D8     		bhi	.L33
1194:Middlewares/Third_Party/SubGHz_Phy/stm32_radio_driver/radio.c ****     {
1195:Middlewares/Third_Party/SubGHz_Phy/stm32_radio_driver/radio.c ****         intermediate += 2;
 353              		.loc 1 1195 9 is_stmt 1 view .LVU103
 354              		.loc 1 1195 22 is_stmt 0 view .LVU104
 355 006e 03F10E00 		add	r0, r3, #14
 356              	.LVL44:
 357              	.L33:
1196:Middlewares/Third_Party/SubGHz_Phy/stm32_radio_driver/radio.c ****     }
1197:Middlewares/Third_Party/SubGHz_Phy/stm32_radio_driver/radio.c **** 
1198:Middlewares/Third_Party/SubGHz_Phy/stm32_radio_driver/radio.c ****     return ( uint32_t )( ( 4 * intermediate + 1 ) * ( 1 << ( datarate - 2 ) ) );
 358              		.loc 1 1198 5 is_stmt 1 view .LVU105
 359              		.loc 1 1198 30 is_stmt 0 view .LVU106
 360 0072 8000     		lsls	r0, r0, #2
 361              	.LVL45:
 362              		.loc 1 1198 45 view .LVU107
 363 0074 0130     		adds	r0, r0, #1
 364              		.loc 1 1198 71 view .LVU108
 365 0076 0239     		subs	r1, r1, #2
 366              	.LVL46:
1199:Middlewares/Third_Party/SubGHz_Phy/stm32_radio_driver/radio.c **** }
 367              		.loc 1 1199 1 view .LVU109
 368 0078 8840     		lsls	r0, r0, r1
 369 007a 70BD     		pop	{r4, r5, r6, pc}
 370              	.LVL47:
 371              	.L42:
1148:Middlewares/Third_Party/SubGHz_Phy/stm32_radio_driver/radio.c ****         {
 372              		.loc 1 1148 9 is_stmt 1 view .LVU110
1148:Middlewares/Third_Party/SubGHz_Phy/stm32_radio_driver/radio.c ****         {
 373              		.loc 1 1148 11 is_stmt 0 view .LVU111
 374 007c 0B2B     		cmp	r3, #11
 375 007e CAD8     		bhi	.L24
1150:Middlewares/Third_Party/SubGHz_Phy/stm32_radio_driver/radio.c ****         }
 376              		.loc 1 1150 25 view .LVU112
 377 0080 0C23     		movs	r3, #12
 378              	.LVL48:
1150:Middlewares/Third_Party/SubGHz_Phy/stm32_radio_driver/radio.c ****         }
 379              		.loc 1 1150 25 view .LVU113
 380 0082 C8E7     		b	.L24
ARM GAS  /tmp/ccldRdip.s 			page 29


 381              	.LVL49:
 382              	.L43:
1155:Middlewares/Third_Party/SubGHz_Phy/stm32_radio_driver/radio.c ****     {
 383              		.loc 1 1155 30 view .LVU114
 384 0084 0C29     		cmp	r1, #12
 385 0086 03D0     		beq	.L37
1143:Middlewares/Third_Party/SubGHz_Phy/stm32_radio_driver/radio.c **** 
 386              		.loc 1 1143 13 view .LVU115
 387 0088 0026     		movs	r6, #0
 388 008a CCE7     		b	.L26
 389              	.L35:
1157:Middlewares/Third_Party/SubGHz_Phy/stm32_radio_driver/radio.c ****     }
 390              		.loc 1 1157 27 view .LVU116
 391 008c 0126     		movs	r6, #1
 392 008e CAE7     		b	.L26
 393              	.L37:
1157:Middlewares/Third_Party/SubGHz_Phy/stm32_radio_driver/radio.c ****     }
 394              		.loc 1 1157 27 view .LVU117
 395 0090 0126     		movs	r6, #1
 396 0092 C8E7     		b	.L26
 397              	.LVL50:
 398              	.L38:
1162:Middlewares/Third_Party/SubGHz_Phy/stm32_radio_driver/radio.c ****                             ( 4 * datarate ) +
 399              		.loc 1 1162 42 view .LVU118
 400 0094 4FF0000C 		mov	ip, #0
 401 0098 CCE7     		b	.L27
 402              	.LVL51:
 403              	.L39:
1164:Middlewares/Third_Party/SubGHz_Phy/stm32_radio_driver/radio.c **** 
 404              		.loc 1 1164 42 view .LVU119
 405 009a 4FF0140C 		mov	ip, #20
 406 009e D0E7     		b	.L28
 407              	.LVL52:
 408              	.L44:
1186:Middlewares/Third_Party/SubGHz_Phy/stm32_radio_driver/radio.c ****     }
 409              		.loc 1 1186 23 view .LVU120
 410 00a0 4FF0000C 		mov	ip, #0
 411              	.LVL53:
1186:Middlewares/Third_Party/SubGHz_Phy/stm32_radio_driver/radio.c ****     }
 412              		.loc 1 1186 23 view .LVU121
 413 00a4 D8E7     		b	.L32
 414              		.cfi_endproc
 415              	.LFE995:
 417              		.section	.text.RadioTimeOnAir,"ax",%progbits
 418              		.align	1
 419              		.syntax unified
 420              		.thumb
 421              		.thumb_func
 422              		.fpu softvfp
 424              	RadioTimeOnAir:
 425              	.LVL54:
 426              	.LFB996:
1200:Middlewares/Third_Party/SubGHz_Phy/stm32_radio_driver/radio.c **** 
1201:Middlewares/Third_Party/SubGHz_Phy/stm32_radio_driver/radio.c **** static uint32_t RadioTimeOnAir( RadioModems_t modem, uint32_t bandwidth,
1202:Middlewares/Third_Party/SubGHz_Phy/stm32_radio_driver/radio.c ****                                 uint32_t datarate, uint8_t coderate,
1203:Middlewares/Third_Party/SubGHz_Phy/stm32_radio_driver/radio.c ****                                 uint16_t preambleLen, bool fixLen, uint8_t payloadLen,
1204:Middlewares/Third_Party/SubGHz_Phy/stm32_radio_driver/radio.c ****                                 bool crcOn )
ARM GAS  /tmp/ccldRdip.s 			page 30


1205:Middlewares/Third_Party/SubGHz_Phy/stm32_radio_driver/radio.c **** {
 427              		.loc 1 1205 1 is_stmt 1 view -0
 428              		.cfi_startproc
 429              		@ args = 16, pretend = 0, frame = 0
 430              		@ frame_needed = 0, uses_anonymous_args = 0
 431              		.loc 1 1205 1 is_stmt 0 view .LVU123
 432 0000 F0B5     		push	{r4, r5, r6, r7, lr}
 433              	.LCFI1:
 434              		.cfi_def_cfa_offset 20
 435              		.cfi_offset 4, -20
 436              		.cfi_offset 5, -16
 437              		.cfi_offset 6, -12
 438              		.cfi_offset 7, -8
 439              		.cfi_offset 14, -4
 440 0002 85B0     		sub	sp, sp, #20
 441              	.LCFI2:
 442              		.cfi_def_cfa_offset 40
 443 0004 0E46     		mov	r6, r1
 444 0006 1546     		mov	r5, r2
 445 0008 1946     		mov	r1, r3
 446              	.LVL55:
 447              		.loc 1 1205 1 view .LVU124
 448 000a BDF82820 		ldrh	r2, [sp, #40]
 449              	.LVL56:
 450              		.loc 1 1205 1 view .LVU125
 451 000e 9DF82C30 		ldrb	r3, [sp, #44]	@ zero_extendqisi2
 452              	.LVL57:
 453              		.loc 1 1205 1 view .LVU126
 454 0012 9DF83070 		ldrb	r7, [sp, #48]	@ zero_extendqisi2
 455 0016 9DF834C0 		ldrb	ip, [sp, #52]	@ zero_extendqisi2
1206:Middlewares/Third_Party/SubGHz_Phy/stm32_radio_driver/radio.c ****     uint32_t numerator = 0;
 456              		.loc 1 1206 5 is_stmt 1 view .LVU127
 457              	.LVL58:
1207:Middlewares/Third_Party/SubGHz_Phy/stm32_radio_driver/radio.c ****     uint32_t denominator = 1;
 458              		.loc 1 1207 5 view .LVU128
1208:Middlewares/Third_Party/SubGHz_Phy/stm32_radio_driver/radio.c **** 
1209:Middlewares/Third_Party/SubGHz_Phy/stm32_radio_driver/radio.c ****     switch( modem )
 459              		.loc 1 1209 5 view .LVU129
 460 001a 48B1     		cbz	r0, .L46
 461 001c 0128     		cmp	r0, #1
 462 001e 12D0     		beq	.L47
 463 0020 0125     		movs	r5, #1
 464              	.LVL59:
 465              		.loc 1 1209 5 is_stmt 0 view .LVU130
 466 0022 0024     		movs	r4, #0
 467              	.LVL60:
 468              	.L48:
1210:Middlewares/Third_Party/SubGHz_Phy/stm32_radio_driver/radio.c ****     {
1211:Middlewares/Third_Party/SubGHz_Phy/stm32_radio_driver/radio.c ****     case MODEM_FSK:
1212:Middlewares/Third_Party/SubGHz_Phy/stm32_radio_driver/radio.c ****         {
1213:Middlewares/Third_Party/SubGHz_Phy/stm32_radio_driver/radio.c ****             numerator   = 1000U * RadioGetGfskTimeOnAirNumerator( datarate, coderate,
1214:Middlewares/Third_Party/SubGHz_Phy/stm32_radio_driver/radio.c ****                                                                   preambleLen, fixLen,
1215:Middlewares/Third_Party/SubGHz_Phy/stm32_radio_driver/radio.c ****                                                                   payloadLen, crcOn );
1216:Middlewares/Third_Party/SubGHz_Phy/stm32_radio_driver/radio.c ****             denominator = datarate;
1217:Middlewares/Third_Party/SubGHz_Phy/stm32_radio_driver/radio.c ****         }
1218:Middlewares/Third_Party/SubGHz_Phy/stm32_radio_driver/radio.c ****         break;
1219:Middlewares/Third_Party/SubGHz_Phy/stm32_radio_driver/radio.c ****     case MODEM_LORA:
ARM GAS  /tmp/ccldRdip.s 			page 31


1220:Middlewares/Third_Party/SubGHz_Phy/stm32_radio_driver/radio.c ****         {
1221:Middlewares/Third_Party/SubGHz_Phy/stm32_radio_driver/radio.c ****             numerator   = 1000U * RadioGetLoRaTimeOnAirNumerator( bandwidth, datarate,
1222:Middlewares/Third_Party/SubGHz_Phy/stm32_radio_driver/radio.c ****                                                                   coderate, preambleLen,
1223:Middlewares/Third_Party/SubGHz_Phy/stm32_radio_driver/radio.c ****                                                                   fixLen, payloadLen, crcOn );
1224:Middlewares/Third_Party/SubGHz_Phy/stm32_radio_driver/radio.c ****             denominator = RadioGetLoRaBandwidthInHz( Bandwidths[bandwidth] );
1225:Middlewares/Third_Party/SubGHz_Phy/stm32_radio_driver/radio.c ****         }
1226:Middlewares/Third_Party/SubGHz_Phy/stm32_radio_driver/radio.c ****         break;
1227:Middlewares/Third_Party/SubGHz_Phy/stm32_radio_driver/radio.c ****     default:
1228:Middlewares/Third_Party/SubGHz_Phy/stm32_radio_driver/radio.c ****         break;
1229:Middlewares/Third_Party/SubGHz_Phy/stm32_radio_driver/radio.c ****     }
1230:Middlewares/Third_Party/SubGHz_Phy/stm32_radio_driver/radio.c ****     // Perform integral ceil()
1231:Middlewares/Third_Party/SubGHz_Phy/stm32_radio_driver/radio.c ****     return DIVC(numerator, denominator); /* ST_WORKAROUND : simplified calculation with macro usage
 469              		.loc 1 1231 5 is_stmt 1 view .LVU131
 470              		.loc 1 1231 12 is_stmt 0 view .LVU132
 471 0024 2C44     		add	r4, r4, r5
 472              	.LVL61:
 473              		.loc 1 1231 12 view .LVU133
 474 0026 601E     		subs	r0, r4, #1
1232:Middlewares/Third_Party/SubGHz_Phy/stm32_radio_driver/radio.c **** }
 475              		.loc 1 1232 1 view .LVU134
 476 0028 B0FBF5F0 		udiv	r0, r0, r5
 477 002c 05B0     		add	sp, sp, #20
 478              	.LCFI3:
 479              		.cfi_remember_state
 480              		.cfi_def_cfa_offset 20
 481              		@ sp needed
 482 002e F0BD     		pop	{r4, r5, r6, r7, pc}
 483              	.LVL62:
 484              	.L46:
 485              	.LCFI4:
 486              		.cfi_restore_state
1213:Middlewares/Third_Party/SubGHz_Phy/stm32_radio_driver/radio.c ****                                                                   preambleLen, fixLen,
 487              		.loc 1 1213 13 is_stmt 1 view .LVU135
1213:Middlewares/Third_Party/SubGHz_Phy/stm32_radio_driver/radio.c ****                                                                   preambleLen, fixLen,
 488              		.loc 1 1213 35 is_stmt 0 view .LVU136
 489 0030 CDF804C0 		str	ip, [sp, #4]
 490 0034 0097     		str	r7, [sp]
 491 0036 2846     		mov	r0, r5
 492              	.LVL63:
1213:Middlewares/Third_Party/SubGHz_Phy/stm32_radio_driver/radio.c ****                                                                   preambleLen, fixLen,
 493              		.loc 1 1213 35 view .LVU137
 494 0038 FFF7FEFF 		bl	RadioGetGfskTimeOnAirNumerator
 495              	.LVL64:
1213:Middlewares/Third_Party/SubGHz_Phy/stm32_radio_driver/radio.c ****                                                                   preambleLen, fixLen,
 496              		.loc 1 1213 25 view .LVU138
 497 003c 4FF47A74 		mov	r4, #1000
 498 0040 00FB04F4 		mul	r4, r0, r4
 499              	.LVL65:
1216:Middlewares/Third_Party/SubGHz_Phy/stm32_radio_driver/radio.c ****         }
 500              		.loc 1 1216 13 is_stmt 1 view .LVU139
1218:Middlewares/Third_Party/SubGHz_Phy/stm32_radio_driver/radio.c ****     case MODEM_LORA:
 501              		.loc 1 1218 9 view .LVU140
 502 0044 EEE7     		b	.L48
 503              	.LVL66:
 504              	.L47:
1221:Middlewares/Third_Party/SubGHz_Phy/stm32_radio_driver/radio.c ****                                                                   coderate, preambleLen,
 505              		.loc 1 1221 13 view .LVU141
ARM GAS  /tmp/ccldRdip.s 			page 32


1221:Middlewares/Third_Party/SubGHz_Phy/stm32_radio_driver/radio.c ****                                                                   coderate, preambleLen,
 506              		.loc 1 1221 35 is_stmt 0 view .LVU142
 507 0046 CDF808C0 		str	ip, [sp, #8]
 508 004a 0197     		str	r7, [sp, #4]
 509 004c 0093     		str	r3, [sp]
 510 004e 1346     		mov	r3, r2
 511 0050 0A46     		mov	r2, r1
 512 0052 2946     		mov	r1, r5
 513 0054 3046     		mov	r0, r6
 514              	.LVL67:
1221:Middlewares/Third_Party/SubGHz_Phy/stm32_radio_driver/radio.c ****                                                                   coderate, preambleLen,
 515              		.loc 1 1221 35 view .LVU143
 516 0056 FFF7FEFF 		bl	RadioGetLoRaTimeOnAirNumerator
 517              	.LVL68:
1221:Middlewares/Third_Party/SubGHz_Phy/stm32_radio_driver/radio.c ****                                                                   coderate, preambleLen,
 518              		.loc 1 1221 25 view .LVU144
 519 005a 4FF47A74 		mov	r4, #1000
 520 005e 00FB04F4 		mul	r4, r0, r4
 521              	.LVL69:
1224:Middlewares/Third_Party/SubGHz_Phy/stm32_radio_driver/radio.c ****         }
 522              		.loc 1 1224 13 is_stmt 1 view .LVU145
1224:Middlewares/Third_Party/SubGHz_Phy/stm32_radio_driver/radio.c ****         }
 523              		.loc 1 1224 27 is_stmt 0 view .LVU146
 524 0062 034B     		ldr	r3, .L50
 525 0064 985D     		ldrb	r0, [r3, r6]	@ zero_extendqisi2
 526 0066 FFF7FEFF 		bl	RadioGetLoRaBandwidthInHz
 527              	.LVL70:
 528 006a 0546     		mov	r5, r0
 529              	.LVL71:
1226:Middlewares/Third_Party/SubGHz_Phy/stm32_radio_driver/radio.c ****     default:
 530              		.loc 1 1226 9 is_stmt 1 view .LVU147
 531 006c DAE7     		b	.L48
 532              	.L51:
 533 006e 00BF     		.align	2
 534              	.L50:
 535 0070 00000000 		.word	.LANCHOR0
 536              		.cfi_endproc
 537              	.LFE996:
 539              		.section	.text.RadioOnTxTimeoutProcess,"ax",%progbits
 540              		.align	1
 541              		.syntax unified
 542              		.thumb
 543              		.thumb_func
 544              		.fpu softvfp
 546              	RadioOnTxTimeoutProcess:
 547              	.LFB1015:
1233:Middlewares/Third_Party/SubGHz_Phy/stm32_radio_driver/radio.c **** 
1234:Middlewares/Third_Party/SubGHz_Phy/stm32_radio_driver/radio.c **** static void RadioSend( uint8_t *buffer, uint8_t size )
1235:Middlewares/Third_Party/SubGHz_Phy/stm32_radio_driver/radio.c **** {
1236:Middlewares/Third_Party/SubGHz_Phy/stm32_radio_driver/radio.c ****     /* ST_WORKAROUND_BEGIN : Set the debug pin and update the radio switch */
1237:Middlewares/Third_Party/SubGHz_Phy/stm32_radio_driver/radio.c ****     SUBGRF_SetDioIrqParams( IRQ_TX_DONE | IRQ_RX_TX_TIMEOUT | IRQ_TX_DBG,
1238:Middlewares/Third_Party/SubGHz_Phy/stm32_radio_driver/radio.c ****                             IRQ_TX_DONE | IRQ_RX_TX_TIMEOUT | IRQ_TX_DBG,
1239:Middlewares/Third_Party/SubGHz_Phy/stm32_radio_driver/radio.c ****                             IRQ_RADIO_NONE,
1240:Middlewares/Third_Party/SubGHz_Phy/stm32_radio_driver/radio.c ****                             IRQ_RADIO_NONE );
1241:Middlewares/Third_Party/SubGHz_Phy/stm32_radio_driver/radio.c ****     /* ST_WORKAROUND_END */
1242:Middlewares/Third_Party/SubGHz_Phy/stm32_radio_driver/radio.c **** 
1243:Middlewares/Third_Party/SubGHz_Phy/stm32_radio_driver/radio.c ****     /* ST_WORKAROUND_BEGIN : Set the debug pin and update the radio switch */
ARM GAS  /tmp/ccldRdip.s 			page 33


1244:Middlewares/Third_Party/SubGHz_Phy/stm32_radio_driver/radio.c ****     /* Set DBG pin */
1245:Middlewares/Third_Party/SubGHz_Phy/stm32_radio_driver/radio.c ****     DBG_GPIO_RADIO_TX(SET);
1246:Middlewares/Third_Party/SubGHz_Phy/stm32_radio_driver/radio.c **** 
1247:Middlewares/Third_Party/SubGHz_Phy/stm32_radio_driver/radio.c ****     /* Set RF switch */
1248:Middlewares/Third_Party/SubGHz_Phy/stm32_radio_driver/radio.c ****     SUBGRF_SetSwitch(SubgRf.AntSwitchPaSelect, RFSWITCH_TX);
1249:Middlewares/Third_Party/SubGHz_Phy/stm32_radio_driver/radio.c ****     /* WORKAROUND - Modulation Quality with 500 kHz LoRaTM Bandwidth*/
1250:Middlewares/Third_Party/SubGHz_Phy/stm32_radio_driver/radio.c ****     /* RegTxModulation = @address 0x0889 */
1251:Middlewares/Third_Party/SubGHz_Phy/stm32_radio_driver/radio.c ****     if((SubgRf.Modem==MODEM_LORA) && (SubgRf.ModulationParams.Params.LoRa.Bandwidth == LORA_BW_500 
1252:Middlewares/Third_Party/SubGHz_Phy/stm32_radio_driver/radio.c ****     {
1253:Middlewares/Third_Party/SubGHz_Phy/stm32_radio_driver/radio.c ****         SUBGRF_WriteRegister( 0x0889, SUBGRF_ReadRegister( 0x0889 ) & ~( 1 << 2 ) );
1254:Middlewares/Third_Party/SubGHz_Phy/stm32_radio_driver/radio.c ****     }
1255:Middlewares/Third_Party/SubGHz_Phy/stm32_radio_driver/radio.c ****     else
1256:Middlewares/Third_Party/SubGHz_Phy/stm32_radio_driver/radio.c ****     {
1257:Middlewares/Third_Party/SubGHz_Phy/stm32_radio_driver/radio.c ****         SUBGRF_WriteRegister( 0x0889, SUBGRF_ReadRegister( 0x0889 ) | ( 1 << 2 ) );
1258:Middlewares/Third_Party/SubGHz_Phy/stm32_radio_driver/radio.c ****     }
1259:Middlewares/Third_Party/SubGHz_Phy/stm32_radio_driver/radio.c ****     /* WORKAROUND END */
1260:Middlewares/Third_Party/SubGHz_Phy/stm32_radio_driver/radio.c ****     switch(SubgRf.Modem)
1261:Middlewares/Third_Party/SubGHz_Phy/stm32_radio_driver/radio.c ****     {
1262:Middlewares/Third_Party/SubGHz_Phy/stm32_radio_driver/radio.c ****         case MODEM_LORA:
1263:Middlewares/Third_Party/SubGHz_Phy/stm32_radio_driver/radio.c ****         {
1264:Middlewares/Third_Party/SubGHz_Phy/stm32_radio_driver/radio.c ****             SubgRf.PacketParams.Params.LoRa.PayloadLength = size;
1265:Middlewares/Third_Party/SubGHz_Phy/stm32_radio_driver/radio.c ****             SUBGRF_SetPacketParams( &SubgRf.PacketParams );
1266:Middlewares/Third_Party/SubGHz_Phy/stm32_radio_driver/radio.c ****             SUBGRF_SendPayload( buffer, size, 0 );
1267:Middlewares/Third_Party/SubGHz_Phy/stm32_radio_driver/radio.c ****             break;
1268:Middlewares/Third_Party/SubGHz_Phy/stm32_radio_driver/radio.c ****         }
1269:Middlewares/Third_Party/SubGHz_Phy/stm32_radio_driver/radio.c ****         case MODEM_FSK:
1270:Middlewares/Third_Party/SubGHz_Phy/stm32_radio_driver/radio.c ****         {
1271:Middlewares/Third_Party/SubGHz_Phy/stm32_radio_driver/radio.c ****             if ( 1UL == RFW_Is_Init( ) )
1272:Middlewares/Third_Party/SubGHz_Phy/stm32_radio_driver/radio.c ****             {
1273:Middlewares/Third_Party/SubGHz_Phy/stm32_radio_driver/radio.c ****               uint8_t outsize;
1274:Middlewares/Third_Party/SubGHz_Phy/stm32_radio_driver/radio.c ****               if ( 0UL == RFW_TransmitInit( buffer,size, &outsize ) )
1275:Middlewares/Third_Party/SubGHz_Phy/stm32_radio_driver/radio.c ****               {
1276:Middlewares/Third_Party/SubGHz_Phy/stm32_radio_driver/radio.c ****                   SubgRf.PacketParams.Params.Gfsk.PayloadLength = outsize;
1277:Middlewares/Third_Party/SubGHz_Phy/stm32_radio_driver/radio.c ****                   SUBGRF_SetPacketParams( &SubgRf.PacketParams );
1278:Middlewares/Third_Party/SubGHz_Phy/stm32_radio_driver/radio.c ****                   SUBGRF_SendPayload( buffer, outsize, 0 );
1279:Middlewares/Third_Party/SubGHz_Phy/stm32_radio_driver/radio.c ****               }
1280:Middlewares/Third_Party/SubGHz_Phy/stm32_radio_driver/radio.c ****               else
1281:Middlewares/Third_Party/SubGHz_Phy/stm32_radio_driver/radio.c ****               {
1282:Middlewares/Third_Party/SubGHz_Phy/stm32_radio_driver/radio.c ****                 MW_LOG( TS_ON, VLEVEL_M, "RadioSend Oversize\r\n");
1283:Middlewares/Third_Party/SubGHz_Phy/stm32_radio_driver/radio.c ****                 return;
1284:Middlewares/Third_Party/SubGHz_Phy/stm32_radio_driver/radio.c ****               }
1285:Middlewares/Third_Party/SubGHz_Phy/stm32_radio_driver/radio.c ****             }
1286:Middlewares/Third_Party/SubGHz_Phy/stm32_radio_driver/radio.c ****             else
1287:Middlewares/Third_Party/SubGHz_Phy/stm32_radio_driver/radio.c ****             {
1288:Middlewares/Third_Party/SubGHz_Phy/stm32_radio_driver/radio.c ****               SubgRf.PacketParams.Params.Gfsk.PayloadLength = size;
1289:Middlewares/Third_Party/SubGHz_Phy/stm32_radio_driver/radio.c ****               SUBGRF_SetPacketParams( &SubgRf.PacketParams );
1290:Middlewares/Third_Party/SubGHz_Phy/stm32_radio_driver/radio.c ****               SUBGRF_SendPayload( buffer, size, 0 );
1291:Middlewares/Third_Party/SubGHz_Phy/stm32_radio_driver/radio.c ****             }
1292:Middlewares/Third_Party/SubGHz_Phy/stm32_radio_driver/radio.c ****             break;
1293:Middlewares/Third_Party/SubGHz_Phy/stm32_radio_driver/radio.c ****         }
1294:Middlewares/Third_Party/SubGHz_Phy/stm32_radio_driver/radio.c ****         case MODEM_BPSK:
1295:Middlewares/Third_Party/SubGHz_Phy/stm32_radio_driver/radio.c ****         {
1296:Middlewares/Third_Party/SubGHz_Phy/stm32_radio_driver/radio.c ****             SubgRf.PacketParams.PacketType = PACKET_TYPE_BPSK;
1297:Middlewares/Third_Party/SubGHz_Phy/stm32_radio_driver/radio.c ****             SubgRf.PacketParams.Params.Bpsk.PayloadLength = size;
1298:Middlewares/Third_Party/SubGHz_Phy/stm32_radio_driver/radio.c ****             SUBGRF_SetPacketParams( &SubgRf.PacketParams );
1299:Middlewares/Third_Party/SubGHz_Phy/stm32_radio_driver/radio.c ****             SUBGRF_SendPayload( buffer, size, 0 );
1300:Middlewares/Third_Party/SubGHz_Phy/stm32_radio_driver/radio.c ****             break;
ARM GAS  /tmp/ccldRdip.s 			page 34


1301:Middlewares/Third_Party/SubGHz_Phy/stm32_radio_driver/radio.c ****         }
1302:Middlewares/Third_Party/SubGHz_Phy/stm32_radio_driver/radio.c ****         case MODEM_SIGFOX_TX:
1303:Middlewares/Third_Party/SubGHz_Phy/stm32_radio_driver/radio.c ****         {
1304:Middlewares/Third_Party/SubGHz_Phy/stm32_radio_driver/radio.c ****             /* from bpsk to dbpsk */
1305:Middlewares/Third_Party/SubGHz_Phy/stm32_radio_driver/radio.c ****             /* first 1 bit duplicated */
1306:Middlewares/Third_Party/SubGHz_Phy/stm32_radio_driver/radio.c ****             /* RadioBuffer is 1 bytes more */
1307:Middlewares/Third_Party/SubGHz_Phy/stm32_radio_driver/radio.c ****             payload_integration( RadioBuffer, buffer, size );
1308:Middlewares/Third_Party/SubGHz_Phy/stm32_radio_driver/radio.c **** 
1309:Middlewares/Third_Party/SubGHz_Phy/stm32_radio_driver/radio.c ****             SubgRf.PacketParams.PacketType = PACKET_TYPE_BPSK;
1310:Middlewares/Third_Party/SubGHz_Phy/stm32_radio_driver/radio.c ****             SubgRf.PacketParams.Params.Bpsk.PayloadLength = size + 1;
1311:Middlewares/Third_Party/SubGHz_Phy/stm32_radio_driver/radio.c ****             SUBGRF_SetPacketParams( &SubgRf.PacketParams );
1312:Middlewares/Third_Party/SubGHz_Phy/stm32_radio_driver/radio.c **** 
1313:Middlewares/Third_Party/SubGHz_Phy/stm32_radio_driver/radio.c ****             RadioWrite( 0x00F1, 0 ); // clean start-up LSB
1314:Middlewares/Third_Party/SubGHz_Phy/stm32_radio_driver/radio.c ****             RadioWrite( 0x00F0, 0 ); // clean start-up MSB
1315:Middlewares/Third_Party/SubGHz_Phy/stm32_radio_driver/radio.c ****             if( SubgRf.ModulationParams.Params.Bpsk.BitRate == 100 )
1316:Middlewares/Third_Party/SubGHz_Phy/stm32_radio_driver/radio.c ****             {
1317:Middlewares/Third_Party/SubGHz_Phy/stm32_radio_driver/radio.c ****                 RadioWrite( 0x00F3, 0x70 ); // clean end of frame LSB
1318:Middlewares/Third_Party/SubGHz_Phy/stm32_radio_driver/radio.c ****                 RadioWrite( 0x00F2, 0x1D ); // clean end of frame MSB
1319:Middlewares/Third_Party/SubGHz_Phy/stm32_radio_driver/radio.c ****             }
1320:Middlewares/Third_Party/SubGHz_Phy/stm32_radio_driver/radio.c ****             else // 600 bps
1321:Middlewares/Third_Party/SubGHz_Phy/stm32_radio_driver/radio.c ****             {
1322:Middlewares/Third_Party/SubGHz_Phy/stm32_radio_driver/radio.c ****                 RadioWrite( 0x00F3, 0xE1 ); // clean end of frame LSB
1323:Middlewares/Third_Party/SubGHz_Phy/stm32_radio_driver/radio.c ****                 RadioWrite( 0x00F2, 0x04 ); // clean end of frame MSB
1324:Middlewares/Third_Party/SubGHz_Phy/stm32_radio_driver/radio.c ****             }
1325:Middlewares/Third_Party/SubGHz_Phy/stm32_radio_driver/radio.c **** 
1326:Middlewares/Third_Party/SubGHz_Phy/stm32_radio_driver/radio.c ****             uint16_t bitNum = ( size * 8 ) + 2;
1327:Middlewares/Third_Party/SubGHz_Phy/stm32_radio_driver/radio.c ****             RadioWrite( 0x00F4, ( bitNum >> 8 ) & 0x00FF );    // limit frame
1328:Middlewares/Third_Party/SubGHz_Phy/stm32_radio_driver/radio.c ****             RadioWrite( 0x00F5, bitNum & 0x00FF );             // limit frame
1329:Middlewares/Third_Party/SubGHz_Phy/stm32_radio_driver/radio.c ****             SUBGRF_SendPayload( RadioBuffer, size+1 , 0xFFFFFF );
1330:Middlewares/Third_Party/SubGHz_Phy/stm32_radio_driver/radio.c ****             break;
1331:Middlewares/Third_Party/SubGHz_Phy/stm32_radio_driver/radio.c ****         }
1332:Middlewares/Third_Party/SubGHz_Phy/stm32_radio_driver/radio.c ****         default:
1333:Middlewares/Third_Party/SubGHz_Phy/stm32_radio_driver/radio.c ****             break;
1334:Middlewares/Third_Party/SubGHz_Phy/stm32_radio_driver/radio.c ****     }
1335:Middlewares/Third_Party/SubGHz_Phy/stm32_radio_driver/radio.c **** 
1336:Middlewares/Third_Party/SubGHz_Phy/stm32_radio_driver/radio.c ****     TimerSetValue( &TxTimeoutTimer, SubgRf.TxTimeout );
1337:Middlewares/Third_Party/SubGHz_Phy/stm32_radio_driver/radio.c ****     TimerStart( &TxTimeoutTimer );
1338:Middlewares/Third_Party/SubGHz_Phy/stm32_radio_driver/radio.c **** }
1339:Middlewares/Third_Party/SubGHz_Phy/stm32_radio_driver/radio.c **** 
1340:Middlewares/Third_Party/SubGHz_Phy/stm32_radio_driver/radio.c **** static void RadioSleep( void )
1341:Middlewares/Third_Party/SubGHz_Phy/stm32_radio_driver/radio.c **** {
1342:Middlewares/Third_Party/SubGHz_Phy/stm32_radio_driver/radio.c ****     SleepParams_t params = { 0 };
1343:Middlewares/Third_Party/SubGHz_Phy/stm32_radio_driver/radio.c **** 
1344:Middlewares/Third_Party/SubGHz_Phy/stm32_radio_driver/radio.c ****     params.Fields.WarmStart = 1;
1345:Middlewares/Third_Party/SubGHz_Phy/stm32_radio_driver/radio.c ****     SUBGRF_SetSleep( params );
1346:Middlewares/Third_Party/SubGHz_Phy/stm32_radio_driver/radio.c **** 
1347:Middlewares/Third_Party/SubGHz_Phy/stm32_radio_driver/radio.c ****     RADIO_DELAY_MS( 2 );
1348:Middlewares/Third_Party/SubGHz_Phy/stm32_radio_driver/radio.c **** }
1349:Middlewares/Third_Party/SubGHz_Phy/stm32_radio_driver/radio.c **** 
1350:Middlewares/Third_Party/SubGHz_Phy/stm32_radio_driver/radio.c **** static void RadioStandby( void )
1351:Middlewares/Third_Party/SubGHz_Phy/stm32_radio_driver/radio.c **** {
1352:Middlewares/Third_Party/SubGHz_Phy/stm32_radio_driver/radio.c ****     SUBGRF_SetStandby( STDBY_RC );
1353:Middlewares/Third_Party/SubGHz_Phy/stm32_radio_driver/radio.c **** }
1354:Middlewares/Third_Party/SubGHz_Phy/stm32_radio_driver/radio.c **** 
1355:Middlewares/Third_Party/SubGHz_Phy/stm32_radio_driver/radio.c **** static void RadioRx( uint32_t timeout )
1356:Middlewares/Third_Party/SubGHz_Phy/stm32_radio_driver/radio.c **** {
1357:Middlewares/Third_Party/SubGHz_Phy/stm32_radio_driver/radio.c ****     if ( 1UL == RFW_Is_Init( ) )
ARM GAS  /tmp/ccldRdip.s 			page 35


1358:Middlewares/Third_Party/SubGHz_Phy/stm32_radio_driver/radio.c ****     {
1359:Middlewares/Third_Party/SubGHz_Phy/stm32_radio_driver/radio.c ****       RFW_ReceiveInit( );
1360:Middlewares/Third_Party/SubGHz_Phy/stm32_radio_driver/radio.c ****     }
1361:Middlewares/Third_Party/SubGHz_Phy/stm32_radio_driver/radio.c ****     else
1362:Middlewares/Third_Party/SubGHz_Phy/stm32_radio_driver/radio.c ****     {
1363:Middlewares/Third_Party/SubGHz_Phy/stm32_radio_driver/radio.c ****       SUBGRF_SetDioIrqParams( IRQ_RX_DONE | IRQ_RX_TX_TIMEOUT | IRQ_CRC_ERROR | IRQ_HEADER_ERROR | 
1364:Middlewares/Third_Party/SubGHz_Phy/stm32_radio_driver/radio.c ****                               IRQ_RX_DONE | IRQ_RX_TX_TIMEOUT | IRQ_CRC_ERROR | IRQ_HEADER_ERROR | 
1365:Middlewares/Third_Party/SubGHz_Phy/stm32_radio_driver/radio.c ****                               IRQ_RADIO_NONE,
1366:Middlewares/Third_Party/SubGHz_Phy/stm32_radio_driver/radio.c ****                               IRQ_RADIO_NONE );
1367:Middlewares/Third_Party/SubGHz_Phy/stm32_radio_driver/radio.c ****     }
1368:Middlewares/Third_Party/SubGHz_Phy/stm32_radio_driver/radio.c **** 
1369:Middlewares/Third_Party/SubGHz_Phy/stm32_radio_driver/radio.c ****     if( timeout != 0 )
1370:Middlewares/Third_Party/SubGHz_Phy/stm32_radio_driver/radio.c ****     {
1371:Middlewares/Third_Party/SubGHz_Phy/stm32_radio_driver/radio.c ****         TimerSetValue( &RxTimeoutTimer, timeout );
1372:Middlewares/Third_Party/SubGHz_Phy/stm32_radio_driver/radio.c ****         TimerStart( &RxTimeoutTimer );
1373:Middlewares/Third_Party/SubGHz_Phy/stm32_radio_driver/radio.c ****     }
1374:Middlewares/Third_Party/SubGHz_Phy/stm32_radio_driver/radio.c **** 
1375:Middlewares/Third_Party/SubGHz_Phy/stm32_radio_driver/radio.c ****     /* ST_WORKAROUND_BEGIN : Set the debug pin and update the radio switch */
1376:Middlewares/Third_Party/SubGHz_Phy/stm32_radio_driver/radio.c ****     /* Set DBG pin */
1377:Middlewares/Third_Party/SubGHz_Phy/stm32_radio_driver/radio.c ****     DBG_GPIO_RADIO_RX(SET);
1378:Middlewares/Third_Party/SubGHz_Phy/stm32_radio_driver/radio.c **** 
1379:Middlewares/Third_Party/SubGHz_Phy/stm32_radio_driver/radio.c ****     /* RF switch configuration */
1380:Middlewares/Third_Party/SubGHz_Phy/stm32_radio_driver/radio.c ****     SUBGRF_SetSwitch(SubgRf.AntSwitchPaSelect, RFSWITCH_RX);
1381:Middlewares/Third_Party/SubGHz_Phy/stm32_radio_driver/radio.c ****     /* ST_WORKAROUND_END */
1382:Middlewares/Third_Party/SubGHz_Phy/stm32_radio_driver/radio.c **** 
1383:Middlewares/Third_Party/SubGHz_Phy/stm32_radio_driver/radio.c ****     if( SubgRf.RxContinuous == true )
1384:Middlewares/Third_Party/SubGHz_Phy/stm32_radio_driver/radio.c ****     {
1385:Middlewares/Third_Party/SubGHz_Phy/stm32_radio_driver/radio.c ****         SUBGRF_SetRx( 0xFFFFFF ); // Rx Continuous
1386:Middlewares/Third_Party/SubGHz_Phy/stm32_radio_driver/radio.c ****     }
1387:Middlewares/Third_Party/SubGHz_Phy/stm32_radio_driver/radio.c ****     else
1388:Middlewares/Third_Party/SubGHz_Phy/stm32_radio_driver/radio.c ****     {
1389:Middlewares/Third_Party/SubGHz_Phy/stm32_radio_driver/radio.c ****         SUBGRF_SetRx( SubgRf.RxTimeout << 6 );
1390:Middlewares/Third_Party/SubGHz_Phy/stm32_radio_driver/radio.c ****     }
1391:Middlewares/Third_Party/SubGHz_Phy/stm32_radio_driver/radio.c **** }
1392:Middlewares/Third_Party/SubGHz_Phy/stm32_radio_driver/radio.c **** 
1393:Middlewares/Third_Party/SubGHz_Phy/stm32_radio_driver/radio.c **** static void RadioRxBoosted( uint32_t timeout )
1394:Middlewares/Third_Party/SubGHz_Phy/stm32_radio_driver/radio.c **** {
1395:Middlewares/Third_Party/SubGHz_Phy/stm32_radio_driver/radio.c ****     if (1UL==RFW_Is_Init())
1396:Middlewares/Third_Party/SubGHz_Phy/stm32_radio_driver/radio.c ****     {
1397:Middlewares/Third_Party/SubGHz_Phy/stm32_radio_driver/radio.c ****       RFW_ReceiveInit();
1398:Middlewares/Third_Party/SubGHz_Phy/stm32_radio_driver/radio.c ****     }
1399:Middlewares/Third_Party/SubGHz_Phy/stm32_radio_driver/radio.c ****     else
1400:Middlewares/Third_Party/SubGHz_Phy/stm32_radio_driver/radio.c ****     {
1401:Middlewares/Third_Party/SubGHz_Phy/stm32_radio_driver/radio.c ****       SUBGRF_SetDioIrqParams( IRQ_RX_DONE | IRQ_RX_TX_TIMEOUT | IRQ_CRC_ERROR | IRQ_HEADER_ERROR | 
1402:Middlewares/Third_Party/SubGHz_Phy/stm32_radio_driver/radio.c ****                               IRQ_RX_DONE | IRQ_RX_TX_TIMEOUT | IRQ_CRC_ERROR | IRQ_HEADER_ERROR | 
1403:Middlewares/Third_Party/SubGHz_Phy/stm32_radio_driver/radio.c ****                               IRQ_RADIO_NONE,
1404:Middlewares/Third_Party/SubGHz_Phy/stm32_radio_driver/radio.c ****                               IRQ_RADIO_NONE );
1405:Middlewares/Third_Party/SubGHz_Phy/stm32_radio_driver/radio.c ****     }
1406:Middlewares/Third_Party/SubGHz_Phy/stm32_radio_driver/radio.c ****     if( timeout != 0 )
1407:Middlewares/Third_Party/SubGHz_Phy/stm32_radio_driver/radio.c ****     {
1408:Middlewares/Third_Party/SubGHz_Phy/stm32_radio_driver/radio.c ****         TimerSetValue( &RxTimeoutTimer, timeout );
1409:Middlewares/Third_Party/SubGHz_Phy/stm32_radio_driver/radio.c ****         TimerStart( &RxTimeoutTimer );
1410:Middlewares/Third_Party/SubGHz_Phy/stm32_radio_driver/radio.c ****     }
1411:Middlewares/Third_Party/SubGHz_Phy/stm32_radio_driver/radio.c **** 
1412:Middlewares/Third_Party/SubGHz_Phy/stm32_radio_driver/radio.c ****     /* RF switch configuration */
1413:Middlewares/Third_Party/SubGHz_Phy/stm32_radio_driver/radio.c ****     SUBGRF_SetSwitch(SubgRf.AntSwitchPaSelect, RFSWITCH_RX);
1414:Middlewares/Third_Party/SubGHz_Phy/stm32_radio_driver/radio.c **** 
ARM GAS  /tmp/ccldRdip.s 			page 36


1415:Middlewares/Third_Party/SubGHz_Phy/stm32_radio_driver/radio.c ****     if( SubgRf.RxContinuous == true )
1416:Middlewares/Third_Party/SubGHz_Phy/stm32_radio_driver/radio.c ****     {
1417:Middlewares/Third_Party/SubGHz_Phy/stm32_radio_driver/radio.c ****         SUBGRF_SetRxBoosted( 0xFFFFFF ); // Rx Continuous
1418:Middlewares/Third_Party/SubGHz_Phy/stm32_radio_driver/radio.c ****     }
1419:Middlewares/Third_Party/SubGHz_Phy/stm32_radio_driver/radio.c ****     else
1420:Middlewares/Third_Party/SubGHz_Phy/stm32_radio_driver/radio.c ****     {
1421:Middlewares/Third_Party/SubGHz_Phy/stm32_radio_driver/radio.c ****         SUBGRF_SetRxBoosted( SubgRf.RxTimeout << 6 );
1422:Middlewares/Third_Party/SubGHz_Phy/stm32_radio_driver/radio.c ****     }
1423:Middlewares/Third_Party/SubGHz_Phy/stm32_radio_driver/radio.c **** }
1424:Middlewares/Third_Party/SubGHz_Phy/stm32_radio_driver/radio.c **** 
1425:Middlewares/Third_Party/SubGHz_Phy/stm32_radio_driver/radio.c **** static void RadioSetRxDutyCycle( uint32_t rxTime, uint32_t sleepTime )
1426:Middlewares/Third_Party/SubGHz_Phy/stm32_radio_driver/radio.c **** {
1427:Middlewares/Third_Party/SubGHz_Phy/stm32_radio_driver/radio.c ****     /* RF switch configuration */
1428:Middlewares/Third_Party/SubGHz_Phy/stm32_radio_driver/radio.c ****     SUBGRF_SetSwitch(SubgRf.AntSwitchPaSelect, RFSWITCH_RX);
1429:Middlewares/Third_Party/SubGHz_Phy/stm32_radio_driver/radio.c **** 
1430:Middlewares/Third_Party/SubGHz_Phy/stm32_radio_driver/radio.c ****     SUBGRF_SetRxDutyCycle( rxTime, sleepTime );
1431:Middlewares/Third_Party/SubGHz_Phy/stm32_radio_driver/radio.c **** }
1432:Middlewares/Third_Party/SubGHz_Phy/stm32_radio_driver/radio.c **** 
1433:Middlewares/Third_Party/SubGHz_Phy/stm32_radio_driver/radio.c **** static void RadioStartCad( void )
1434:Middlewares/Third_Party/SubGHz_Phy/stm32_radio_driver/radio.c **** {
1435:Middlewares/Third_Party/SubGHz_Phy/stm32_radio_driver/radio.c ****     /* RF switch configuration */
1436:Middlewares/Third_Party/SubGHz_Phy/stm32_radio_driver/radio.c ****     SUBGRF_SetSwitch(SubgRf.AntSwitchPaSelect, RFSWITCH_RX);
1437:Middlewares/Third_Party/SubGHz_Phy/stm32_radio_driver/radio.c **** 
1438:Middlewares/Third_Party/SubGHz_Phy/stm32_radio_driver/radio.c ****     SUBGRF_SetDioIrqParams( IRQ_CAD_CLEAR | IRQ_CAD_DETECTED,
1439:Middlewares/Third_Party/SubGHz_Phy/stm32_radio_driver/radio.c ****                             IRQ_CAD_CLEAR | IRQ_CAD_DETECTED,
1440:Middlewares/Third_Party/SubGHz_Phy/stm32_radio_driver/radio.c ****                             IRQ_RADIO_NONE,
1441:Middlewares/Third_Party/SubGHz_Phy/stm32_radio_driver/radio.c ****                             IRQ_RADIO_NONE );
1442:Middlewares/Third_Party/SubGHz_Phy/stm32_radio_driver/radio.c ****     SUBGRF_SetCad( );
1443:Middlewares/Third_Party/SubGHz_Phy/stm32_radio_driver/radio.c **** }
1444:Middlewares/Third_Party/SubGHz_Phy/stm32_radio_driver/radio.c **** 
1445:Middlewares/Third_Party/SubGHz_Phy/stm32_radio_driver/radio.c **** static void RadioSetTxContinuousWave( uint32_t freq, int8_t power, uint16_t time )
1446:Middlewares/Third_Party/SubGHz_Phy/stm32_radio_driver/radio.c **** {
1447:Middlewares/Third_Party/SubGHz_Phy/stm32_radio_driver/radio.c ****     uint32_t timeout = ( uint32_t )time * 1000;
1448:Middlewares/Third_Party/SubGHz_Phy/stm32_radio_driver/radio.c ****     uint8_t antswitchpow;
1449:Middlewares/Third_Party/SubGHz_Phy/stm32_radio_driver/radio.c **** 
1450:Middlewares/Third_Party/SubGHz_Phy/stm32_radio_driver/radio.c ****     SUBGRF_SetRfFrequency( freq );
1451:Middlewares/Third_Party/SubGHz_Phy/stm32_radio_driver/radio.c **** 
1452:Middlewares/Third_Party/SubGHz_Phy/stm32_radio_driver/radio.c ****     antswitchpow = SUBGRF_SetRfTxPower( power );
1453:Middlewares/Third_Party/SubGHz_Phy/stm32_radio_driver/radio.c **** 
1454:Middlewares/Third_Party/SubGHz_Phy/stm32_radio_driver/radio.c ****     /* Set RF switch */
1455:Middlewares/Third_Party/SubGHz_Phy/stm32_radio_driver/radio.c ****     SUBGRF_SetSwitch(antswitchpow, RFSWITCH_TX);
1456:Middlewares/Third_Party/SubGHz_Phy/stm32_radio_driver/radio.c **** 
1457:Middlewares/Third_Party/SubGHz_Phy/stm32_radio_driver/radio.c ****     SUBGRF_SetTxContinuousWave( );
1458:Middlewares/Third_Party/SubGHz_Phy/stm32_radio_driver/radio.c **** 
1459:Middlewares/Third_Party/SubGHz_Phy/stm32_radio_driver/radio.c ****     TimerSetValue( &TxTimeoutTimer, timeout );
1460:Middlewares/Third_Party/SubGHz_Phy/stm32_radio_driver/radio.c ****     TimerStart( &TxTimeoutTimer );
1461:Middlewares/Third_Party/SubGHz_Phy/stm32_radio_driver/radio.c **** }
1462:Middlewares/Third_Party/SubGHz_Phy/stm32_radio_driver/radio.c **** 
1463:Middlewares/Third_Party/SubGHz_Phy/stm32_radio_driver/radio.c **** static int16_t RadioRssi( RadioModems_t modem )
1464:Middlewares/Third_Party/SubGHz_Phy/stm32_radio_driver/radio.c **** {
1465:Middlewares/Third_Party/SubGHz_Phy/stm32_radio_driver/radio.c ****     return SUBGRF_GetRssiInst( );
1466:Middlewares/Third_Party/SubGHz_Phy/stm32_radio_driver/radio.c **** }
1467:Middlewares/Third_Party/SubGHz_Phy/stm32_radio_driver/radio.c **** 
1468:Middlewares/Third_Party/SubGHz_Phy/stm32_radio_driver/radio.c **** static void RadioWrite( uint16_t addr, uint8_t data )
1469:Middlewares/Third_Party/SubGHz_Phy/stm32_radio_driver/radio.c **** {
1470:Middlewares/Third_Party/SubGHz_Phy/stm32_radio_driver/radio.c ****     SUBGRF_WriteRegister(addr, data );
1471:Middlewares/Third_Party/SubGHz_Phy/stm32_radio_driver/radio.c **** }
ARM GAS  /tmp/ccldRdip.s 			page 37


1472:Middlewares/Third_Party/SubGHz_Phy/stm32_radio_driver/radio.c **** 
1473:Middlewares/Third_Party/SubGHz_Phy/stm32_radio_driver/radio.c **** static uint8_t RadioRead( uint16_t addr )
1474:Middlewares/Third_Party/SubGHz_Phy/stm32_radio_driver/radio.c **** {
1475:Middlewares/Third_Party/SubGHz_Phy/stm32_radio_driver/radio.c ****     return SUBGRF_ReadRegister(addr);
1476:Middlewares/Third_Party/SubGHz_Phy/stm32_radio_driver/radio.c **** }
1477:Middlewares/Third_Party/SubGHz_Phy/stm32_radio_driver/radio.c **** 
1478:Middlewares/Third_Party/SubGHz_Phy/stm32_radio_driver/radio.c **** static void RadioWriteRegisters( uint16_t addr, uint8_t *buffer, uint8_t size )
1479:Middlewares/Third_Party/SubGHz_Phy/stm32_radio_driver/radio.c **** {
1480:Middlewares/Third_Party/SubGHz_Phy/stm32_radio_driver/radio.c ****     SUBGRF_WriteRegisters( addr, buffer, size );
1481:Middlewares/Third_Party/SubGHz_Phy/stm32_radio_driver/radio.c **** }
1482:Middlewares/Third_Party/SubGHz_Phy/stm32_radio_driver/radio.c **** 
1483:Middlewares/Third_Party/SubGHz_Phy/stm32_radio_driver/radio.c **** static void RadioReadRegisters( uint16_t addr, uint8_t *buffer, uint8_t size )
1484:Middlewares/Third_Party/SubGHz_Phy/stm32_radio_driver/radio.c **** {
1485:Middlewares/Third_Party/SubGHz_Phy/stm32_radio_driver/radio.c ****     SUBGRF_ReadRegisters( addr, buffer, size );
1486:Middlewares/Third_Party/SubGHz_Phy/stm32_radio_driver/radio.c **** }
1487:Middlewares/Third_Party/SubGHz_Phy/stm32_radio_driver/radio.c **** 
1488:Middlewares/Third_Party/SubGHz_Phy/stm32_radio_driver/radio.c **** static void RadioSetMaxPayloadLength( RadioModems_t modem, uint8_t max )
1489:Middlewares/Third_Party/SubGHz_Phy/stm32_radio_driver/radio.c **** {
1490:Middlewares/Third_Party/SubGHz_Phy/stm32_radio_driver/radio.c ****     if( modem == MODEM_LORA )
1491:Middlewares/Third_Party/SubGHz_Phy/stm32_radio_driver/radio.c ****     {
1492:Middlewares/Third_Party/SubGHz_Phy/stm32_radio_driver/radio.c ****         SubgRf.PacketParams.Params.LoRa.PayloadLength = MaxPayloadLength = max;
1493:Middlewares/Third_Party/SubGHz_Phy/stm32_radio_driver/radio.c ****         SUBGRF_SetPacketParams( &SubgRf.PacketParams );
1494:Middlewares/Third_Party/SubGHz_Phy/stm32_radio_driver/radio.c ****     }
1495:Middlewares/Third_Party/SubGHz_Phy/stm32_radio_driver/radio.c ****     else
1496:Middlewares/Third_Party/SubGHz_Phy/stm32_radio_driver/radio.c ****     {
1497:Middlewares/Third_Party/SubGHz_Phy/stm32_radio_driver/radio.c ****         if( SubgRf.PacketParams.Params.Gfsk.HeaderType == RADIO_PACKET_VARIABLE_LENGTH )
1498:Middlewares/Third_Party/SubGHz_Phy/stm32_radio_driver/radio.c ****         {
1499:Middlewares/Third_Party/SubGHz_Phy/stm32_radio_driver/radio.c ****             SubgRf.PacketParams.Params.Gfsk.PayloadLength = MaxPayloadLength = max;
1500:Middlewares/Third_Party/SubGHz_Phy/stm32_radio_driver/radio.c ****             SUBGRF_SetPacketParams( &SubgRf.PacketParams );
1501:Middlewares/Third_Party/SubGHz_Phy/stm32_radio_driver/radio.c ****         }
1502:Middlewares/Third_Party/SubGHz_Phy/stm32_radio_driver/radio.c ****     }
1503:Middlewares/Third_Party/SubGHz_Phy/stm32_radio_driver/radio.c **** }
1504:Middlewares/Third_Party/SubGHz_Phy/stm32_radio_driver/radio.c **** 
1505:Middlewares/Third_Party/SubGHz_Phy/stm32_radio_driver/radio.c **** static void RadioSetPublicNetwork( bool enable )
1506:Middlewares/Third_Party/SubGHz_Phy/stm32_radio_driver/radio.c **** {
1507:Middlewares/Third_Party/SubGHz_Phy/stm32_radio_driver/radio.c ****     SubgRf.PublicNetwork.Current = SubgRf.PublicNetwork.Previous = enable;
1508:Middlewares/Third_Party/SubGHz_Phy/stm32_radio_driver/radio.c **** 
1509:Middlewares/Third_Party/SubGHz_Phy/stm32_radio_driver/radio.c ****     RadioSetModem( MODEM_LORA );
1510:Middlewares/Third_Party/SubGHz_Phy/stm32_radio_driver/radio.c ****     if( enable == true )
1511:Middlewares/Third_Party/SubGHz_Phy/stm32_radio_driver/radio.c ****     {
1512:Middlewares/Third_Party/SubGHz_Phy/stm32_radio_driver/radio.c ****         // Change LoRa modem SyncWord
1513:Middlewares/Third_Party/SubGHz_Phy/stm32_radio_driver/radio.c ****         SUBGRF_WriteRegister( REG_LR_SYNCWORD, ( LORA_MAC_PUBLIC_SYNCWORD >> 8 ) & 0xFF );
1514:Middlewares/Third_Party/SubGHz_Phy/stm32_radio_driver/radio.c ****         SUBGRF_WriteRegister( REG_LR_SYNCWORD + 1, LORA_MAC_PUBLIC_SYNCWORD & 0xFF );
1515:Middlewares/Third_Party/SubGHz_Phy/stm32_radio_driver/radio.c ****     }
1516:Middlewares/Third_Party/SubGHz_Phy/stm32_radio_driver/radio.c ****     else
1517:Middlewares/Third_Party/SubGHz_Phy/stm32_radio_driver/radio.c ****     {
1518:Middlewares/Third_Party/SubGHz_Phy/stm32_radio_driver/radio.c ****         // Change LoRa modem SyncWord
1519:Middlewares/Third_Party/SubGHz_Phy/stm32_radio_driver/radio.c ****         SUBGRF_WriteRegister( REG_LR_SYNCWORD, ( LORA_MAC_PRIVATE_SYNCWORD >> 8 ) & 0xFF );
1520:Middlewares/Third_Party/SubGHz_Phy/stm32_radio_driver/radio.c ****         SUBGRF_WriteRegister( REG_LR_SYNCWORD + 1, LORA_MAC_PRIVATE_SYNCWORD & 0xFF );
1521:Middlewares/Third_Party/SubGHz_Phy/stm32_radio_driver/radio.c ****     }
1522:Middlewares/Third_Party/SubGHz_Phy/stm32_radio_driver/radio.c **** }
1523:Middlewares/Third_Party/SubGHz_Phy/stm32_radio_driver/radio.c **** 
1524:Middlewares/Third_Party/SubGHz_Phy/stm32_radio_driver/radio.c **** static uint32_t RadioGetWakeupTime( void )
1525:Middlewares/Third_Party/SubGHz_Phy/stm32_radio_driver/radio.c **** {
1526:Middlewares/Third_Party/SubGHz_Phy/stm32_radio_driver/radio.c ****     return SUBGRF_GetRadioWakeUpTime() + RADIO_WAKEUP_TIME;
1527:Middlewares/Third_Party/SubGHz_Phy/stm32_radio_driver/radio.c **** }
1528:Middlewares/Third_Party/SubGHz_Phy/stm32_radio_driver/radio.c **** 
ARM GAS  /tmp/ccldRdip.s 			page 38


1529:Middlewares/Third_Party/SubGHz_Phy/stm32_radio_driver/radio.c **** static void RadioOnTxTimeoutIrq( void* context )
1530:Middlewares/Third_Party/SubGHz_Phy/stm32_radio_driver/radio.c **** {
1531:Middlewares/Third_Party/SubGHz_Phy/stm32_radio_driver/radio.c ****     RADIO_TX_TIMEOUT_PROCESS();
1532:Middlewares/Third_Party/SubGHz_Phy/stm32_radio_driver/radio.c **** }
1533:Middlewares/Third_Party/SubGHz_Phy/stm32_radio_driver/radio.c **** 
1534:Middlewares/Third_Party/SubGHz_Phy/stm32_radio_driver/radio.c **** static void RadioOnRxTimeoutIrq( void* context )
1535:Middlewares/Third_Party/SubGHz_Phy/stm32_radio_driver/radio.c **** {
1536:Middlewares/Third_Party/SubGHz_Phy/stm32_radio_driver/radio.c ****     RADIO_RX_TIMEOUT_PROCESS();
1537:Middlewares/Third_Party/SubGHz_Phy/stm32_radio_driver/radio.c **** }
1538:Middlewares/Third_Party/SubGHz_Phy/stm32_radio_driver/radio.c **** 
1539:Middlewares/Third_Party/SubGHz_Phy/stm32_radio_driver/radio.c **** static void RadioOnTxTimeoutProcess( void )
1540:Middlewares/Third_Party/SubGHz_Phy/stm32_radio_driver/radio.c **** {
 548              		.loc 1 1540 1 view -0
 549              		.cfi_startproc
 550              		@ args = 0, pretend = 0, frame = 0
 551              		@ frame_needed = 0, uses_anonymous_args = 0
 552 0000 08B5     		push	{r3, lr}
 553              	.LCFI5:
 554              		.cfi_def_cfa_offset 8
 555              		.cfi_offset 3, -8
 556              		.cfi_offset 14, -4
1541:Middlewares/Third_Party/SubGHz_Phy/stm32_radio_driver/radio.c ****     /* ST_WORKAROUND_BEGIN: Reset DBG pin */
1542:Middlewares/Third_Party/SubGHz_Phy/stm32_radio_driver/radio.c ****     DBG_GPIO_RADIO_TX(RST);
 557              		.loc 1 1542 27 view .LVU149
1543:Middlewares/Third_Party/SubGHz_Phy/stm32_radio_driver/radio.c ****     /* ST_WORKAROUND_END */
1544:Middlewares/Third_Party/SubGHz_Phy/stm32_radio_driver/radio.c **** 
1545:Middlewares/Third_Party/SubGHz_Phy/stm32_radio_driver/radio.c ****     if( ( RadioEvents != NULL ) && ( RadioEvents->TxTimeout != NULL ) )
 558              		.loc 1 1545 5 view .LVU150
 559              		.loc 1 1545 23 is_stmt 0 view .LVU151
 560 0002 034B     		ldr	r3, .L55
 561 0004 1B68     		ldr	r3, [r3]
 562              		.loc 1 1545 7 view .LVU152
 563 0006 13B1     		cbz	r3, .L52
 564              		.loc 1 1545 49 discriminator 1 view .LVU153
 565 0008 5B68     		ldr	r3, [r3, #4]
 566              		.loc 1 1545 33 discriminator 1 view .LVU154
 567 000a 03B1     		cbz	r3, .L52
1546:Middlewares/Third_Party/SubGHz_Phy/stm32_radio_driver/radio.c ****     {
1547:Middlewares/Third_Party/SubGHz_Phy/stm32_radio_driver/radio.c ****         RadioEvents->TxTimeout( );
 568              		.loc 1 1547 9 is_stmt 1 view .LVU155
 569 000c 9847     		blx	r3
 570              	.LVL72:
 571              	.L52:
1548:Middlewares/Third_Party/SubGHz_Phy/stm32_radio_driver/radio.c ****     }
1549:Middlewares/Third_Party/SubGHz_Phy/stm32_radio_driver/radio.c **** }
 572              		.loc 1 1549 1 is_stmt 0 view .LVU156
 573 000e 08BD     		pop	{r3, pc}
 574              	.L56:
 575              		.align	2
 576              	.L55:
 577 0010 00000000 		.word	.LANCHOR1
 578              		.cfi_endproc
 579              	.LFE1015:
 581              		.section	.text.RadioOnTxTimeoutIrq,"ax",%progbits
 582              		.align	1
 583              		.syntax unified
 584              		.thumb
ARM GAS  /tmp/ccldRdip.s 			page 39


 585              		.thumb_func
 586              		.fpu softvfp
 588              	RadioOnTxTimeoutIrq:
 589              	.LVL73:
 590              	.LFB1013:
1530:Middlewares/Third_Party/SubGHz_Phy/stm32_radio_driver/radio.c ****     RADIO_TX_TIMEOUT_PROCESS();
 591              		.loc 1 1530 1 is_stmt 1 view -0
 592              		.cfi_startproc
 593              		@ args = 0, pretend = 0, frame = 0
 594              		@ frame_needed = 0, uses_anonymous_args = 0
1530:Middlewares/Third_Party/SubGHz_Phy/stm32_radio_driver/radio.c ****     RADIO_TX_TIMEOUT_PROCESS();
 595              		.loc 1 1530 1 is_stmt 0 view .LVU158
 596 0000 08B5     		push	{r3, lr}
 597              	.LCFI6:
 598              		.cfi_def_cfa_offset 8
 599              		.cfi_offset 3, -8
 600              		.cfi_offset 14, -4
1531:Middlewares/Third_Party/SubGHz_Phy/stm32_radio_driver/radio.c **** }
 601              		.loc 1 1531 5 is_stmt 1 view .LVU159
 602 0002 FFF7FEFF 		bl	RadioOnTxTimeoutProcess
 603              	.LVL74:
1532:Middlewares/Third_Party/SubGHz_Phy/stm32_radio_driver/radio.c **** 
 604              		.loc 1 1532 1 is_stmt 0 view .LVU160
 605 0006 08BD     		pop	{r3, pc}
 606              		.cfi_endproc
 607              	.LFE1013:
 609              		.section	.text.RadioOnRxTimeoutProcess,"ax",%progbits
 610              		.align	1
 611              		.syntax unified
 612              		.thumb
 613              		.thumb_func
 614              		.fpu softvfp
 616              	RadioOnRxTimeoutProcess:
 617              	.LFB1016:
1550:Middlewares/Third_Party/SubGHz_Phy/stm32_radio_driver/radio.c **** 
1551:Middlewares/Third_Party/SubGHz_Phy/stm32_radio_driver/radio.c **** static void RadioOnRxTimeoutProcess( void )
1552:Middlewares/Third_Party/SubGHz_Phy/stm32_radio_driver/radio.c **** {
 618              		.loc 1 1552 1 is_stmt 1 view -0
 619              		.cfi_startproc
 620              		@ args = 0, pretend = 0, frame = 0
 621              		@ frame_needed = 0, uses_anonymous_args = 0
 622 0000 08B5     		push	{r3, lr}
 623              	.LCFI7:
 624              		.cfi_def_cfa_offset 8
 625              		.cfi_offset 3, -8
 626              		.cfi_offset 14, -4
1553:Middlewares/Third_Party/SubGHz_Phy/stm32_radio_driver/radio.c ****     /* ST_WORKAROUND_BEGIN: Reset DBG pin */
1554:Middlewares/Third_Party/SubGHz_Phy/stm32_radio_driver/radio.c ****     DBG_GPIO_RADIO_RX(RST);
 627              		.loc 1 1554 27 view .LVU162
1555:Middlewares/Third_Party/SubGHz_Phy/stm32_radio_driver/radio.c ****     /* ST_WORKAROUND_END */
1556:Middlewares/Third_Party/SubGHz_Phy/stm32_radio_driver/radio.c **** 
1557:Middlewares/Third_Party/SubGHz_Phy/stm32_radio_driver/radio.c ****     if( ( RadioEvents != NULL ) && ( RadioEvents->RxTimeout != NULL ) )
 628              		.loc 1 1557 5 view .LVU163
 629              		.loc 1 1557 23 is_stmt 0 view .LVU164
 630 0002 034B     		ldr	r3, .L62
 631 0004 1B68     		ldr	r3, [r3]
 632              		.loc 1 1557 7 view .LVU165
ARM GAS  /tmp/ccldRdip.s 			page 40


 633 0006 13B1     		cbz	r3, .L59
 634              		.loc 1 1557 49 discriminator 1 view .LVU166
 635 0008 DB68     		ldr	r3, [r3, #12]
 636              		.loc 1 1557 33 discriminator 1 view .LVU167
 637 000a 03B1     		cbz	r3, .L59
1558:Middlewares/Third_Party/SubGHz_Phy/stm32_radio_driver/radio.c ****     {
1559:Middlewares/Third_Party/SubGHz_Phy/stm32_radio_driver/radio.c ****         RadioEvents->RxTimeout( );
 638              		.loc 1 1559 9 is_stmt 1 view .LVU168
 639 000c 9847     		blx	r3
 640              	.LVL75:
 641              	.L59:
1560:Middlewares/Third_Party/SubGHz_Phy/stm32_radio_driver/radio.c ****     }
1561:Middlewares/Third_Party/SubGHz_Phy/stm32_radio_driver/radio.c **** }
 642              		.loc 1 1561 1 is_stmt 0 view .LVU169
 643 000e 08BD     		pop	{r3, pc}
 644              	.L63:
 645              		.align	2
 646              	.L62:
 647 0010 00000000 		.word	.LANCHOR1
 648              		.cfi_endproc
 649              	.LFE1016:
 651              		.section	.text.RadioOnRxTimeoutIrq,"ax",%progbits
 652              		.align	1
 653              		.syntax unified
 654              		.thumb
 655              		.thumb_func
 656              		.fpu softvfp
 658              	RadioOnRxTimeoutIrq:
 659              	.LVL76:
 660              	.LFB1014:
1535:Middlewares/Third_Party/SubGHz_Phy/stm32_radio_driver/radio.c ****     RADIO_RX_TIMEOUT_PROCESS();
 661              		.loc 1 1535 1 is_stmt 1 view -0
 662              		.cfi_startproc
 663              		@ args = 0, pretend = 0, frame = 0
 664              		@ frame_needed = 0, uses_anonymous_args = 0
1535:Middlewares/Third_Party/SubGHz_Phy/stm32_radio_driver/radio.c ****     RADIO_RX_TIMEOUT_PROCESS();
 665              		.loc 1 1535 1 is_stmt 0 view .LVU171
 666 0000 08B5     		push	{r3, lr}
 667              	.LCFI8:
 668              		.cfi_def_cfa_offset 8
 669              		.cfi_offset 3, -8
 670              		.cfi_offset 14, -4
1536:Middlewares/Third_Party/SubGHz_Phy/stm32_radio_driver/radio.c **** }
 671              		.loc 1 1536 5 is_stmt 1 view .LVU172
 672 0002 FFF7FEFF 		bl	RadioOnRxTimeoutProcess
 673              	.LVL77:
1537:Middlewares/Third_Party/SubGHz_Phy/stm32_radio_driver/radio.c **** 
 674              		.loc 1 1537 1 is_stmt 0 view .LVU173
 675 0006 08BD     		pop	{r3, pc}
 676              		.cfi_endproc
 677              	.LFE1014:
 679              		.section	.text.payload_integration,"ax",%progbits
 680              		.align	1
 681              		.syntax unified
 682              		.thumb
 683              		.thumb_func
 684              		.fpu softvfp
ARM GAS  /tmp/ccldRdip.s 			page 41


 686              	payload_integration:
 687              	.LVL78:
 688              	.LFB1021:
1562:Middlewares/Third_Party/SubGHz_Phy/stm32_radio_driver/radio.c **** 
1563:Middlewares/Third_Party/SubGHz_Phy/stm32_radio_driver/radio.c **** static void RadioOnDioIrq( RadioIrqMasks_t radioIrq )
1564:Middlewares/Third_Party/SubGHz_Phy/stm32_radio_driver/radio.c **** {
1565:Middlewares/Third_Party/SubGHz_Phy/stm32_radio_driver/radio.c ****     SubgRf.RadioIrq = radioIrq;
1566:Middlewares/Third_Party/SubGHz_Phy/stm32_radio_driver/radio.c **** 
1567:Middlewares/Third_Party/SubGHz_Phy/stm32_radio_driver/radio.c ****     RADIO_IRQ_PROCESS();
1568:Middlewares/Third_Party/SubGHz_Phy/stm32_radio_driver/radio.c **** }
1569:Middlewares/Third_Party/SubGHz_Phy/stm32_radio_driver/radio.c **** 
1570:Middlewares/Third_Party/SubGHz_Phy/stm32_radio_driver/radio.c **** static void RadioIrqProcess( void )
1571:Middlewares/Third_Party/SubGHz_Phy/stm32_radio_driver/radio.c **** {
1572:Middlewares/Third_Party/SubGHz_Phy/stm32_radio_driver/radio.c ****     uint8_t size = 0;
1573:Middlewares/Third_Party/SubGHz_Phy/stm32_radio_driver/radio.c ****     int32_t cfo = 0;
1574:Middlewares/Third_Party/SubGHz_Phy/stm32_radio_driver/radio.c **** 
1575:Middlewares/Third_Party/SubGHz_Phy/stm32_radio_driver/radio.c ****     switch ( SubgRf.RadioIrq )
1576:Middlewares/Third_Party/SubGHz_Phy/stm32_radio_driver/radio.c ****     {
1577:Middlewares/Third_Party/SubGHz_Phy/stm32_radio_driver/radio.c ****     case IRQ_TX_DONE:
1578:Middlewares/Third_Party/SubGHz_Phy/stm32_radio_driver/radio.c ****         /* ST_WORKAROUND_BEGIN: Reset DBG pin */
1579:Middlewares/Third_Party/SubGHz_Phy/stm32_radio_driver/radio.c ****         DBG_GPIO_RADIO_TX(RST);
1580:Middlewares/Third_Party/SubGHz_Phy/stm32_radio_driver/radio.c ****         /* ST_WORKAROUND_END */
1581:Middlewares/Third_Party/SubGHz_Phy/stm32_radio_driver/radio.c **** 
1582:Middlewares/Third_Party/SubGHz_Phy/stm32_radio_driver/radio.c ****         TimerStop( &TxTimeoutTimer );
1583:Middlewares/Third_Party/SubGHz_Phy/stm32_radio_driver/radio.c ****         //!< Update operating mode state to a value lower than \ref MODE_STDBY_XOSC
1584:Middlewares/Third_Party/SubGHz_Phy/stm32_radio_driver/radio.c ****         SUBGRF_SetStandby( STDBY_RC );
1585:Middlewares/Third_Party/SubGHz_Phy/stm32_radio_driver/radio.c **** 
1586:Middlewares/Third_Party/SubGHz_Phy/stm32_radio_driver/radio.c ****         if ( RFW_Is_LongPacketModeEnabled() == 1 )
1587:Middlewares/Third_Party/SubGHz_Phy/stm32_radio_driver/radio.c ****         {
1588:Middlewares/Third_Party/SubGHz_Phy/stm32_radio_driver/radio.c ****             RFW_DeInit_TxLongPacket( );
1589:Middlewares/Third_Party/SubGHz_Phy/stm32_radio_driver/radio.c ****         }
1590:Middlewares/Third_Party/SubGHz_Phy/stm32_radio_driver/radio.c **** 
1591:Middlewares/Third_Party/SubGHz_Phy/stm32_radio_driver/radio.c ****         if( ( RadioEvents != NULL ) && ( RadioEvents->TxDone != NULL ) )
1592:Middlewares/Third_Party/SubGHz_Phy/stm32_radio_driver/radio.c ****         {
1593:Middlewares/Third_Party/SubGHz_Phy/stm32_radio_driver/radio.c ****             RadioEvents->TxDone( );
1594:Middlewares/Third_Party/SubGHz_Phy/stm32_radio_driver/radio.c ****         }
1595:Middlewares/Third_Party/SubGHz_Phy/stm32_radio_driver/radio.c ****         break;
1596:Middlewares/Third_Party/SubGHz_Phy/stm32_radio_driver/radio.c **** 
1597:Middlewares/Third_Party/SubGHz_Phy/stm32_radio_driver/radio.c ****     case IRQ_RX_DONE:
1598:Middlewares/Third_Party/SubGHz_Phy/stm32_radio_driver/radio.c ****         /* ST_WORKAROUND_BEGIN: Reset DBG pin */
1599:Middlewares/Third_Party/SubGHz_Phy/stm32_radio_driver/radio.c ****         DBG_GPIO_RADIO_RX(RST);
1600:Middlewares/Third_Party/SubGHz_Phy/stm32_radio_driver/radio.c ****         /* ST_WORKAROUND_END */
1601:Middlewares/Third_Party/SubGHz_Phy/stm32_radio_driver/radio.c **** 
1602:Middlewares/Third_Party/SubGHz_Phy/stm32_radio_driver/radio.c ****         TimerStop( &RxTimeoutTimer );
1603:Middlewares/Third_Party/SubGHz_Phy/stm32_radio_driver/radio.c ****         if( SubgRf.RxContinuous == false )
1604:Middlewares/Third_Party/SubGHz_Phy/stm32_radio_driver/radio.c ****         {
1605:Middlewares/Third_Party/SubGHz_Phy/stm32_radio_driver/radio.c ****             //!< Update operating mode state to a value lower than \ref MODE_STDBY_XOSC
1606:Middlewares/Third_Party/SubGHz_Phy/stm32_radio_driver/radio.c ****             SUBGRF_SetStandby( STDBY_RC );
1607:Middlewares/Third_Party/SubGHz_Phy/stm32_radio_driver/radio.c **** 
1608:Middlewares/Third_Party/SubGHz_Phy/stm32_radio_driver/radio.c ****             // WORKAROUND - Implicit Header Mode Timeout Behavior, see DS_SX1261-2_V1.2 datasheet c
1609:Middlewares/Third_Party/SubGHz_Phy/stm32_radio_driver/radio.c ****             // RegRtcControl = @address 0x0902
1610:Middlewares/Third_Party/SubGHz_Phy/stm32_radio_driver/radio.c ****             SUBGRF_WriteRegister( 0x0902, 0x00 );
1611:Middlewares/Third_Party/SubGHz_Phy/stm32_radio_driver/radio.c ****             // RegEventMask = @address 0x0944
1612:Middlewares/Third_Party/SubGHz_Phy/stm32_radio_driver/radio.c ****             SUBGRF_WriteRegister( 0x0944, SUBGRF_ReadRegister( 0x0944 ) | ( 1 << 1 ) );
1613:Middlewares/Third_Party/SubGHz_Phy/stm32_radio_driver/radio.c ****             // WORKAROUND END
1614:Middlewares/Third_Party/SubGHz_Phy/stm32_radio_driver/radio.c ****         }
1615:Middlewares/Third_Party/SubGHz_Phy/stm32_radio_driver/radio.c ****         SUBGRF_GetPayload( RadioBuffer, &size , 255 );
ARM GAS  /tmp/ccldRdip.s 			page 42


1616:Middlewares/Third_Party/SubGHz_Phy/stm32_radio_driver/radio.c ****         SUBGRF_GetPacketStatus( &(SubgRf.PacketStatus) );
1617:Middlewares/Third_Party/SubGHz_Phy/stm32_radio_driver/radio.c ****         if( ( RadioEvents != NULL ) && ( RadioEvents->RxDone != NULL ) )
1618:Middlewares/Third_Party/SubGHz_Phy/stm32_radio_driver/radio.c ****         {
1619:Middlewares/Third_Party/SubGHz_Phy/stm32_radio_driver/radio.c ****             switch ( SubgRf.PacketStatus.packetType )
1620:Middlewares/Third_Party/SubGHz_Phy/stm32_radio_driver/radio.c ****             {
1621:Middlewares/Third_Party/SubGHz_Phy/stm32_radio_driver/radio.c ****             case PACKET_TYPE_LORA:
1622:Middlewares/Third_Party/SubGHz_Phy/stm32_radio_driver/radio.c ****                 RadioEvents->RxDone( RadioBuffer, size, SubgRf.PacketStatus.Params.LoRa.RssiPkt, Su
1623:Middlewares/Third_Party/SubGHz_Phy/stm32_radio_driver/radio.c ****                 break;
1624:Middlewares/Third_Party/SubGHz_Phy/stm32_radio_driver/radio.c ****             default:
1625:Middlewares/Third_Party/SubGHz_Phy/stm32_radio_driver/radio.c ****                 SUBGRF_GetCFO( SubgRf.ModulationParams.Params.Gfsk.BitRate, &cfo );
1626:Middlewares/Third_Party/SubGHz_Phy/stm32_radio_driver/radio.c ****                 RadioEvents->RxDone( RadioBuffer, size, SubgRf.PacketStatus.Params.Gfsk.RssiAvg, (i
1627:Middlewares/Third_Party/SubGHz_Phy/stm32_radio_driver/radio.c ****                 break;
1628:Middlewares/Third_Party/SubGHz_Phy/stm32_radio_driver/radio.c ****             }
1629:Middlewares/Third_Party/SubGHz_Phy/stm32_radio_driver/radio.c ****         }
1630:Middlewares/Third_Party/SubGHz_Phy/stm32_radio_driver/radio.c ****         break;
1631:Middlewares/Third_Party/SubGHz_Phy/stm32_radio_driver/radio.c **** 
1632:Middlewares/Third_Party/SubGHz_Phy/stm32_radio_driver/radio.c ****     case IRQ_CAD_CLEAR:
1633:Middlewares/Third_Party/SubGHz_Phy/stm32_radio_driver/radio.c ****         //!< Update operating mode state to a value lower than \ref MODE_STDBY_XOSC
1634:Middlewares/Third_Party/SubGHz_Phy/stm32_radio_driver/radio.c ****         SUBGRF_SetStandby( STDBY_RC );
1635:Middlewares/Third_Party/SubGHz_Phy/stm32_radio_driver/radio.c ****         if( ( RadioEvents != NULL ) && ( RadioEvents->CadDone != NULL ) )
1636:Middlewares/Third_Party/SubGHz_Phy/stm32_radio_driver/radio.c ****         {
1637:Middlewares/Third_Party/SubGHz_Phy/stm32_radio_driver/radio.c ****             RadioEvents->CadDone( false );
1638:Middlewares/Third_Party/SubGHz_Phy/stm32_radio_driver/radio.c ****         }
1639:Middlewares/Third_Party/SubGHz_Phy/stm32_radio_driver/radio.c ****         break;
1640:Middlewares/Third_Party/SubGHz_Phy/stm32_radio_driver/radio.c ****     case IRQ_CAD_DETECTED:
1641:Middlewares/Third_Party/SubGHz_Phy/stm32_radio_driver/radio.c ****         //!< Update operating mode state to a value lower than \ref MODE_STDBY_XOSC
1642:Middlewares/Third_Party/SubGHz_Phy/stm32_radio_driver/radio.c ****         SUBGRF_SetStandby( STDBY_RC );
1643:Middlewares/Third_Party/SubGHz_Phy/stm32_radio_driver/radio.c ****         if( ( RadioEvents != NULL ) && ( RadioEvents->CadDone != NULL ) )
1644:Middlewares/Third_Party/SubGHz_Phy/stm32_radio_driver/radio.c ****         {
1645:Middlewares/Third_Party/SubGHz_Phy/stm32_radio_driver/radio.c ****             RadioEvents->CadDone( true );
1646:Middlewares/Third_Party/SubGHz_Phy/stm32_radio_driver/radio.c ****         }
1647:Middlewares/Third_Party/SubGHz_Phy/stm32_radio_driver/radio.c ****         break;
1648:Middlewares/Third_Party/SubGHz_Phy/stm32_radio_driver/radio.c **** 
1649:Middlewares/Third_Party/SubGHz_Phy/stm32_radio_driver/radio.c **** 
1650:Middlewares/Third_Party/SubGHz_Phy/stm32_radio_driver/radio.c ****     case IRQ_RX_TX_TIMEOUT:
1651:Middlewares/Third_Party/SubGHz_Phy/stm32_radio_driver/radio.c ****         MW_LOG( TS_ON, VLEVEL_M,  "IRQ_RX_TX_TIMEOUT\r\n" );
1652:Middlewares/Third_Party/SubGHz_Phy/stm32_radio_driver/radio.c ****         if( SUBGRF_GetOperatingMode( ) == MODE_TX )
1653:Middlewares/Third_Party/SubGHz_Phy/stm32_radio_driver/radio.c ****         {
1654:Middlewares/Third_Party/SubGHz_Phy/stm32_radio_driver/radio.c ****             /* ST_WORKAROUND_BEGIN: Reset DBG pin */
1655:Middlewares/Third_Party/SubGHz_Phy/stm32_radio_driver/radio.c ****             DBG_GPIO_RADIO_TX(RST);
1656:Middlewares/Third_Party/SubGHz_Phy/stm32_radio_driver/radio.c ****             /* ST_WORKAROUND_END */
1657:Middlewares/Third_Party/SubGHz_Phy/stm32_radio_driver/radio.c **** 
1658:Middlewares/Third_Party/SubGHz_Phy/stm32_radio_driver/radio.c ****             TimerStop( &TxTimeoutTimer );
1659:Middlewares/Third_Party/SubGHz_Phy/stm32_radio_driver/radio.c ****             //!< Update operating mode state to a value lower than \ref MODE_STDBY_XOSC
1660:Middlewares/Third_Party/SubGHz_Phy/stm32_radio_driver/radio.c ****             SUBGRF_SetStandby( STDBY_RC );
1661:Middlewares/Third_Party/SubGHz_Phy/stm32_radio_driver/radio.c ****             if( ( RadioEvents != NULL ) && ( RadioEvents->TxTimeout != NULL ) )
1662:Middlewares/Third_Party/SubGHz_Phy/stm32_radio_driver/radio.c ****             {
1663:Middlewares/Third_Party/SubGHz_Phy/stm32_radio_driver/radio.c ****                 RadioEvents->TxTimeout( );
1664:Middlewares/Third_Party/SubGHz_Phy/stm32_radio_driver/radio.c ****             }
1665:Middlewares/Third_Party/SubGHz_Phy/stm32_radio_driver/radio.c ****         }
1666:Middlewares/Third_Party/SubGHz_Phy/stm32_radio_driver/radio.c ****         else if( SUBGRF_GetOperatingMode( ) == MODE_RX )
1667:Middlewares/Third_Party/SubGHz_Phy/stm32_radio_driver/radio.c ****         {
1668:Middlewares/Third_Party/SubGHz_Phy/stm32_radio_driver/radio.c ****             /* ST_WORKAROUND_BEGIN: Reset DBG pin */
1669:Middlewares/Third_Party/SubGHz_Phy/stm32_radio_driver/radio.c ****             DBG_GPIO_RADIO_RX(RST);
1670:Middlewares/Third_Party/SubGHz_Phy/stm32_radio_driver/radio.c ****             /* ST_WORKAROUND_END */
1671:Middlewares/Third_Party/SubGHz_Phy/stm32_radio_driver/radio.c **** 
1672:Middlewares/Third_Party/SubGHz_Phy/stm32_radio_driver/radio.c ****             TimerStop( &RxTimeoutTimer );
ARM GAS  /tmp/ccldRdip.s 			page 43


1673:Middlewares/Third_Party/SubGHz_Phy/stm32_radio_driver/radio.c ****             //!< Update operating mode state to a value lower than \ref MODE_STDBY_XOSC
1674:Middlewares/Third_Party/SubGHz_Phy/stm32_radio_driver/radio.c ****             SUBGRF_SetStandby( STDBY_RC );
1675:Middlewares/Third_Party/SubGHz_Phy/stm32_radio_driver/radio.c ****             if( ( RadioEvents != NULL ) && ( RadioEvents->RxTimeout != NULL ) )
1676:Middlewares/Third_Party/SubGHz_Phy/stm32_radio_driver/radio.c ****             {
1677:Middlewares/Third_Party/SubGHz_Phy/stm32_radio_driver/radio.c ****                 RadioEvents->RxTimeout( );
1678:Middlewares/Third_Party/SubGHz_Phy/stm32_radio_driver/radio.c ****             }
1679:Middlewares/Third_Party/SubGHz_Phy/stm32_radio_driver/radio.c ****         }
1680:Middlewares/Third_Party/SubGHz_Phy/stm32_radio_driver/radio.c ****         break;
1681:Middlewares/Third_Party/SubGHz_Phy/stm32_radio_driver/radio.c **** 
1682:Middlewares/Third_Party/SubGHz_Phy/stm32_radio_driver/radio.c ****     case IRQ_PREAMBLE_DETECTED:
1683:Middlewares/Third_Party/SubGHz_Phy/stm32_radio_driver/radio.c ****         MW_LOG( TS_ON, VLEVEL_M,  "PRE OK\r\n" );
1684:Middlewares/Third_Party/SubGHz_Phy/stm32_radio_driver/radio.c ****         break;
1685:Middlewares/Third_Party/SubGHz_Phy/stm32_radio_driver/radio.c **** 
1686:Middlewares/Third_Party/SubGHz_Phy/stm32_radio_driver/radio.c ****     case IRQ_SYNCWORD_VALID:
1687:Middlewares/Third_Party/SubGHz_Phy/stm32_radio_driver/radio.c ****         MW_LOG( TS_ON, VLEVEL_M,  "SYNC OK\r\n" );
1688:Middlewares/Third_Party/SubGHz_Phy/stm32_radio_driver/radio.c ****         if ( 1UL == RFW_Is_Init( ) )
1689:Middlewares/Third_Party/SubGHz_Phy/stm32_radio_driver/radio.c ****         {
1690:Middlewares/Third_Party/SubGHz_Phy/stm32_radio_driver/radio.c ****             RFW_ReceivePayload( );
1691:Middlewares/Third_Party/SubGHz_Phy/stm32_radio_driver/radio.c ****         }
1692:Middlewares/Third_Party/SubGHz_Phy/stm32_radio_driver/radio.c ****         break;
1693:Middlewares/Third_Party/SubGHz_Phy/stm32_radio_driver/radio.c **** 
1694:Middlewares/Third_Party/SubGHz_Phy/stm32_radio_driver/radio.c ****     case IRQ_HEADER_VALID:
1695:Middlewares/Third_Party/SubGHz_Phy/stm32_radio_driver/radio.c ****         MW_LOG( TS_ON, VLEVEL_M,  "HDR OK\r\n" );
1696:Middlewares/Third_Party/SubGHz_Phy/stm32_radio_driver/radio.c ****         break;
1697:Middlewares/Third_Party/SubGHz_Phy/stm32_radio_driver/radio.c **** 
1698:Middlewares/Third_Party/SubGHz_Phy/stm32_radio_driver/radio.c ****     case IRQ_HEADER_ERROR:
1699:Middlewares/Third_Party/SubGHz_Phy/stm32_radio_driver/radio.c ****         TimerStop( &RxTimeoutTimer );
1700:Middlewares/Third_Party/SubGHz_Phy/stm32_radio_driver/radio.c ****         if( SubgRf.RxContinuous == false )
1701:Middlewares/Third_Party/SubGHz_Phy/stm32_radio_driver/radio.c ****         {
1702:Middlewares/Third_Party/SubGHz_Phy/stm32_radio_driver/radio.c ****             //!< Update operating mode state to a value lower than \ref MODE_STDBY_XOSC
1703:Middlewares/Third_Party/SubGHz_Phy/stm32_radio_driver/radio.c ****             SUBGRF_SetStandby( STDBY_RC );
1704:Middlewares/Third_Party/SubGHz_Phy/stm32_radio_driver/radio.c ****         }
1705:Middlewares/Third_Party/SubGHz_Phy/stm32_radio_driver/radio.c ****         if( ( RadioEvents != NULL ) && ( RadioEvents->RxTimeout != NULL ) )
1706:Middlewares/Third_Party/SubGHz_Phy/stm32_radio_driver/radio.c ****         {
1707:Middlewares/Third_Party/SubGHz_Phy/stm32_radio_driver/radio.c ****             RadioEvents->RxTimeout( );
1708:Middlewares/Third_Party/SubGHz_Phy/stm32_radio_driver/radio.c ****             MW_LOG( TS_ON, VLEVEL_M,  "HDR KO\r\n" );
1709:Middlewares/Third_Party/SubGHz_Phy/stm32_radio_driver/radio.c ****         }
1710:Middlewares/Third_Party/SubGHz_Phy/stm32_radio_driver/radio.c ****         break;
1711:Middlewares/Third_Party/SubGHz_Phy/stm32_radio_driver/radio.c **** 
1712:Middlewares/Third_Party/SubGHz_Phy/stm32_radio_driver/radio.c ****     case IRQ_CRC_ERROR:
1713:Middlewares/Third_Party/SubGHz_Phy/stm32_radio_driver/radio.c ****         MW_LOG( TS_ON, VLEVEL_M,  "IRQ_CRC_ERROR\r\n" );
1714:Middlewares/Third_Party/SubGHz_Phy/stm32_radio_driver/radio.c **** 
1715:Middlewares/Third_Party/SubGHz_Phy/stm32_radio_driver/radio.c ****         if( SubgRf.RxContinuous == false )
1716:Middlewares/Third_Party/SubGHz_Phy/stm32_radio_driver/radio.c ****         {
1717:Middlewares/Third_Party/SubGHz_Phy/stm32_radio_driver/radio.c ****             //!< Update operating mode state to a value lower than \ref MODE_STDBY_XOSC
1718:Middlewares/Third_Party/SubGHz_Phy/stm32_radio_driver/radio.c ****             SUBGRF_SetStandby( STDBY_RC );
1719:Middlewares/Third_Party/SubGHz_Phy/stm32_radio_driver/radio.c ****         }
1720:Middlewares/Third_Party/SubGHz_Phy/stm32_radio_driver/radio.c ****         if( ( RadioEvents != NULL ) && ( RadioEvents->RxError ) )
1721:Middlewares/Third_Party/SubGHz_Phy/stm32_radio_driver/radio.c ****         {
1722:Middlewares/Third_Party/SubGHz_Phy/stm32_radio_driver/radio.c ****             RadioEvents->RxError( );
1723:Middlewares/Third_Party/SubGHz_Phy/stm32_radio_driver/radio.c ****         }
1724:Middlewares/Third_Party/SubGHz_Phy/stm32_radio_driver/radio.c ****         break;
1725:Middlewares/Third_Party/SubGHz_Phy/stm32_radio_driver/radio.c ****     default:
1726:Middlewares/Third_Party/SubGHz_Phy/stm32_radio_driver/radio.c ****         break;
1727:Middlewares/Third_Party/SubGHz_Phy/stm32_radio_driver/radio.c ****   }
1728:Middlewares/Third_Party/SubGHz_Phy/stm32_radio_driver/radio.c **** }
1729:Middlewares/Third_Party/SubGHz_Phy/stm32_radio_driver/radio.c **** 
ARM GAS  /tmp/ccldRdip.s 			page 44


1730:Middlewares/Third_Party/SubGHz_Phy/stm32_radio_driver/radio.c **** static void RadioTxPrbs( void )
1731:Middlewares/Third_Party/SubGHz_Phy/stm32_radio_driver/radio.c **** {
1732:Middlewares/Third_Party/SubGHz_Phy/stm32_radio_driver/radio.c ****     SUBGRF_SetSwitch( SubgRf.AntSwitchPaSelect, RFSWITCH_TX );
1733:Middlewares/Third_Party/SubGHz_Phy/stm32_radio_driver/radio.c ****     Radio.Write( SUBGHZ_PKTCTL1A, 0x2d );  // sel mode prbs9 instead of preamble
1734:Middlewares/Third_Party/SubGHz_Phy/stm32_radio_driver/radio.c ****     SUBGRF_SetTxInfinitePreamble( );
1735:Middlewares/Third_Party/SubGHz_Phy/stm32_radio_driver/radio.c ****     SUBGRF_SetTx( 0x0fffff );
1736:Middlewares/Third_Party/SubGHz_Phy/stm32_radio_driver/radio.c **** }
1737:Middlewares/Third_Party/SubGHz_Phy/stm32_radio_driver/radio.c **** 
1738:Middlewares/Third_Party/SubGHz_Phy/stm32_radio_driver/radio.c **** static void RadioTxCw( int8_t power )
1739:Middlewares/Third_Party/SubGHz_Phy/stm32_radio_driver/radio.c **** {
1740:Middlewares/Third_Party/SubGHz_Phy/stm32_radio_driver/radio.c ****     uint8_t paselect = SUBGRF_SetRfTxPower( power );
1741:Middlewares/Third_Party/SubGHz_Phy/stm32_radio_driver/radio.c ****     SUBGRF_SetSwitch( paselect, RFSWITCH_TX );
1742:Middlewares/Third_Party/SubGHz_Phy/stm32_radio_driver/radio.c ****     SUBGRF_SetTxContinuousWave( );
1743:Middlewares/Third_Party/SubGHz_Phy/stm32_radio_driver/radio.c **** }
1744:Middlewares/Third_Party/SubGHz_Phy/stm32_radio_driver/radio.c **** 
1745:Middlewares/Third_Party/SubGHz_Phy/stm32_radio_driver/radio.c **** static void payload_integration( uint8_t *outBuffer, uint8_t *inBuffer, uint8_t size )
1746:Middlewares/Third_Party/SubGHz_Phy/stm32_radio_driver/radio.c **** {
 689              		.loc 1 1746 1 is_stmt 1 view -0
 690              		.cfi_startproc
 691              		@ args = 0, pretend = 0, frame = 0
 692              		@ frame_needed = 0, uses_anonymous_args = 0
 693              		.loc 1 1746 1 is_stmt 0 view .LVU175
 694 0000 70B5     		push	{r4, r5, r6, lr}
 695              	.LCFI9:
 696              		.cfi_def_cfa_offset 16
 697              		.cfi_offset 4, -16
 698              		.cfi_offset 5, -12
 699              		.cfi_offset 6, -8
 700              		.cfi_offset 14, -4
1747:Middlewares/Third_Party/SubGHz_Phy/stm32_radio_driver/radio.c ****     uint8_t prevInt = 0;
 701              		.loc 1 1747 5 is_stmt 1 view .LVU176
 702              	.LVL79:
1748:Middlewares/Third_Party/SubGHz_Phy/stm32_radio_driver/radio.c ****     uint8_t currBit;
 703              		.loc 1 1748 5 view .LVU177
1749:Middlewares/Third_Party/SubGHz_Phy/stm32_radio_driver/radio.c ****     uint8_t index_bit;
 704              		.loc 1 1749 5 view .LVU178
1750:Middlewares/Third_Party/SubGHz_Phy/stm32_radio_driver/radio.c ****     uint8_t index_byte;
 705              		.loc 1 1750 5 view .LVU179
1751:Middlewares/Third_Party/SubGHz_Phy/stm32_radio_driver/radio.c ****     uint8_t index_bit_out;
 706              		.loc 1 1751 5 view .LVU180
1752:Middlewares/Third_Party/SubGHz_Phy/stm32_radio_driver/radio.c ****     uint8_t index_byte_out;
 707              		.loc 1 1752 5 view .LVU181
1753:Middlewares/Third_Party/SubGHz_Phy/stm32_radio_driver/radio.c ****     int i = 0;
 708              		.loc 1 1753 5 view .LVU182
1754:Middlewares/Third_Party/SubGHz_Phy/stm32_radio_driver/radio.c **** 
1755:Middlewares/Third_Party/SubGHz_Phy/stm32_radio_driver/radio.c ****     for (i = 0; i < size; i++)
 709              		.loc 1 1755 5 view .LVU183
 710              		.loc 1 1755 12 is_stmt 0 view .LVU184
 711 0002 0023     		movs	r3, #0
 712              		.loc 1 1755 5 view .LVU185
 713 0004 05E0     		b	.L67
 714              	.LVL80:
 715              	.L68:
1756:Middlewares/Third_Party/SubGHz_Phy/stm32_radio_driver/radio.c ****     {
1757:Middlewares/Third_Party/SubGHz_Phy/stm32_radio_driver/radio.c ****         /* reverse all inputs */
1758:Middlewares/Third_Party/SubGHz_Phy/stm32_radio_driver/radio.c ****         inBuffer[i] = ~inBuffer[i];
 716              		.loc 1 1758 9 is_stmt 1 discriminator 3 view .LVU186
ARM GAS  /tmp/ccldRdip.s 			page 45


 717              		.loc 1 1758 32 is_stmt 0 discriminator 3 view .LVU187
 718 0006 CC5C     		ldrb	r4, [r1, r3]	@ zero_extendqisi2
 719              		.loc 1 1758 21 discriminator 3 view .LVU188
 720 0008 E443     		mvns	r4, r4
 721 000a CC54     		strb	r4, [r1, r3]
1759:Middlewares/Third_Party/SubGHz_Phy/stm32_radio_driver/radio.c ****         /* init outBuffer */
1760:Middlewares/Third_Party/SubGHz_Phy/stm32_radio_driver/radio.c ****         outBuffer[i] = 0;
 722              		.loc 1 1760 9 is_stmt 1 discriminator 3 view .LVU189
 723              		.loc 1 1760 22 is_stmt 0 discriminator 3 view .LVU190
 724 000c 0024     		movs	r4, #0
 725 000e C454     		strb	r4, [r0, r3]
1755:Middlewares/Third_Party/SubGHz_Phy/stm32_radio_driver/radio.c ****     {
 726              		.loc 1 1755 27 is_stmt 1 discriminator 3 view .LVU191
1755:Middlewares/Third_Party/SubGHz_Phy/stm32_radio_driver/radio.c ****     {
 727              		.loc 1 1755 28 is_stmt 0 discriminator 3 view .LVU192
 728 0010 0133     		adds	r3, r3, #1
 729              	.LVL81:
 730              	.L67:
1755:Middlewares/Third_Party/SubGHz_Phy/stm32_radio_driver/radio.c ****     {
 731              		.loc 1 1755 17 is_stmt 1 discriminator 1 view .LVU193
1755:Middlewares/Third_Party/SubGHz_Phy/stm32_radio_driver/radio.c ****     {
 732              		.loc 1 1755 5 is_stmt 0 discriminator 1 view .LVU194
 733 0012 9A42     		cmp	r2, r3
 734 0014 F7DC     		bgt	.L68
1761:Middlewares/Third_Party/SubGHz_Phy/stm32_radio_driver/radio.c ****     }
1762:Middlewares/Third_Party/SubGHz_Phy/stm32_radio_driver/radio.c **** 
1763:Middlewares/Third_Party/SubGHz_Phy/stm32_radio_driver/radio.c ****     for (i = 0; i < (size * 8); i++)
 735              		.loc 1 1763 12 view .LVU195
 736 0016 0023     		movs	r3, #0
 737              	.LVL82:
1747:Middlewares/Third_Party/SubGHz_Phy/stm32_radio_driver/radio.c ****     uint8_t currBit;
 738              		.loc 1 1747 13 view .LVU196
 739 0018 1C46     		mov	r4, r3
 740 001a 13E0     		b	.L69
 741              	.LVL83:
 742              	.L77:
1764:Middlewares/Third_Party/SubGHz_Phy/stm32_radio_driver/radio.c ****     {
1765:Middlewares/Third_Party/SubGHz_Phy/stm32_radio_driver/radio.c ****         /* index to take bit in inBuffer */
1766:Middlewares/Third_Party/SubGHz_Phy/stm32_radio_driver/radio.c ****         index_bit = 7 - ( i % 8 );
1767:Middlewares/Third_Party/SubGHz_Phy/stm32_radio_driver/radio.c ****         index_byte = i / 8;
 743              		.loc 1 1767 24 discriminator 3 view .LVU197
 744 001c 03F1070C 		add	ip, r3, #7
 745 0020 24E0     		b	.L70
 746              	.LVL84:
 747              	.L71:
1768:Middlewares/Third_Party/SubGHz_Phy/stm32_radio_driver/radio.c ****         /* index to place bit in outBuffer is shifted 1 bit right */
1769:Middlewares/Third_Party/SubGHz_Phy/stm32_radio_driver/radio.c ****         index_bit_out = 7 - ( ( i + 1 ) % 8 );
1770:Middlewares/Third_Party/SubGHz_Phy/stm32_radio_driver/radio.c ****         index_byte_out = ( i + 1 ) / 8;
1771:Middlewares/Third_Party/SubGHz_Phy/stm32_radio_driver/radio.c ****         /* extract current bit from input */
1772:Middlewares/Third_Party/SubGHz_Phy/stm32_radio_driver/radio.c ****         currBit = ( inBuffer[index_byte] >> index_bit ) & 0x01;
 748              		.loc 1 1772 9 is_stmt 1 discriminator 3 view .LVU198
 749              		.loc 1 1772 29 is_stmt 0 discriminator 3 view .LVU199
 750 0022 EDB2     		uxtb	r5, r5
 751              		.loc 1 1772 29 discriminator 3 view .LVU200
 752 0024 4D5D     		ldrb	r5, [r1, r5]	@ zero_extendqisi2
 753              	.LVL85:
 754              		.loc 1 1772 42 discriminator 3 view .LVU201
ARM GAS  /tmp/ccldRdip.s 			page 46


 755 0026 45FA0EFE 		asr	lr, r5, lr
 756              	.LVL86:
 757              		.loc 1 1772 17 discriminator 3 view .LVU202
 758 002a 0EF0010E 		and	lr, lr, #1
 759              	.LVL87:
1773:Middlewares/Third_Party/SubGHz_Phy/stm32_radio_driver/radio.c ****         /* integration */
1774:Middlewares/Third_Party/SubGHz_Phy/stm32_radio_driver/radio.c ****         prevInt ^= currBit;
 760              		.loc 1 1774 9 is_stmt 1 discriminator 3 view .LVU203
 761              		.loc 1 1774 17 is_stmt 0 discriminator 3 view .LVU204
 762 002e 84EA0E04 		eor	r4, r4, lr
 763              	.LVL88:
1775:Middlewares/Third_Party/SubGHz_Phy/stm32_radio_driver/radio.c ****         /* write result integration in output */
1776:Middlewares/Third_Party/SubGHz_Phy/stm32_radio_driver/radio.c ****         outBuffer[index_byte_out] |= ( prevInt << index_bit_out );
 764              		.loc 1 1776 9 is_stmt 1 discriminator 3 view .LVU205
 765              		.loc 1 1776 35 is_stmt 0 discriminator 3 view .LVU206
 766 0032 C6F3C705 		ubfx	r5, r6, #3, #8
 767              		.loc 1 1776 48 discriminator 3 view .LVU207
 768 0036 04FA0CFC 		lsl	ip, r4, ip
 769              	.LVL89:
 770              		.loc 1 1776 35 discriminator 3 view .LVU208
 771 003a 465D     		ldrb	r6, [r0, r5]	@ zero_extendqisi2
 772              	.LVL90:
 773              		.loc 1 1776 35 discriminator 3 view .LVU209
 774 003c 46EA0C0C 		orr	ip, r6, ip
 775 0040 00F805C0 		strb	ip, [r0, r5]
1763:Middlewares/Third_Party/SubGHz_Phy/stm32_radio_driver/radio.c ****     {
 776              		.loc 1 1763 33 is_stmt 1 discriminator 3 view .LVU210
 777              	.LVL91:
 778              	.L69:
1763:Middlewares/Third_Party/SubGHz_Phy/stm32_radio_driver/radio.c ****     {
 779              		.loc 1 1763 17 discriminator 1 view .LVU211
1763:Middlewares/Third_Party/SubGHz_Phy/stm32_radio_driver/radio.c ****     {
 780              		.loc 1 1763 5 is_stmt 0 discriminator 1 view .LVU212
 781 0044 B3EBC20F 		cmp	r3, r2, lsl #3
 782 0048 26DA     		bge	.L76
1766:Middlewares/Third_Party/SubGHz_Phy/stm32_radio_driver/radio.c ****         index_byte = i / 8;
 783              		.loc 1 1766 9 is_stmt 1 discriminator 3 view .LVU213
1766:Middlewares/Third_Party/SubGHz_Phy/stm32_radio_driver/radio.c ****         index_byte = i / 8;
 784              		.loc 1 1766 29 is_stmt 0 discriminator 3 view .LVU214
 785 004a 5D42     		rsbs	r5, r3, #0
 786 004c 03F0070C 		and	ip, r3, #7
 787 0050 05F00705 		and	r5, r5, #7
 788 0054 58BF     		it	pl
 789 0056 C5F1000C 		rsbpl	ip, r5, #0
1766:Middlewares/Third_Party/SubGHz_Phy/stm32_radio_driver/radio.c ****         index_byte = i / 8;
 790              		.loc 1 1766 23 discriminator 3 view .LVU215
 791 005a 5FFA8CFE 		uxtb	lr, ip
1766:Middlewares/Third_Party/SubGHz_Phy/stm32_radio_driver/radio.c ****         index_byte = i / 8;
 792              		.loc 1 1766 19 discriminator 3 view .LVU216
 793 005e CEF1070E 		rsb	lr, lr, #7
 794 0062 5FFA8EFE 		uxtb	lr, lr
 795              	.LVL92:
1767:Middlewares/Third_Party/SubGHz_Phy/stm32_radio_driver/radio.c ****         /* index to place bit in outBuffer is shifted 1 bit right */
 796              		.loc 1 1767 9 is_stmt 1 discriminator 3 view .LVU217
1767:Middlewares/Third_Party/SubGHz_Phy/stm32_radio_driver/radio.c ****         /* index to place bit in outBuffer is shifted 1 bit right */
 797              		.loc 1 1767 24 is_stmt 0 discriminator 3 view .LVU218
 798 0066 9C46     		mov	ip, r3
ARM GAS  /tmp/ccldRdip.s 			page 47


 799 0068 002B     		cmp	r3, #0
 800 006a D7DB     		blt	.L77
 801              	.L70:
1767:Middlewares/Third_Party/SubGHz_Phy/stm32_radio_driver/radio.c ****         /* index to place bit in outBuffer is shifted 1 bit right */
 802              		.loc 1 1767 24 discriminator 3 view .LVU219
 803 006c 4FEAEC05 		asr	r5, ip, #3
 804              	.LVL93:
1769:Middlewares/Third_Party/SubGHz_Phy/stm32_radio_driver/radio.c ****         index_byte_out = ( i + 1 ) / 8;
 805              		.loc 1 1769 9 is_stmt 1 discriminator 3 view .LVU220
1769:Middlewares/Third_Party/SubGHz_Phy/stm32_radio_driver/radio.c ****         index_byte_out = ( i + 1 ) / 8;
 806              		.loc 1 1769 35 is_stmt 0 discriminator 3 view .LVU221
 807 0070 0133     		adds	r3, r3, #1
 808              	.LVL94:
1769:Middlewares/Third_Party/SubGHz_Phy/stm32_radio_driver/radio.c ****         index_byte_out = ( i + 1 ) / 8;
 809              		.loc 1 1769 41 discriminator 3 view .LVU222
 810 0072 5E42     		rsbs	r6, r3, #0
 811 0074 03F0070C 		and	ip, r3, #7
 812 0078 06F00706 		and	r6, r6, #7
 813 007c 58BF     		it	pl
 814 007e C6F1000C 		rsbpl	ip, r6, #0
1769:Middlewares/Third_Party/SubGHz_Phy/stm32_radio_driver/radio.c ****         index_byte_out = ( i + 1 ) / 8;
 815              		.loc 1 1769 27 discriminator 3 view .LVU223
 816 0082 5FFA8CFC 		uxtb	ip, ip
1769:Middlewares/Third_Party/SubGHz_Phy/stm32_radio_driver/radio.c ****         index_byte_out = ( i + 1 ) / 8;
 817              		.loc 1 1769 23 discriminator 3 view .LVU224
 818 0086 CCF1070C 		rsb	ip, ip, #7
 819 008a 5FFA8CFC 		uxtb	ip, ip
 820              	.LVL95:
1770:Middlewares/Third_Party/SubGHz_Phy/stm32_radio_driver/radio.c ****         /* extract current bit from input */
 821              		.loc 1 1770 9 is_stmt 1 discriminator 3 view .LVU225
1770:Middlewares/Third_Party/SubGHz_Phy/stm32_radio_driver/radio.c ****         /* extract current bit from input */
 822              		.loc 1 1770 36 is_stmt 0 discriminator 3 view .LVU226
 823 008e 1E46     		mov	r6, r3
 824 0090 002B     		cmp	r3, #0
 825 0092 C6DA     		bge	.L71
 826 0094 DE1D     		adds	r6, r3, #7
 827 0096 C4E7     		b	.L71
 828              	.LVL96:
 829              	.L76:
1777:Middlewares/Third_Party/SubGHz_Phy/stm32_radio_driver/radio.c ****     }
1778:Middlewares/Third_Party/SubGHz_Phy/stm32_radio_driver/radio.c **** 
1779:Middlewares/Third_Party/SubGHz_Phy/stm32_radio_driver/radio.c ****     outBuffer[size] = ( prevInt << 7 ) | ( prevInt << 6 ) | ( ( ( !prevInt ) & 0x01 ) << 5 ) ;
 830              		.loc 1 1779 5 is_stmt 1 view .LVU227
 831              		.loc 1 1779 52 is_stmt 0 view .LVU228
 832 0098 A301     		lsls	r3, r4, #6
 833              	.LVL97:
 834              		.loc 1 1779 40 view .LVU229
 835 009a 43EAC413 		orr	r3, r3, r4, lsl #7
 836 009e 5BB2     		sxtb	r3, r3
 837              		.loc 1 1779 59 view .LVU230
 838 00a0 1CB9     		cbnz	r4, .L74
 839 00a2 2021     		movs	r1, #32
 840              	.LVL98:
 841              	.L73:
 842              		.loc 1 1779 59 discriminator 4 view .LVU231
 843 00a4 0B43     		orrs	r3, r3, r1
 844              		.loc 1 1779 21 discriminator 4 view .LVU232
ARM GAS  /tmp/ccldRdip.s 			page 48


 845 00a6 8354     		strb	r3, [r0, r2]
1780:Middlewares/Third_Party/SubGHz_Phy/stm32_radio_driver/radio.c **** }
 846              		.loc 1 1780 1 discriminator 4 view .LVU233
 847 00a8 70BD     		pop	{r4, r5, r6, pc}
 848              	.LVL99:
 849              	.L74:
1779:Middlewares/Third_Party/SubGHz_Phy/stm32_radio_driver/radio.c **** }
 850              		.loc 1 1779 59 view .LVU234
 851 00aa 0021     		movs	r1, #0
 852              	.LVL100:
1779:Middlewares/Third_Party/SubGHz_Phy/stm32_radio_driver/radio.c **** }
 853              		.loc 1 1779 59 view .LVU235
 854 00ac FAE7     		b	.L73
 855              		.cfi_endproc
 856              	.LFE1021:
 858              		.section	.text.RadioSetMaxPayloadLength,"ax",%progbits
 859              		.align	1
 860              		.syntax unified
 861              		.thumb
 862              		.thumb_func
 863              		.fpu softvfp
 865              	RadioSetMaxPayloadLength:
 866              	.LVL101:
 867              	.LFB1010:
1489:Middlewares/Third_Party/SubGHz_Phy/stm32_radio_driver/radio.c ****     if( modem == MODEM_LORA )
 868              		.loc 1 1489 1 is_stmt 1 view -0
 869              		.cfi_startproc
 870              		@ args = 0, pretend = 0, frame = 0
 871              		@ frame_needed = 0, uses_anonymous_args = 0
1489:Middlewares/Third_Party/SubGHz_Phy/stm32_radio_driver/radio.c ****     if( modem == MODEM_LORA )
 872              		.loc 1 1489 1 is_stmt 0 view .LVU237
 873 0000 08B5     		push	{r3, lr}
 874              	.LCFI10:
 875              		.cfi_def_cfa_offset 8
 876              		.cfi_offset 3, -8
 877              		.cfi_offset 14, -4
1490:Middlewares/Third_Party/SubGHz_Phy/stm32_radio_driver/radio.c ****     {
 878              		.loc 1 1490 5 is_stmt 1 view .LVU238
1490:Middlewares/Third_Party/SubGHz_Phy/stm32_radio_driver/radio.c ****     {
 879              		.loc 1 1490 7 is_stmt 0 view .LVU239
 880 0002 0128     		cmp	r0, #1
 881 0004 04D0     		beq	.L82
1497:Middlewares/Third_Party/SubGHz_Phy/stm32_radio_driver/radio.c ****         {
 882              		.loc 1 1497 9 is_stmt 1 view .LVU240
1497:Middlewares/Third_Party/SubGHz_Phy/stm32_radio_driver/radio.c ****         {
 883              		.loc 1 1497 44 is_stmt 0 view .LVU241
 884 0006 0A4B     		ldr	r3, .L84
 885 0008 5B7D     		ldrb	r3, [r3, #21]	@ zero_extendqisi2
1497:Middlewares/Third_Party/SubGHz_Phy/stm32_radio_driver/radio.c ****         {
 886              		.loc 1 1497 11 view .LVU242
 887 000a 012B     		cmp	r3, #1
 888 000c 08D0     		beq	.L83
 889              	.LVL102:
 890              	.L78:
1503:Middlewares/Third_Party/SubGHz_Phy/stm32_radio_driver/radio.c **** 
 891              		.loc 1 1503 1 view .LVU243
 892 000e 08BD     		pop	{r3, pc}
ARM GAS  /tmp/ccldRdip.s 			page 49


 893              	.LVL103:
 894              	.L82:
1492:Middlewares/Third_Party/SubGHz_Phy/stm32_radio_driver/radio.c ****         SUBGRF_SetPacketParams( &SubgRf.PacketParams );
 895              		.loc 1 1492 9 is_stmt 1 view .LVU244
1492:Middlewares/Third_Party/SubGHz_Phy/stm32_radio_driver/radio.c ****         SUBGRF_SetPacketParams( &SubgRf.PacketParams );
 896              		.loc 1 1492 74 is_stmt 0 view .LVU245
 897 0010 084B     		ldr	r3, .L84+4
 898 0012 1970     		strb	r1, [r3]
1492:Middlewares/Third_Party/SubGHz_Phy/stm32_radio_driver/radio.c ****         SUBGRF_SetPacketParams( &SubgRf.PacketParams );
 899              		.loc 1 1492 55 view .LVU246
 900 0014 0648     		ldr	r0, .L84
 901              	.LVL104:
1492:Middlewares/Third_Party/SubGHz_Phy/stm32_radio_driver/radio.c ****         SUBGRF_SetPacketParams( &SubgRf.PacketParams );
 902              		.loc 1 1492 55 view .LVU247
 903 0016 C177     		strb	r1, [r0, #31]
1493:Middlewares/Third_Party/SubGHz_Phy/stm32_radio_driver/radio.c ****     }
 904              		.loc 1 1493 9 is_stmt 1 view .LVU248
 905 0018 0E30     		adds	r0, r0, #14
 906 001a FFF7FEFF 		bl	SUBGRF_SetPacketParams
 907              	.LVL105:
1493:Middlewares/Third_Party/SubGHz_Phy/stm32_radio_driver/radio.c ****     }
 908              		.loc 1 1493 9 is_stmt 0 view .LVU249
 909 001e F6E7     		b	.L78
 910              	.LVL106:
 911              	.L83:
1499:Middlewares/Third_Party/SubGHz_Phy/stm32_radio_driver/radio.c ****             SUBGRF_SetPacketParams( &SubgRf.PacketParams );
 912              		.loc 1 1499 13 is_stmt 1 view .LVU250
1499:Middlewares/Third_Party/SubGHz_Phy/stm32_radio_driver/radio.c ****             SUBGRF_SetPacketParams( &SubgRf.PacketParams );
 913              		.loc 1 1499 78 is_stmt 0 view .LVU251
 914 0020 044B     		ldr	r3, .L84+4
 915 0022 1970     		strb	r1, [r3]
1499:Middlewares/Third_Party/SubGHz_Phy/stm32_radio_driver/radio.c ****             SUBGRF_SetPacketParams( &SubgRf.PacketParams );
 916              		.loc 1 1499 59 view .LVU252
 917 0024 0248     		ldr	r0, .L84
 918              	.LVL107:
1499:Middlewares/Third_Party/SubGHz_Phy/stm32_radio_driver/radio.c ****             SUBGRF_SetPacketParams( &SubgRf.PacketParams );
 919              		.loc 1 1499 59 view .LVU253
 920 0026 8175     		strb	r1, [r0, #22]
1500:Middlewares/Third_Party/SubGHz_Phy/stm32_radio_driver/radio.c ****         }
 921              		.loc 1 1500 13 is_stmt 1 view .LVU254
 922 0028 0E30     		adds	r0, r0, #14
 923 002a FFF7FEFF 		bl	SUBGRF_SetPacketParams
 924              	.LVL108:
1503:Middlewares/Third_Party/SubGHz_Phy/stm32_radio_driver/radio.c **** 
 925              		.loc 1 1503 1 is_stmt 0 view .LVU255
 926 002e EEE7     		b	.L78
 927              	.L85:
 928              		.align	2
 929              	.L84:
 930 0030 00000000 		.word	.LANCHOR3
 931 0034 00000000 		.word	.LANCHOR2
 932              		.cfi_endproc
 933              	.LFE1010:
 935              		.section	.text.RadioRead,"ax",%progbits
 936              		.align	1
 937              		.syntax unified
 938              		.thumb
ARM GAS  /tmp/ccldRdip.s 			page 50


 939              		.thumb_func
 940              		.fpu softvfp
 942              	RadioRead:
 943              	.LVL109:
 944              	.LFB1007:
1474:Middlewares/Third_Party/SubGHz_Phy/stm32_radio_driver/radio.c ****     return SUBGRF_ReadRegister(addr);
 945              		.loc 1 1474 1 is_stmt 1 view -0
 946              		.cfi_startproc
 947              		@ args = 0, pretend = 0, frame = 0
 948              		@ frame_needed = 0, uses_anonymous_args = 0
1474:Middlewares/Third_Party/SubGHz_Phy/stm32_radio_driver/radio.c ****     return SUBGRF_ReadRegister(addr);
 949              		.loc 1 1474 1 is_stmt 0 view .LVU257
 950 0000 08B5     		push	{r3, lr}
 951              	.LCFI11:
 952              		.cfi_def_cfa_offset 8
 953              		.cfi_offset 3, -8
 954              		.cfi_offset 14, -4
1475:Middlewares/Third_Party/SubGHz_Phy/stm32_radio_driver/radio.c **** }
 955              		.loc 1 1475 5 is_stmt 1 view .LVU258
1475:Middlewares/Third_Party/SubGHz_Phy/stm32_radio_driver/radio.c **** }
 956              		.loc 1 1475 12 is_stmt 0 view .LVU259
 957 0002 FFF7FEFF 		bl	SUBGRF_ReadRegister
 958              	.LVL110:
1476:Middlewares/Third_Party/SubGHz_Phy/stm32_radio_driver/radio.c **** 
 959              		.loc 1 1476 1 view .LVU260
 960 0006 08BD     		pop	{r3, pc}
 961              		.cfi_endproc
 962              	.LFE1007:
 964              		.section	.text.RadioWrite,"ax",%progbits
 965              		.align	1
 966              		.syntax unified
 967              		.thumb
 968              		.thumb_func
 969              		.fpu softvfp
 971              	RadioWrite:
 972              	.LVL111:
 973              	.LFB1006:
1469:Middlewares/Third_Party/SubGHz_Phy/stm32_radio_driver/radio.c ****     SUBGRF_WriteRegister(addr, data );
 974              		.loc 1 1469 1 is_stmt 1 view -0
 975              		.cfi_startproc
 976              		@ args = 0, pretend = 0, frame = 0
 977              		@ frame_needed = 0, uses_anonymous_args = 0
1469:Middlewares/Third_Party/SubGHz_Phy/stm32_radio_driver/radio.c ****     SUBGRF_WriteRegister(addr, data );
 978              		.loc 1 1469 1 is_stmt 0 view .LVU262
 979 0000 08B5     		push	{r3, lr}
 980              	.LCFI12:
 981              		.cfi_def_cfa_offset 8
 982              		.cfi_offset 3, -8
 983              		.cfi_offset 14, -4
1470:Middlewares/Third_Party/SubGHz_Phy/stm32_radio_driver/radio.c **** }
 984              		.loc 1 1470 5 is_stmt 1 view .LVU263
 985 0002 FFF7FEFF 		bl	SUBGRF_WriteRegister
 986              	.LVL112:
1471:Middlewares/Third_Party/SubGHz_Phy/stm32_radio_driver/radio.c **** 
 987              		.loc 1 1471 1 is_stmt 0 view .LVU264
 988 0006 08BD     		pop	{r3, pc}
 989              		.cfi_endproc
ARM GAS  /tmp/ccldRdip.s 			page 51


 990              	.LFE1006:
 992              		.section	.text.RadioTxCw,"ax",%progbits
 993              		.align	1
 994              		.syntax unified
 995              		.thumb
 996              		.thumb_func
 997              		.fpu softvfp
 999              	RadioTxCw:
 1000              	.LVL113:
 1001              	.LFB1020:
1739:Middlewares/Third_Party/SubGHz_Phy/stm32_radio_driver/radio.c ****     uint8_t paselect = SUBGRF_SetRfTxPower( power );
 1002              		.loc 1 1739 1 is_stmt 1 view -0
 1003              		.cfi_startproc
 1004              		@ args = 0, pretend = 0, frame = 0
 1005              		@ frame_needed = 0, uses_anonymous_args = 0
1739:Middlewares/Third_Party/SubGHz_Phy/stm32_radio_driver/radio.c ****     uint8_t paselect = SUBGRF_SetRfTxPower( power );
 1006              		.loc 1 1739 1 is_stmt 0 view .LVU266
 1007 0000 08B5     		push	{r3, lr}
 1008              	.LCFI13:
 1009              		.cfi_def_cfa_offset 8
 1010              		.cfi_offset 3, -8
 1011              		.cfi_offset 14, -4
1740:Middlewares/Third_Party/SubGHz_Phy/stm32_radio_driver/radio.c ****     SUBGRF_SetSwitch( paselect, RFSWITCH_TX );
 1012              		.loc 1 1740 5 is_stmt 1 view .LVU267
1740:Middlewares/Third_Party/SubGHz_Phy/stm32_radio_driver/radio.c ****     SUBGRF_SetSwitch( paselect, RFSWITCH_TX );
 1013              		.loc 1 1740 24 is_stmt 0 view .LVU268
 1014 0002 FFF7FEFF 		bl	SUBGRF_SetRfTxPower
 1015              	.LVL114:
1741:Middlewares/Third_Party/SubGHz_Phy/stm32_radio_driver/radio.c ****     SUBGRF_SetTxContinuousWave( );
 1016              		.loc 1 1741 5 is_stmt 1 view .LVU269
 1017 0006 0121     		movs	r1, #1
 1018 0008 FFF7FEFF 		bl	SUBGRF_SetSwitch
 1019              	.LVL115:
1742:Middlewares/Third_Party/SubGHz_Phy/stm32_radio_driver/radio.c **** }
 1020              		.loc 1 1742 5 view .LVU270
 1021 000c FFF7FEFF 		bl	SUBGRF_SetTxContinuousWave
 1022              	.LVL116:
1743:Middlewares/Third_Party/SubGHz_Phy/stm32_radio_driver/radio.c **** 
 1023              		.loc 1 1743 1 is_stmt 0 view .LVU271
 1024 0010 08BD     		pop	{r3, pc}
 1025              		.cfi_endproc
 1026              	.LFE1020:
 1028              		.section	.text.RadioTxPrbs,"ax",%progbits
 1029              		.align	1
 1030              		.syntax unified
 1031              		.thumb
 1032              		.thumb_func
 1033              		.fpu softvfp
 1035              	RadioTxPrbs:
 1036              	.LFB1019:
1731:Middlewares/Third_Party/SubGHz_Phy/stm32_radio_driver/radio.c ****     SUBGRF_SetSwitch( SubgRf.AntSwitchPaSelect, RFSWITCH_TX );
 1037              		.loc 1 1731 1 is_stmt 1 view -0
 1038              		.cfi_startproc
 1039              		@ args = 0, pretend = 0, frame = 0
 1040              		@ frame_needed = 0, uses_anonymous_args = 0
 1041 0000 08B5     		push	{r3, lr}
 1042              	.LCFI14:
ARM GAS  /tmp/ccldRdip.s 			page 52


 1043              		.cfi_def_cfa_offset 8
 1044              		.cfi_offset 3, -8
 1045              		.cfi_offset 14, -4
1732:Middlewares/Third_Party/SubGHz_Phy/stm32_radio_driver/radio.c ****     Radio.Write( SUBGHZ_PKTCTL1A, 0x2d );  // sel mode prbs9 instead of preamble
 1046              		.loc 1 1732 5 view .LVU273
 1047 0002 0121     		movs	r1, #1
 1048 0004 074B     		ldr	r3, .L94
 1049 0006 93F85600 		ldrb	r0, [r3, #86]	@ zero_extendqisi2
 1050 000a FFF7FEFF 		bl	SUBGRF_SetSwitch
 1051              	.LVL117:
1733:Middlewares/Third_Party/SubGHz_Phy/stm32_radio_driver/radio.c ****     SUBGRF_SetTxInfinitePreamble( );
 1052              		.loc 1 1733 5 view .LVU274
 1053 000e 2D21     		movs	r1, #45
 1054 0010 4FF4D760 		mov	r0, #1720
 1055 0014 FFF7FEFF 		bl	RadioWrite
 1056              	.LVL118:
1734:Middlewares/Third_Party/SubGHz_Phy/stm32_radio_driver/radio.c ****     SUBGRF_SetTx( 0x0fffff );
 1057              		.loc 1 1734 5 view .LVU275
 1058 0018 FFF7FEFF 		bl	SUBGRF_SetTxInfinitePreamble
 1059              	.LVL119:
1735:Middlewares/Third_Party/SubGHz_Phy/stm32_radio_driver/radio.c **** }
 1060              		.loc 1 1735 5 view .LVU276
 1061 001c 0248     		ldr	r0, .L94+4
 1062 001e FFF7FEFF 		bl	SUBGRF_SetTx
 1063              	.LVL120:
1736:Middlewares/Third_Party/SubGHz_Phy/stm32_radio_driver/radio.c **** 
 1064              		.loc 1 1736 1 is_stmt 0 view .LVU277
 1065 0022 08BD     		pop	{r3, pc}
 1066              	.L95:
 1067              		.align	2
 1068              	.L94:
 1069 0024 00000000 		.word	.LANCHOR3
 1070 0028 FFFF0F00 		.word	1048575
 1071              		.cfi_endproc
 1072              	.LFE1019:
 1074              		.section	.text.RadioSetRxDutyCycle,"ax",%progbits
 1075              		.align	1
 1076              		.syntax unified
 1077              		.thumb
 1078              		.thumb_func
 1079              		.fpu softvfp
 1081              	RadioSetRxDutyCycle:
 1082              	.LVL121:
 1083              	.LFB1002:
1426:Middlewares/Third_Party/SubGHz_Phy/stm32_radio_driver/radio.c ****     /* RF switch configuration */
 1084              		.loc 1 1426 1 is_stmt 1 view -0
 1085              		.cfi_startproc
 1086              		@ args = 0, pretend = 0, frame = 0
 1087              		@ frame_needed = 0, uses_anonymous_args = 0
1426:Middlewares/Third_Party/SubGHz_Phy/stm32_radio_driver/radio.c ****     /* RF switch configuration */
 1088              		.loc 1 1426 1 is_stmt 0 view .LVU279
 1089 0000 38B5     		push	{r3, r4, r5, lr}
 1090              	.LCFI15:
 1091              		.cfi_def_cfa_offset 16
 1092              		.cfi_offset 3, -16
 1093              		.cfi_offset 4, -12
 1094              		.cfi_offset 5, -8
ARM GAS  /tmp/ccldRdip.s 			page 53


 1095              		.cfi_offset 14, -4
 1096 0002 0446     		mov	r4, r0
 1097 0004 0D46     		mov	r5, r1
1428:Middlewares/Third_Party/SubGHz_Phy/stm32_radio_driver/radio.c **** 
 1098              		.loc 1 1428 5 is_stmt 1 view .LVU280
 1099 0006 0021     		movs	r1, #0
 1100              	.LVL122:
1428:Middlewares/Third_Party/SubGHz_Phy/stm32_radio_driver/radio.c **** 
 1101              		.loc 1 1428 5 is_stmt 0 view .LVU281
 1102 0008 044B     		ldr	r3, .L98
 1103 000a 93F85600 		ldrb	r0, [r3, #86]	@ zero_extendqisi2
 1104              	.LVL123:
1428:Middlewares/Third_Party/SubGHz_Phy/stm32_radio_driver/radio.c **** 
 1105              		.loc 1 1428 5 view .LVU282
 1106 000e FFF7FEFF 		bl	SUBGRF_SetSwitch
 1107              	.LVL124:
1430:Middlewares/Third_Party/SubGHz_Phy/stm32_radio_driver/radio.c **** }
 1108              		.loc 1 1430 5 is_stmt 1 view .LVU283
 1109 0012 2946     		mov	r1, r5
 1110 0014 2046     		mov	r0, r4
 1111 0016 FFF7FEFF 		bl	SUBGRF_SetRxDutyCycle
 1112              	.LVL125:
1431:Middlewares/Third_Party/SubGHz_Phy/stm32_radio_driver/radio.c **** 
 1113              		.loc 1 1431 1 is_stmt 0 view .LVU284
 1114 001a 38BD     		pop	{r3, r4, r5, pc}
 1115              	.LVL126:
 1116              	.L99:
1431:Middlewares/Third_Party/SubGHz_Phy/stm32_radio_driver/radio.c **** 
 1117              		.loc 1 1431 1 view .LVU285
 1118              		.align	2
 1119              	.L98:
 1120 001c 00000000 		.word	.LANCHOR3
 1121              		.cfi_endproc
 1122              	.LFE1002:
 1124              		.section	.text.RadioRxBoosted,"ax",%progbits
 1125              		.align	1
 1126              		.syntax unified
 1127              		.thumb
 1128              		.thumb_func
 1129              		.fpu softvfp
 1131              	RadioRxBoosted:
 1132              	.LVL127:
 1133              	.LFB1001:
1394:Middlewares/Third_Party/SubGHz_Phy/stm32_radio_driver/radio.c ****     if (1UL==RFW_Is_Init())
 1134              		.loc 1 1394 1 is_stmt 1 view -0
 1135              		.cfi_startproc
 1136              		@ args = 0, pretend = 0, frame = 0
 1137              		@ frame_needed = 0, uses_anonymous_args = 0
1394:Middlewares/Third_Party/SubGHz_Phy/stm32_radio_driver/radio.c ****     if (1UL==RFW_Is_Init())
 1138              		.loc 1 1394 1 is_stmt 0 view .LVU287
 1139 0000 38B5     		push	{r3, r4, r5, lr}
 1140              	.LCFI16:
 1141              		.cfi_def_cfa_offset 16
 1142              		.cfi_offset 3, -16
 1143              		.cfi_offset 4, -12
 1144              		.cfi_offset 5, -8
 1145              		.cfi_offset 14, -4
ARM GAS  /tmp/ccldRdip.s 			page 54


 1146 0002 0446     		mov	r4, r0
1395:Middlewares/Third_Party/SubGHz_Phy/stm32_radio_driver/radio.c ****     {
 1147              		.loc 1 1395 5 is_stmt 1 view .LVU288
1395:Middlewares/Third_Party/SubGHz_Phy/stm32_radio_driver/radio.c ****     {
 1148              		.loc 1 1395 14 is_stmt 0 view .LVU289
 1149 0004 FFF7FEFF 		bl	RFW_Is_Init
 1150              	.LVL128:
1395:Middlewares/Third_Party/SubGHz_Phy/stm32_radio_driver/radio.c ****     {
 1151              		.loc 1 1395 8 view .LVU290
 1152 0008 0128     		cmp	r0, #1
 1153 000a 14D0     		beq	.L107
1401:Middlewares/Third_Party/SubGHz_Phy/stm32_radio_driver/radio.c ****                               IRQ_RX_DONE | IRQ_RX_TX_TIMEOUT | IRQ_CRC_ERROR | IRQ_HEADER_ERROR | 
 1154              		.loc 1 1401 7 is_stmt 1 view .LVU291
 1155 000c 0023     		movs	r3, #0
 1156 000e 1A46     		mov	r2, r3
 1157 0010 40F26221 		movw	r1, #610
 1158 0014 0846     		mov	r0, r1
 1159 0016 FFF7FEFF 		bl	SUBGRF_SetDioIrqParams
 1160              	.LVL129:
 1161              	.L102:
1406:Middlewares/Third_Party/SubGHz_Phy/stm32_radio_driver/radio.c ****     {
 1162              		.loc 1 1406 5 view .LVU292
1406:Middlewares/Third_Party/SubGHz_Phy/stm32_radio_driver/radio.c ****     {
 1163              		.loc 1 1406 7 is_stmt 0 view .LVU293
 1164 001a 7CB9     		cbnz	r4, .L108
 1165              	.L103:
1409:Middlewares/Third_Party/SubGHz_Phy/stm32_radio_driver/radio.c ****     }
 1166              		.loc 1 1409 9 is_stmt 1 discriminator 1 view .LVU294
1413:Middlewares/Third_Party/SubGHz_Phy/stm32_radio_driver/radio.c **** 
 1167              		.loc 1 1413 5 discriminator 1 view .LVU295
 1168 001c 0F4C     		ldr	r4, .L109
 1169              	.LVL130:
1413:Middlewares/Third_Party/SubGHz_Phy/stm32_radio_driver/radio.c **** 
 1170              		.loc 1 1413 5 is_stmt 0 discriminator 1 view .LVU296
 1171 001e 0021     		movs	r1, #0
 1172 0020 94F85600 		ldrb	r0, [r4, #86]	@ zero_extendqisi2
 1173 0024 FFF7FEFF 		bl	SUBGRF_SetSwitch
 1174              	.LVL131:
1415:Middlewares/Third_Party/SubGHz_Phy/stm32_radio_driver/radio.c ****     {
 1175              		.loc 1 1415 5 is_stmt 1 discriminator 1 view .LVU297
1415:Middlewares/Third_Party/SubGHz_Phy/stm32_radio_driver/radio.c ****     {
 1176              		.loc 1 1415 15 is_stmt 0 discriminator 1 view .LVU298
 1177 0028 6378     		ldrb	r3, [r4, #1]	@ zero_extendqisi2
1415:Middlewares/Third_Party/SubGHz_Phy/stm32_radio_driver/radio.c ****     {
 1178              		.loc 1 1415 7 discriminator 1 view .LVU299
 1179 002a 83B1     		cbz	r3, .L104
1417:Middlewares/Third_Party/SubGHz_Phy/stm32_radio_driver/radio.c ****     }
 1180              		.loc 1 1417 9 is_stmt 1 view .LVU300
 1181 002c 6FF07F40 		mvn	r0, #-16777216
 1182 0030 FFF7FEFF 		bl	SUBGRF_SetRxBoosted
 1183              	.LVL132:
 1184              	.L100:
1423:Middlewares/Third_Party/SubGHz_Phy/stm32_radio_driver/radio.c **** 
 1185              		.loc 1 1423 1 is_stmt 0 view .LVU301
 1186 0034 38BD     		pop	{r3, r4, r5, pc}
 1187              	.LVL133:
 1188              	.L107:
ARM GAS  /tmp/ccldRdip.s 			page 55


1397:Middlewares/Third_Party/SubGHz_Phy/stm32_radio_driver/radio.c ****     }
 1189              		.loc 1 1397 7 is_stmt 1 view .LVU302
 1190 0036 FFF7FEFF 		bl	RFW_ReceiveInit
 1191              	.LVL134:
 1192 003a EEE7     		b	.L102
 1193              	.L108:
1408:Middlewares/Third_Party/SubGHz_Phy/stm32_radio_driver/radio.c ****         TimerStart( &RxTimeoutTimer );
 1194              		.loc 1 1408 9 view .LVU303
1408:Middlewares/Third_Party/SubGHz_Phy/stm32_radio_driver/radio.c ****         TimerStart( &RxTimeoutTimer );
 1195              		.loc 1 1408 9 view .LVU304
 1196 003c 084D     		ldr	r5, .L109+4
 1197 003e 2146     		mov	r1, r4
 1198 0040 2846     		mov	r0, r5
 1199 0042 FFF7FEFF 		bl	UTIL_TIMER_SetPeriod
 1200              	.LVL135:
1408:Middlewares/Third_Party/SubGHz_Phy/stm32_radio_driver/radio.c ****         TimerStart( &RxTimeoutTimer );
 1201              		.loc 1 1408 9 view .LVU305
1409:Middlewares/Third_Party/SubGHz_Phy/stm32_radio_driver/radio.c ****     }
 1202              		.loc 1 1409 9 view .LVU306
1409:Middlewares/Third_Party/SubGHz_Phy/stm32_radio_driver/radio.c ****     }
 1203              		.loc 1 1409 9 view .LVU307
 1204 0046 2846     		mov	r0, r5
 1205 0048 FFF7FEFF 		bl	UTIL_TIMER_Start
 1206              	.LVL136:
 1207 004c E6E7     		b	.L103
 1208              	.LVL137:
 1209              	.L104:
1421:Middlewares/Third_Party/SubGHz_Phy/stm32_radio_driver/radio.c ****     }
 1210              		.loc 1 1421 9 view .LVU308
1421:Middlewares/Third_Party/SubGHz_Phy/stm32_radio_driver/radio.c ****     }
 1211              		.loc 1 1421 36 is_stmt 0 view .LVU309
 1212 004e 034B     		ldr	r3, .L109
 1213 0050 9868     		ldr	r0, [r3, #8]
1421:Middlewares/Third_Party/SubGHz_Phy/stm32_radio_driver/radio.c ****     }
 1214              		.loc 1 1421 9 view .LVU310
 1215 0052 8001     		lsls	r0, r0, #6
 1216 0054 FFF7FEFF 		bl	SUBGRF_SetRxBoosted
 1217              	.LVL138:
1423:Middlewares/Third_Party/SubGHz_Phy/stm32_radio_driver/radio.c **** 
 1218              		.loc 1 1423 1 view .LVU311
 1219 0058 ECE7     		b	.L100
 1220              	.L110:
 1221 005a 00BF     		.align	2
 1222              	.L109:
 1223 005c 00000000 		.word	.LANCHOR3
 1224 0060 00000000 		.word	.LANCHOR4
 1225              		.cfi_endproc
 1226              	.LFE1001:
 1228              		.section	.text.RadioStandby,"ax",%progbits
 1229              		.align	1
 1230              		.syntax unified
 1231              		.thumb
 1232              		.thumb_func
 1233              		.fpu softvfp
 1235              	RadioStandby:
 1236              	.LFB999:
1351:Middlewares/Third_Party/SubGHz_Phy/stm32_radio_driver/radio.c ****     SUBGRF_SetStandby( STDBY_RC );
ARM GAS  /tmp/ccldRdip.s 			page 56


 1237              		.loc 1 1351 1 is_stmt 1 view -0
 1238              		.cfi_startproc
 1239              		@ args = 0, pretend = 0, frame = 0
 1240              		@ frame_needed = 0, uses_anonymous_args = 0
 1241 0000 08B5     		push	{r3, lr}
 1242              	.LCFI17:
 1243              		.cfi_def_cfa_offset 8
 1244              		.cfi_offset 3, -8
 1245              		.cfi_offset 14, -4
1352:Middlewares/Third_Party/SubGHz_Phy/stm32_radio_driver/radio.c **** }
 1246              		.loc 1 1352 5 view .LVU313
 1247 0002 0020     		movs	r0, #0
 1248 0004 FFF7FEFF 		bl	SUBGRF_SetStandby
 1249              	.LVL139:
1353:Middlewares/Third_Party/SubGHz_Phy/stm32_radio_driver/radio.c **** 
 1250              		.loc 1 1353 1 is_stmt 0 view .LVU314
 1251 0008 08BD     		pop	{r3, pc}
 1252              		.cfi_endproc
 1253              	.LFE999:
 1255              		.section	.text.RadioGetStatus,"ax",%progbits
 1256              		.align	1
 1257              		.syntax unified
 1258              		.thumb
 1259              		.thumb_func
 1260              		.fpu softvfp
 1262              	RadioGetStatus:
 1263              	.LFB985:
 671:Middlewares/Third_Party/SubGHz_Phy/stm32_radio_driver/radio.c ****     switch( SUBGRF_GetOperatingMode( ) )
 1264              		.loc 1 671 1 is_stmt 1 view -0
 1265              		.cfi_startproc
 1266              		@ args = 0, pretend = 0, frame = 0
 1267              		@ frame_needed = 0, uses_anonymous_args = 0
 1268 0000 08B5     		push	{r3, lr}
 1269              	.LCFI18:
 1270              		.cfi_def_cfa_offset 8
 1271              		.cfi_offset 3, -8
 1272              		.cfi_offset 14, -4
 672:Middlewares/Third_Party/SubGHz_Phy/stm32_radio_driver/radio.c ****     {
 1273              		.loc 1 672 5 view .LVU316
 672:Middlewares/Third_Party/SubGHz_Phy/stm32_radio_driver/radio.c ****     {
 1274              		.loc 1 672 13 is_stmt 0 view .LVU317
 1275 0002 FFF7FEFF 		bl	SUBGRF_GetOperatingMode
 1276              	.LVL140:
 672:Middlewares/Third_Party/SubGHz_Phy/stm32_radio_driver/radio.c ****     {
 1277              		.loc 1 672 5 view .LVU318
 1278 0006 0528     		cmp	r0, #5
 1279 0008 07D0     		beq	.L115
 1280 000a 0728     		cmp	r0, #7
 1281 000c 07D0     		beq	.L116
 1282 000e 0428     		cmp	r0, #4
 1283 0010 01D0     		beq	.L119
 681:Middlewares/Third_Party/SubGHz_Phy/stm32_radio_driver/radio.c ****     }
 1284              		.loc 1 681 20 view .LVU319
 1285 0012 0020     		movs	r0, #0
 1286              	.L114:
 683:Middlewares/Third_Party/SubGHz_Phy/stm32_radio_driver/radio.c **** 
 1287              		.loc 1 683 1 view .LVU320
ARM GAS  /tmp/ccldRdip.s 			page 57


 1288 0014 08BD     		pop	{r3, pc}
 1289              	.L119:
 672:Middlewares/Third_Party/SubGHz_Phy/stm32_radio_driver/radio.c ****     {
 1290              		.loc 1 672 5 view .LVU321
 1291 0016 0220     		movs	r0, #2
 1292 0018 FCE7     		b	.L114
 1293              	.L115:
 677:Middlewares/Third_Party/SubGHz_Phy/stm32_radio_driver/radio.c ****         case MODE_CAD:
 1294              		.loc 1 677 20 view .LVU322
 1295 001a 0120     		movs	r0, #1
 1296 001c FAE7     		b	.L114
 1297              	.L116:
 679:Middlewares/Third_Party/SubGHz_Phy/stm32_radio_driver/radio.c ****         default:
 1298              		.loc 1 679 20 view .LVU323
 1299 001e 0320     		movs	r0, #3
 1300 0020 F8E7     		b	.L114
 1301              		.cfi_endproc
 1302              	.LFE985:
 1304              		.section	.text.RadioIrqProcess,"ax",%progbits
 1305              		.align	1
 1306              		.syntax unified
 1307              		.thumb
 1308              		.thumb_func
 1309              		.fpu softvfp
 1311              	RadioIrqProcess:
 1312              	.LFB1018:
1571:Middlewares/Third_Party/SubGHz_Phy/stm32_radio_driver/radio.c ****     uint8_t size = 0;
 1313              		.loc 1 1571 1 is_stmt 1 view -0
 1314              		.cfi_startproc
 1315              		@ args = 0, pretend = 0, frame = 8
 1316              		@ frame_needed = 0, uses_anonymous_args = 0
 1317 0000 30B5     		push	{r4, r5, lr}
 1318              	.LCFI19:
 1319              		.cfi_def_cfa_offset 12
 1320              		.cfi_offset 4, -12
 1321              		.cfi_offset 5, -8
 1322              		.cfi_offset 14, -4
 1323 0002 83B0     		sub	sp, sp, #12
 1324              	.LCFI20:
 1325              		.cfi_def_cfa_offset 24
1572:Middlewares/Third_Party/SubGHz_Phy/stm32_radio_driver/radio.c ****     int32_t cfo = 0;
 1326              		.loc 1 1572 5 view .LVU325
1572:Middlewares/Third_Party/SubGHz_Phy/stm32_radio_driver/radio.c ****     int32_t cfo = 0;
 1327              		.loc 1 1572 13 is_stmt 0 view .LVU326
 1328 0004 0023     		movs	r3, #0
 1329 0006 8DF80730 		strb	r3, [sp, #7]
1573:Middlewares/Third_Party/SubGHz_Phy/stm32_radio_driver/radio.c **** 
 1330              		.loc 1 1573 5 is_stmt 1 view .LVU327
1573:Middlewares/Third_Party/SubGHz_Phy/stm32_radio_driver/radio.c **** 
 1331              		.loc 1 1573 13 is_stmt 0 view .LVU328
 1332 000a 0093     		str	r3, [sp]
1575:Middlewares/Third_Party/SubGHz_Phy/stm32_radio_driver/radio.c ****     {
 1333              		.loc 1 1575 5 is_stmt 1 view .LVU329
1575:Middlewares/Third_Party/SubGHz_Phy/stm32_radio_driver/radio.c ****     {
 1334              		.loc 1 1575 20 is_stmt 0 view .LVU330
 1335 000c 894B     		ldr	r3, .L146
 1336 000e B3F85430 		ldrh	r3, [r3, #84]
ARM GAS  /tmp/ccldRdip.s 			page 58


1575:Middlewares/Third_Party/SubGHz_Phy/stm32_radio_driver/radio.c ****     {
 1337              		.loc 1 1575 5 view .LVU331
 1338 0012 402B     		cmp	r3, #64
 1339 0014 00F0FE80 		beq	.L121
 1340 0018 2CD8     		bhi	.L122
 1341 001a 202B     		cmp	r3, #32
 1342 001c 00F2E280 		bhi	.L120
 1343 0020 1AB2     		sxth	r2, r3
 1344 0022 002A     		cmp	r2, #0
 1345 0024 00F0DE80 		beq	.L120
 1346 0028 013B     		subs	r3, r3, #1
 1347 002a 1F2B     		cmp	r3, #31
 1348 002c 00F2DA80 		bhi	.L120
 1349 0030 DFE813F0 		tbh	[pc, r3, lsl #1]
 1350              	.L125:
 1351 0034 5400     		.2byte	(.L128-.L125)/2
 1352 0036 6A00     		.2byte	(.L127-.L125)/2
 1353 0038 D800     		.2byte	(.L120-.L125)/2
 1354 003a D800     		.2byte	(.L120-.L125)/2
 1355 003c D800     		.2byte	(.L120-.L125)/2
 1356 003e D800     		.2byte	(.L120-.L125)/2
 1357 0040 D800     		.2byte	(.L120-.L125)/2
 1358 0042 D400     		.2byte	(.L126-.L125)/2
 1359 0044 D800     		.2byte	(.L120-.L125)/2
 1360 0046 D800     		.2byte	(.L120-.L125)/2
 1361 0048 D800     		.2byte	(.L120-.L125)/2
 1362 004a D800     		.2byte	(.L120-.L125)/2
 1363 004c D800     		.2byte	(.L120-.L125)/2
 1364 004e D800     		.2byte	(.L120-.L125)/2
 1365 0050 D800     		.2byte	(.L120-.L125)/2
 1366 0052 D800     		.2byte	(.L120-.L125)/2
 1367 0054 D800     		.2byte	(.L120-.L125)/2
 1368 0056 D800     		.2byte	(.L120-.L125)/2
 1369 0058 D800     		.2byte	(.L120-.L125)/2
 1370 005a D800     		.2byte	(.L120-.L125)/2
 1371 005c D800     		.2byte	(.L120-.L125)/2
 1372 005e D800     		.2byte	(.L120-.L125)/2
 1373 0060 D800     		.2byte	(.L120-.L125)/2
 1374 0062 D800     		.2byte	(.L120-.L125)/2
 1375 0064 D800     		.2byte	(.L120-.L125)/2
 1376 0066 D800     		.2byte	(.L120-.L125)/2
 1377 0068 D800     		.2byte	(.L120-.L125)/2
 1378 006a D800     		.2byte	(.L120-.L125)/2
 1379 006c D800     		.2byte	(.L120-.L125)/2
 1380 006e D800     		.2byte	(.L120-.L125)/2
 1381 0070 D800     		.2byte	(.L120-.L125)/2
 1382 0072 DD00     		.2byte	(.L124-.L125)/2
 1383              		.p2align 1
 1384              	.L122:
 1385 0074 B3F5807F 		cmp	r3, #256
 1386 0078 00F09880 		beq	.L129
 1387 007c B3F5007F 		cmp	r3, #512
 1388 0080 1AD1     		bne	.L139
1651:Middlewares/Third_Party/SubGHz_Phy/stm32_radio_driver/radio.c ****         if( SUBGRF_GetOperatingMode( ) == MODE_TX )
 1389              		.loc 1 1651 60 is_stmt 1 view .LVU332
1652:Middlewares/Third_Party/SubGHz_Phy/stm32_radio_driver/radio.c ****         {
 1390              		.loc 1 1652 9 view .LVU333
ARM GAS  /tmp/ccldRdip.s 			page 59


1652:Middlewares/Third_Party/SubGHz_Phy/stm32_radio_driver/radio.c ****         {
 1391              		.loc 1 1652 13 is_stmt 0 view .LVU334
 1392 0082 FFF7FEFF 		bl	SUBGRF_GetOperatingMode
 1393              	.LVL141:
1652:Middlewares/Third_Party/SubGHz_Phy/stm32_radio_driver/radio.c ****         {
 1394              		.loc 1 1652 11 view .LVU335
 1395 0086 0428     		cmp	r0, #4
 1396 0088 00F09B80 		beq	.L140
1666:Middlewares/Third_Party/SubGHz_Phy/stm32_radio_driver/radio.c ****         {
 1397              		.loc 1 1666 14 is_stmt 1 view .LVU336
1666:Middlewares/Third_Party/SubGHz_Phy/stm32_radio_driver/radio.c ****         {
 1398              		.loc 1 1666 18 is_stmt 0 view .LVU337
 1399 008c FFF7FEFF 		bl	SUBGRF_GetOperatingMode
 1400              	.LVL142:
1666:Middlewares/Third_Party/SubGHz_Phy/stm32_radio_driver/radio.c ****         {
 1401              		.loc 1 1666 16 view .LVU338
 1402 0090 0528     		cmp	r0, #5
 1403 0092 40F0A780 		bne	.L120
1669:Middlewares/Third_Party/SubGHz_Phy/stm32_radio_driver/radio.c ****             /* ST_WORKAROUND_END */
 1404              		.loc 1 1669 35 is_stmt 1 view .LVU339
1672:Middlewares/Third_Party/SubGHz_Phy/stm32_radio_driver/radio.c ****             //!< Update operating mode state to a value lower than \ref MODE_STDBY_XOSC
 1405              		.loc 1 1672 13 view .LVU340
1672:Middlewares/Third_Party/SubGHz_Phy/stm32_radio_driver/radio.c ****             //!< Update operating mode state to a value lower than \ref MODE_STDBY_XOSC
 1406              		.loc 1 1672 13 view .LVU341
 1407 0096 6848     		ldr	r0, .L146+4
 1408 0098 FFF7FEFF 		bl	UTIL_TIMER_Stop
 1409              	.LVL143:
1672:Middlewares/Third_Party/SubGHz_Phy/stm32_radio_driver/radio.c ****             //!< Update operating mode state to a value lower than \ref MODE_STDBY_XOSC
 1410              		.loc 1 1672 13 view .LVU342
1674:Middlewares/Third_Party/SubGHz_Phy/stm32_radio_driver/radio.c ****             if( ( RadioEvents != NULL ) && ( RadioEvents->RxTimeout != NULL ) )
 1411              		.loc 1 1674 13 view .LVU343
 1412 009c 0020     		movs	r0, #0
 1413 009e FFF7FEFF 		bl	SUBGRF_SetStandby
 1414              	.LVL144:
1675:Middlewares/Third_Party/SubGHz_Phy/stm32_radio_driver/radio.c ****             {
 1415              		.loc 1 1675 13 view .LVU344
1675:Middlewares/Third_Party/SubGHz_Phy/stm32_radio_driver/radio.c ****             {
 1416              		.loc 1 1675 31 is_stmt 0 view .LVU345
 1417 00a2 664B     		ldr	r3, .L146+8
 1418 00a4 1B68     		ldr	r3, [r3]
1675:Middlewares/Third_Party/SubGHz_Phy/stm32_radio_driver/radio.c ****             {
 1419              		.loc 1 1675 15 view .LVU346
 1420 00a6 002B     		cmp	r3, #0
 1421 00a8 00F09C80 		beq	.L120
1675:Middlewares/Third_Party/SubGHz_Phy/stm32_radio_driver/radio.c ****             {
 1422              		.loc 1 1675 57 discriminator 1 view .LVU347
 1423 00ac DB68     		ldr	r3, [r3, #12]
1675:Middlewares/Third_Party/SubGHz_Phy/stm32_radio_driver/radio.c ****             {
 1424              		.loc 1 1675 41 discriminator 1 view .LVU348
 1425 00ae 002B     		cmp	r3, #0
 1426 00b0 00F09880 		beq	.L120
1677:Middlewares/Third_Party/SubGHz_Phy/stm32_radio_driver/radio.c ****             }
 1427              		.loc 1 1677 17 is_stmt 1 view .LVU349
 1428 00b4 9847     		blx	r3
 1429              	.LVL145:
 1430 00b6 95E0     		b	.L120
 1431              	.L139:
ARM GAS  /tmp/ccldRdip.s 			page 60


1575:Middlewares/Third_Party/SubGHz_Phy/stm32_radio_driver/radio.c ****     {
 1432              		.loc 1 1575 5 is_stmt 0 view .LVU350
 1433 00b8 802B     		cmp	r3, #128
 1434 00ba 40F09380 		bne	.L120
1634:Middlewares/Third_Party/SubGHz_Phy/stm32_radio_driver/radio.c ****         if( ( RadioEvents != NULL ) && ( RadioEvents->CadDone != NULL ) )
 1435              		.loc 1 1634 9 is_stmt 1 view .LVU351
 1436 00be 0020     		movs	r0, #0
 1437 00c0 FFF7FEFF 		bl	SUBGRF_SetStandby
 1438              	.LVL146:
1635:Middlewares/Third_Party/SubGHz_Phy/stm32_radio_driver/radio.c ****         {
 1439              		.loc 1 1635 9 view .LVU352
1635:Middlewares/Third_Party/SubGHz_Phy/stm32_radio_driver/radio.c ****         {
 1440              		.loc 1 1635 27 is_stmt 0 view .LVU353
 1441 00c4 5D4B     		ldr	r3, .L146+8
 1442 00c6 1B68     		ldr	r3, [r3]
1635:Middlewares/Third_Party/SubGHz_Phy/stm32_radio_driver/radio.c ****         {
 1443              		.loc 1 1635 11 view .LVU354
 1444 00c8 002B     		cmp	r3, #0
 1445 00ca 00F08B80 		beq	.L120
1635:Middlewares/Third_Party/SubGHz_Phy/stm32_radio_driver/radio.c ****         {
 1446              		.loc 1 1635 53 discriminator 1 view .LVU355
 1447 00ce 9B69     		ldr	r3, [r3, #24]
1635:Middlewares/Third_Party/SubGHz_Phy/stm32_radio_driver/radio.c ****         {
 1448              		.loc 1 1635 37 discriminator 1 view .LVU356
 1449 00d0 002B     		cmp	r3, #0
 1450 00d2 00F08780 		beq	.L120
1637:Middlewares/Third_Party/SubGHz_Phy/stm32_radio_driver/radio.c ****         }
 1451              		.loc 1 1637 13 is_stmt 1 view .LVU357
 1452 00d6 0020     		movs	r0, #0
 1453 00d8 9847     		blx	r3
 1454              	.LVL147:
 1455 00da 83E0     		b	.L120
 1456              	.L128:
1579:Middlewares/Third_Party/SubGHz_Phy/stm32_radio_driver/radio.c ****         /* ST_WORKAROUND_END */
 1457              		.loc 1 1579 31 view .LVU358
1582:Middlewares/Third_Party/SubGHz_Phy/stm32_radio_driver/radio.c ****         //!< Update operating mode state to a value lower than \ref MODE_STDBY_XOSC
 1458              		.loc 1 1582 9 view .LVU359
1582:Middlewares/Third_Party/SubGHz_Phy/stm32_radio_driver/radio.c ****         //!< Update operating mode state to a value lower than \ref MODE_STDBY_XOSC
 1459              		.loc 1 1582 9 view .LVU360
 1460 00dc 5848     		ldr	r0, .L146+12
 1461 00de FFF7FEFF 		bl	UTIL_TIMER_Stop
 1462              	.LVL148:
1582:Middlewares/Third_Party/SubGHz_Phy/stm32_radio_driver/radio.c ****         //!< Update operating mode state to a value lower than \ref MODE_STDBY_XOSC
 1463              		.loc 1 1582 9 view .LVU361
1584:Middlewares/Third_Party/SubGHz_Phy/stm32_radio_driver/radio.c **** 
 1464              		.loc 1 1584 9 view .LVU362
 1465 00e2 0020     		movs	r0, #0
 1466 00e4 FFF7FEFF 		bl	SUBGRF_SetStandby
 1467              	.LVL149:
1586:Middlewares/Third_Party/SubGHz_Phy/stm32_radio_driver/radio.c ****         {
 1468              		.loc 1 1586 9 view .LVU363
1586:Middlewares/Third_Party/SubGHz_Phy/stm32_radio_driver/radio.c ****         {
 1469              		.loc 1 1586 14 is_stmt 0 view .LVU364
 1470 00e8 FFF7FEFF 		bl	RFW_Is_LongPacketModeEnabled
 1471              	.LVL150:
1586:Middlewares/Third_Party/SubGHz_Phy/stm32_radio_driver/radio.c ****         {
 1472              		.loc 1 1586 12 view .LVU365
ARM GAS  /tmp/ccldRdip.s 			page 61


 1473 00ec 0128     		cmp	r0, #1
 1474 00ee 08D0     		beq	.L141
 1475              	.L132:
1591:Middlewares/Third_Party/SubGHz_Phy/stm32_radio_driver/radio.c ****         {
 1476              		.loc 1 1591 9 is_stmt 1 view .LVU366
1591:Middlewares/Third_Party/SubGHz_Phy/stm32_radio_driver/radio.c ****         {
 1477              		.loc 1 1591 27 is_stmt 0 view .LVU367
 1478 00f0 524B     		ldr	r3, .L146+8
 1479 00f2 1B68     		ldr	r3, [r3]
1591:Middlewares/Third_Party/SubGHz_Phy/stm32_radio_driver/radio.c ****         {
 1480              		.loc 1 1591 11 view .LVU368
 1481 00f4 002B     		cmp	r3, #0
 1482 00f6 75D0     		beq	.L120
1591:Middlewares/Third_Party/SubGHz_Phy/stm32_radio_driver/radio.c ****         {
 1483              		.loc 1 1591 53 discriminator 1 view .LVU369
 1484 00f8 1B68     		ldr	r3, [r3]
1591:Middlewares/Third_Party/SubGHz_Phy/stm32_radio_driver/radio.c ****         {
 1485              		.loc 1 1591 37 discriminator 1 view .LVU370
 1486 00fa 002B     		cmp	r3, #0
 1487 00fc 72D0     		beq	.L120
1593:Middlewares/Third_Party/SubGHz_Phy/stm32_radio_driver/radio.c ****         }
 1488              		.loc 1 1593 13 is_stmt 1 view .LVU371
 1489 00fe 9847     		blx	r3
 1490              	.LVL151:
 1491 0100 70E0     		b	.L120
 1492              	.L141:
1588:Middlewares/Third_Party/SubGHz_Phy/stm32_radio_driver/radio.c ****         }
 1493              		.loc 1 1588 13 view .LVU372
 1494 0102 FFF7FEFF 		bl	RFW_DeInit_TxLongPacket
 1495              	.LVL152:
 1496 0106 F3E7     		b	.L132
 1497              	.L127:
1599:Middlewares/Third_Party/SubGHz_Phy/stm32_radio_driver/radio.c ****         /* ST_WORKAROUND_END */
 1498              		.loc 1 1599 31 view .LVU373
1602:Middlewares/Third_Party/SubGHz_Phy/stm32_radio_driver/radio.c ****         if( SubgRf.RxContinuous == false )
 1499              		.loc 1 1602 9 view .LVU374
1602:Middlewares/Third_Party/SubGHz_Phy/stm32_radio_driver/radio.c ****         if( SubgRf.RxContinuous == false )
 1500              		.loc 1 1602 9 view .LVU375
 1501 0108 4B48     		ldr	r0, .L146+4
 1502 010a FFF7FEFF 		bl	UTIL_TIMER_Stop
 1503              	.LVL153:
1602:Middlewares/Third_Party/SubGHz_Phy/stm32_radio_driver/radio.c ****         if( SubgRf.RxContinuous == false )
 1504              		.loc 1 1602 9 view .LVU376
1603:Middlewares/Third_Party/SubGHz_Phy/stm32_radio_driver/radio.c ****         {
 1505              		.loc 1 1603 9 view .LVU377
1603:Middlewares/Third_Party/SubGHz_Phy/stm32_radio_driver/radio.c ****         {
 1506              		.loc 1 1603 19 is_stmt 0 view .LVU378
 1507 010e 494B     		ldr	r3, .L146
 1508 0110 5B78     		ldrb	r3, [r3, #1]	@ zero_extendqisi2
1603:Middlewares/Third_Party/SubGHz_Phy/stm32_radio_driver/radio.c ****         {
 1509              		.loc 1 1603 11 view .LVU379
 1510 0112 F3B1     		cbz	r3, .L142
 1511              	.L133:
1615:Middlewares/Third_Party/SubGHz_Phy/stm32_radio_driver/radio.c ****         SUBGRF_GetPacketStatus( &(SubgRf.PacketStatus) );
 1512              		.loc 1 1615 9 is_stmt 1 view .LVU380
 1513 0114 FF22     		movs	r2, #255
 1514 0116 0DF10701 		add	r1, sp, #7
ARM GAS  /tmp/ccldRdip.s 			page 62


 1515 011a 4A48     		ldr	r0, .L146+16
 1516 011c FFF7FEFF 		bl	SUBGRF_GetPayload
 1517              	.LVL154:
1616:Middlewares/Third_Party/SubGHz_Phy/stm32_radio_driver/radio.c ****         if( ( RadioEvents != NULL ) && ( RadioEvents->RxDone != NULL ) )
 1518              		.loc 1 1616 9 view .LVU381
 1519 0120 4948     		ldr	r0, .L146+20
 1520 0122 FFF7FEFF 		bl	SUBGRF_GetPacketStatus
 1521              	.LVL155:
1617:Middlewares/Third_Party/SubGHz_Phy/stm32_radio_driver/radio.c ****         {
 1522              		.loc 1 1617 9 view .LVU382
1617:Middlewares/Third_Party/SubGHz_Phy/stm32_radio_driver/radio.c ****         {
 1523              		.loc 1 1617 27 is_stmt 0 view .LVU383
 1524 0126 454B     		ldr	r3, .L146+8
 1525 0128 1B68     		ldr	r3, [r3]
1617:Middlewares/Third_Party/SubGHz_Phy/stm32_radio_driver/radio.c ****         {
 1526              		.loc 1 1617 11 view .LVU384
 1527 012a 002B     		cmp	r3, #0
 1528 012c 5AD0     		beq	.L120
1617:Middlewares/Third_Party/SubGHz_Phy/stm32_radio_driver/radio.c ****         {
 1529              		.loc 1 1617 53 discriminator 1 view .LVU385
 1530 012e 9C68     		ldr	r4, [r3, #8]
1617:Middlewares/Third_Party/SubGHz_Phy/stm32_radio_driver/radio.c ****         {
 1531              		.loc 1 1617 37 discriminator 1 view .LVU386
 1532 0130 002C     		cmp	r4, #0
 1533 0132 57D0     		beq	.L120
1619:Middlewares/Third_Party/SubGHz_Phy/stm32_radio_driver/radio.c ****             {
 1534              		.loc 1 1619 13 is_stmt 1 view .LVU387
1619:Middlewares/Third_Party/SubGHz_Phy/stm32_radio_driver/radio.c ****             {
 1535              		.loc 1 1619 41 is_stmt 0 view .LVU388
 1536 0134 3F4B     		ldr	r3, .L146
 1537 0136 93F82430 		ldrb	r3, [r3, #36]	@ zero_extendqisi2
 1538 013a 012B     		cmp	r3, #1
 1539 013c 1DD1     		bne	.L134
1622:Middlewares/Third_Party/SubGHz_Phy/stm32_radio_driver/radio.c ****                 break;
 1540              		.loc 1 1622 17 is_stmt 1 view .LVU389
1622:Middlewares/Third_Party/SubGHz_Phy/stm32_radio_driver/radio.c ****                 break;
 1541              		.loc 1 1622 88 is_stmt 0 view .LVU390
 1542 013e 3D4A     		ldr	r2, .L146
1622:Middlewares/Third_Party/SubGHz_Phy/stm32_radio_driver/radio.c ****                 break;
 1543              		.loc 1 1622 17 view .LVU391
 1544 0140 92F93130 		ldrsb	r3, [r2, #49]
 1545 0144 92F93020 		ldrsb	r2, [r2, #48]
 1546 0148 9DF80710 		ldrb	r1, [sp, #7]	@ zero_extendqisi2
 1547 014c 3D48     		ldr	r0, .L146+16
 1548 014e A047     		blx	r4
 1549              	.LVL156:
1623:Middlewares/Third_Party/SubGHz_Phy/stm32_radio_driver/radio.c ****             default:
 1550              		.loc 1 1623 17 is_stmt 1 view .LVU392
 1551 0150 48E0     		b	.L120
 1552              	.L142:
1606:Middlewares/Third_Party/SubGHz_Phy/stm32_radio_driver/radio.c **** 
 1553              		.loc 1 1606 13 view .LVU393
 1554 0152 0020     		movs	r0, #0
 1555 0154 FFF7FEFF 		bl	SUBGRF_SetStandby
 1556              	.LVL157:
1610:Middlewares/Third_Party/SubGHz_Phy/stm32_radio_driver/radio.c ****             // RegEventMask = @address 0x0944
 1557              		.loc 1 1610 13 view .LVU394
ARM GAS  /tmp/ccldRdip.s 			page 63


 1558 0158 0021     		movs	r1, #0
 1559 015a 40F60210 		movw	r0, #2306
 1560 015e FFF7FEFF 		bl	SUBGRF_WriteRegister
 1561              	.LVL158:
1612:Middlewares/Third_Party/SubGHz_Phy/stm32_radio_driver/radio.c ****             // WORKAROUND END
 1562              		.loc 1 1612 13 view .LVU395
1612:Middlewares/Third_Party/SubGHz_Phy/stm32_radio_driver/radio.c ****             // WORKAROUND END
 1563              		.loc 1 1612 43 is_stmt 0 view .LVU396
 1564 0162 40F64410 		movw	r0, #2372
 1565 0166 FFF7FEFF 		bl	SUBGRF_ReadRegister
 1566              	.LVL159:
1612:Middlewares/Third_Party/SubGHz_Phy/stm32_radio_driver/radio.c ****             // WORKAROUND END
 1567              		.loc 1 1612 13 view .LVU397
 1568 016a 40F00201 		orr	r1, r0, #2
 1569 016e C9B2     		uxtb	r1, r1
 1570 0170 40F64410 		movw	r0, #2372
 1571 0174 FFF7FEFF 		bl	SUBGRF_WriteRegister
 1572              	.LVL160:
 1573 0178 CCE7     		b	.L133
 1574              	.L134:
1625:Middlewares/Third_Party/SubGHz_Phy/stm32_radio_driver/radio.c ****                 RadioEvents->RxDone( RadioBuffer, size, SubgRf.PacketStatus.Params.Gfsk.RssiAvg, (i
 1575              		.loc 1 1625 17 is_stmt 1 view .LVU398
 1576 017a 2E4C     		ldr	r4, .L146
 1577 017c 6946     		mov	r1, sp
 1578 017e E06B     		ldr	r0, [r4, #60]
 1579 0180 FFF7FEFF 		bl	SUBGRF_GetCFO
 1580              	.LVL161:
1626:Middlewares/Third_Party/SubGHz_Phy/stm32_radio_driver/radio.c ****                 break;
 1581              		.loc 1 1626 17 view .LVU399
1626:Middlewares/Third_Party/SubGHz_Phy/stm32_radio_driver/radio.c ****                 break;
 1582              		.loc 1 1626 28 is_stmt 0 view .LVU400
 1583 0184 2D4B     		ldr	r3, .L146+8
 1584 0186 1B68     		ldr	r3, [r3]
 1585 0188 9D68     		ldr	r5, [r3, #8]
1626:Middlewares/Third_Party/SubGHz_Phy/stm32_radio_driver/radio.c ****                 break;
 1586              		.loc 1 1626 107 view .LVU401
 1587 018a 009B     		ldr	r3, [sp]
 1588 018c 03F5FA73 		add	r3, r3, #500
 1589 0190 2E4A     		ldr	r2, .L146+24
 1590 0192 82FB0312 		smull	r1, r2, r2, r3
 1591 0196 DB17     		asrs	r3, r3, #31
 1592 0198 C3EBA213 		rsb	r3, r3, r2, asr #6
1626:Middlewares/Third_Party/SubGHz_Phy/stm32_radio_driver/radio.c ****                 break;
 1593              		.loc 1 1626 17 view .LVU402
 1594 019c 5BB2     		sxtb	r3, r3
 1595 019e 94F92920 		ldrsb	r2, [r4, #41]
 1596 01a2 9DF80710 		ldrb	r1, [sp, #7]	@ zero_extendqisi2
 1597 01a6 2748     		ldr	r0, .L146+16
 1598 01a8 A847     		blx	r5
 1599              	.LVL162:
1627:Middlewares/Third_Party/SubGHz_Phy/stm32_radio_driver/radio.c ****             }
 1600              		.loc 1 1627 17 is_stmt 1 view .LVU403
 1601 01aa 1BE0     		b	.L120
 1602              	.L129:
1642:Middlewares/Third_Party/SubGHz_Phy/stm32_radio_driver/radio.c ****         if( ( RadioEvents != NULL ) && ( RadioEvents->CadDone != NULL ) )
 1603              		.loc 1 1642 9 view .LVU404
 1604 01ac 0020     		movs	r0, #0
ARM GAS  /tmp/ccldRdip.s 			page 64


 1605 01ae FFF7FEFF 		bl	SUBGRF_SetStandby
 1606              	.LVL163:
1643:Middlewares/Third_Party/SubGHz_Phy/stm32_radio_driver/radio.c ****         {
 1607              		.loc 1 1643 9 view .LVU405
1643:Middlewares/Third_Party/SubGHz_Phy/stm32_radio_driver/radio.c ****         {
 1608              		.loc 1 1643 27 is_stmt 0 view .LVU406
 1609 01b2 224B     		ldr	r3, .L146+8
 1610 01b4 1B68     		ldr	r3, [r3]
1643:Middlewares/Third_Party/SubGHz_Phy/stm32_radio_driver/radio.c ****         {
 1611              		.loc 1 1643 11 view .LVU407
 1612 01b6 ABB1     		cbz	r3, .L120
1643:Middlewares/Third_Party/SubGHz_Phy/stm32_radio_driver/radio.c ****         {
 1613              		.loc 1 1643 53 discriminator 1 view .LVU408
 1614 01b8 9B69     		ldr	r3, [r3, #24]
1643:Middlewares/Third_Party/SubGHz_Phy/stm32_radio_driver/radio.c ****         {
 1615              		.loc 1 1643 37 discriminator 1 view .LVU409
 1616 01ba 9BB1     		cbz	r3, .L120
1645:Middlewares/Third_Party/SubGHz_Phy/stm32_radio_driver/radio.c ****         }
 1617              		.loc 1 1645 13 is_stmt 1 view .LVU410
 1618 01bc 0120     		movs	r0, #1
 1619 01be 9847     		blx	r3
 1620              	.LVL164:
 1621 01c0 10E0     		b	.L120
 1622              	.L140:
1655:Middlewares/Third_Party/SubGHz_Phy/stm32_radio_driver/radio.c ****             /* ST_WORKAROUND_END */
 1623              		.loc 1 1655 35 view .LVU411
1658:Middlewares/Third_Party/SubGHz_Phy/stm32_radio_driver/radio.c ****             //!< Update operating mode state to a value lower than \ref MODE_STDBY_XOSC
 1624              		.loc 1 1658 13 view .LVU412
1658:Middlewares/Third_Party/SubGHz_Phy/stm32_radio_driver/radio.c ****             //!< Update operating mode state to a value lower than \ref MODE_STDBY_XOSC
 1625              		.loc 1 1658 13 view .LVU413
 1626 01c2 1F48     		ldr	r0, .L146+12
 1627 01c4 FFF7FEFF 		bl	UTIL_TIMER_Stop
 1628              	.LVL165:
1658:Middlewares/Third_Party/SubGHz_Phy/stm32_radio_driver/radio.c ****             //!< Update operating mode state to a value lower than \ref MODE_STDBY_XOSC
 1629              		.loc 1 1658 13 view .LVU414
1660:Middlewares/Third_Party/SubGHz_Phy/stm32_radio_driver/radio.c ****             if( ( RadioEvents != NULL ) && ( RadioEvents->TxTimeout != NULL ) )
 1630              		.loc 1 1660 13 view .LVU415
 1631 01c8 0020     		movs	r0, #0
 1632 01ca FFF7FEFF 		bl	SUBGRF_SetStandby
 1633              	.LVL166:
1661:Middlewares/Third_Party/SubGHz_Phy/stm32_radio_driver/radio.c ****             {
 1634              		.loc 1 1661 13 view .LVU416
1661:Middlewares/Third_Party/SubGHz_Phy/stm32_radio_driver/radio.c ****             {
 1635              		.loc 1 1661 31 is_stmt 0 view .LVU417
 1636 01ce 1B4B     		ldr	r3, .L146+8
 1637 01d0 1B68     		ldr	r3, [r3]
1661:Middlewares/Third_Party/SubGHz_Phy/stm32_radio_driver/radio.c ****             {
 1638              		.loc 1 1661 15 view .LVU418
 1639 01d2 3BB1     		cbz	r3, .L120
1661:Middlewares/Third_Party/SubGHz_Phy/stm32_radio_driver/radio.c ****             {
 1640              		.loc 1 1661 57 discriminator 1 view .LVU419
 1641 01d4 5B68     		ldr	r3, [r3, #4]
1661:Middlewares/Third_Party/SubGHz_Phy/stm32_radio_driver/radio.c ****             {
 1642              		.loc 1 1661 41 discriminator 1 view .LVU420
 1643 01d6 2BB1     		cbz	r3, .L120
1663:Middlewares/Third_Party/SubGHz_Phy/stm32_radio_driver/radio.c ****             }
 1644              		.loc 1 1663 17 is_stmt 1 view .LVU421
ARM GAS  /tmp/ccldRdip.s 			page 65


 1645 01d8 9847     		blx	r3
 1646              	.LVL167:
 1647 01da 03E0     		b	.L120
 1648              	.L126:
1687:Middlewares/Third_Party/SubGHz_Phy/stm32_radio_driver/radio.c ****         if ( 1UL == RFW_Is_Init( ) )
 1649              		.loc 1 1687 50 view .LVU422
1688:Middlewares/Third_Party/SubGHz_Phy/stm32_radio_driver/radio.c ****         {
 1650              		.loc 1 1688 9 view .LVU423
1688:Middlewares/Third_Party/SubGHz_Phy/stm32_radio_driver/radio.c ****         {
 1651              		.loc 1 1688 21 is_stmt 0 view .LVU424
 1652 01dc FFF7FEFF 		bl	RFW_Is_Init
 1653              	.LVL168:
1688:Middlewares/Third_Party/SubGHz_Phy/stm32_radio_driver/radio.c ****         {
 1654              		.loc 1 1688 12 view .LVU425
 1655 01e0 0128     		cmp	r0, #1
 1656 01e2 01D0     		beq	.L143
 1657              	.L120:
1728:Middlewares/Third_Party/SubGHz_Phy/stm32_radio_driver/radio.c **** 
 1658              		.loc 1 1728 1 view .LVU426
 1659 01e4 03B0     		add	sp, sp, #12
 1660              	.LCFI21:
 1661              		.cfi_remember_state
 1662              		.cfi_def_cfa_offset 12
 1663              		@ sp needed
 1664 01e6 30BD     		pop	{r4, r5, pc}
 1665              	.L143:
 1666              	.LCFI22:
 1667              		.cfi_restore_state
1690:Middlewares/Third_Party/SubGHz_Phy/stm32_radio_driver/radio.c ****         }
 1668              		.loc 1 1690 13 is_stmt 1 view .LVU427
 1669 01e8 FFF7FEFF 		bl	RFW_ReceivePayload
 1670              	.LVL169:
 1671 01ec FAE7     		b	.L120
 1672              	.L124:
1699:Middlewares/Third_Party/SubGHz_Phy/stm32_radio_driver/radio.c ****         if( SubgRf.RxContinuous == false )
 1673              		.loc 1 1699 9 view .LVU428
1699:Middlewares/Third_Party/SubGHz_Phy/stm32_radio_driver/radio.c ****         if( SubgRf.RxContinuous == false )
 1674              		.loc 1 1699 9 view .LVU429
 1675 01ee 1248     		ldr	r0, .L146+4
 1676 01f0 FFF7FEFF 		bl	UTIL_TIMER_Stop
 1677              	.LVL170:
1699:Middlewares/Third_Party/SubGHz_Phy/stm32_radio_driver/radio.c ****         if( SubgRf.RxContinuous == false )
 1678              		.loc 1 1699 9 view .LVU430
1700:Middlewares/Third_Party/SubGHz_Phy/stm32_radio_driver/radio.c ****         {
 1679              		.loc 1 1700 9 view .LVU431
1700:Middlewares/Third_Party/SubGHz_Phy/stm32_radio_driver/radio.c ****         {
 1680              		.loc 1 1700 19 is_stmt 0 view .LVU432
 1681 01f4 0F4B     		ldr	r3, .L146
 1682 01f6 5B78     		ldrb	r3, [r3, #1]	@ zero_extendqisi2
1700:Middlewares/Third_Party/SubGHz_Phy/stm32_radio_driver/radio.c ****         {
 1683              		.loc 1 1700 11 view .LVU433
 1684 01f8 43B1     		cbz	r3, .L144
 1685              	.L136:
1705:Middlewares/Third_Party/SubGHz_Phy/stm32_radio_driver/radio.c ****         {
 1686              		.loc 1 1705 9 is_stmt 1 view .LVU434
1705:Middlewares/Third_Party/SubGHz_Phy/stm32_radio_driver/radio.c ****         {
 1687              		.loc 1 1705 27 is_stmt 0 view .LVU435
ARM GAS  /tmp/ccldRdip.s 			page 66


 1688 01fa 104B     		ldr	r3, .L146+8
 1689 01fc 1B68     		ldr	r3, [r3]
1705:Middlewares/Third_Party/SubGHz_Phy/stm32_radio_driver/radio.c ****         {
 1690              		.loc 1 1705 11 view .LVU436
 1691 01fe 002B     		cmp	r3, #0
 1692 0200 F0D0     		beq	.L120
1705:Middlewares/Third_Party/SubGHz_Phy/stm32_radio_driver/radio.c ****         {
 1693              		.loc 1 1705 53 discriminator 1 view .LVU437
 1694 0202 DB68     		ldr	r3, [r3, #12]
1705:Middlewares/Third_Party/SubGHz_Phy/stm32_radio_driver/radio.c ****         {
 1695              		.loc 1 1705 37 discriminator 1 view .LVU438
 1696 0204 002B     		cmp	r3, #0
 1697 0206 EDD0     		beq	.L120
1707:Middlewares/Third_Party/SubGHz_Phy/stm32_radio_driver/radio.c ****             MW_LOG( TS_ON, VLEVEL_M,  "HDR KO\r\n" );
 1698              		.loc 1 1707 13 is_stmt 1 view .LVU439
 1699 0208 9847     		blx	r3
 1700              	.LVL171:
 1701 020a EBE7     		b	.L120
 1702              	.L144:
1703:Middlewares/Third_Party/SubGHz_Phy/stm32_radio_driver/radio.c ****         }
 1703              		.loc 1 1703 13 view .LVU440
 1704 020c 0020     		movs	r0, #0
 1705 020e FFF7FEFF 		bl	SUBGRF_SetStandby
 1706              	.LVL172:
 1707 0212 F2E7     		b	.L136
 1708              	.L121:
1713:Middlewares/Third_Party/SubGHz_Phy/stm32_radio_driver/radio.c **** 
 1709              		.loc 1 1713 56 view .LVU441
1715:Middlewares/Third_Party/SubGHz_Phy/stm32_radio_driver/radio.c ****         {
 1710              		.loc 1 1715 9 view .LVU442
1715:Middlewares/Third_Party/SubGHz_Phy/stm32_radio_driver/radio.c ****         {
 1711              		.loc 1 1715 19 is_stmt 0 view .LVU443
 1712 0214 074B     		ldr	r3, .L146
 1713 0216 5B78     		ldrb	r3, [r3, #1]	@ zero_extendqisi2
1715:Middlewares/Third_Party/SubGHz_Phy/stm32_radio_driver/radio.c ****         {
 1714              		.loc 1 1715 11 view .LVU444
 1715 0218 43B1     		cbz	r3, .L145
 1716              	.L137:
1720:Middlewares/Third_Party/SubGHz_Phy/stm32_radio_driver/radio.c ****         {
 1717              		.loc 1 1720 9 is_stmt 1 view .LVU445
1720:Middlewares/Third_Party/SubGHz_Phy/stm32_radio_driver/radio.c ****         {
 1718              		.loc 1 1720 27 is_stmt 0 view .LVU446
 1719 021a 084B     		ldr	r3, .L146+8
 1720 021c 1B68     		ldr	r3, [r3]
1720:Middlewares/Third_Party/SubGHz_Phy/stm32_radio_driver/radio.c ****         {
 1721              		.loc 1 1720 11 view .LVU447
 1722 021e 002B     		cmp	r3, #0
 1723 0220 E0D0     		beq	.L120
1720:Middlewares/Third_Party/SubGHz_Phy/stm32_radio_driver/radio.c ****         {
 1724              		.loc 1 1720 53 discriminator 1 view .LVU448
 1725 0222 1B69     		ldr	r3, [r3, #16]
1720:Middlewares/Third_Party/SubGHz_Phy/stm32_radio_driver/radio.c ****         {
 1726              		.loc 1 1720 37 discriminator 1 view .LVU449
 1727 0224 002B     		cmp	r3, #0
 1728 0226 DDD0     		beq	.L120
1722:Middlewares/Third_Party/SubGHz_Phy/stm32_radio_driver/radio.c ****         }
 1729              		.loc 1 1722 13 is_stmt 1 view .LVU450
ARM GAS  /tmp/ccldRdip.s 			page 67


 1730 0228 9847     		blx	r3
 1731              	.LVL173:
1728:Middlewares/Third_Party/SubGHz_Phy/stm32_radio_driver/radio.c **** 
 1732              		.loc 1 1728 1 is_stmt 0 view .LVU451
 1733 022a DBE7     		b	.L120
 1734              	.L145:
1718:Middlewares/Third_Party/SubGHz_Phy/stm32_radio_driver/radio.c ****         }
 1735              		.loc 1 1718 13 is_stmt 1 view .LVU452
 1736 022c 0020     		movs	r0, #0
 1737 022e FFF7FEFF 		bl	SUBGRF_SetStandby
 1738              	.LVL174:
 1739 0232 F2E7     		b	.L137
 1740              	.L147:
 1741              		.align	2
 1742              	.L146:
 1743 0234 00000000 		.word	.LANCHOR3
 1744 0238 00000000 		.word	.LANCHOR4
 1745 023c 00000000 		.word	.LANCHOR1
 1746 0240 00000000 		.word	.LANCHOR5
 1747 0244 00000000 		.word	.LANCHOR6
 1748 0248 24000000 		.word	.LANCHOR3+36
 1749 024c D34D6210 		.word	274877907
 1750              		.cfi_endproc
 1751              	.LFE1018:
 1753              		.section	.text.RadioOnDioIrq,"ax",%progbits
 1754              		.align	1
 1755              		.syntax unified
 1756              		.thumb
 1757              		.thumb_func
 1758              		.fpu softvfp
 1760              	RadioOnDioIrq:
 1761              	.LVL175:
 1762              	.LFB1017:
1564:Middlewares/Third_Party/SubGHz_Phy/stm32_radio_driver/radio.c ****     SubgRf.RadioIrq = radioIrq;
 1763              		.loc 1 1564 1 view -0
 1764              		.cfi_startproc
 1765              		@ args = 0, pretend = 0, frame = 0
 1766              		@ frame_needed = 0, uses_anonymous_args = 0
1564:Middlewares/Third_Party/SubGHz_Phy/stm32_radio_driver/radio.c ****     SubgRf.RadioIrq = radioIrq;
 1767              		.loc 1 1564 1 is_stmt 0 view .LVU454
 1768 0000 08B5     		push	{r3, lr}
 1769              	.LCFI23:
 1770              		.cfi_def_cfa_offset 8
 1771              		.cfi_offset 3, -8
 1772              		.cfi_offset 14, -4
1565:Middlewares/Third_Party/SubGHz_Phy/stm32_radio_driver/radio.c **** 
 1773              		.loc 1 1565 5 is_stmt 1 view .LVU455
1565:Middlewares/Third_Party/SubGHz_Phy/stm32_radio_driver/radio.c **** 
 1774              		.loc 1 1565 21 is_stmt 0 view .LVU456
 1775 0002 034B     		ldr	r3, .L150
 1776 0004 A3F85400 		strh	r0, [r3, #84]	@ movhi
1567:Middlewares/Third_Party/SubGHz_Phy/stm32_radio_driver/radio.c **** }
 1777              		.loc 1 1567 5 is_stmt 1 view .LVU457
 1778 0008 FFF7FEFF 		bl	RadioIrqProcess
 1779              	.LVL176:
1568:Middlewares/Third_Party/SubGHz_Phy/stm32_radio_driver/radio.c **** 
 1780              		.loc 1 1568 1 is_stmt 0 view .LVU458
ARM GAS  /tmp/ccldRdip.s 			page 68


 1781 000c 08BD     		pop	{r3, pc}
 1782              	.L151:
 1783 000e 00BF     		.align	2
 1784              	.L150:
 1785 0010 00000000 		.word	.LANCHOR3
 1786              		.cfi_endproc
 1787              	.LFE1017:
 1789              		.section	.text.RadioGetWakeupTime,"ax",%progbits
 1790              		.align	1
 1791              		.syntax unified
 1792              		.thumb
 1793              		.thumb_func
 1794              		.fpu softvfp
 1796              	RadioGetWakeupTime:
 1797              	.LFB1012:
1525:Middlewares/Third_Party/SubGHz_Phy/stm32_radio_driver/radio.c ****     return SUBGRF_GetRadioWakeUpTime() + RADIO_WAKEUP_TIME;
 1798              		.loc 1 1525 1 is_stmt 1 view -0
 1799              		.cfi_startproc
 1800              		@ args = 0, pretend = 0, frame = 0
 1801              		@ frame_needed = 0, uses_anonymous_args = 0
 1802 0000 08B5     		push	{r3, lr}
 1803              	.LCFI24:
 1804              		.cfi_def_cfa_offset 8
 1805              		.cfi_offset 3, -8
 1806              		.cfi_offset 14, -4
1526:Middlewares/Third_Party/SubGHz_Phy/stm32_radio_driver/radio.c **** }
 1807              		.loc 1 1526 5 view .LVU460
1526:Middlewares/Third_Party/SubGHz_Phy/stm32_radio_driver/radio.c **** }
 1808              		.loc 1 1526 12 is_stmt 0 view .LVU461
 1809 0002 FFF7FEFF 		bl	SUBGRF_GetRadioWakeUpTime
 1810              	.LVL177:
1527:Middlewares/Third_Party/SubGHz_Phy/stm32_radio_driver/radio.c **** 
 1811              		.loc 1 1527 1 view .LVU462
 1812 0006 0330     		adds	r0, r0, #3
 1813 0008 08BD     		pop	{r3, pc}
 1814              		.cfi_endproc
 1815              	.LFE1012:
 1817              		.section	.text.RadioReadRegisters,"ax",%progbits
 1818              		.align	1
 1819              		.syntax unified
 1820              		.thumb
 1821              		.thumb_func
 1822              		.fpu softvfp
 1824              	RadioReadRegisters:
 1825              	.LVL178:
 1826              	.LFB1009:
1484:Middlewares/Third_Party/SubGHz_Phy/stm32_radio_driver/radio.c ****     SUBGRF_ReadRegisters( addr, buffer, size );
 1827              		.loc 1 1484 1 is_stmt 1 view -0
 1828              		.cfi_startproc
 1829              		@ args = 0, pretend = 0, frame = 0
 1830              		@ frame_needed = 0, uses_anonymous_args = 0
1484:Middlewares/Third_Party/SubGHz_Phy/stm32_radio_driver/radio.c ****     SUBGRF_ReadRegisters( addr, buffer, size );
 1831              		.loc 1 1484 1 is_stmt 0 view .LVU464
 1832 0000 08B5     		push	{r3, lr}
 1833              	.LCFI25:
 1834              		.cfi_def_cfa_offset 8
 1835              		.cfi_offset 3, -8
ARM GAS  /tmp/ccldRdip.s 			page 69


 1836              		.cfi_offset 14, -4
1485:Middlewares/Third_Party/SubGHz_Phy/stm32_radio_driver/radio.c **** }
 1837              		.loc 1 1485 5 is_stmt 1 view .LVU465
 1838 0002 FFF7FEFF 		bl	SUBGRF_ReadRegisters
 1839              	.LVL179:
1486:Middlewares/Third_Party/SubGHz_Phy/stm32_radio_driver/radio.c **** 
 1840              		.loc 1 1486 1 is_stmt 0 view .LVU466
 1841 0006 08BD     		pop	{r3, pc}
 1842              		.cfi_endproc
 1843              	.LFE1009:
 1845              		.section	.text.RadioWriteRegisters,"ax",%progbits
 1846              		.align	1
 1847              		.syntax unified
 1848              		.thumb
 1849              		.thumb_func
 1850              		.fpu softvfp
 1852              	RadioWriteRegisters:
 1853              	.LVL180:
 1854              	.LFB1008:
1479:Middlewares/Third_Party/SubGHz_Phy/stm32_radio_driver/radio.c ****     SUBGRF_WriteRegisters( addr, buffer, size );
 1855              		.loc 1 1479 1 is_stmt 1 view -0
 1856              		.cfi_startproc
 1857              		@ args = 0, pretend = 0, frame = 0
 1858              		@ frame_needed = 0, uses_anonymous_args = 0
1479:Middlewares/Third_Party/SubGHz_Phy/stm32_radio_driver/radio.c ****     SUBGRF_WriteRegisters( addr, buffer, size );
 1859              		.loc 1 1479 1 is_stmt 0 view .LVU468
 1860 0000 08B5     		push	{r3, lr}
 1861              	.LCFI26:
 1862              		.cfi_def_cfa_offset 8
 1863              		.cfi_offset 3, -8
 1864              		.cfi_offset 14, -4
1480:Middlewares/Third_Party/SubGHz_Phy/stm32_radio_driver/radio.c **** }
 1865              		.loc 1 1480 5 is_stmt 1 view .LVU469
 1866 0002 FFF7FEFF 		bl	SUBGRF_WriteRegisters
 1867              	.LVL181:
1481:Middlewares/Third_Party/SubGHz_Phy/stm32_radio_driver/radio.c **** 
 1868              		.loc 1 1481 1 is_stmt 0 view .LVU470
 1869 0006 08BD     		pop	{r3, pc}
 1870              		.cfi_endproc
 1871              	.LFE1008:
 1873              		.section	.text.RadioRssi,"ax",%progbits
 1874              		.align	1
 1875              		.syntax unified
 1876              		.thumb
 1877              		.thumb_func
 1878              		.fpu softvfp
 1880              	RadioRssi:
 1881              	.LVL182:
 1882              	.LFB1005:
1464:Middlewares/Third_Party/SubGHz_Phy/stm32_radio_driver/radio.c ****     return SUBGRF_GetRssiInst( );
 1883              		.loc 1 1464 1 is_stmt 1 view -0
 1884              		.cfi_startproc
 1885              		@ args = 0, pretend = 0, frame = 0
 1886              		@ frame_needed = 0, uses_anonymous_args = 0
1464:Middlewares/Third_Party/SubGHz_Phy/stm32_radio_driver/radio.c ****     return SUBGRF_GetRssiInst( );
 1887              		.loc 1 1464 1 is_stmt 0 view .LVU472
 1888 0000 08B5     		push	{r3, lr}
ARM GAS  /tmp/ccldRdip.s 			page 70


 1889              	.LCFI27:
 1890              		.cfi_def_cfa_offset 8
 1891              		.cfi_offset 3, -8
 1892              		.cfi_offset 14, -4
1465:Middlewares/Third_Party/SubGHz_Phy/stm32_radio_driver/radio.c **** }
 1893              		.loc 1 1465 5 is_stmt 1 view .LVU473
1465:Middlewares/Third_Party/SubGHz_Phy/stm32_radio_driver/radio.c **** }
 1894              		.loc 1 1465 12 is_stmt 0 view .LVU474
 1895 0002 FFF7FEFF 		bl	SUBGRF_GetRssiInst
 1896              	.LVL183:
1466:Middlewares/Third_Party/SubGHz_Phy/stm32_radio_driver/radio.c **** 
 1897              		.loc 1 1466 1 view .LVU475
 1898 0006 00B2     		sxth	r0, r0
 1899 0008 08BD     		pop	{r3, pc}
 1900              		.cfi_endproc
 1901              	.LFE1005:
 1903              		.section	.text.RadioSetTxContinuousWave,"ax",%progbits
 1904              		.align	1
 1905              		.syntax unified
 1906              		.thumb
 1907              		.thumb_func
 1908              		.fpu softvfp
 1910              	RadioSetTxContinuousWave:
 1911              	.LVL184:
 1912              	.LFB1004:
1446:Middlewares/Third_Party/SubGHz_Phy/stm32_radio_driver/radio.c ****     uint32_t timeout = ( uint32_t )time * 1000;
 1913              		.loc 1 1446 1 is_stmt 1 view -0
 1914              		.cfi_startproc
 1915              		@ args = 0, pretend = 0, frame = 0
 1916              		@ frame_needed = 0, uses_anonymous_args = 0
1446:Middlewares/Third_Party/SubGHz_Phy/stm32_radio_driver/radio.c ****     uint32_t timeout = ( uint32_t )time * 1000;
 1917              		.loc 1 1446 1 is_stmt 0 view .LVU477
 1918 0000 38B5     		push	{r3, r4, r5, lr}
 1919              	.LCFI28:
 1920              		.cfi_def_cfa_offset 16
 1921              		.cfi_offset 3, -16
 1922              		.cfi_offset 4, -12
 1923              		.cfi_offset 5, -8
 1924              		.cfi_offset 14, -4
 1925 0002 0D46     		mov	r5, r1
1447:Middlewares/Third_Party/SubGHz_Phy/stm32_radio_driver/radio.c ****     uint8_t antswitchpow;
 1926              		.loc 1 1447 5 is_stmt 1 view .LVU478
1447:Middlewares/Third_Party/SubGHz_Phy/stm32_radio_driver/radio.c ****     uint8_t antswitchpow;
 1927              		.loc 1 1447 14 is_stmt 0 view .LVU479
 1928 0004 4FF47A74 		mov	r4, #1000
 1929 0008 02FB04F4 		mul	r4, r2, r4
 1930              	.LVL185:
1448:Middlewares/Third_Party/SubGHz_Phy/stm32_radio_driver/radio.c **** 
 1931              		.loc 1 1448 5 is_stmt 1 view .LVU480
1450:Middlewares/Third_Party/SubGHz_Phy/stm32_radio_driver/radio.c **** 
 1932              		.loc 1 1450 5 view .LVU481
 1933 000c FFF7FEFF 		bl	SUBGRF_SetRfFrequency
 1934              	.LVL186:
1452:Middlewares/Third_Party/SubGHz_Phy/stm32_radio_driver/radio.c **** 
 1935              		.loc 1 1452 5 view .LVU482
1452:Middlewares/Third_Party/SubGHz_Phy/stm32_radio_driver/radio.c **** 
 1936              		.loc 1 1452 20 is_stmt 0 view .LVU483
ARM GAS  /tmp/ccldRdip.s 			page 71


 1937 0010 2846     		mov	r0, r5
 1938 0012 FFF7FEFF 		bl	SUBGRF_SetRfTxPower
 1939              	.LVL187:
1455:Middlewares/Third_Party/SubGHz_Phy/stm32_radio_driver/radio.c **** 
 1940              		.loc 1 1455 5 is_stmt 1 view .LVU484
 1941 0016 0121     		movs	r1, #1
 1942 0018 FFF7FEFF 		bl	SUBGRF_SetSwitch
 1943              	.LVL188:
1457:Middlewares/Third_Party/SubGHz_Phy/stm32_radio_driver/radio.c **** 
 1944              		.loc 1 1457 5 view .LVU485
 1945 001c FFF7FEFF 		bl	SUBGRF_SetTxContinuousWave
 1946              	.LVL189:
1459:Middlewares/Third_Party/SubGHz_Phy/stm32_radio_driver/radio.c ****     TimerStart( &TxTimeoutTimer );
 1947              		.loc 1 1459 5 view .LVU486
1459:Middlewares/Third_Party/SubGHz_Phy/stm32_radio_driver/radio.c ****     TimerStart( &TxTimeoutTimer );
 1948              		.loc 1 1459 5 view .LVU487
 1949 0020 044D     		ldr	r5, .L162
 1950 0022 2146     		mov	r1, r4
 1951 0024 2846     		mov	r0, r5
 1952 0026 FFF7FEFF 		bl	UTIL_TIMER_SetPeriod
 1953              	.LVL190:
1459:Middlewares/Third_Party/SubGHz_Phy/stm32_radio_driver/radio.c ****     TimerStart( &TxTimeoutTimer );
 1954              		.loc 1 1459 5 view .LVU488
1460:Middlewares/Third_Party/SubGHz_Phy/stm32_radio_driver/radio.c **** }
 1955              		.loc 1 1460 5 view .LVU489
1460:Middlewares/Third_Party/SubGHz_Phy/stm32_radio_driver/radio.c **** }
 1956              		.loc 1 1460 5 view .LVU490
 1957 002a 2846     		mov	r0, r5
 1958 002c FFF7FEFF 		bl	UTIL_TIMER_Start
 1959              	.LVL191:
1460:Middlewares/Third_Party/SubGHz_Phy/stm32_radio_driver/radio.c **** }
 1960              		.loc 1 1460 5 view .LVU491
1461:Middlewares/Third_Party/SubGHz_Phy/stm32_radio_driver/radio.c **** 
 1961              		.loc 1 1461 1 is_stmt 0 view .LVU492
 1962 0030 38BD     		pop	{r3, r4, r5, pc}
 1963              	.LVL192:
 1964              	.L163:
1461:Middlewares/Third_Party/SubGHz_Phy/stm32_radio_driver/radio.c **** 
 1965              		.loc 1 1461 1 view .LVU493
 1966 0032 00BF     		.align	2
 1967              	.L162:
 1968 0034 00000000 		.word	.LANCHOR5
 1969              		.cfi_endproc
 1970              	.LFE1004:
 1972              		.section	.text.RadioSetChannel,"ax",%progbits
 1973              		.align	1
 1974              		.syntax unified
 1975              		.thumb
 1976              		.thumb_func
 1977              		.fpu softvfp
 1979              	RadioSetChannel:
 1980              	.LVL193:
 1981              	.LFB987:
 729:Middlewares/Third_Party/SubGHz_Phy/stm32_radio_driver/radio.c ****     SUBGRF_SetRfFrequency( freq );
 1982              		.loc 1 729 1 is_stmt 1 view -0
 1983              		.cfi_startproc
 1984              		@ args = 0, pretend = 0, frame = 0
ARM GAS  /tmp/ccldRdip.s 			page 72


 1985              		@ frame_needed = 0, uses_anonymous_args = 0
 729:Middlewares/Third_Party/SubGHz_Phy/stm32_radio_driver/radio.c ****     SUBGRF_SetRfFrequency( freq );
 1986              		.loc 1 729 1 is_stmt 0 view .LVU495
 1987 0000 08B5     		push	{r3, lr}
 1988              	.LCFI29:
 1989              		.cfi_def_cfa_offset 8
 1990              		.cfi_offset 3, -8
 1991              		.cfi_offset 14, -4
 730:Middlewares/Third_Party/SubGHz_Phy/stm32_radio_driver/radio.c **** }
 1992              		.loc 1 730 5 is_stmt 1 view .LVU496
 1993 0002 FFF7FEFF 		bl	SUBGRF_SetRfFrequency
 1994              	.LVL194:
 731:Middlewares/Third_Party/SubGHz_Phy/stm32_radio_driver/radio.c **** 
 1995              		.loc 1 731 1 is_stmt 0 view .LVU497
 1996 0006 08BD     		pop	{r3, pc}
 1997              		.cfi_endproc
 1998              	.LFE987:
 2000              		.section	.text.RadioStartCad,"ax",%progbits
 2001              		.align	1
 2002              		.syntax unified
 2003              		.thumb
 2004              		.thumb_func
 2005              		.fpu softvfp
 2007              	RadioStartCad:
 2008              	.LFB1003:
1434:Middlewares/Third_Party/SubGHz_Phy/stm32_radio_driver/radio.c ****     /* RF switch configuration */
 2009              		.loc 1 1434 1 is_stmt 1 view -0
 2010              		.cfi_startproc
 2011              		@ args = 0, pretend = 0, frame = 0
 2012              		@ frame_needed = 0, uses_anonymous_args = 0
 2013 0000 08B5     		push	{r3, lr}
 2014              	.LCFI30:
 2015              		.cfi_def_cfa_offset 8
 2016              		.cfi_offset 3, -8
 2017              		.cfi_offset 14, -4
1436:Middlewares/Third_Party/SubGHz_Phy/stm32_radio_driver/radio.c **** 
 2018              		.loc 1 1436 5 view .LVU499
 2019 0002 0021     		movs	r1, #0
 2020 0004 074B     		ldr	r3, .L168
 2021 0006 93F85600 		ldrb	r0, [r3, #86]	@ zero_extendqisi2
 2022 000a FFF7FEFF 		bl	SUBGRF_SetSwitch
 2023              	.LVL195:
1438:Middlewares/Third_Party/SubGHz_Phy/stm32_radio_driver/radio.c ****                             IRQ_CAD_CLEAR | IRQ_CAD_DETECTED,
 2024              		.loc 1 1438 5 view .LVU500
 2025 000e 0023     		movs	r3, #0
 2026 0010 1A46     		mov	r2, r3
 2027 0012 4FF4C071 		mov	r1, #384
 2028 0016 0846     		mov	r0, r1
 2029 0018 FFF7FEFF 		bl	SUBGRF_SetDioIrqParams
 2030              	.LVL196:
1442:Middlewares/Third_Party/SubGHz_Phy/stm32_radio_driver/radio.c **** }
 2031              		.loc 1 1442 5 view .LVU501
 2032 001c FFF7FEFF 		bl	SUBGRF_SetCad
 2033              	.LVL197:
1443:Middlewares/Third_Party/SubGHz_Phy/stm32_radio_driver/radio.c **** 
 2034              		.loc 1 1443 1 is_stmt 0 view .LVU502
 2035 0020 08BD     		pop	{r3, pc}
ARM GAS  /tmp/ccldRdip.s 			page 73


 2036              	.L169:
 2037 0022 00BF     		.align	2
 2038              	.L168:
 2039 0024 00000000 		.word	.LANCHOR3
 2040              		.cfi_endproc
 2041              	.LFE1003:
 2043              		.section	.text.RadioRx,"ax",%progbits
 2044              		.align	1
 2045              		.syntax unified
 2046              		.thumb
 2047              		.thumb_func
 2048              		.fpu softvfp
 2050              	RadioRx:
 2051              	.LVL198:
 2052              	.LFB1000:
1356:Middlewares/Third_Party/SubGHz_Phy/stm32_radio_driver/radio.c ****     if ( 1UL == RFW_Is_Init( ) )
 2053              		.loc 1 1356 1 is_stmt 1 view -0
 2054              		.cfi_startproc
 2055              		@ args = 0, pretend = 0, frame = 0
 2056              		@ frame_needed = 0, uses_anonymous_args = 0
1356:Middlewares/Third_Party/SubGHz_Phy/stm32_radio_driver/radio.c ****     if ( 1UL == RFW_Is_Init( ) )
 2057              		.loc 1 1356 1 is_stmt 0 view .LVU504
 2058 0000 38B5     		push	{r3, r4, r5, lr}
 2059              	.LCFI31:
 2060              		.cfi_def_cfa_offset 16
 2061              		.cfi_offset 3, -16
 2062              		.cfi_offset 4, -12
 2063              		.cfi_offset 5, -8
 2064              		.cfi_offset 14, -4
 2065 0002 0446     		mov	r4, r0
1357:Middlewares/Third_Party/SubGHz_Phy/stm32_radio_driver/radio.c ****     {
 2066              		.loc 1 1357 5 is_stmt 1 view .LVU505
1357:Middlewares/Third_Party/SubGHz_Phy/stm32_radio_driver/radio.c ****     {
 2067              		.loc 1 1357 17 is_stmt 0 view .LVU506
 2068 0004 FFF7FEFF 		bl	RFW_Is_Init
 2069              	.LVL199:
1357:Middlewares/Third_Party/SubGHz_Phy/stm32_radio_driver/radio.c ****     {
 2070              		.loc 1 1357 8 view .LVU507
 2071 0008 0128     		cmp	r0, #1
 2072 000a 14D0     		beq	.L177
1363:Middlewares/Third_Party/SubGHz_Phy/stm32_radio_driver/radio.c ****                               IRQ_RX_DONE | IRQ_RX_TX_TIMEOUT | IRQ_CRC_ERROR | IRQ_HEADER_ERROR | 
 2073              		.loc 1 1363 7 is_stmt 1 view .LVU508
 2074 000c 0023     		movs	r3, #0
 2075 000e 1A46     		mov	r2, r3
 2076 0010 40F26221 		movw	r1, #610
 2077 0014 0846     		mov	r0, r1
 2078 0016 FFF7FEFF 		bl	SUBGRF_SetDioIrqParams
 2079              	.LVL200:
 2080              	.L172:
1369:Middlewares/Third_Party/SubGHz_Phy/stm32_radio_driver/radio.c ****     {
 2081              		.loc 1 1369 5 view .LVU509
1369:Middlewares/Third_Party/SubGHz_Phy/stm32_radio_driver/radio.c ****     {
 2082              		.loc 1 1369 7 is_stmt 0 view .LVU510
 2083 001a 7CB9     		cbnz	r4, .L178
 2084              	.L173:
1372:Middlewares/Third_Party/SubGHz_Phy/stm32_radio_driver/radio.c ****     }
 2085              		.loc 1 1372 9 is_stmt 1 discriminator 1 view .LVU511
ARM GAS  /tmp/ccldRdip.s 			page 74


1377:Middlewares/Third_Party/SubGHz_Phy/stm32_radio_driver/radio.c **** 
 2086              		.loc 1 1377 27 discriminator 1 view .LVU512
1380:Middlewares/Third_Party/SubGHz_Phy/stm32_radio_driver/radio.c ****     /* ST_WORKAROUND_END */
 2087              		.loc 1 1380 5 discriminator 1 view .LVU513
 2088 001c 0F4C     		ldr	r4, .L179
 2089              	.LVL201:
1380:Middlewares/Third_Party/SubGHz_Phy/stm32_radio_driver/radio.c ****     /* ST_WORKAROUND_END */
 2090              		.loc 1 1380 5 is_stmt 0 discriminator 1 view .LVU514
 2091 001e 0021     		movs	r1, #0
 2092 0020 94F85600 		ldrb	r0, [r4, #86]	@ zero_extendqisi2
 2093 0024 FFF7FEFF 		bl	SUBGRF_SetSwitch
 2094              	.LVL202:
1383:Middlewares/Third_Party/SubGHz_Phy/stm32_radio_driver/radio.c ****     {
 2095              		.loc 1 1383 5 is_stmt 1 discriminator 1 view .LVU515
1383:Middlewares/Third_Party/SubGHz_Phy/stm32_radio_driver/radio.c ****     {
 2096              		.loc 1 1383 15 is_stmt 0 discriminator 1 view .LVU516
 2097 0028 6378     		ldrb	r3, [r4, #1]	@ zero_extendqisi2
1383:Middlewares/Third_Party/SubGHz_Phy/stm32_radio_driver/radio.c ****     {
 2098              		.loc 1 1383 7 discriminator 1 view .LVU517
 2099 002a 83B1     		cbz	r3, .L174
1385:Middlewares/Third_Party/SubGHz_Phy/stm32_radio_driver/radio.c ****     }
 2100              		.loc 1 1385 9 is_stmt 1 view .LVU518
 2101 002c 6FF07F40 		mvn	r0, #-16777216
 2102 0030 FFF7FEFF 		bl	SUBGRF_SetRx
 2103              	.LVL203:
 2104              	.L170:
1391:Middlewares/Third_Party/SubGHz_Phy/stm32_radio_driver/radio.c **** 
 2105              		.loc 1 1391 1 is_stmt 0 view .LVU519
 2106 0034 38BD     		pop	{r3, r4, r5, pc}
 2107              	.LVL204:
 2108              	.L177:
1359:Middlewares/Third_Party/SubGHz_Phy/stm32_radio_driver/radio.c ****     }
 2109              		.loc 1 1359 7 is_stmt 1 view .LVU520
 2110 0036 FFF7FEFF 		bl	RFW_ReceiveInit
 2111              	.LVL205:
 2112 003a EEE7     		b	.L172
 2113              	.L178:
1371:Middlewares/Third_Party/SubGHz_Phy/stm32_radio_driver/radio.c ****         TimerStart( &RxTimeoutTimer );
 2114              		.loc 1 1371 9 view .LVU521
1371:Middlewares/Third_Party/SubGHz_Phy/stm32_radio_driver/radio.c ****         TimerStart( &RxTimeoutTimer );
 2115              		.loc 1 1371 9 view .LVU522
 2116 003c 084D     		ldr	r5, .L179+4
 2117 003e 2146     		mov	r1, r4
 2118 0040 2846     		mov	r0, r5
 2119 0042 FFF7FEFF 		bl	UTIL_TIMER_SetPeriod
 2120              	.LVL206:
1371:Middlewares/Third_Party/SubGHz_Phy/stm32_radio_driver/radio.c ****         TimerStart( &RxTimeoutTimer );
 2121              		.loc 1 1371 9 view .LVU523
1372:Middlewares/Third_Party/SubGHz_Phy/stm32_radio_driver/radio.c ****     }
 2122              		.loc 1 1372 9 view .LVU524
1372:Middlewares/Third_Party/SubGHz_Phy/stm32_radio_driver/radio.c ****     }
 2123              		.loc 1 1372 9 view .LVU525
 2124 0046 2846     		mov	r0, r5
 2125 0048 FFF7FEFF 		bl	UTIL_TIMER_Start
 2126              	.LVL207:
 2127 004c E6E7     		b	.L173
 2128              	.LVL208:
ARM GAS  /tmp/ccldRdip.s 			page 75


 2129              	.L174:
1389:Middlewares/Third_Party/SubGHz_Phy/stm32_radio_driver/radio.c ****     }
 2130              		.loc 1 1389 9 view .LVU526
1389:Middlewares/Third_Party/SubGHz_Phy/stm32_radio_driver/radio.c ****     }
 2131              		.loc 1 1389 29 is_stmt 0 view .LVU527
 2132 004e 034B     		ldr	r3, .L179
 2133 0050 9868     		ldr	r0, [r3, #8]
1389:Middlewares/Third_Party/SubGHz_Phy/stm32_radio_driver/radio.c ****     }
 2134              		.loc 1 1389 9 view .LVU528
 2135 0052 8001     		lsls	r0, r0, #6
 2136 0054 FFF7FEFF 		bl	SUBGRF_SetRx
 2137              	.LVL209:
1391:Middlewares/Third_Party/SubGHz_Phy/stm32_radio_driver/radio.c **** 
 2138              		.loc 1 1391 1 view .LVU529
 2139 0058 ECE7     		b	.L170
 2140              	.L180:
 2141 005a 00BF     		.align	2
 2142              	.L179:
 2143 005c 00000000 		.word	.LANCHOR3
 2144 0060 00000000 		.word	.LANCHOR4
 2145              		.cfi_endproc
 2146              	.LFE1000:
 2148              		.section	.text.RadioSleep,"ax",%progbits
 2149              		.align	1
 2150              		.syntax unified
 2151              		.thumb
 2152              		.thumb_func
 2153              		.fpu softvfp
 2155              	RadioSleep:
 2156              	.LFB998:
1341:Middlewares/Third_Party/SubGHz_Phy/stm32_radio_driver/radio.c ****     SleepParams_t params = { 0 };
 2157              		.loc 1 1341 1 is_stmt 1 view -0
 2158              		.cfi_startproc
 2159              		@ args = 0, pretend = 0, frame = 0
 2160              		@ frame_needed = 0, uses_anonymous_args = 0
 2161 0000 08B5     		push	{r3, lr}
 2162              	.LCFI32:
 2163              		.cfi_def_cfa_offset 8
 2164              		.cfi_offset 3, -8
 2165              		.cfi_offset 14, -4
1342:Middlewares/Third_Party/SubGHz_Phy/stm32_radio_driver/radio.c **** 
 2166              		.loc 1 1342 5 view .LVU531
1344:Middlewares/Third_Party/SubGHz_Phy/stm32_radio_driver/radio.c ****     SUBGRF_SetSleep( params );
 2167              		.loc 1 1344 5 view .LVU532
1345:Middlewares/Third_Party/SubGHz_Phy/stm32_radio_driver/radio.c **** 
 2168              		.loc 1 1345 5 view .LVU533
 2169 0002 4FF00400 		mov	r0, #4
 2170 0006 FFF7FEFF 		bl	SUBGRF_SetSleep
 2171              	.LVL210:
1347:Middlewares/Third_Party/SubGHz_Phy/stm32_radio_driver/radio.c **** }
 2172              		.loc 1 1347 5 view .LVU534
 2173 000a 0220     		movs	r0, #2
 2174 000c FFF7FEFF 		bl	HAL_Delay
 2175              	.LVL211:
1348:Middlewares/Third_Party/SubGHz_Phy/stm32_radio_driver/radio.c **** 
 2176              		.loc 1 1348 1 is_stmt 0 view .LVU535
 2177 0010 08BD     		pop	{r3, pc}
ARM GAS  /tmp/ccldRdip.s 			page 76


 2178              		.cfi_endproc
 2179              	.LFE998:
 2181              		.section	.text.RadioSend,"ax",%progbits
 2182              		.align	1
 2183              		.syntax unified
 2184              		.thumb
 2185              		.thumb_func
 2186              		.fpu softvfp
 2188              	RadioSend:
 2189              	.LVL212:
 2190              	.LFB997:
1235:Middlewares/Third_Party/SubGHz_Phy/stm32_radio_driver/radio.c ****     /* ST_WORKAROUND_BEGIN : Set the debug pin and update the radio switch */
 2191              		.loc 1 1235 1 is_stmt 1 view -0
 2192              		.cfi_startproc
 2193              		@ args = 0, pretend = 0, frame = 8
 2194              		@ frame_needed = 0, uses_anonymous_args = 0
1235:Middlewares/Third_Party/SubGHz_Phy/stm32_radio_driver/radio.c ****     /* ST_WORKAROUND_BEGIN : Set the debug pin and update the radio switch */
 2195              		.loc 1 1235 1 is_stmt 0 view .LVU537
 2196 0000 70B5     		push	{r4, r5, r6, lr}
 2197              	.LCFI33:
 2198              		.cfi_def_cfa_offset 16
 2199              		.cfi_offset 4, -16
 2200              		.cfi_offset 5, -12
 2201              		.cfi_offset 6, -8
 2202              		.cfi_offset 14, -4
 2203 0002 82B0     		sub	sp, sp, #8
 2204              	.LCFI34:
 2205              		.cfi_def_cfa_offset 24
 2206 0004 0546     		mov	r5, r0
 2207 0006 0C46     		mov	r4, r1
1237:Middlewares/Third_Party/SubGHz_Phy/stm32_radio_driver/radio.c ****                             IRQ_TX_DONE | IRQ_RX_TX_TIMEOUT | IRQ_TX_DBG,
 2208              		.loc 1 1237 5 is_stmt 1 view .LVU538
 2209 0008 0023     		movs	r3, #0
 2210 000a 1A46     		mov	r2, r3
 2211 000c 40F20121 		movw	r1, #513
 2212              	.LVL213:
1237:Middlewares/Third_Party/SubGHz_Phy/stm32_radio_driver/radio.c ****                             IRQ_TX_DONE | IRQ_RX_TX_TIMEOUT | IRQ_TX_DBG,
 2213              		.loc 1 1237 5 is_stmt 0 view .LVU539
 2214 0010 0846     		mov	r0, r1
 2215              	.LVL214:
1237:Middlewares/Third_Party/SubGHz_Phy/stm32_radio_driver/radio.c ****                             IRQ_TX_DONE | IRQ_RX_TX_TIMEOUT | IRQ_TX_DBG,
 2216              		.loc 1 1237 5 view .LVU540
 2217 0012 FFF7FEFF 		bl	SUBGRF_SetDioIrqParams
 2218              	.LVL215:
1245:Middlewares/Third_Party/SubGHz_Phy/stm32_radio_driver/radio.c **** 
 2219              		.loc 1 1245 27 is_stmt 1 view .LVU541
1248:Middlewares/Third_Party/SubGHz_Phy/stm32_radio_driver/radio.c ****     /* WORKAROUND - Modulation Quality with 500 kHz LoRaTM Bandwidth*/
 2220              		.loc 1 1248 5 view .LVU542
 2221 0016 574E     		ldr	r6, .L201
 2222 0018 0121     		movs	r1, #1
 2223 001a 96F85600 		ldrb	r0, [r6, #86]	@ zero_extendqisi2
 2224 001e FFF7FEFF 		bl	SUBGRF_SetSwitch
 2225              	.LVL216:
1251:Middlewares/Third_Party/SubGHz_Phy/stm32_radio_driver/radio.c ****     {
 2226              		.loc 1 1251 5 view .LVU543
1251:Middlewares/Third_Party/SubGHz_Phy/stm32_radio_driver/radio.c ****     {
 2227              		.loc 1 1251 15 is_stmt 0 view .LVU544
ARM GAS  /tmp/ccldRdip.s 			page 77


 2228 0022 3378     		ldrb	r3, [r6]	@ zero_extendqisi2
1251:Middlewares/Third_Party/SubGHz_Phy/stm32_radio_driver/radio.c ****     {
 2229              		.loc 1 1251 7 view .LVU545
 2230 0024 012B     		cmp	r3, #1
 2231 0026 03D1     		bne	.L184
1251:Middlewares/Third_Party/SubGHz_Phy/stm32_radio_driver/radio.c ****     {
 2232              		.loc 1 1251 74 discriminator 1 view .LVU546
 2233 0028 96F85130 		ldrb	r3, [r6, #81]	@ zero_extendqisi2
1251:Middlewares/Third_Party/SubGHz_Phy/stm32_radio_driver/radio.c ****     {
 2234              		.loc 1 1251 35 discriminator 1 view .LVU547
 2235 002c 062B     		cmp	r3, #6
 2236 002e 12D0     		beq	.L198
 2237              	.L184:
1257:Middlewares/Third_Party/SubGHz_Phy/stm32_radio_driver/radio.c ****     }
 2238              		.loc 1 1257 9 is_stmt 1 view .LVU548
1257:Middlewares/Third_Party/SubGHz_Phy/stm32_radio_driver/radio.c ****     }
 2239              		.loc 1 1257 39 is_stmt 0 view .LVU549
 2240 0030 40F68900 		movw	r0, #2185
 2241 0034 FFF7FEFF 		bl	SUBGRF_ReadRegister
 2242              	.LVL217:
1257:Middlewares/Third_Party/SubGHz_Phy/stm32_radio_driver/radio.c ****     }
 2243              		.loc 1 1257 9 view .LVU550
 2244 0038 40F00401 		orr	r1, r0, #4
 2245 003c C9B2     		uxtb	r1, r1
 2246 003e 40F68900 		movw	r0, #2185
 2247 0042 FFF7FEFF 		bl	SUBGRF_WriteRegister
 2248              	.LVL218:
 2249              	.L185:
1260:Middlewares/Third_Party/SubGHz_Phy/stm32_radio_driver/radio.c ****     {
 2250              		.loc 1 1260 5 is_stmt 1 view .LVU551
1260:Middlewares/Third_Party/SubGHz_Phy/stm32_radio_driver/radio.c ****     {
 2251              		.loc 1 1260 18 is_stmt 0 view .LVU552
 2252 0046 4B4B     		ldr	r3, .L201
 2253 0048 1B78     		ldrb	r3, [r3]	@ zero_extendqisi2
1260:Middlewares/Third_Party/SubGHz_Phy/stm32_radio_driver/radio.c ****     {
 2254              		.loc 1 1260 5 view .LVU553
 2255 004a 032B     		cmp	r3, #3
 2256 004c 18D8     		bhi	.L186
 2257 004e DFE803F0 		tbb	[pc, r3]
 2258              	.L188:
 2259 0052 22       		.byte	(.L191-.L188)/2
 2260 0053 0D       		.byte	(.L190-.L188)/2
 2261 0054 47       		.byte	(.L189-.L188)/2
 2262 0055 54       		.byte	(.L187-.L188)/2
 2263              		.p2align 1
 2264              	.L198:
1253:Middlewares/Third_Party/SubGHz_Phy/stm32_radio_driver/radio.c ****     }
 2265              		.loc 1 1253 9 is_stmt 1 view .LVU554
1253:Middlewares/Third_Party/SubGHz_Phy/stm32_radio_driver/radio.c ****     }
 2266              		.loc 1 1253 39 is_stmt 0 view .LVU555
 2267 0056 40F68900 		movw	r0, #2185
 2268 005a FFF7FEFF 		bl	SUBGRF_ReadRegister
 2269              	.LVL219:
1253:Middlewares/Third_Party/SubGHz_Phy/stm32_radio_driver/radio.c ****     }
 2270              		.loc 1 1253 9 view .LVU556
 2271 005e 00F0FB01 		and	r1, r0, #251
 2272 0062 40F68900 		movw	r0, #2185
ARM GAS  /tmp/ccldRdip.s 			page 78


 2273 0066 FFF7FEFF 		bl	SUBGRF_WriteRegister
 2274              	.LVL220:
 2275 006a ECE7     		b	.L185
 2276              	.L190:
1264:Middlewares/Third_Party/SubGHz_Phy/stm32_radio_driver/radio.c ****             SUBGRF_SetPacketParams( &SubgRf.PacketParams );
 2277              		.loc 1 1264 13 is_stmt 1 view .LVU557
1264:Middlewares/Third_Party/SubGHz_Phy/stm32_radio_driver/radio.c ****             SUBGRF_SetPacketParams( &SubgRf.PacketParams );
 2278              		.loc 1 1264 59 is_stmt 0 view .LVU558
 2279 006c 4148     		ldr	r0, .L201
 2280 006e C477     		strb	r4, [r0, #31]
1265:Middlewares/Third_Party/SubGHz_Phy/stm32_radio_driver/radio.c ****             SUBGRF_SendPayload( buffer, size, 0 );
 2281              		.loc 1 1265 13 is_stmt 1 view .LVU559
 2282 0070 0E30     		adds	r0, r0, #14
 2283 0072 FFF7FEFF 		bl	SUBGRF_SetPacketParams
 2284              	.LVL221:
1266:Middlewares/Third_Party/SubGHz_Phy/stm32_radio_driver/radio.c ****             break;
 2285              		.loc 1 1266 13 view .LVU560
 2286 0076 0022     		movs	r2, #0
 2287 0078 2146     		mov	r1, r4
 2288 007a 2846     		mov	r0, r5
 2289 007c FFF7FEFF 		bl	SUBGRF_SendPayload
 2290              	.LVL222:
1267:Middlewares/Third_Party/SubGHz_Phy/stm32_radio_driver/radio.c ****         }
 2291              		.loc 1 1267 13 view .LVU561
 2292              	.L186:
1336:Middlewares/Third_Party/SubGHz_Phy/stm32_radio_driver/radio.c ****     TimerStart( &TxTimeoutTimer );
 2293              		.loc 1 1336 5 view .LVU562
1336:Middlewares/Third_Party/SubGHz_Phy/stm32_radio_driver/radio.c ****     TimerStart( &TxTimeoutTimer );
 2294              		.loc 1 1336 5 view .LVU563
 2295 0080 3D4C     		ldr	r4, .L201+4
 2296 0082 3C4B     		ldr	r3, .L201
 2297 0084 5968     		ldr	r1, [r3, #4]
 2298 0086 2046     		mov	r0, r4
 2299 0088 FFF7FEFF 		bl	UTIL_TIMER_SetPeriod
 2300              	.LVL223:
1336:Middlewares/Third_Party/SubGHz_Phy/stm32_radio_driver/radio.c ****     TimerStart( &TxTimeoutTimer );
 2301              		.loc 1 1336 5 view .LVU564
1337:Middlewares/Third_Party/SubGHz_Phy/stm32_radio_driver/radio.c **** }
 2302              		.loc 1 1337 5 view .LVU565
1337:Middlewares/Third_Party/SubGHz_Phy/stm32_radio_driver/radio.c **** }
 2303              		.loc 1 1337 5 view .LVU566
 2304 008c 2046     		mov	r0, r4
 2305 008e FFF7FEFF 		bl	UTIL_TIMER_Start
 2306              	.LVL224:
1337:Middlewares/Third_Party/SubGHz_Phy/stm32_radio_driver/radio.c **** }
 2307              		.loc 1 1337 5 view .LVU567
 2308              	.L183:
1338:Middlewares/Third_Party/SubGHz_Phy/stm32_radio_driver/radio.c **** 
 2309              		.loc 1 1338 1 is_stmt 0 view .LVU568
 2310 0092 02B0     		add	sp, sp, #8
 2311              	.LCFI35:
 2312              		.cfi_remember_state
 2313              		.cfi_def_cfa_offset 16
 2314              		@ sp needed
 2315 0094 70BD     		pop	{r4, r5, r6, pc}
 2316              	.LVL225:
 2317              	.L191:
ARM GAS  /tmp/ccldRdip.s 			page 79


 2318              	.LCFI36:
 2319              		.cfi_restore_state
1271:Middlewares/Third_Party/SubGHz_Phy/stm32_radio_driver/radio.c ****             {
 2320              		.loc 1 1271 13 is_stmt 1 view .LVU569
1271:Middlewares/Third_Party/SubGHz_Phy/stm32_radio_driver/radio.c ****             {
 2321              		.loc 1 1271 25 is_stmt 0 view .LVU570
 2322 0096 FFF7FEFF 		bl	RFW_Is_Init
 2323              	.LVL226:
1271:Middlewares/Third_Party/SubGHz_Phy/stm32_radio_driver/radio.c ****             {
 2324              		.loc 1 1271 16 view .LVU571
 2325 009a 0128     		cmp	r0, #1
 2326 009c 0AD0     		beq	.L199
1288:Middlewares/Third_Party/SubGHz_Phy/stm32_radio_driver/radio.c ****               SUBGRF_SetPacketParams( &SubgRf.PacketParams );
 2327              		.loc 1 1288 15 is_stmt 1 view .LVU572
1288:Middlewares/Third_Party/SubGHz_Phy/stm32_radio_driver/radio.c ****               SUBGRF_SetPacketParams( &SubgRf.PacketParams );
 2328              		.loc 1 1288 61 is_stmt 0 view .LVU573
 2329 009e 3548     		ldr	r0, .L201
 2330 00a0 8475     		strb	r4, [r0, #22]
1289:Middlewares/Third_Party/SubGHz_Phy/stm32_radio_driver/radio.c ****               SUBGRF_SendPayload( buffer, size, 0 );
 2331              		.loc 1 1289 15 is_stmt 1 view .LVU574
 2332 00a2 0E30     		adds	r0, r0, #14
 2333 00a4 FFF7FEFF 		bl	SUBGRF_SetPacketParams
 2334              	.LVL227:
1290:Middlewares/Third_Party/SubGHz_Phy/stm32_radio_driver/radio.c ****             }
 2335              		.loc 1 1290 15 view .LVU575
 2336 00a8 0022     		movs	r2, #0
 2337 00aa 2146     		mov	r1, r4
 2338 00ac 2846     		mov	r0, r5
 2339 00ae FFF7FEFF 		bl	SUBGRF_SendPayload
 2340              	.LVL228:
 2341 00b2 E5E7     		b	.L186
 2342              	.L199:
 2343              	.LBB2:
1273:Middlewares/Third_Party/SubGHz_Phy/stm32_radio_driver/radio.c ****               if ( 0UL == RFW_TransmitInit( buffer,size, &outsize ) )
 2344              		.loc 1 1273 15 view .LVU576
1274:Middlewares/Third_Party/SubGHz_Phy/stm32_radio_driver/radio.c ****               {
 2345              		.loc 1 1274 15 view .LVU577
1274:Middlewares/Third_Party/SubGHz_Phy/stm32_radio_driver/radio.c ****               {
 2346              		.loc 1 1274 27 is_stmt 0 view .LVU578
 2347 00b4 0DF10702 		add	r2, sp, #7
 2348 00b8 2146     		mov	r1, r4
 2349 00ba 2846     		mov	r0, r5
 2350 00bc FFF7FEFF 		bl	RFW_TransmitInit
 2351              	.LVL229:
1274:Middlewares/Third_Party/SubGHz_Phy/stm32_radio_driver/radio.c ****               {
 2352              		.loc 1 1274 18 view .LVU579
 2353 00c0 0028     		cmp	r0, #0
 2354 00c2 E6D1     		bne	.L183
1276:Middlewares/Third_Party/SubGHz_Phy/stm32_radio_driver/radio.c ****                   SUBGRF_SetPacketParams( &SubgRf.PacketParams );
 2355              		.loc 1 1276 19 is_stmt 1 view .LVU580
1276:Middlewares/Third_Party/SubGHz_Phy/stm32_radio_driver/radio.c ****                   SUBGRF_SetPacketParams( &SubgRf.PacketParams );
 2356              		.loc 1 1276 65 is_stmt 0 view .LVU581
 2357 00c4 2B48     		ldr	r0, .L201
 2358 00c6 9DF80730 		ldrb	r3, [sp, #7]	@ zero_extendqisi2
 2359 00ca 8375     		strb	r3, [r0, #22]
1277:Middlewares/Third_Party/SubGHz_Phy/stm32_radio_driver/radio.c ****                   SUBGRF_SendPayload( buffer, outsize, 0 );
 2360              		.loc 1 1277 19 is_stmt 1 view .LVU582
ARM GAS  /tmp/ccldRdip.s 			page 80


 2361 00cc 0E30     		adds	r0, r0, #14
 2362 00ce FFF7FEFF 		bl	SUBGRF_SetPacketParams
 2363              	.LVL230:
1278:Middlewares/Third_Party/SubGHz_Phy/stm32_radio_driver/radio.c ****               }
 2364              		.loc 1 1278 19 view .LVU583
 2365 00d2 0022     		movs	r2, #0
 2366 00d4 9DF80710 		ldrb	r1, [sp, #7]	@ zero_extendqisi2
 2367 00d8 2846     		mov	r0, r5
 2368 00da FFF7FEFF 		bl	SUBGRF_SendPayload
 2369              	.LVL231:
 2370 00de CFE7     		b	.L186
 2371              	.L189:
1278:Middlewares/Third_Party/SubGHz_Phy/stm32_radio_driver/radio.c ****               }
 2372              		.loc 1 1278 19 is_stmt 0 view .LVU584
 2373              	.LBE2:
1296:Middlewares/Third_Party/SubGHz_Phy/stm32_radio_driver/radio.c ****             SubgRf.PacketParams.Params.Bpsk.PayloadLength = size;
 2374              		.loc 1 1296 13 is_stmt 1 view .LVU585
1296:Middlewares/Third_Party/SubGHz_Phy/stm32_radio_driver/radio.c ****             SubgRf.PacketParams.Params.Bpsk.PayloadLength = size;
 2375              		.loc 1 1296 44 is_stmt 0 view .LVU586
 2376 00e0 2448     		ldr	r0, .L201
 2377 00e2 0223     		movs	r3, #2
 2378 00e4 8373     		strb	r3, [r0, #14]
1297:Middlewares/Third_Party/SubGHz_Phy/stm32_radio_driver/radio.c ****             SUBGRF_SetPacketParams( &SubgRf.PacketParams );
 2379              		.loc 1 1297 13 is_stmt 1 view .LVU587
1297:Middlewares/Third_Party/SubGHz_Phy/stm32_radio_driver/radio.c ****             SUBGRF_SetPacketParams( &SubgRf.PacketParams );
 2380              		.loc 1 1297 59 is_stmt 0 view .LVU588
 2381 00e6 8476     		strb	r4, [r0, #26]
1298:Middlewares/Third_Party/SubGHz_Phy/stm32_radio_driver/radio.c ****             SUBGRF_SendPayload( buffer, size, 0 );
 2382              		.loc 1 1298 13 is_stmt 1 view .LVU589
 2383 00e8 0E30     		adds	r0, r0, #14
 2384 00ea FFF7FEFF 		bl	SUBGRF_SetPacketParams
 2385              	.LVL232:
1299:Middlewares/Third_Party/SubGHz_Phy/stm32_radio_driver/radio.c ****             break;
 2386              		.loc 1 1299 13 view .LVU590
 2387 00ee 0022     		movs	r2, #0
 2388 00f0 2146     		mov	r1, r4
 2389 00f2 2846     		mov	r0, r5
 2390 00f4 FFF7FEFF 		bl	SUBGRF_SendPayload
 2391              	.LVL233:
1300:Middlewares/Third_Party/SubGHz_Phy/stm32_radio_driver/radio.c ****         }
 2392              		.loc 1 1300 13 view .LVU591
 2393 00f8 C2E7     		b	.L186
 2394              	.L187:
 2395              	.LBB3:
1307:Middlewares/Third_Party/SubGHz_Phy/stm32_radio_driver/radio.c **** 
 2396              		.loc 1 1307 13 view .LVU592
 2397 00fa 2246     		mov	r2, r4
 2398 00fc 2946     		mov	r1, r5
 2399 00fe 1F48     		ldr	r0, .L201+8
 2400 0100 FFF7FEFF 		bl	payload_integration
 2401              	.LVL234:
1309:Middlewares/Third_Party/SubGHz_Phy/stm32_radio_driver/radio.c ****             SubgRf.PacketParams.Params.Bpsk.PayloadLength = size + 1;
 2402              		.loc 1 1309 13 view .LVU593
1309:Middlewares/Third_Party/SubGHz_Phy/stm32_radio_driver/radio.c ****             SubgRf.PacketParams.Params.Bpsk.PayloadLength = size + 1;
 2403              		.loc 1 1309 44 is_stmt 0 view .LVU594
 2404 0104 1B4E     		ldr	r6, .L201
 2405 0106 0223     		movs	r3, #2
ARM GAS  /tmp/ccldRdip.s 			page 81


 2406 0108 B373     		strb	r3, [r6, #14]
1310:Middlewares/Third_Party/SubGHz_Phy/stm32_radio_driver/radio.c ****             SUBGRF_SetPacketParams( &SubgRf.PacketParams );
 2407              		.loc 1 1310 13 is_stmt 1 view .LVU595
1310:Middlewares/Third_Party/SubGHz_Phy/stm32_radio_driver/radio.c ****             SUBGRF_SetPacketParams( &SubgRf.PacketParams );
 2408              		.loc 1 1310 66 is_stmt 0 view .LVU596
 2409 010a 651C     		adds	r5, r4, #1
 2410              	.LVL235:
1310:Middlewares/Third_Party/SubGHz_Phy/stm32_radio_driver/radio.c ****             SUBGRF_SetPacketParams( &SubgRf.PacketParams );
 2411              		.loc 1 1310 66 view .LVU597
 2412 010c EDB2     		uxtb	r5, r5
1310:Middlewares/Third_Party/SubGHz_Phy/stm32_radio_driver/radio.c ****             SUBGRF_SetPacketParams( &SubgRf.PacketParams );
 2413              		.loc 1 1310 59 view .LVU598
 2414 010e B576     		strb	r5, [r6, #26]
1311:Middlewares/Third_Party/SubGHz_Phy/stm32_radio_driver/radio.c **** 
 2415              		.loc 1 1311 13 is_stmt 1 view .LVU599
 2416 0110 06F10E00 		add	r0, r6, #14
 2417 0114 FFF7FEFF 		bl	SUBGRF_SetPacketParams
 2418              	.LVL236:
1313:Middlewares/Third_Party/SubGHz_Phy/stm32_radio_driver/radio.c ****             RadioWrite( 0x00F0, 0 ); // clean start-up MSB
 2419              		.loc 1 1313 13 view .LVU600
 2420 0118 0021     		movs	r1, #0
 2421 011a F120     		movs	r0, #241
 2422 011c FFF7FEFF 		bl	RadioWrite
 2423              	.LVL237:
1314:Middlewares/Third_Party/SubGHz_Phy/stm32_radio_driver/radio.c ****             if( SubgRf.ModulationParams.Params.Bpsk.BitRate == 100 )
 2424              		.loc 1 1314 13 view .LVU601
 2425 0120 0021     		movs	r1, #0
 2426 0122 F020     		movs	r0, #240
 2427 0124 FFF7FEFF 		bl	RadioWrite
 2428              	.LVL238:
1315:Middlewares/Third_Party/SubGHz_Phy/stm32_radio_driver/radio.c ****             {
 2429              		.loc 1 1315 13 view .LVU602
1315:Middlewares/Third_Party/SubGHz_Phy/stm32_radio_driver/radio.c ****             {
 2430              		.loc 1 1315 52 is_stmt 0 view .LVU603
 2431 0128 B36C     		ldr	r3, [r6, #72]
1315:Middlewares/Third_Party/SubGHz_Phy/stm32_radio_driver/radio.c ****             {
 2432              		.loc 1 1315 15 view .LVU604
 2433 012a 642B     		cmp	r3, #100
 2434 012c 19D0     		beq	.L200
1322:Middlewares/Third_Party/SubGHz_Phy/stm32_radio_driver/radio.c ****                 RadioWrite( 0x00F2, 0x04 ); // clean end of frame MSB
 2435              		.loc 1 1322 17 is_stmt 1 view .LVU605
 2436 012e E121     		movs	r1, #225
 2437 0130 F320     		movs	r0, #243
 2438 0132 FFF7FEFF 		bl	RadioWrite
 2439              	.LVL239:
1323:Middlewares/Third_Party/SubGHz_Phy/stm32_radio_driver/radio.c ****             }
 2440              		.loc 1 1323 17 view .LVU606
 2441 0136 0421     		movs	r1, #4
 2442 0138 F220     		movs	r0, #242
 2443 013a FFF7FEFF 		bl	RadioWrite
 2444              	.LVL240:
 2445              	.L196:
1326:Middlewares/Third_Party/SubGHz_Phy/stm32_radio_driver/radio.c ****             RadioWrite( 0x00F4, ( bitNum >> 8 ) & 0x00FF );    // limit frame
 2446              		.loc 1 1326 13 view .LVU607
1326:Middlewares/Third_Party/SubGHz_Phy/stm32_radio_driver/radio.c ****             RadioWrite( 0x00F4, ( bitNum >> 8 ) & 0x00FF );    // limit frame
 2447              		.loc 1 1326 44 is_stmt 0 view .LVU608
 2448 013e E100     		lsls	r1, r4, #3
ARM GAS  /tmp/ccldRdip.s 			page 82


1326:Middlewares/Third_Party/SubGHz_Phy/stm32_radio_driver/radio.c ****             RadioWrite( 0x00F4, ( bitNum >> 8 ) & 0x00FF );    // limit frame
 2449              		.loc 1 1326 22 view .LVU609
 2450 0140 8C1C     		adds	r4, r1, #2
 2451              	.LVL241:
1327:Middlewares/Third_Party/SubGHz_Phy/stm32_radio_driver/radio.c ****             RadioWrite( 0x00F5, bitNum & 0x00FF );             // limit frame
 2452              		.loc 1 1327 13 is_stmt 1 view .LVU610
 2453 0142 090A     		lsrs	r1, r1, #8
 2454 0144 F420     		movs	r0, #244
 2455 0146 FFF7FEFF 		bl	RadioWrite
 2456              	.LVL242:
1328:Middlewares/Third_Party/SubGHz_Phy/stm32_radio_driver/radio.c ****             SUBGRF_SendPayload( RadioBuffer, size+1 , 0xFFFFFF );
 2457              		.loc 1 1328 13 view .LVU611
 2458 014a 04F0FE01 		and	r1, r4, #254
 2459 014e F520     		movs	r0, #245
 2460 0150 FFF7FEFF 		bl	RadioWrite
 2461              	.LVL243:
1329:Middlewares/Third_Party/SubGHz_Phy/stm32_radio_driver/radio.c ****             break;
 2462              		.loc 1 1329 13 view .LVU612
 2463 0154 6FF07F42 		mvn	r2, #-16777216
 2464 0158 2946     		mov	r1, r5
 2465 015a 0848     		ldr	r0, .L201+8
 2466 015c FFF7FEFF 		bl	SUBGRF_SendPayload
 2467              	.LVL244:
1330:Middlewares/Third_Party/SubGHz_Phy/stm32_radio_driver/radio.c ****         }
 2468              		.loc 1 1330 13 view .LVU613
 2469 0160 8EE7     		b	.L186
 2470              	.LVL245:
 2471              	.L200:
1317:Middlewares/Third_Party/SubGHz_Phy/stm32_radio_driver/radio.c ****                 RadioWrite( 0x00F2, 0x1D ); // clean end of frame MSB
 2472              		.loc 1 1317 17 view .LVU614
 2473 0162 7021     		movs	r1, #112
 2474 0164 F320     		movs	r0, #243
 2475 0166 FFF7FEFF 		bl	RadioWrite
 2476              	.LVL246:
1318:Middlewares/Third_Party/SubGHz_Phy/stm32_radio_driver/radio.c ****             }
 2477              		.loc 1 1318 17 view .LVU615
 2478 016a 1D21     		movs	r1, #29
 2479 016c F220     		movs	r0, #242
 2480 016e FFF7FEFF 		bl	RadioWrite
 2481              	.LVL247:
 2482 0172 E4E7     		b	.L196
 2483              	.L202:
 2484              		.align	2
 2485              	.L201:
 2486 0174 00000000 		.word	.LANCHOR3
 2487 0178 00000000 		.word	.LANCHOR5
 2488 017c 00000000 		.word	.LANCHOR6
 2489              	.LBE3:
 2490              		.cfi_endproc
 2491              	.LFE997:
 2493              		.section	.text.RadioSetModem,"ax",%progbits
 2494              		.align	1
 2495              		.syntax unified
 2496              		.thumb
 2497              		.thumb_func
 2498              		.fpu softvfp
 2500              	RadioSetModem:
ARM GAS  /tmp/ccldRdip.s 			page 83


 2501              	.LVL248:
 2502              	.LFB986:
 686:Middlewares/Third_Party/SubGHz_Phy/stm32_radio_driver/radio.c ****     SubgRf.Modem = modem;
 2503              		.loc 1 686 1 view -0
 2504              		.cfi_startproc
 2505              		@ args = 0, pretend = 0, frame = 0
 2506              		@ frame_needed = 0, uses_anonymous_args = 0
 686:Middlewares/Third_Party/SubGHz_Phy/stm32_radio_driver/radio.c ****     SubgRf.Modem = modem;
 2507              		.loc 1 686 1 is_stmt 0 view .LVU617
 2508 0000 10B5     		push	{r4, lr}
 2509              	.LCFI37:
 2510              		.cfi_def_cfa_offset 8
 2511              		.cfi_offset 4, -8
 2512              		.cfi_offset 14, -4
 2513 0002 0446     		mov	r4, r0
 687:Middlewares/Third_Party/SubGHz_Phy/stm32_radio_driver/radio.c ****     RFW_SetRadioModem(modem);
 2514              		.loc 1 687 5 is_stmt 1 view .LVU618
 687:Middlewares/Third_Party/SubGHz_Phy/stm32_radio_driver/radio.c ****     RFW_SetRadioModem(modem);
 2515              		.loc 1 687 18 is_stmt 0 view .LVU619
 2516 0004 194B     		ldr	r3, .L212
 2517 0006 1870     		strb	r0, [r3]
 688:Middlewares/Third_Party/SubGHz_Phy/stm32_radio_driver/radio.c ****     switch( modem )
 2518              		.loc 1 688 5 is_stmt 1 view .LVU620
 2519 0008 FFF7FEFF 		bl	RFW_SetRadioModem
 2520              	.LVL249:
 689:Middlewares/Third_Party/SubGHz_Phy/stm32_radio_driver/radio.c ****     {
 2521              		.loc 1 689 5 view .LVU621
 2522 000c 013C     		subs	r4, r4, #1
 2523 000e 032C     		cmp	r4, #3
 2524 0010 03D8     		bhi	.L204
 2525 0012 DFE804F0 		tbb	[pc, r4]
 2526              	.L206:
 2527 0016 09       		.byte	(.L209-.L206)/2
 2528 0017 15       		.byte	(.L208-.L206)/2
 2529 0018 1C       		.byte	(.L207-.L206)/2
 2530 0019 23       		.byte	(.L205-.L206)/2
 2531              		.p2align 1
 2532              	.L204:
 693:Middlewares/Third_Party/SubGHz_Phy/stm32_radio_driver/radio.c ****         // When switching to GFSK mode the LoRa SyncWord register value is reset
 2533              		.loc 1 693 9 view .LVU622
 2534 001a 0020     		movs	r0, #0
 2535 001c FFF7FEFF 		bl	SUBGRF_SetPacketType
 2536              	.LVL250:
 696:Middlewares/Third_Party/SubGHz_Phy/stm32_radio_driver/radio.c ****         break;
 2537              		.loc 1 696 9 view .LVU623
 696:Middlewares/Third_Party/SubGHz_Phy/stm32_radio_driver/radio.c ****         break;
 2538              		.loc 1 696 38 is_stmt 0 view .LVU624
 2539 0020 124B     		ldr	r3, .L212
 2540 0022 0022     		movs	r2, #0
 2541 0024 5A73     		strb	r2, [r3, #13]
 697:Middlewares/Third_Party/SubGHz_Phy/stm32_radio_driver/radio.c ****     case MODEM_LORA:
 2542              		.loc 1 697 9 is_stmt 1 view .LVU625
 2543 0026 11E0     		b	.L203
 2544              	.L209:
 699:Middlewares/Third_Party/SubGHz_Phy/stm32_radio_driver/radio.c ****         // Public/Private network register is reset when switching modems
 2545              		.loc 1 699 9 view .LVU626
 2546 0028 0120     		movs	r0, #1
ARM GAS  /tmp/ccldRdip.s 			page 84


 2547 002a FFF7FEFF 		bl	SUBGRF_SetPacketType
 2548              	.LVL251:
 701:Middlewares/Third_Party/SubGHz_Phy/stm32_radio_driver/radio.c ****         {
 2549              		.loc 1 701 9 view .LVU627
 701:Middlewares/Third_Party/SubGHz_Phy/stm32_radio_driver/radio.c ****         {
 2550              		.loc 1 701 33 is_stmt 0 view .LVU628
 2551 002e 0F4B     		ldr	r3, .L212
 2552 0030 5A7B     		ldrb	r2, [r3, #13]	@ zero_extendqisi2
 701:Middlewares/Third_Party/SubGHz_Phy/stm32_radio_driver/radio.c ****         {
 2553              		.loc 1 701 65 view .LVU629
 2554 0032 187B     		ldrb	r0, [r3, #12]	@ zero_extendqisi2
 701:Middlewares/Third_Party/SubGHz_Phy/stm32_radio_driver/radio.c ****         {
 2555              		.loc 1 701 11 view .LVU630
 2556 0034 8242     		cmp	r2, r0
 2557 0036 09D0     		beq	.L203
 703:Middlewares/Third_Party/SubGHz_Phy/stm32_radio_driver/radio.c ****             RadioSetPublicNetwork( SubgRf.PublicNetwork.Current );
 2558              		.loc 1 703 13 is_stmt 1 view .LVU631
 703:Middlewares/Third_Party/SubGHz_Phy/stm32_radio_driver/radio.c ****             RadioSetPublicNetwork( SubgRf.PublicNetwork.Current );
 2559              		.loc 1 703 42 is_stmt 0 view .LVU632
 2560 0038 5873     		strb	r0, [r3, #13]
 704:Middlewares/Third_Party/SubGHz_Phy/stm32_radio_driver/radio.c ****         }
 2561              		.loc 1 704 13 is_stmt 1 view .LVU633
 2562 003a FFF7FEFF 		bl	RadioSetPublicNetwork
 2563              	.LVL252:
 2564 003e 05E0     		b	.L203
 2565              	.L208:
 708:Middlewares/Third_Party/SubGHz_Phy/stm32_radio_driver/radio.c ****         // When switching to BPSK mode the LoRa SyncWord register value is reset
 2566              		.loc 1 708 9 view .LVU634
 2567 0040 0220     		movs	r0, #2
 2568 0042 FFF7FEFF 		bl	SUBGRF_SetPacketType
 2569              	.LVL253:
 711:Middlewares/Third_Party/SubGHz_Phy/stm32_radio_driver/radio.c ****         break;
 2570              		.loc 1 711 9 view .LVU635
 711:Middlewares/Third_Party/SubGHz_Phy/stm32_radio_driver/radio.c ****         break;
 2571              		.loc 1 711 38 is_stmt 0 view .LVU636
 2572 0046 094B     		ldr	r3, .L212
 2573 0048 0022     		movs	r2, #0
 2574 004a 5A73     		strb	r2, [r3, #13]
 712:Middlewares/Third_Party/SubGHz_Phy/stm32_radio_driver/radio.c ****     case MODEM_SIGFOX_TX:
 2575              		.loc 1 712 9 is_stmt 1 view .LVU637
 2576              	.L203:
 726:Middlewares/Third_Party/SubGHz_Phy/stm32_radio_driver/radio.c **** 
 2577              		.loc 1 726 1 is_stmt 0 view .LVU638
 2578 004c 10BD     		pop	{r4, pc}
 2579              	.L207:
 714:Middlewares/Third_Party/SubGHz_Phy/stm32_radio_driver/radio.c ****         // When switching to BPSK mode the LoRa SyncWord register value is reset
 2580              		.loc 1 714 9 is_stmt 1 view .LVU639
 2581 004e 0220     		movs	r0, #2
 2582 0050 FFF7FEFF 		bl	SUBGRF_SetPacketType
 2583              	.LVL254:
 717:Middlewares/Third_Party/SubGHz_Phy/stm32_radio_driver/radio.c ****         break;
 2584              		.loc 1 717 9 view .LVU640
 717:Middlewares/Third_Party/SubGHz_Phy/stm32_radio_driver/radio.c ****         break;
 2585              		.loc 1 717 38 is_stmt 0 view .LVU641
 2586 0054 054B     		ldr	r3, .L212
 2587 0056 0022     		movs	r2, #0
 2588 0058 5A73     		strb	r2, [r3, #13]
ARM GAS  /tmp/ccldRdip.s 			page 85


 718:Middlewares/Third_Party/SubGHz_Phy/stm32_radio_driver/radio.c ****     case MODEM_SIGFOX_RX:
 2589              		.loc 1 718 9 is_stmt 1 view .LVU642
 2590 005a F7E7     		b	.L203
 2591              	.L205:
 720:Middlewares/Third_Party/SubGHz_Phy/stm32_radio_driver/radio.c ****         // When switching to GFSK mode the LoRa SyncWord register value is reset
 2592              		.loc 1 720 9 view .LVU643
 2593 005c 0020     		movs	r0, #0
 2594 005e FFF7FEFF 		bl	SUBGRF_SetPacketType
 2595              	.LVL255:
 723:Middlewares/Third_Party/SubGHz_Phy/stm32_radio_driver/radio.c ****         break;
 2596              		.loc 1 723 9 view .LVU644
 723:Middlewares/Third_Party/SubGHz_Phy/stm32_radio_driver/radio.c ****         break;
 2597              		.loc 1 723 38 is_stmt 0 view .LVU645
 2598 0062 024B     		ldr	r3, .L212
 2599 0064 0022     		movs	r2, #0
 2600 0066 5A73     		strb	r2, [r3, #13]
 724:Middlewares/Third_Party/SubGHz_Phy/stm32_radio_driver/radio.c ****     }
 2601              		.loc 1 724 9 is_stmt 1 view .LVU646
 726:Middlewares/Third_Party/SubGHz_Phy/stm32_radio_driver/radio.c **** 
 2602              		.loc 1 726 1 is_stmt 0 view .LVU647
 2603 0068 F0E7     		b	.L203
 2604              	.L213:
 2605 006a 00BF     		.align	2
 2606              	.L212:
 2607 006c 00000000 		.word	.LANCHOR3
 2608              		.cfi_endproc
 2609              	.LFE986:
 2611              		.section	.text.RadioSetTxGenericConfig,"ax",%progbits
 2612              		.align	1
 2613              		.syntax unified
 2614              		.thumb
 2615              		.thumb_func
 2616              		.fpu softvfp
 2618              	RadioSetTxGenericConfig:
 2619              	.LVL256:
 2620              	.LFB1023:
1781:Middlewares/Third_Party/SubGHz_Phy/stm32_radio_driver/radio.c **** 
1782:Middlewares/Third_Party/SubGHz_Phy/stm32_radio_driver/radio.c **** static int32_t RadioSetRxGenericConfig( GenericModems_t modem, RxConfigGeneric_t* config, uint32_t 
1783:Middlewares/Third_Party/SubGHz_Phy/stm32_radio_driver/radio.c **** {
1784:Middlewares/Third_Party/SubGHz_Phy/stm32_radio_driver/radio.c ****     int32_t status = 0;
1785:Middlewares/Third_Party/SubGHz_Phy/stm32_radio_driver/radio.c ****     uint8_t syncword[8] = {0};
1786:Middlewares/Third_Party/SubGHz_Phy/stm32_radio_driver/radio.c ****     uint8_t MaxPayloadLength;
1787:Middlewares/Third_Party/SubGHz_Phy/stm32_radio_driver/radio.c **** 
1788:Middlewares/Third_Party/SubGHz_Phy/stm32_radio_driver/radio.c ****     RFW_DeInit( ); /* switch Off FwPacketDecoding by default */
1789:Middlewares/Third_Party/SubGHz_Phy/stm32_radio_driver/radio.c **** 
1790:Middlewares/Third_Party/SubGHz_Phy/stm32_radio_driver/radio.c ****     if( rxContinuous != 0 )
1791:Middlewares/Third_Party/SubGHz_Phy/stm32_radio_driver/radio.c ****     {
1792:Middlewares/Third_Party/SubGHz_Phy/stm32_radio_driver/radio.c ****         symbTimeout = 0;
1793:Middlewares/Third_Party/SubGHz_Phy/stm32_radio_driver/radio.c ****     }
1794:Middlewares/Third_Party/SubGHz_Phy/stm32_radio_driver/radio.c ****     SubgRf.RxContinuous = ( rxContinuous == 0 ) ? false : true;
1795:Middlewares/Third_Party/SubGHz_Phy/stm32_radio_driver/radio.c **** 
1796:Middlewares/Third_Party/SubGHz_Phy/stm32_radio_driver/radio.c ****     switch( modem )
1797:Middlewares/Third_Party/SubGHz_Phy/stm32_radio_driver/radio.c ****     {
1798:Middlewares/Third_Party/SubGHz_Phy/stm32_radio_driver/radio.c ****     case GENERIC_FSK:
1799:Middlewares/Third_Party/SubGHz_Phy/stm32_radio_driver/radio.c ****         if( ( config->fsk.BitRate == 0 ) || ( config->fsk.PreambleLen == 0 ) )
1800:Middlewares/Third_Party/SubGHz_Phy/stm32_radio_driver/radio.c ****         {
1801:Middlewares/Third_Party/SubGHz_Phy/stm32_radio_driver/radio.c ****             return -1;
ARM GAS  /tmp/ccldRdip.s 			page 86


1802:Middlewares/Third_Party/SubGHz_Phy/stm32_radio_driver/radio.c ****         }
1803:Middlewares/Third_Party/SubGHz_Phy/stm32_radio_driver/radio.c ****         if( config->fsk.SyncWordLength > 8 )
1804:Middlewares/Third_Party/SubGHz_Phy/stm32_radio_driver/radio.c ****         {
1805:Middlewares/Third_Party/SubGHz_Phy/stm32_radio_driver/radio.c ****             return -1;
1806:Middlewares/Third_Party/SubGHz_Phy/stm32_radio_driver/radio.c ****         }
1807:Middlewares/Third_Party/SubGHz_Phy/stm32_radio_driver/radio.c ****         else
1808:Middlewares/Third_Party/SubGHz_Phy/stm32_radio_driver/radio.c ****         {
1809:Middlewares/Third_Party/SubGHz_Phy/stm32_radio_driver/radio.c ****             for(int i = 0; i < config->fsk.SyncWordLength; i++)
1810:Middlewares/Third_Party/SubGHz_Phy/stm32_radio_driver/radio.c ****             {
1811:Middlewares/Third_Party/SubGHz_Phy/stm32_radio_driver/radio.c ****                 syncword[i] = config->fsk.SyncWord[i];
1812:Middlewares/Third_Party/SubGHz_Phy/stm32_radio_driver/radio.c ****             }
1813:Middlewares/Third_Party/SubGHz_Phy/stm32_radio_driver/radio.c ****         }
1814:Middlewares/Third_Party/SubGHz_Phy/stm32_radio_driver/radio.c **** 
1815:Middlewares/Third_Party/SubGHz_Phy/stm32_radio_driver/radio.c ****         SUBGRF_SetStopRxTimerOnPreambleDetect( ( config->fsk.StopTimerOnPreambleDetect == 0 ) ? fal
1816:Middlewares/Third_Party/SubGHz_Phy/stm32_radio_driver/radio.c **** 
1817:Middlewares/Third_Party/SubGHz_Phy/stm32_radio_driver/radio.c ****         SubgRf.ModulationParams.PacketType = PACKET_TYPE_GFSK;
1818:Middlewares/Third_Party/SubGHz_Phy/stm32_radio_driver/radio.c ****         SubgRf.ModulationParams.Params.Gfsk.BitRate = config->fsk.BitRate;
1819:Middlewares/Third_Party/SubGHz_Phy/stm32_radio_driver/radio.c ****         SubgRf.ModulationParams.Params.Gfsk.ModulationShaping = (RadioModShapings_t) config->fsk.Mo
1820:Middlewares/Third_Party/SubGHz_Phy/stm32_radio_driver/radio.c ****         SubgRf.ModulationParams.Params.Gfsk.Bandwidth = SUBGRF_GetFskBandwidthRegValue( config->fsk
1821:Middlewares/Third_Party/SubGHz_Phy/stm32_radio_driver/radio.c **** 
1822:Middlewares/Third_Party/SubGHz_Phy/stm32_radio_driver/radio.c ****         SubgRf.PacketParams.PacketType = PACKET_TYPE_GFSK;
1823:Middlewares/Third_Party/SubGHz_Phy/stm32_radio_driver/radio.c ****         SubgRf.PacketParams.Params.Gfsk.PreambleLength = ( config->fsk.PreambleLen ) << 3 ; // conv
1824:Middlewares/Third_Party/SubGHz_Phy/stm32_radio_driver/radio.c ****         SubgRf.PacketParams.Params.Gfsk.PreambleMinDetect = ( RadioPreambleDetection_t ) config->fs
1825:Middlewares/Third_Party/SubGHz_Phy/stm32_radio_driver/radio.c ****         SubgRf.PacketParams.Params.Gfsk.SyncWordLength = ( config->fsk.SyncWordLength ) << 3; // co
1826:Middlewares/Third_Party/SubGHz_Phy/stm32_radio_driver/radio.c ****         SubgRf.PacketParams.Params.Gfsk.AddrComp = ( RadioAddressComp_t ) config->fsk.AddrComp;
1827:Middlewares/Third_Party/SubGHz_Phy/stm32_radio_driver/radio.c **** 
1828:Middlewares/Third_Party/SubGHz_Phy/stm32_radio_driver/radio.c ****         if( config->fsk.LengthMode == RADIO_FSK_PACKET_FIXED_LENGTH )
1829:Middlewares/Third_Party/SubGHz_Phy/stm32_radio_driver/radio.c ****         {
1830:Middlewares/Third_Party/SubGHz_Phy/stm32_radio_driver/radio.c ****             SubgRf.PacketParams.Params.Gfsk.PayloadLength = config->fsk.MaxPayloadLength;
1831:Middlewares/Third_Party/SubGHz_Phy/stm32_radio_driver/radio.c ****         }
1832:Middlewares/Third_Party/SubGHz_Phy/stm32_radio_driver/radio.c ****         else if( config->fsk.LengthMode == RADIO_FSK_PACKET_2BYTES_LENGTH )
1833:Middlewares/Third_Party/SubGHz_Phy/stm32_radio_driver/radio.c ****         {
1834:Middlewares/Third_Party/SubGHz_Phy/stm32_radio_driver/radio.c ****           /* Set max in the radio, in long packet mode will be tuned based dynamically on received 
1835:Middlewares/Third_Party/SubGHz_Phy/stm32_radio_driver/radio.c ****           SubgRf.PacketParams.Params.Gfsk.PayloadLength = 0xFF;
1836:Middlewares/Third_Party/SubGHz_Phy/stm32_radio_driver/radio.c ****         }
1837:Middlewares/Third_Party/SubGHz_Phy/stm32_radio_driver/radio.c ****         else
1838:Middlewares/Third_Party/SubGHz_Phy/stm32_radio_driver/radio.c ****         {
1839:Middlewares/Third_Party/SubGHz_Phy/stm32_radio_driver/radio.c ****           /* Set max in the radio */
1840:Middlewares/Third_Party/SubGHz_Phy/stm32_radio_driver/radio.c ****           SubgRf.PacketParams.Params.Gfsk.PayloadLength = 0xFF;
1841:Middlewares/Third_Party/SubGHz_Phy/stm32_radio_driver/radio.c ****         }
1842:Middlewares/Third_Party/SubGHz_Phy/stm32_radio_driver/radio.c **** 
1843:Middlewares/Third_Party/SubGHz_Phy/stm32_radio_driver/radio.c ****         if( ( config->fsk.Whitening == RADIO_FSK_DC_IBM_WHITENING ) || ( config->fsk.LengthMode == 
1844:Middlewares/Third_Party/SubGHz_Phy/stm32_radio_driver/radio.c ****         {
1845:Middlewares/Third_Party/SubGHz_Phy/stm32_radio_driver/radio.c ****           /* Supports only RADIO_FSK_CRC_2_BYTES_IBM or RADIO_FSK_CRC_2_BYTES_CCIT*/
1846:Middlewares/Third_Party/SubGHz_Phy/stm32_radio_driver/radio.c ****           if( ( config->fsk.CrcLength != RADIO_FSK_CRC_2_BYTES_IBM ) && ( config->fsk.CrcLength != 
1847:Middlewares/Third_Party/SubGHz_Phy/stm32_radio_driver/radio.c ****           {
1848:Middlewares/Third_Party/SubGHz_Phy/stm32_radio_driver/radio.c ****             return -1;
1849:Middlewares/Third_Party/SubGHz_Phy/stm32_radio_driver/radio.c ****           }
1850:Middlewares/Third_Party/SubGHz_Phy/stm32_radio_driver/radio.c ****           ConfigGeneric_t ConfigGeneric;
1851:Middlewares/Third_Party/SubGHz_Phy/stm32_radio_driver/radio.c ****           ConfigGeneric.rtx = CONFIG_RX;
1852:Middlewares/Third_Party/SubGHz_Phy/stm32_radio_driver/radio.c ****           ConfigGeneric.RxConfig = config;
1853:Middlewares/Third_Party/SubGHz_Phy/stm32_radio_driver/radio.c ****           if( 0UL != RFW_Init( &ConfigGeneric, RadioEvents, &RxTimeoutTimer ) )
1854:Middlewares/Third_Party/SubGHz_Phy/stm32_radio_driver/radio.c ****           {
1855:Middlewares/Third_Party/SubGHz_Phy/stm32_radio_driver/radio.c ****             return -1;
1856:Middlewares/Third_Party/SubGHz_Phy/stm32_radio_driver/radio.c ****           }
1857:Middlewares/Third_Party/SubGHz_Phy/stm32_radio_driver/radio.c ****           /* Whitening off, will be processed by FW, switch off built-in radio whitening*/
1858:Middlewares/Third_Party/SubGHz_Phy/stm32_radio_driver/radio.c ****           SubgRf.PacketParams.Params.Gfsk.DcFree = ( RadioDcFree_t ) RADIO_FSK_DC_FREE_OFF;
ARM GAS  /tmp/ccldRdip.s 			page 87


1859:Middlewares/Third_Party/SubGHz_Phy/stm32_radio_driver/radio.c ****           /* Crc off, Crc processed by FW, switch off built-in radio Crc*/
1860:Middlewares/Third_Party/SubGHz_Phy/stm32_radio_driver/radio.c ****           SubgRf.PacketParams.Params.Gfsk.CrcLength = ( RadioCrcTypes_t ) RADIO_CRC_OFF;
1861:Middlewares/Third_Party/SubGHz_Phy/stm32_radio_driver/radio.c ****           /* Length contained in Tx, but will be processed by FW after de-whitening*/
1862:Middlewares/Third_Party/SubGHz_Phy/stm32_radio_driver/radio.c ****           SubgRf.PacketParams.Params.Gfsk.HeaderType = ( RadioPacketLengthModes_t ) RADIO_PACKET_FI
1863:Middlewares/Third_Party/SubGHz_Phy/stm32_radio_driver/radio.c ****         }
1864:Middlewares/Third_Party/SubGHz_Phy/stm32_radio_driver/radio.c ****         else
1865:Middlewares/Third_Party/SubGHz_Phy/stm32_radio_driver/radio.c ****         {
1866:Middlewares/Third_Party/SubGHz_Phy/stm32_radio_driver/radio.c ****           SubgRf.PacketParams.Params.Gfsk.CrcLength = ( RadioCrcTypes_t ) config->fsk.CrcLength;
1867:Middlewares/Third_Party/SubGHz_Phy/stm32_radio_driver/radio.c ****           SubgRf.PacketParams.Params.Gfsk.DcFree = ( RadioDcFree_t ) config->fsk.Whitening;
1868:Middlewares/Third_Party/SubGHz_Phy/stm32_radio_driver/radio.c ****           SubgRf.PacketParams.Params.Gfsk.HeaderType = ( RadioPacketLengthModes_t ) config->fsk.Len
1869:Middlewares/Third_Party/SubGHz_Phy/stm32_radio_driver/radio.c ****         }
1870:Middlewares/Third_Party/SubGHz_Phy/stm32_radio_driver/radio.c **** 
1871:Middlewares/Third_Party/SubGHz_Phy/stm32_radio_driver/radio.c ****         RadioStandby( );
1872:Middlewares/Third_Party/SubGHz_Phy/stm32_radio_driver/radio.c ****         RadioSetModem( MODEM_FSK );
1873:Middlewares/Third_Party/SubGHz_Phy/stm32_radio_driver/radio.c ****         SUBGRF_SetModulationParams( &SubgRf.ModulationParams );
1874:Middlewares/Third_Party/SubGHz_Phy/stm32_radio_driver/radio.c ****         SUBGRF_SetPacketParams( &SubgRf.PacketParams );
1875:Middlewares/Third_Party/SubGHz_Phy/stm32_radio_driver/radio.c ****         SUBGRF_SetSyncWord( syncword );
1876:Middlewares/Third_Party/SubGHz_Phy/stm32_radio_driver/radio.c ****         SUBGRF_SetWhiteningSeed( config->fsk.whiteSeed );
1877:Middlewares/Third_Party/SubGHz_Phy/stm32_radio_driver/radio.c ****         SUBGRF_SetCrcPolynomial( config->fsk.CrcPolynomial );
1878:Middlewares/Third_Party/SubGHz_Phy/stm32_radio_driver/radio.c ****         /* timeout unused when SubgRf.RxContinuous */
1879:Middlewares/Third_Party/SubGHz_Phy/stm32_radio_driver/radio.c ****         SubgRf.RxTimeout = ( uint32_t )( ( symbTimeout * 1000 * 8 ) / config->fsk.BitRate );
1880:Middlewares/Third_Party/SubGHz_Phy/stm32_radio_driver/radio.c ****         break;
1881:Middlewares/Third_Party/SubGHz_Phy/stm32_radio_driver/radio.c ****     case GENERIC_LORA:
1882:Middlewares/Third_Party/SubGHz_Phy/stm32_radio_driver/radio.c ****         if( config->lora.PreambleLen == 0 )
1883:Middlewares/Third_Party/SubGHz_Phy/stm32_radio_driver/radio.c ****         {
1884:Middlewares/Third_Party/SubGHz_Phy/stm32_radio_driver/radio.c ****             return -1;
1885:Middlewares/Third_Party/SubGHz_Phy/stm32_radio_driver/radio.c ****         }
1886:Middlewares/Third_Party/SubGHz_Phy/stm32_radio_driver/radio.c **** 
1887:Middlewares/Third_Party/SubGHz_Phy/stm32_radio_driver/radio.c ****         if( config->lora.LengthMode == RADIO_LORA_PACKET_FIXED_LENGTH )
1888:Middlewares/Third_Party/SubGHz_Phy/stm32_radio_driver/radio.c ****         {
1889:Middlewares/Third_Party/SubGHz_Phy/stm32_radio_driver/radio.c ****             MaxPayloadLength = config->fsk.MaxPayloadLength;
1890:Middlewares/Third_Party/SubGHz_Phy/stm32_radio_driver/radio.c ****         }
1891:Middlewares/Third_Party/SubGHz_Phy/stm32_radio_driver/radio.c ****         else
1892:Middlewares/Third_Party/SubGHz_Phy/stm32_radio_driver/radio.c ****         {
1893:Middlewares/Third_Party/SubGHz_Phy/stm32_radio_driver/radio.c ****             MaxPayloadLength = 0xFF;
1894:Middlewares/Third_Party/SubGHz_Phy/stm32_radio_driver/radio.c ****         }
1895:Middlewares/Third_Party/SubGHz_Phy/stm32_radio_driver/radio.c ****         SUBGRF_SetStopRxTimerOnPreambleDetect( ( config->lora.StopTimerOnPreambleDetect == 0 ) ? fa
1896:Middlewares/Third_Party/SubGHz_Phy/stm32_radio_driver/radio.c ****         SUBGRF_SetLoRaSymbNumTimeout( symbTimeout );
1897:Middlewares/Third_Party/SubGHz_Phy/stm32_radio_driver/radio.c **** 
1898:Middlewares/Third_Party/SubGHz_Phy/stm32_radio_driver/radio.c ****         SubgRf.ModulationParams.PacketType = PACKET_TYPE_LORA;
1899:Middlewares/Third_Party/SubGHz_Phy/stm32_radio_driver/radio.c ****         SubgRf.ModulationParams.Params.LoRa.SpreadingFactor = ( RadioLoRaSpreadingFactors_t ) confi
1900:Middlewares/Third_Party/SubGHz_Phy/stm32_radio_driver/radio.c ****         SubgRf.ModulationParams.Params.LoRa.Bandwidth = ( RadioLoRaBandwidths_t ) config->lora.Band
1901:Middlewares/Third_Party/SubGHz_Phy/stm32_radio_driver/radio.c ****         SubgRf.ModulationParams.Params.LoRa.CodingRate = ( RadioLoRaCodingRates_t ) config->lora.Co
1902:Middlewares/Third_Party/SubGHz_Phy/stm32_radio_driver/radio.c ****         switch( config->lora.LowDatarateOptimize )
1903:Middlewares/Third_Party/SubGHz_Phy/stm32_radio_driver/radio.c ****         {
1904:Middlewares/Third_Party/SubGHz_Phy/stm32_radio_driver/radio.c ****         case RADIO_LORA_LOWDR_OPT_OFF:
1905:Middlewares/Third_Party/SubGHz_Phy/stm32_radio_driver/radio.c ****             SubgRf.ModulationParams.Params.LoRa.LowDatarateOptimize = 0;
1906:Middlewares/Third_Party/SubGHz_Phy/stm32_radio_driver/radio.c ****             break;
1907:Middlewares/Third_Party/SubGHz_Phy/stm32_radio_driver/radio.c ****         case RADIO_LORA_LOWDR_OPT_ON:
1908:Middlewares/Third_Party/SubGHz_Phy/stm32_radio_driver/radio.c ****             SubgRf.ModulationParams.Params.LoRa.LowDatarateOptimize = 1;
1909:Middlewares/Third_Party/SubGHz_Phy/stm32_radio_driver/radio.c ****             break;
1910:Middlewares/Third_Party/SubGHz_Phy/stm32_radio_driver/radio.c ****         case RADIO_LORA_LOWDR_OPT_AUTO:
1911:Middlewares/Third_Party/SubGHz_Phy/stm32_radio_driver/radio.c ****             if( ( config->lora.SpreadingFactor == RADIO_LORA_SF11 ) || ( config->lora.SpreadingFact
1912:Middlewares/Third_Party/SubGHz_Phy/stm32_radio_driver/radio.c ****             {
1913:Middlewares/Third_Party/SubGHz_Phy/stm32_radio_driver/radio.c ****               SubgRf.ModulationParams.Params.LoRa.LowDatarateOptimize = 1;
1914:Middlewares/Third_Party/SubGHz_Phy/stm32_radio_driver/radio.c ****             }
1915:Middlewares/Third_Party/SubGHz_Phy/stm32_radio_driver/radio.c ****             else
ARM GAS  /tmp/ccldRdip.s 			page 88


1916:Middlewares/Third_Party/SubGHz_Phy/stm32_radio_driver/radio.c ****             {
1917:Middlewares/Third_Party/SubGHz_Phy/stm32_radio_driver/radio.c ****               SubgRf.ModulationParams.Params.LoRa.LowDatarateOptimize = 0;
1918:Middlewares/Third_Party/SubGHz_Phy/stm32_radio_driver/radio.c ****             }
1919:Middlewares/Third_Party/SubGHz_Phy/stm32_radio_driver/radio.c ****             break;
1920:Middlewares/Third_Party/SubGHz_Phy/stm32_radio_driver/radio.c ****         default:
1921:Middlewares/Third_Party/SubGHz_Phy/stm32_radio_driver/radio.c ****             break;
1922:Middlewares/Third_Party/SubGHz_Phy/stm32_radio_driver/radio.c ****         }
1923:Middlewares/Third_Party/SubGHz_Phy/stm32_radio_driver/radio.c **** 
1924:Middlewares/Third_Party/SubGHz_Phy/stm32_radio_driver/radio.c ****         SubgRf.PacketParams.PacketType = PACKET_TYPE_LORA;
1925:Middlewares/Third_Party/SubGHz_Phy/stm32_radio_driver/radio.c ****         SubgRf.PacketParams.Params.LoRa.PreambleLength = config->lora.PreambleLen;
1926:Middlewares/Third_Party/SubGHz_Phy/stm32_radio_driver/radio.c ****         SubgRf.PacketParams.Params.LoRa.HeaderType = ( RadioLoRaPacketLengthsMode_t ) config->lora.
1927:Middlewares/Third_Party/SubGHz_Phy/stm32_radio_driver/radio.c ****         SubgRf.PacketParams.Params.LoRa.PayloadLength = MaxPayloadLength;
1928:Middlewares/Third_Party/SubGHz_Phy/stm32_radio_driver/radio.c ****         SubgRf.PacketParams.Params.LoRa.CrcMode = ( RadioLoRaCrcModes_t ) config->lora.CrcMode;
1929:Middlewares/Third_Party/SubGHz_Phy/stm32_radio_driver/radio.c ****         SubgRf.PacketParams.Params.LoRa.InvertIQ = ( RadioLoRaIQModes_t ) config->lora.IqInverted;
1930:Middlewares/Third_Party/SubGHz_Phy/stm32_radio_driver/radio.c **** 
1931:Middlewares/Third_Party/SubGHz_Phy/stm32_radio_driver/radio.c ****         RadioStandby( );
1932:Middlewares/Third_Party/SubGHz_Phy/stm32_radio_driver/radio.c ****         RadioSetModem( MODEM_LORA );
1933:Middlewares/Third_Party/SubGHz_Phy/stm32_radio_driver/radio.c ****         SUBGRF_SetModulationParams( &SubgRf.ModulationParams );
1934:Middlewares/Third_Party/SubGHz_Phy/stm32_radio_driver/radio.c ****         SUBGRF_SetPacketParams( &SubgRf.PacketParams );
1935:Middlewares/Third_Party/SubGHz_Phy/stm32_radio_driver/radio.c **** 
1936:Middlewares/Third_Party/SubGHz_Phy/stm32_radio_driver/radio.c ****         // WORKAROUND - Optimizing the Inverted IQ Operation, see DS_SX1261-2_V1.2 datasheet chapte
1937:Middlewares/Third_Party/SubGHz_Phy/stm32_radio_driver/radio.c ****         if( SubgRf.PacketParams.Params.LoRa.InvertIQ == LORA_IQ_INVERTED )
1938:Middlewares/Third_Party/SubGHz_Phy/stm32_radio_driver/radio.c ****         {
1939:Middlewares/Third_Party/SubGHz_Phy/stm32_radio_driver/radio.c ****             // RegIqPolaritySetup = @address 0x0736
1940:Middlewares/Third_Party/SubGHz_Phy/stm32_radio_driver/radio.c ****             SUBGRF_WriteRegister( 0x0736, SUBGRF_ReadRegister( 0x0736 ) & ~( 1 << 2 ) );
1941:Middlewares/Third_Party/SubGHz_Phy/stm32_radio_driver/radio.c ****         }
1942:Middlewares/Third_Party/SubGHz_Phy/stm32_radio_driver/radio.c ****         else
1943:Middlewares/Third_Party/SubGHz_Phy/stm32_radio_driver/radio.c ****         {
1944:Middlewares/Third_Party/SubGHz_Phy/stm32_radio_driver/radio.c ****             // RegIqPolaritySetup @address 0x0736
1945:Middlewares/Third_Party/SubGHz_Phy/stm32_radio_driver/radio.c ****             SUBGRF_WriteRegister( 0x0736, SUBGRF_ReadRegister( 0x0736 ) | ( 1 << 2 ) );
1946:Middlewares/Third_Party/SubGHz_Phy/stm32_radio_driver/radio.c ****         }
1947:Middlewares/Third_Party/SubGHz_Phy/stm32_radio_driver/radio.c ****         // WORKAROUND END
1948:Middlewares/Third_Party/SubGHz_Phy/stm32_radio_driver/radio.c **** 
1949:Middlewares/Third_Party/SubGHz_Phy/stm32_radio_driver/radio.c ****         // Timeout Max, Timeout handled directly in SetRx function
1950:Middlewares/Third_Party/SubGHz_Phy/stm32_radio_driver/radio.c ****         SubgRf.RxTimeout = 0xFFFF;
1951:Middlewares/Third_Party/SubGHz_Phy/stm32_radio_driver/radio.c ****         break;
1952:Middlewares/Third_Party/SubGHz_Phy/stm32_radio_driver/radio.c ****     default:
1953:Middlewares/Third_Party/SubGHz_Phy/stm32_radio_driver/radio.c ****         break;
1954:Middlewares/Third_Party/SubGHz_Phy/stm32_radio_driver/radio.c ****     }
1955:Middlewares/Third_Party/SubGHz_Phy/stm32_radio_driver/radio.c ****     return status;
1956:Middlewares/Third_Party/SubGHz_Phy/stm32_radio_driver/radio.c **** }
1957:Middlewares/Third_Party/SubGHz_Phy/stm32_radio_driver/radio.c **** 
1958:Middlewares/Third_Party/SubGHz_Phy/stm32_radio_driver/radio.c **** static int32_t RadioSetTxGenericConfig( GenericModems_t modem, TxConfigGeneric_t* config, int8_t po
1959:Middlewares/Third_Party/SubGHz_Phy/stm32_radio_driver/radio.c **** {
 2621              		.loc 1 1959 1 is_stmt 1 view -0
 2622              		.cfi_startproc
 2623              		@ args = 0, pretend = 0, frame = 24
 2624              		@ frame_needed = 0, uses_anonymous_args = 0
 2625              		.loc 1 1959 1 is_stmt 0 view .LVU649
 2626 0000 2DE9F041 		push	{r4, r5, r6, r7, r8, lr}
 2627              	.LCFI38:
 2628              		.cfi_def_cfa_offset 24
 2629              		.cfi_offset 4, -24
 2630              		.cfi_offset 5, -20
 2631              		.cfi_offset 6, -16
 2632              		.cfi_offset 7, -12
 2633              		.cfi_offset 8, -8
ARM GAS  /tmp/ccldRdip.s 			page 89


 2634              		.cfi_offset 14, -4
 2635 0004 86B0     		sub	sp, sp, #24
 2636              	.LCFI39:
 2637              		.cfi_def_cfa_offset 48
 2638 0006 0546     		mov	r5, r0
 2639 0008 0C46     		mov	r4, r1
 2640 000a 1746     		mov	r7, r2
 2641 000c 1E46     		mov	r6, r3
1960:Middlewares/Third_Party/SubGHz_Phy/stm32_radio_driver/radio.c ****     uint8_t syncword[8] = {0};
 2642              		.loc 1 1960 5 is_stmt 1 view .LVU650
 2643              		.loc 1 1960 13 is_stmt 0 view .LVU651
 2644 000e 0023     		movs	r3, #0
 2645              	.LVL257:
 2646              		.loc 1 1960 13 view .LVU652
 2647 0010 0493     		str	r3, [sp, #16]
 2648 0012 0593     		str	r3, [sp, #20]
1961:Middlewares/Third_Party/SubGHz_Phy/stm32_radio_driver/radio.c ****     RFW_DeInit( ); /* switch Off FwPacketDecoding by default */
 2649              		.loc 1 1961 5 is_stmt 1 view .LVU653
 2650 0014 FFF7FEFF 		bl	RFW_DeInit
 2651              	.LVL258:
1962:Middlewares/Third_Party/SubGHz_Phy/stm32_radio_driver/radio.c ****     switch( modem )
 2652              		.loc 1 1962 5 view .LVU654
 2653 0018 012D     		cmp	r5, #1
 2654 001a 00F08780 		beq	.L215
 2655 001e 022D     		cmp	r5, #2
 2656 0020 00F0EF80 		beq	.L216
 2657 0024 65B1     		cbz	r5, .L236
 2658              	.L217:
1963:Middlewares/Third_Party/SubGHz_Phy/stm32_radio_driver/radio.c ****     {
1964:Middlewares/Third_Party/SubGHz_Phy/stm32_radio_driver/radio.c ****     case GENERIC_FSK:
1965:Middlewares/Third_Party/SubGHz_Phy/stm32_radio_driver/radio.c ****         if( ( config->fsk.BitRate == 0 ) || ( config->fsk.PreambleLen == 0 ) )
1966:Middlewares/Third_Party/SubGHz_Phy/stm32_radio_driver/radio.c ****         {
1967:Middlewares/Third_Party/SubGHz_Phy/stm32_radio_driver/radio.c ****             return -1;
1968:Middlewares/Third_Party/SubGHz_Phy/stm32_radio_driver/radio.c ****         }
1969:Middlewares/Third_Party/SubGHz_Phy/stm32_radio_driver/radio.c ****         if( config->fsk.SyncWordLength > 8 )
1970:Middlewares/Third_Party/SubGHz_Phy/stm32_radio_driver/radio.c ****         {
1971:Middlewares/Third_Party/SubGHz_Phy/stm32_radio_driver/radio.c ****             return -1;
1972:Middlewares/Third_Party/SubGHz_Phy/stm32_radio_driver/radio.c ****         }
1973:Middlewares/Third_Party/SubGHz_Phy/stm32_radio_driver/radio.c ****         else
1974:Middlewares/Third_Party/SubGHz_Phy/stm32_radio_driver/radio.c ****         {
1975:Middlewares/Third_Party/SubGHz_Phy/stm32_radio_driver/radio.c ****             for(int i = 0; i < config->fsk.SyncWordLength; i++)
1976:Middlewares/Third_Party/SubGHz_Phy/stm32_radio_driver/radio.c ****             {
1977:Middlewares/Third_Party/SubGHz_Phy/stm32_radio_driver/radio.c ****                 syncword[i] = config->fsk.SyncWord[i];
1978:Middlewares/Third_Party/SubGHz_Phy/stm32_radio_driver/radio.c ****             }
1979:Middlewares/Third_Party/SubGHz_Phy/stm32_radio_driver/radio.c ****         }
1980:Middlewares/Third_Party/SubGHz_Phy/stm32_radio_driver/radio.c ****         SubgRf.ModulationParams.PacketType = PACKET_TYPE_GFSK;
1981:Middlewares/Third_Party/SubGHz_Phy/stm32_radio_driver/radio.c ****         SubgRf.ModulationParams.Params.Gfsk.BitRate = config->fsk.BitRate;
1982:Middlewares/Third_Party/SubGHz_Phy/stm32_radio_driver/radio.c ****         SubgRf.ModulationParams.Params.Gfsk.ModulationShaping = ( RadioModShapings_t ) config->fsk.
1983:Middlewares/Third_Party/SubGHz_Phy/stm32_radio_driver/radio.c ****         SubgRf.ModulationParams.Params.Gfsk.Bandwidth = SUBGRF_GetFskBandwidthRegValue( config->fsk
1984:Middlewares/Third_Party/SubGHz_Phy/stm32_radio_driver/radio.c ****         SubgRf.ModulationParams.Params.Gfsk.Fdev = config->fsk.FrequencyDeviation;
1985:Middlewares/Third_Party/SubGHz_Phy/stm32_radio_driver/radio.c ****     
1986:Middlewares/Third_Party/SubGHz_Phy/stm32_radio_driver/radio.c ****         SubgRf.PacketParams.PacketType = PACKET_TYPE_GFSK;
1987:Middlewares/Third_Party/SubGHz_Phy/stm32_radio_driver/radio.c ****         SubgRf.PacketParams.Params.Gfsk.PreambleLength = ( config->fsk.PreambleLen ) << 3; // conve
1988:Middlewares/Third_Party/SubGHz_Phy/stm32_radio_driver/radio.c ****         SubgRf.PacketParams.Params.Gfsk.PreambleMinDetect = RADIO_PREAMBLE_DETECTOR_08_BITS; // don
1989:Middlewares/Third_Party/SubGHz_Phy/stm32_radio_driver/radio.c ****         SubgRf.PacketParams.Params.Gfsk.SyncWordLength = ( config->fsk.SyncWordLength ) << 3; // co
1990:Middlewares/Third_Party/SubGHz_Phy/stm32_radio_driver/radio.c ****         SubgRf.PacketParams.Params.Gfsk.AddrComp = RADIO_ADDRESSCOMP_FILT_OFF; // don't care in tx
1991:Middlewares/Third_Party/SubGHz_Phy/stm32_radio_driver/radio.c **** 
ARM GAS  /tmp/ccldRdip.s 			page 90


1992:Middlewares/Third_Party/SubGHz_Phy/stm32_radio_driver/radio.c ****         if( ( config->fsk.Whitening == RADIO_FSK_DC_IBM_WHITENING ) || ( config->fsk.HeaderType == 
1993:Middlewares/Third_Party/SubGHz_Phy/stm32_radio_driver/radio.c ****         {
1994:Middlewares/Third_Party/SubGHz_Phy/stm32_radio_driver/radio.c ****             /* Supports only RADIO_FSK_CRC_2_BYTES_IBM or RADIO_FSK_CRC_2_BYTES_CCIT */
1995:Middlewares/Third_Party/SubGHz_Phy/stm32_radio_driver/radio.c ****             if( ( config->fsk.CrcLength != RADIO_FSK_CRC_2_BYTES_IBM ) && ( config->fsk.CrcLength !
1996:Middlewares/Third_Party/SubGHz_Phy/stm32_radio_driver/radio.c ****             {
1997:Middlewares/Third_Party/SubGHz_Phy/stm32_radio_driver/radio.c ****                 return -1;
1998:Middlewares/Third_Party/SubGHz_Phy/stm32_radio_driver/radio.c ****             }
1999:Middlewares/Third_Party/SubGHz_Phy/stm32_radio_driver/radio.c ****             ConfigGeneric_t ConfigGeneric;
2000:Middlewares/Third_Party/SubGHz_Phy/stm32_radio_driver/radio.c ****             ConfigGeneric.rtx = CONFIG_TX;
2001:Middlewares/Third_Party/SubGHz_Phy/stm32_radio_driver/radio.c ****             ConfigGeneric.TxConfig = config;
2002:Middlewares/Third_Party/SubGHz_Phy/stm32_radio_driver/radio.c ****             if( 0UL != RFW_Init( &ConfigGeneric, RadioEvents, &TxTimeoutTimer ) )
2003:Middlewares/Third_Party/SubGHz_Phy/stm32_radio_driver/radio.c ****             {
2004:Middlewares/Third_Party/SubGHz_Phy/stm32_radio_driver/radio.c ****               return -1;
2005:Middlewares/Third_Party/SubGHz_Phy/stm32_radio_driver/radio.c ****             }
2006:Middlewares/Third_Party/SubGHz_Phy/stm32_radio_driver/radio.c ****             /* whitening off, will be processed by FW, switch off built-in radio whitening */
2007:Middlewares/Third_Party/SubGHz_Phy/stm32_radio_driver/radio.c ****             SubgRf.PacketParams.Params.Gfsk.DcFree = ( RadioDcFree_t ) RADIO_FSK_DC_FREE_OFF;
2008:Middlewares/Third_Party/SubGHz_Phy/stm32_radio_driver/radio.c ****             /* Crc processed by FW, switch off built-in radio Crc */
2009:Middlewares/Third_Party/SubGHz_Phy/stm32_radio_driver/radio.c ****             SubgRf.PacketParams.Params.Gfsk.CrcLength = (RadioCrcTypes_t) RADIO_CRC_OFF;
2010:Middlewares/Third_Party/SubGHz_Phy/stm32_radio_driver/radio.c ****             /* length contained in Tx, but will be processed by FW after de-whitening */
2011:Middlewares/Third_Party/SubGHz_Phy/stm32_radio_driver/radio.c ****             SubgRf.PacketParams.Params.Gfsk.HeaderType = ( RadioPacketLengthModes_t ) RADIO_PACKET_
2012:Middlewares/Third_Party/SubGHz_Phy/stm32_radio_driver/radio.c ****         }
2013:Middlewares/Third_Party/SubGHz_Phy/stm32_radio_driver/radio.c ****         else
2014:Middlewares/Third_Party/SubGHz_Phy/stm32_radio_driver/radio.c ****         {
2015:Middlewares/Third_Party/SubGHz_Phy/stm32_radio_driver/radio.c ****           SubgRf.PacketParams.Params.Gfsk.CrcLength = ( RadioCrcTypes_t ) config->fsk.CrcLength;
2016:Middlewares/Third_Party/SubGHz_Phy/stm32_radio_driver/radio.c ****           SubgRf.PacketParams.Params.Gfsk.DcFree = ( RadioDcFree_t ) config->fsk.Whitening;
2017:Middlewares/Third_Party/SubGHz_Phy/stm32_radio_driver/radio.c ****           SubgRf.PacketParams.Params.Gfsk.HeaderType = ( RadioPacketLengthModes_t ) config->fsk.Hea
2018:Middlewares/Third_Party/SubGHz_Phy/stm32_radio_driver/radio.c ****         }
2019:Middlewares/Third_Party/SubGHz_Phy/stm32_radio_driver/radio.c **** 
2020:Middlewares/Third_Party/SubGHz_Phy/stm32_radio_driver/radio.c ****         RadioStandby( );
2021:Middlewares/Third_Party/SubGHz_Phy/stm32_radio_driver/radio.c ****         RadioSetModem( MODEM_FSK );
2022:Middlewares/Third_Party/SubGHz_Phy/stm32_radio_driver/radio.c ****         SUBGRF_SetModulationParams( &SubgRf.ModulationParams );
2023:Middlewares/Third_Party/SubGHz_Phy/stm32_radio_driver/radio.c ****         SUBGRF_SetPacketParams( &SubgRf.PacketParams );
2024:Middlewares/Third_Party/SubGHz_Phy/stm32_radio_driver/radio.c ****         SUBGRF_SetSyncWord( syncword );
2025:Middlewares/Third_Party/SubGHz_Phy/stm32_radio_driver/radio.c ****         SUBGRF_SetWhiteningSeed( config->fsk.whiteSeed );
2026:Middlewares/Third_Party/SubGHz_Phy/stm32_radio_driver/radio.c ****         SUBGRF_SetCrcPolynomial(config->fsk.CrcPolynomial );
2027:Middlewares/Third_Party/SubGHz_Phy/stm32_radio_driver/radio.c ****         break;
2028:Middlewares/Third_Party/SubGHz_Phy/stm32_radio_driver/radio.c ****     case GENERIC_LORA:
2029:Middlewares/Third_Party/SubGHz_Phy/stm32_radio_driver/radio.c ****         SubgRf.ModulationParams.PacketType = PACKET_TYPE_LORA;
2030:Middlewares/Third_Party/SubGHz_Phy/stm32_radio_driver/radio.c ****         SubgRf.ModulationParams.Params.LoRa.SpreadingFactor = ( RadioLoRaSpreadingFactors_t ) confi
2031:Middlewares/Third_Party/SubGHz_Phy/stm32_radio_driver/radio.c ****         SubgRf.ModulationParams.Params.LoRa.Bandwidth = ( RadioLoRaBandwidths_t ) config->lora.Band
2032:Middlewares/Third_Party/SubGHz_Phy/stm32_radio_driver/radio.c ****         SubgRf.ModulationParams.Params.LoRa.CodingRate = ( RadioLoRaCodingRates_t ) config->lora.Co
2033:Middlewares/Third_Party/SubGHz_Phy/stm32_radio_driver/radio.c ****         switch( config->lora.LowDatarateOptimize )
2034:Middlewares/Third_Party/SubGHz_Phy/stm32_radio_driver/radio.c ****         {
2035:Middlewares/Third_Party/SubGHz_Phy/stm32_radio_driver/radio.c ****           case RADIO_LORA_LOWDR_OPT_OFF:
2036:Middlewares/Third_Party/SubGHz_Phy/stm32_radio_driver/radio.c ****             SubgRf.ModulationParams.Params.LoRa.LowDatarateOptimize = 0;
2037:Middlewares/Third_Party/SubGHz_Phy/stm32_radio_driver/radio.c ****             break;
2038:Middlewares/Third_Party/SubGHz_Phy/stm32_radio_driver/radio.c ****           case RADIO_LORA_LOWDR_OPT_ON:
2039:Middlewares/Third_Party/SubGHz_Phy/stm32_radio_driver/radio.c ****             SubgRf.ModulationParams.Params.LoRa.LowDatarateOptimize = 1;
2040:Middlewares/Third_Party/SubGHz_Phy/stm32_radio_driver/radio.c ****             break;
2041:Middlewares/Third_Party/SubGHz_Phy/stm32_radio_driver/radio.c ****           case RADIO_LORA_LOWDR_OPT_AUTO:
2042:Middlewares/Third_Party/SubGHz_Phy/stm32_radio_driver/radio.c ****             if( ( config->lora.SpreadingFactor == RADIO_LORA_SF11 ) || ( config->lora.SpreadingFact
2043:Middlewares/Third_Party/SubGHz_Phy/stm32_radio_driver/radio.c ****             {
2044:Middlewares/Third_Party/SubGHz_Phy/stm32_radio_driver/radio.c ****               SubgRf.ModulationParams.Params.LoRa.LowDatarateOptimize = 1;
2045:Middlewares/Third_Party/SubGHz_Phy/stm32_radio_driver/radio.c ****             }
2046:Middlewares/Third_Party/SubGHz_Phy/stm32_radio_driver/radio.c ****             else
2047:Middlewares/Third_Party/SubGHz_Phy/stm32_radio_driver/radio.c ****             {
2048:Middlewares/Third_Party/SubGHz_Phy/stm32_radio_driver/radio.c ****               SubgRf.ModulationParams.Params.LoRa.LowDatarateOptimize = 0;
ARM GAS  /tmp/ccldRdip.s 			page 91


2049:Middlewares/Third_Party/SubGHz_Phy/stm32_radio_driver/radio.c ****             }
2050:Middlewares/Third_Party/SubGHz_Phy/stm32_radio_driver/radio.c ****             break;
2051:Middlewares/Third_Party/SubGHz_Phy/stm32_radio_driver/radio.c ****           default:
2052:Middlewares/Third_Party/SubGHz_Phy/stm32_radio_driver/radio.c ****             break;
2053:Middlewares/Third_Party/SubGHz_Phy/stm32_radio_driver/radio.c ****         }
2054:Middlewares/Third_Party/SubGHz_Phy/stm32_radio_driver/radio.c **** 
2055:Middlewares/Third_Party/SubGHz_Phy/stm32_radio_driver/radio.c ****         SubgRf.PacketParams.PacketType = PACKET_TYPE_LORA;
2056:Middlewares/Third_Party/SubGHz_Phy/stm32_radio_driver/radio.c ****         SubgRf.PacketParams.Params.LoRa.PreambleLength = config->lora.PreambleLen;
2057:Middlewares/Third_Party/SubGHz_Phy/stm32_radio_driver/radio.c ****         SubgRf.PacketParams.Params.LoRa.HeaderType = ( RadioLoRaPacketLengthsMode_t ) config->lora.
2058:Middlewares/Third_Party/SubGHz_Phy/stm32_radio_driver/radio.c ****         SubgRf.PacketParams.Params.LoRa.CrcMode = ( RadioLoRaCrcModes_t ) config->lora.CrcMode;
2059:Middlewares/Third_Party/SubGHz_Phy/stm32_radio_driver/radio.c ****         SubgRf.PacketParams.Params.LoRa.InvertIQ = ( RadioLoRaIQModes_t ) config->lora.IqInverted;
2060:Middlewares/Third_Party/SubGHz_Phy/stm32_radio_driver/radio.c **** 
2061:Middlewares/Third_Party/SubGHz_Phy/stm32_radio_driver/radio.c ****         RadioStandby( );
2062:Middlewares/Third_Party/SubGHz_Phy/stm32_radio_driver/radio.c ****         RadioSetModem( MODEM_LORA );
2063:Middlewares/Third_Party/SubGHz_Phy/stm32_radio_driver/radio.c ****         SUBGRF_SetModulationParams( &SubgRf.ModulationParams );
2064:Middlewares/Third_Party/SubGHz_Phy/stm32_radio_driver/radio.c ****         SUBGRF_SetPacketParams( &SubgRf.PacketParams );
2065:Middlewares/Third_Party/SubGHz_Phy/stm32_radio_driver/radio.c ****         // WORKAROUND - Modulation Quality with 500 kHz LoRa Bandwidth, see DS_SX1261-2_V1.2 datash
2066:Middlewares/Third_Party/SubGHz_Phy/stm32_radio_driver/radio.c ****         if( SubgRf.ModulationParams.Params.LoRa.Bandwidth == LORA_BW_500 )
2067:Middlewares/Third_Party/SubGHz_Phy/stm32_radio_driver/radio.c ****         {
2068:Middlewares/Third_Party/SubGHz_Phy/stm32_radio_driver/radio.c ****             // RegTxModulation = @address 0x0889
2069:Middlewares/Third_Party/SubGHz_Phy/stm32_radio_driver/radio.c ****             SUBGRF_WriteRegister( 0x0889, SUBGRF_ReadRegister( 0x0889 ) & ~( 1 << 2 ) );
2070:Middlewares/Third_Party/SubGHz_Phy/stm32_radio_driver/radio.c ****         }
2071:Middlewares/Third_Party/SubGHz_Phy/stm32_radio_driver/radio.c ****         else
2072:Middlewares/Third_Party/SubGHz_Phy/stm32_radio_driver/radio.c ****         {
2073:Middlewares/Third_Party/SubGHz_Phy/stm32_radio_driver/radio.c ****             // RegTxModulation = @address 0x0889
2074:Middlewares/Third_Party/SubGHz_Phy/stm32_radio_driver/radio.c ****             SUBGRF_WriteRegister( 0x0889, SUBGRF_ReadRegister( 0x0889 ) | ( 1 << 2 ) );
2075:Middlewares/Third_Party/SubGHz_Phy/stm32_radio_driver/radio.c ****         }
2076:Middlewares/Third_Party/SubGHz_Phy/stm32_radio_driver/radio.c ****         // WORKAROUND END
2077:Middlewares/Third_Party/SubGHz_Phy/stm32_radio_driver/radio.c ****         break;
2078:Middlewares/Third_Party/SubGHz_Phy/stm32_radio_driver/radio.c ****     case GENERIC_BPSK:
2079:Middlewares/Third_Party/SubGHz_Phy/stm32_radio_driver/radio.c ****         if( ( config->bpsk.BitRate == 0 ) || ( config->bpsk.BitRate > 1000 ) )
2080:Middlewares/Third_Party/SubGHz_Phy/stm32_radio_driver/radio.c ****         {
2081:Middlewares/Third_Party/SubGHz_Phy/stm32_radio_driver/radio.c ****             return -1;
2082:Middlewares/Third_Party/SubGHz_Phy/stm32_radio_driver/radio.c ****         }
2083:Middlewares/Third_Party/SubGHz_Phy/stm32_radio_driver/radio.c ****         RadioSetModem( MODEM_BPSK );
2084:Middlewares/Third_Party/SubGHz_Phy/stm32_radio_driver/radio.c ****         SubgRf.ModulationParams.PacketType = PACKET_TYPE_BPSK;
2085:Middlewares/Third_Party/SubGHz_Phy/stm32_radio_driver/radio.c ****         SubgRf.ModulationParams.Params.Bpsk.BitRate = config->bpsk.BitRate;
2086:Middlewares/Third_Party/SubGHz_Phy/stm32_radio_driver/radio.c ****         SubgRf.ModulationParams.Params.Bpsk.ModulationShaping = MOD_SHAPING_DBPSK;
2087:Middlewares/Third_Party/SubGHz_Phy/stm32_radio_driver/radio.c ****         SUBGRF_SetModulationParams( &SubgRf.ModulationParams );
2088:Middlewares/Third_Party/SubGHz_Phy/stm32_radio_driver/radio.c ****         break;
2089:Middlewares/Third_Party/SubGHz_Phy/stm32_radio_driver/radio.c ****     default:
2090:Middlewares/Third_Party/SubGHz_Phy/stm32_radio_driver/radio.c ****         break;
2091:Middlewares/Third_Party/SubGHz_Phy/stm32_radio_driver/radio.c ****     }
2092:Middlewares/Third_Party/SubGHz_Phy/stm32_radio_driver/radio.c **** 
2093:Middlewares/Third_Party/SubGHz_Phy/stm32_radio_driver/radio.c ****     SubgRf.AntSwitchPaSelect = SUBGRF_SetRfTxPower( power );
 2659              		.loc 1 2093 5 view .LVU655
 2660              		.loc 1 2093 32 is_stmt 0 view .LVU656
 2661 0026 3846     		mov	r0, r7
 2662 0028 FFF7FEFF 		bl	SUBGRF_SetRfTxPower
 2663              	.LVL259:
 2664              		.loc 1 2093 30 view .LVU657
 2665 002c 854C     		ldr	r4, .L240
 2666              	.LVL260:
 2667              		.loc 1 2093 30 view .LVU658
 2668 002e 84F85600 		strb	r0, [r4, #86]
2094:Middlewares/Third_Party/SubGHz_Phy/stm32_radio_driver/radio.c ****     RFW_SetAntSwitch( SubgRf.AntSwitchPaSelect );
 2669              		.loc 1 2094 5 is_stmt 1 view .LVU659
ARM GAS  /tmp/ccldRdip.s 			page 92


 2670 0032 FFF7FEFF 		bl	RFW_SetAntSwitch
 2671              	.LVL261:
2095:Middlewares/Third_Party/SubGHz_Phy/stm32_radio_driver/radio.c ****     SubgRf.TxTimeout = timeout;
 2672              		.loc 1 2095 5 view .LVU660
 2673              		.loc 1 2095 22 is_stmt 0 view .LVU661
 2674 0036 6660     		str	r6, [r4, #4]
2096:Middlewares/Third_Party/SubGHz_Phy/stm32_radio_driver/radio.c ****     return 0;
 2675              		.loc 1 2096 5 is_stmt 1 view .LVU662
 2676              		.loc 1 2096 12 is_stmt 0 view .LVU663
 2677 0038 0020     		movs	r0, #0
 2678              	.L214:
2097:Middlewares/Third_Party/SubGHz_Phy/stm32_radio_driver/radio.c **** }
 2679              		.loc 1 2097 1 view .LVU664
 2680 003a 06B0     		add	sp, sp, #24
 2681              	.LCFI40:
 2682              		.cfi_remember_state
 2683              		.cfi_def_cfa_offset 24
 2684              		@ sp needed
 2685 003c BDE8F081 		pop	{r4, r5, r6, r7, r8, pc}
 2686              	.LVL262:
 2687              	.L236:
 2688              	.LCFI41:
 2689              		.cfi_restore_state
1965:Middlewares/Third_Party/SubGHz_Phy/stm32_radio_driver/radio.c ****         {
 2690              		.loc 1 1965 9 is_stmt 1 view .LVU665
1965:Middlewares/Third_Party/SubGHz_Phy/stm32_radio_driver/radio.c ****         {
 2691              		.loc 1 1965 26 is_stmt 0 view .LVU666
 2692 0040 A368     		ldr	r3, [r4, #8]
1965:Middlewares/Third_Party/SubGHz_Phy/stm32_radio_driver/radio.c ****         {
 2693              		.loc 1 1965 11 view .LVU667
 2694 0042 002B     		cmp	r3, #0
 2695 0044 00F0F280 		beq	.L231
1965:Middlewares/Third_Party/SubGHz_Phy/stm32_radio_driver/radio.c ****         {
 2696              		.loc 1 1965 58 discriminator 1 view .LVU668
 2697 0048 2369     		ldr	r3, [r4, #16]
1965:Middlewares/Third_Party/SubGHz_Phy/stm32_radio_driver/radio.c ****         {
 2698              		.loc 1 1965 42 discriminator 1 view .LVU669
 2699 004a 002B     		cmp	r3, #0
 2700 004c 00F0F180 		beq	.L232
1969:Middlewares/Third_Party/SubGHz_Phy/stm32_radio_driver/radio.c ****         {
 2701              		.loc 1 1969 9 is_stmt 1 view .LVU670
1969:Middlewares/Third_Party/SubGHz_Phy/stm32_radio_driver/radio.c ****         {
 2702              		.loc 1 1969 24 is_stmt 0 view .LVU671
 2703 0050 207D     		ldrb	r0, [r4, #20]	@ zero_extendqisi2
1969:Middlewares/Third_Party/SubGHz_Phy/stm32_radio_driver/radio.c ****         {
 2704              		.loc 1 1969 11 view .LVU672
 2705 0052 0828     		cmp	r0, #8
 2706 0054 00F2F080 		bhi	.L233
 2707              	.LBB4:
1975:Middlewares/Third_Party/SubGHz_Phy/stm32_radio_driver/radio.c ****             {
 2708              		.loc 1 1975 21 view .LVU673
 2709 0058 0021     		movs	r1, #0
 2710 005a 07E0     		b	.L219
 2711              	.LVL263:
 2712              	.L220:
1977:Middlewares/Third_Party/SubGHz_Phy/stm32_radio_driver/radio.c ****             }
 2713              		.loc 1 1977 17 is_stmt 1 discriminator 3 view .LVU674
ARM GAS  /tmp/ccldRdip.s 			page 93


1977:Middlewares/Third_Party/SubGHz_Phy/stm32_radio_driver/radio.c ****             }
 2714              		.loc 1 1977 42 is_stmt 0 discriminator 3 view .LVU675
 2715 005c A369     		ldr	r3, [r4, #24]
1977:Middlewares/Third_Party/SubGHz_Phy/stm32_radio_driver/radio.c ****             }
 2716              		.loc 1 1977 51 discriminator 3 view .LVU676
 2717 005e 5A5C     		ldrb	r2, [r3, r1]	@ zero_extendqisi2
1977:Middlewares/Third_Party/SubGHz_Phy/stm32_radio_driver/radio.c ****             }
 2718              		.loc 1 1977 29 discriminator 3 view .LVU677
 2719 0060 01F11803 		add	r3, r1, #24
 2720 0064 6B44     		add	r3, sp, r3
 2721 0066 03F8082C 		strb	r2, [r3, #-8]
1975:Middlewares/Third_Party/SubGHz_Phy/stm32_radio_driver/radio.c ****             {
 2722              		.loc 1 1975 60 is_stmt 1 discriminator 3 view .LVU678
1975:Middlewares/Third_Party/SubGHz_Phy/stm32_radio_driver/radio.c ****             {
 2723              		.loc 1 1975 61 is_stmt 0 discriminator 3 view .LVU679
 2724 006a 0131     		adds	r1, r1, #1
 2725              	.LVL264:
 2726              	.L219:
1975:Middlewares/Third_Party/SubGHz_Phy/stm32_radio_driver/radio.c ****             {
 2727              		.loc 1 1975 28 is_stmt 1 discriminator 1 view .LVU680
1975:Middlewares/Third_Party/SubGHz_Phy/stm32_radio_driver/radio.c ****             {
 2728              		.loc 1 1975 13 is_stmt 0 discriminator 1 view .LVU681
 2729 006c 8842     		cmp	r0, r1
 2730 006e F5DC     		bgt	.L220
 2731              	.LBE4:
1980:Middlewares/Third_Party/SubGHz_Phy/stm32_radio_driver/radio.c ****         SubgRf.ModulationParams.Params.Gfsk.BitRate = config->fsk.BitRate;
 2732              		.loc 1 1980 9 is_stmt 1 view .LVU682
1980:Middlewares/Third_Party/SubGHz_Phy/stm32_radio_driver/radio.c ****         SubgRf.ModulationParams.Params.Gfsk.BitRate = config->fsk.BitRate;
 2733              		.loc 1 1980 44 is_stmt 0 view .LVU683
 2734 0070 744D     		ldr	r5, .L240
 2735 0072 4FF00008 		mov	r8, #0
 2736 0076 85F83880 		strb	r8, [r5, #56]
1981:Middlewares/Third_Party/SubGHz_Phy/stm32_radio_driver/radio.c ****         SubgRf.ModulationParams.Params.Gfsk.ModulationShaping = ( RadioModShapings_t ) config->fsk.
 2737              		.loc 1 1981 9 is_stmt 1 view .LVU684
1981:Middlewares/Third_Party/SubGHz_Phy/stm32_radio_driver/radio.c ****         SubgRf.ModulationParams.Params.Gfsk.ModulationShaping = ( RadioModShapings_t ) config->fsk.
 2738              		.loc 1 1981 66 is_stmt 0 view .LVU685
 2739 007a A368     		ldr	r3, [r4, #8]
1981:Middlewares/Third_Party/SubGHz_Phy/stm32_radio_driver/radio.c ****         SubgRf.ModulationParams.Params.Gfsk.ModulationShaping = ( RadioModShapings_t ) config->fsk.
 2740              		.loc 1 1981 53 view .LVU686
 2741 007c EB63     		str	r3, [r5, #60]
1982:Middlewares/Third_Party/SubGHz_Phy/stm32_radio_driver/radio.c ****         SubgRf.ModulationParams.Params.Gfsk.Bandwidth = SUBGRF_GetFskBandwidthRegValue( config->fsk
 2742              		.loc 1 1982 9 is_stmt 1 view .LVU687
1982:Middlewares/Third_Party/SubGHz_Phy/stm32_radio_driver/radio.c ****         SubgRf.ModulationParams.Params.Gfsk.Bandwidth = SUBGRF_GetFskBandwidthRegValue( config->fsk
 2743              		.loc 1 1982 99 is_stmt 0 view .LVU688
 2744 007e 2378     		ldrb	r3, [r4]	@ zero_extendqisi2
1982:Middlewares/Third_Party/SubGHz_Phy/stm32_radio_driver/radio.c ****         SubgRf.ModulationParams.Params.Gfsk.Bandwidth = SUBGRF_GetFskBandwidthRegValue( config->fsk
 2745              		.loc 1 1982 63 view .LVU689
 2746 0080 85F84430 		strb	r3, [r5, #68]
1983:Middlewares/Third_Party/SubGHz_Phy/stm32_radio_driver/radio.c ****         SubgRf.ModulationParams.Params.Gfsk.Fdev = config->fsk.FrequencyDeviation;
 2747              		.loc 1 1983 9 is_stmt 1 view .LVU690
1983:Middlewares/Third_Party/SubGHz_Phy/stm32_radio_driver/radio.c ****         SubgRf.ModulationParams.Params.Gfsk.Fdev = config->fsk.FrequencyDeviation;
 2748              		.loc 1 1983 57 is_stmt 0 view .LVU691
 2749 0084 6068     		ldr	r0, [r4, #4]
 2750 0086 FFF7FEFF 		bl	SUBGRF_GetFskBandwidthRegValue
 2751              	.LVL265:
1983:Middlewares/Third_Party/SubGHz_Phy/stm32_radio_driver/radio.c ****         SubgRf.ModulationParams.Params.Gfsk.Fdev = config->fsk.FrequencyDeviation;
 2752              		.loc 1 1983 55 view .LVU692
ARM GAS  /tmp/ccldRdip.s 			page 94


 2753 008a 85F84500 		strb	r0, [r5, #69]
1984:Middlewares/Third_Party/SubGHz_Phy/stm32_radio_driver/radio.c ****     
 2754              		.loc 1 1984 9 is_stmt 1 view .LVU693
1984:Middlewares/Third_Party/SubGHz_Phy/stm32_radio_driver/radio.c ****     
 2755              		.loc 1 1984 63 is_stmt 0 view .LVU694
 2756 008e E368     		ldr	r3, [r4, #12]
1984:Middlewares/Third_Party/SubGHz_Phy/stm32_radio_driver/radio.c ****     
 2757              		.loc 1 1984 50 view .LVU695
 2758 0090 2B64     		str	r3, [r5, #64]
1986:Middlewares/Third_Party/SubGHz_Phy/stm32_radio_driver/radio.c ****         SubgRf.PacketParams.Params.Gfsk.PreambleLength = ( config->fsk.PreambleLen ) << 3; // conve
 2759              		.loc 1 1986 9 is_stmt 1 view .LVU696
1986:Middlewares/Third_Party/SubGHz_Phy/stm32_radio_driver/radio.c ****         SubgRf.PacketParams.Params.Gfsk.PreambleLength = ( config->fsk.PreambleLen ) << 3; // conve
 2760              		.loc 1 1986 40 is_stmt 0 view .LVU697
 2761 0092 85F80E80 		strb	r8, [r5, #14]
1987:Middlewares/Third_Party/SubGHz_Phy/stm32_radio_driver/radio.c ****         SubgRf.PacketParams.Params.Gfsk.PreambleMinDetect = RADIO_PREAMBLE_DETECTOR_08_BITS; // don
 2762              		.loc 1 1987 9 is_stmt 1 view .LVU698
1987:Middlewares/Third_Party/SubGHz_Phy/stm32_radio_driver/radio.c ****         SubgRf.PacketParams.Params.Gfsk.PreambleMinDetect = RADIO_PREAMBLE_DETECTOR_08_BITS; // don
 2763              		.loc 1 1987 71 is_stmt 0 view .LVU699
 2764 0096 2369     		ldr	r3, [r4, #16]
1987:Middlewares/Third_Party/SubGHz_Phy/stm32_radio_driver/radio.c ****         SubgRf.PacketParams.Params.Gfsk.PreambleMinDetect = RADIO_PREAMBLE_DETECTOR_08_BITS; // don
 2765              		.loc 1 1987 86 view .LVU700
 2766 0098 DB00     		lsls	r3, r3, #3
1987:Middlewares/Third_Party/SubGHz_Phy/stm32_radio_driver/radio.c ****         SubgRf.PacketParams.Params.Gfsk.PreambleMinDetect = RADIO_PREAMBLE_DETECTOR_08_BITS; // don
 2767              		.loc 1 1987 56 view .LVU701
 2768 009a 2B82     		strh	r3, [r5, #16]	@ movhi
1988:Middlewares/Third_Party/SubGHz_Phy/stm32_radio_driver/radio.c ****         SubgRf.PacketParams.Params.Gfsk.SyncWordLength = ( config->fsk.SyncWordLength ) << 3; // co
 2769              		.loc 1 1988 9 is_stmt 1 view .LVU702
1988:Middlewares/Third_Party/SubGHz_Phy/stm32_radio_driver/radio.c ****         SubgRf.PacketParams.Params.Gfsk.SyncWordLength = ( config->fsk.SyncWordLength ) << 3; // co
 2770              		.loc 1 1988 59 is_stmt 0 view .LVU703
 2771 009c 0423     		movs	r3, #4
 2772 009e AB74     		strb	r3, [r5, #18]
1989:Middlewares/Third_Party/SubGHz_Phy/stm32_radio_driver/radio.c ****         SubgRf.PacketParams.Params.Gfsk.AddrComp = RADIO_ADDRESSCOMP_FILT_OFF; // don't care in tx
 2773              		.loc 1 1989 9 is_stmt 1 view .LVU704
1989:Middlewares/Third_Party/SubGHz_Phy/stm32_radio_driver/radio.c ****         SubgRf.PacketParams.Params.Gfsk.AddrComp = RADIO_ADDRESSCOMP_FILT_OFF; // don't care in tx
 2774              		.loc 1 1989 71 is_stmt 0 view .LVU705
 2775 00a0 237D     		ldrb	r3, [r4, #20]	@ zero_extendqisi2
1989:Middlewares/Third_Party/SubGHz_Phy/stm32_radio_driver/radio.c ****         SubgRf.PacketParams.Params.Gfsk.AddrComp = RADIO_ADDRESSCOMP_FILT_OFF; // don't care in tx
 2776              		.loc 1 1989 89 view .LVU706
 2777 00a2 DB00     		lsls	r3, r3, #3
1989:Middlewares/Third_Party/SubGHz_Phy/stm32_radio_driver/radio.c ****         SubgRf.PacketParams.Params.Gfsk.AddrComp = RADIO_ADDRESSCOMP_FILT_OFF; // don't care in tx
 2778              		.loc 1 1989 56 view .LVU707
 2779 00a4 EB74     		strb	r3, [r5, #19]
1990:Middlewares/Third_Party/SubGHz_Phy/stm32_radio_driver/radio.c **** 
 2780              		.loc 1 1990 9 is_stmt 1 view .LVU708
1990:Middlewares/Third_Party/SubGHz_Phy/stm32_radio_driver/radio.c **** 
 2781              		.loc 1 1990 50 is_stmt 0 view .LVU709
 2782 00a6 85F81480 		strb	r8, [r5, #20]
1992:Middlewares/Third_Party/SubGHz_Phy/stm32_radio_driver/radio.c ****         {
 2783              		.loc 1 1992 9 is_stmt 1 view .LVU710
1992:Middlewares/Third_Party/SubGHz_Phy/stm32_radio_driver/radio.c ****         {
 2784              		.loc 1 1992 26 is_stmt 0 view .LVU711
 2785 00aa 94F82430 		ldrb	r3, [r4, #36]	@ zero_extendqisi2
1992:Middlewares/Third_Party/SubGHz_Phy/stm32_radio_driver/radio.c ****         {
 2786              		.loc 1 1992 11 view .LVU712
 2787 00ae 022B     		cmp	r3, #2
 2788 00b0 08D0     		beq	.L221
1992:Middlewares/Third_Party/SubGHz_Phy/stm32_radio_driver/radio.c ****         {
ARM GAS  /tmp/ccldRdip.s 			page 95


 2789              		.loc 1 1992 85 discriminator 1 view .LVU713
 2790 00b2 A27F     		ldrb	r2, [r4, #30]	@ zero_extendqisi2
1992:Middlewares/Third_Party/SubGHz_Phy/stm32_radio_driver/radio.c ****         {
 2791              		.loc 1 1992 69 discriminator 1 view .LVU714
 2792 00b4 022A     		cmp	r2, #2
 2793 00b6 05D0     		beq	.L221
2015:Middlewares/Third_Party/SubGHz_Phy/stm32_radio_driver/radio.c ****           SubgRf.PacketParams.Params.Gfsk.DcFree = ( RadioDcFree_t ) config->fsk.Whitening;
 2794              		.loc 1 2015 11 is_stmt 1 view .LVU715
2015:Middlewares/Third_Party/SubGHz_Phy/stm32_radio_driver/radio.c ****           SubgRf.PacketParams.Params.Gfsk.DcFree = ( RadioDcFree_t ) config->fsk.Whitening;
 2795              		.loc 1 2015 86 is_stmt 0 view .LVU716
 2796 00b8 E07F     		ldrb	r0, [r4, #31]	@ zero_extendqisi2
2015:Middlewares/Third_Party/SubGHz_Phy/stm32_radio_driver/radio.c ****           SubgRf.PacketParams.Params.Gfsk.DcFree = ( RadioDcFree_t ) config->fsk.Whitening;
 2797              		.loc 1 2015 53 view .LVU717
 2798 00ba 6249     		ldr	r1, .L240
 2799 00bc C875     		strb	r0, [r1, #23]
2016:Middlewares/Third_Party/SubGHz_Phy/stm32_radio_driver/radio.c ****           SubgRf.PacketParams.Params.Gfsk.HeaderType = ( RadioPacketLengthModes_t ) config->fsk.Hea
 2800              		.loc 1 2016 11 is_stmt 1 view .LVU718
2016:Middlewares/Third_Party/SubGHz_Phy/stm32_radio_driver/radio.c ****           SubgRf.PacketParams.Params.Gfsk.HeaderType = ( RadioPacketLengthModes_t ) config->fsk.Hea
 2801              		.loc 1 2016 50 is_stmt 0 view .LVU719
 2802 00be 0B76     		strb	r3, [r1, #24]
2017:Middlewares/Third_Party/SubGHz_Phy/stm32_radio_driver/radio.c ****         }
 2803              		.loc 1 2017 11 is_stmt 1 view .LVU720
2017:Middlewares/Third_Party/SubGHz_Phy/stm32_radio_driver/radio.c ****         }
 2804              		.loc 1 2017 54 is_stmt 0 view .LVU721
 2805 00c0 4A75     		strb	r2, [r1, #21]
 2806 00c2 18E0     		b	.L225
 2807              	.L221:
 2808              	.LBB5:
1995:Middlewares/Third_Party/SubGHz_Phy/stm32_radio_driver/radio.c ****             {
 2809              		.loc 1 1995 13 is_stmt 1 view .LVU722
1995:Middlewares/Third_Party/SubGHz_Phy/stm32_radio_driver/radio.c ****             {
 2810              		.loc 1 1995 30 is_stmt 0 view .LVU723
 2811 00c4 E27F     		ldrb	r2, [r4, #31]	@ zero_extendqisi2
1995:Middlewares/Third_Party/SubGHz_Phy/stm32_radio_driver/radio.c ****             {
 2812              		.loc 1 1995 72 view .LVU724
 2813 00c6 02F10F03 		add	r3, r2, #15
 2814 00ca DBB2     		uxtb	r3, r3
1995:Middlewares/Third_Party/SubGHz_Phy/stm32_radio_driver/radio.c ****             {
 2815              		.loc 1 1995 15 view .LVU725
 2816 00cc 012B     		cmp	r3, #1
 2817 00ce 01D9     		bls	.L223
1995:Middlewares/Third_Party/SubGHz_Phy/stm32_radio_driver/radio.c ****             {
 2818              		.loc 1 1995 131 discriminator 1 view .LVU726
 2819 00d0 012A     		cmp	r2, #1
 2820 00d2 28D1     		bne	.L224
 2821              	.L223:
1999:Middlewares/Third_Party/SubGHz_Phy/stm32_radio_driver/radio.c ****             ConfigGeneric.rtx = CONFIG_TX;
 2822              		.loc 1 1999 13 is_stmt 1 view .LVU727
2000:Middlewares/Third_Party/SubGHz_Phy/stm32_radio_driver/radio.c ****             ConfigGeneric.TxConfig = config;
 2823              		.loc 1 2000 13 view .LVU728
2000:Middlewares/Third_Party/SubGHz_Phy/stm32_radio_driver/radio.c ****             ConfigGeneric.TxConfig = config;
 2824              		.loc 1 2000 31 is_stmt 0 view .LVU729
 2825 00d4 0123     		movs	r3, #1
 2826 00d6 8DF80C30 		strb	r3, [sp, #12]
2001:Middlewares/Third_Party/SubGHz_Phy/stm32_radio_driver/radio.c ****             if( 0UL != RFW_Init( &ConfigGeneric, RadioEvents, &TxTimeoutTimer ) )
 2827              		.loc 1 2001 13 is_stmt 1 view .LVU730
2001:Middlewares/Third_Party/SubGHz_Phy/stm32_radio_driver/radio.c ****             if( 0UL != RFW_Init( &ConfigGeneric, RadioEvents, &TxTimeoutTimer ) )
ARM GAS  /tmp/ccldRdip.s 			page 96


 2828              		.loc 1 2001 36 is_stmt 0 view .LVU731
 2829 00da 0194     		str	r4, [sp, #4]
2002:Middlewares/Third_Party/SubGHz_Phy/stm32_radio_driver/radio.c ****             {
 2830              		.loc 1 2002 13 is_stmt 1 view .LVU732
2002:Middlewares/Third_Party/SubGHz_Phy/stm32_radio_driver/radio.c ****             {
 2831              		.loc 1 2002 24 is_stmt 0 view .LVU733
 2832 00dc 5A4A     		ldr	r2, .L240+4
 2833 00de 5B4B     		ldr	r3, .L240+8
 2834 00e0 1968     		ldr	r1, [r3]
 2835 00e2 01A8     		add	r0, sp, #4
 2836 00e4 FFF7FEFF 		bl	RFW_Init
 2837              	.LVL266:
2002:Middlewares/Third_Party/SubGHz_Phy/stm32_radio_driver/radio.c ****             {
 2838              		.loc 1 2002 15 view .LVU734
 2839 00e8 E8B9     		cbnz	r0, .L224
2007:Middlewares/Third_Party/SubGHz_Phy/stm32_radio_driver/radio.c ****             /* Crc processed by FW, switch off built-in radio Crc */
 2840              		.loc 1 2007 13 is_stmt 1 view .LVU735
2007:Middlewares/Third_Party/SubGHz_Phy/stm32_radio_driver/radio.c ****             /* Crc processed by FW, switch off built-in radio Crc */
 2841              		.loc 1 2007 52 is_stmt 0 view .LVU736
 2842 00ea 564B     		ldr	r3, .L240
 2843 00ec 0022     		movs	r2, #0
 2844 00ee 1A76     		strb	r2, [r3, #24]
2009:Middlewares/Third_Party/SubGHz_Phy/stm32_radio_driver/radio.c ****             /* length contained in Tx, but will be processed by FW after de-whitening */
 2845              		.loc 1 2009 13 is_stmt 1 view .LVU737
2009:Middlewares/Third_Party/SubGHz_Phy/stm32_radio_driver/radio.c ****             /* length contained in Tx, but will be processed by FW after de-whitening */
 2846              		.loc 1 2009 55 is_stmt 0 view .LVU738
 2847 00f0 0121     		movs	r1, #1
 2848 00f2 D975     		strb	r1, [r3, #23]
2011:Middlewares/Third_Party/SubGHz_Phy/stm32_radio_driver/radio.c ****         }
 2849              		.loc 1 2011 13 is_stmt 1 view .LVU739
2011:Middlewares/Third_Party/SubGHz_Phy/stm32_radio_driver/radio.c ****         }
 2850              		.loc 1 2011 56 is_stmt 0 view .LVU740
 2851 00f4 5A75     		strb	r2, [r3, #21]
 2852              	.L225:
2011:Middlewares/Third_Party/SubGHz_Phy/stm32_radio_driver/radio.c ****         }
 2853              		.loc 1 2011 56 view .LVU741
 2854              	.LBE5:
2020:Middlewares/Third_Party/SubGHz_Phy/stm32_radio_driver/radio.c ****         RadioSetModem( MODEM_FSK );
 2855              		.loc 1 2020 9 is_stmt 1 view .LVU742
 2856 00f6 FFF7FEFF 		bl	RadioStandby
 2857              	.LVL267:
2021:Middlewares/Third_Party/SubGHz_Phy/stm32_radio_driver/radio.c ****         SUBGRF_SetModulationParams( &SubgRf.ModulationParams );
 2858              		.loc 1 2021 9 view .LVU743
 2859 00fa 0020     		movs	r0, #0
 2860 00fc FFF7FEFF 		bl	RadioSetModem
 2861              	.LVL268:
2022:Middlewares/Third_Party/SubGHz_Phy/stm32_radio_driver/radio.c ****         SUBGRF_SetPacketParams( &SubgRf.PacketParams );
 2862              		.loc 1 2022 9 view .LVU744
 2863 0100 504D     		ldr	r5, .L240
 2864 0102 05F13800 		add	r0, r5, #56
 2865 0106 FFF7FEFF 		bl	SUBGRF_SetModulationParams
 2866              	.LVL269:
2023:Middlewares/Third_Party/SubGHz_Phy/stm32_radio_driver/radio.c ****         SUBGRF_SetSyncWord( syncword );
 2867              		.loc 1 2023 9 view .LVU745
 2868 010a 05F10E00 		add	r0, r5, #14
 2869 010e FFF7FEFF 		bl	SUBGRF_SetPacketParams
 2870              	.LVL270:
ARM GAS  /tmp/ccldRdip.s 			page 97


2024:Middlewares/Third_Party/SubGHz_Phy/stm32_radio_driver/radio.c ****         SUBGRF_SetWhiteningSeed( config->fsk.whiteSeed );
 2871              		.loc 1 2024 9 view .LVU746
 2872 0112 04A8     		add	r0, sp, #16
 2873 0114 FFF7FEFF 		bl	SUBGRF_SetSyncWord
 2874              	.LVL271:
2025:Middlewares/Third_Party/SubGHz_Phy/stm32_radio_driver/radio.c ****         SUBGRF_SetCrcPolynomial(config->fsk.CrcPolynomial );
 2875              		.loc 1 2025 9 view .LVU747
 2876 0118 A08B     		ldrh	r0, [r4, #28]
 2877 011a FFF7FEFF 		bl	SUBGRF_SetWhiteningSeed
 2878              	.LVL272:
2026:Middlewares/Third_Party/SubGHz_Phy/stm32_radio_driver/radio.c ****         break;
 2879              		.loc 1 2026 9 view .LVU748
 2880 011e 208C     		ldrh	r0, [r4, #32]
 2881 0120 FFF7FEFF 		bl	SUBGRF_SetCrcPolynomial
 2882              	.LVL273:
2027:Middlewares/Third_Party/SubGHz_Phy/stm32_radio_driver/radio.c ****     case GENERIC_LORA:
 2883              		.loc 1 2027 9 view .LVU749
 2884 0124 7FE7     		b	.L217
 2885              	.L224:
 2886              	.LBB6:
1997:Middlewares/Third_Party/SubGHz_Phy/stm32_radio_driver/radio.c ****             }
 2887              		.loc 1 1997 24 is_stmt 0 discriminator 1 view .LVU750
 2888 0126 4FF0FF30 		mov	r0, #-1
 2889 012a 86E7     		b	.L214
 2890              	.L215:
1997:Middlewares/Third_Party/SubGHz_Phy/stm32_radio_driver/radio.c ****             }
 2891              		.loc 1 1997 24 discriminator 1 view .LVU751
 2892              	.LBE6:
2029:Middlewares/Third_Party/SubGHz_Phy/stm32_radio_driver/radio.c ****         SubgRf.ModulationParams.Params.LoRa.SpreadingFactor = ( RadioLoRaSpreadingFactors_t ) confi
 2893              		.loc 1 2029 9 is_stmt 1 view .LVU752
2029:Middlewares/Third_Party/SubGHz_Phy/stm32_radio_driver/radio.c ****         SubgRf.ModulationParams.Params.LoRa.SpreadingFactor = ( RadioLoRaSpreadingFactors_t ) confi
 2894              		.loc 1 2029 44 is_stmt 0 view .LVU753
 2895 012c 454B     		ldr	r3, .L240
 2896 012e 0122     		movs	r2, #1
 2897 0130 83F83820 		strb	r2, [r3, #56]
2030:Middlewares/Third_Party/SubGHz_Phy/stm32_radio_driver/radio.c ****         SubgRf.ModulationParams.Params.LoRa.Bandwidth = ( RadioLoRaBandwidths_t ) config->lora.Band
 2898              		.loc 1 2030 9 is_stmt 1 view .LVU754
2030:Middlewares/Third_Party/SubGHz_Phy/stm32_radio_driver/radio.c ****         SubgRf.ModulationParams.Params.LoRa.Bandwidth = ( RadioLoRaBandwidths_t ) config->lora.Band
 2899              		.loc 1 2030 107 is_stmt 0 view .LVU755
 2900 0134 94F82820 		ldrb	r2, [r4, #40]	@ zero_extendqisi2
2030:Middlewares/Third_Party/SubGHz_Phy/stm32_radio_driver/radio.c ****         SubgRf.ModulationParams.Params.LoRa.Bandwidth = ( RadioLoRaBandwidths_t ) config->lora.Band
 2901              		.loc 1 2030 61 view .LVU756
 2902 0138 83F85020 		strb	r2, [r3, #80]
2031:Middlewares/Third_Party/SubGHz_Phy/stm32_radio_driver/radio.c ****         SubgRf.ModulationParams.Params.LoRa.CodingRate = ( RadioLoRaCodingRates_t ) config->lora.Co
 2903              		.loc 1 2031 9 is_stmt 1 view .LVU757
2031:Middlewares/Third_Party/SubGHz_Phy/stm32_radio_driver/radio.c ****         SubgRf.ModulationParams.Params.LoRa.CodingRate = ( RadioLoRaCodingRates_t ) config->lora.Co
 2904              		.loc 1 2031 95 is_stmt 0 view .LVU758
 2905 013c 94F82920 		ldrb	r2, [r4, #41]	@ zero_extendqisi2
2031:Middlewares/Third_Party/SubGHz_Phy/stm32_radio_driver/radio.c ****         SubgRf.ModulationParams.Params.LoRa.CodingRate = ( RadioLoRaCodingRates_t ) config->lora.Co
 2906              		.loc 1 2031 55 view .LVU759
 2907 0140 83F85120 		strb	r2, [r3, #81]
2032:Middlewares/Third_Party/SubGHz_Phy/stm32_radio_driver/radio.c ****         switch( config->lora.LowDatarateOptimize )
 2908              		.loc 1 2032 9 is_stmt 1 view .LVU760
2032:Middlewares/Third_Party/SubGHz_Phy/stm32_radio_driver/radio.c ****         switch( config->lora.LowDatarateOptimize )
 2909              		.loc 1 2032 97 is_stmt 0 view .LVU761
 2910 0144 94F82A20 		ldrb	r2, [r4, #42]	@ zero_extendqisi2
2032:Middlewares/Third_Party/SubGHz_Phy/stm32_radio_driver/radio.c ****         switch( config->lora.LowDatarateOptimize )
ARM GAS  /tmp/ccldRdip.s 			page 98


 2911              		.loc 1 2032 56 view .LVU762
 2912 0148 83F85220 		strb	r2, [r3, #82]
2033:Middlewares/Third_Party/SubGHz_Phy/stm32_radio_driver/radio.c ****         {
 2913              		.loc 1 2033 9 is_stmt 1 view .LVU763
2033:Middlewares/Third_Party/SubGHz_Phy/stm32_radio_driver/radio.c ****         {
 2914              		.loc 1 2033 29 is_stmt 0 view .LVU764
 2915 014c 94F82B30 		ldrb	r3, [r4, #43]	@ zero_extendqisi2
 2916 0150 012B     		cmp	r3, #1
 2917 0152 36D0     		beq	.L226
 2918 0154 022B     		cmp	r3, #2
 2919 0156 39D0     		beq	.L227
 2920 0158 73B3     		cbz	r3, .L237
 2921              	.L228:
2055:Middlewares/Third_Party/SubGHz_Phy/stm32_radio_driver/radio.c ****         SubgRf.PacketParams.Params.LoRa.PreambleLength = config->lora.PreambleLen;
 2922              		.loc 1 2055 9 is_stmt 1 view .LVU765
2055:Middlewares/Third_Party/SubGHz_Phy/stm32_radio_driver/radio.c ****         SubgRf.PacketParams.Params.LoRa.PreambleLength = config->lora.PreambleLen;
 2923              		.loc 1 2055 40 is_stmt 0 view .LVU766
 2924 015a 3A4D     		ldr	r5, .L240
 2925 015c 4FF00108 		mov	r8, #1
 2926 0160 85F80E80 		strb	r8, [r5, #14]
2056:Middlewares/Third_Party/SubGHz_Phy/stm32_radio_driver/radio.c ****         SubgRf.PacketParams.Params.LoRa.HeaderType = ( RadioLoRaPacketLengthsMode_t ) config->lora.
 2927              		.loc 1 2056 9 is_stmt 1 view .LVU767
2056:Middlewares/Third_Party/SubGHz_Phy/stm32_radio_driver/radio.c ****         SubgRf.PacketParams.Params.LoRa.HeaderType = ( RadioLoRaPacketLengthsMode_t ) config->lora.
 2928              		.loc 1 2056 70 is_stmt 0 view .LVU768
 2929 0164 A38D     		ldrh	r3, [r4, #44]
2056:Middlewares/Third_Party/SubGHz_Phy/stm32_radio_driver/radio.c ****         SubgRf.PacketParams.Params.LoRa.HeaderType = ( RadioLoRaPacketLengthsMode_t ) config->lora.
 2930              		.loc 1 2056 56 view .LVU769
 2931 0166 AB83     		strh	r3, [r5, #28]	@ movhi
2057:Middlewares/Third_Party/SubGHz_Phy/stm32_radio_driver/radio.c ****         SubgRf.PacketParams.Params.LoRa.CrcMode = ( RadioLoRaCrcModes_t ) config->lora.CrcMode;
 2932              		.loc 1 2057 9 is_stmt 1 view .LVU770
2057:Middlewares/Third_Party/SubGHz_Phy/stm32_radio_driver/radio.c ****         SubgRf.PacketParams.Params.LoRa.CrcMode = ( RadioLoRaCrcModes_t ) config->lora.CrcMode;
 2933              		.loc 1 2057 99 is_stmt 0 view .LVU771
 2934 0168 94F82E30 		ldrb	r3, [r4, #46]	@ zero_extendqisi2
2057:Middlewares/Third_Party/SubGHz_Phy/stm32_radio_driver/radio.c ****         SubgRf.PacketParams.Params.LoRa.CrcMode = ( RadioLoRaCrcModes_t ) config->lora.CrcMode;
 2935              		.loc 1 2057 52 view .LVU772
 2936 016c AB77     		strb	r3, [r5, #30]
2058:Middlewares/Third_Party/SubGHz_Phy/stm32_radio_driver/radio.c ****         SubgRf.PacketParams.Params.LoRa.InvertIQ = ( RadioLoRaIQModes_t ) config->lora.IqInverted;
 2937              		.loc 1 2058 9 is_stmt 1 view .LVU773
2058:Middlewares/Third_Party/SubGHz_Phy/stm32_radio_driver/radio.c ****         SubgRf.PacketParams.Params.LoRa.InvertIQ = ( RadioLoRaIQModes_t ) config->lora.IqInverted;
 2938              		.loc 1 2058 87 is_stmt 0 view .LVU774
 2939 016e 94F82F30 		ldrb	r3, [r4, #47]	@ zero_extendqisi2
2058:Middlewares/Third_Party/SubGHz_Phy/stm32_radio_driver/radio.c ****         SubgRf.PacketParams.Params.LoRa.InvertIQ = ( RadioLoRaIQModes_t ) config->lora.IqInverted;
 2940              		.loc 1 2058 49 view .LVU775
 2941 0172 85F82030 		strb	r3, [r5, #32]
2059:Middlewares/Third_Party/SubGHz_Phy/stm32_radio_driver/radio.c **** 
 2942              		.loc 1 2059 9 is_stmt 1 view .LVU776
2059:Middlewares/Third_Party/SubGHz_Phy/stm32_radio_driver/radio.c **** 
 2943              		.loc 1 2059 87 is_stmt 0 view .LVU777
 2944 0176 94F83030 		ldrb	r3, [r4, #48]	@ zero_extendqisi2
2059:Middlewares/Third_Party/SubGHz_Phy/stm32_radio_driver/radio.c **** 
 2945              		.loc 1 2059 50 view .LVU778
 2946 017a 85F82130 		strb	r3, [r5, #33]
2061:Middlewares/Third_Party/SubGHz_Phy/stm32_radio_driver/radio.c ****         RadioSetModem( MODEM_LORA );
 2947              		.loc 1 2061 9 is_stmt 1 view .LVU779
 2948 017e FFF7FEFF 		bl	RadioStandby
 2949              	.LVL274:
2062:Middlewares/Third_Party/SubGHz_Phy/stm32_radio_driver/radio.c ****         SUBGRF_SetModulationParams( &SubgRf.ModulationParams );
ARM GAS  /tmp/ccldRdip.s 			page 99


 2950              		.loc 1 2062 9 view .LVU780
 2951 0182 4046     		mov	r0, r8
 2952 0184 FFF7FEFF 		bl	RadioSetModem
 2953              	.LVL275:
2063:Middlewares/Third_Party/SubGHz_Phy/stm32_radio_driver/radio.c ****         SUBGRF_SetPacketParams( &SubgRf.PacketParams );
 2954              		.loc 1 2063 9 view .LVU781
 2955 0188 05F13800 		add	r0, r5, #56
 2956 018c FFF7FEFF 		bl	SUBGRF_SetModulationParams
 2957              	.LVL276:
2064:Middlewares/Third_Party/SubGHz_Phy/stm32_radio_driver/radio.c ****         // WORKAROUND - Modulation Quality with 500 kHz LoRa Bandwidth, see DS_SX1261-2_V1.2 datash
 2958              		.loc 1 2064 9 view .LVU782
 2959 0190 05F10E00 		add	r0, r5, #14
 2960 0194 FFF7FEFF 		bl	SUBGRF_SetPacketParams
 2961              	.LVL277:
2066:Middlewares/Third_Party/SubGHz_Phy/stm32_radio_driver/radio.c ****         {
 2962              		.loc 1 2066 9 view .LVU783
2066:Middlewares/Third_Party/SubGHz_Phy/stm32_radio_driver/radio.c ****         {
 2963              		.loc 1 2066 48 is_stmt 0 view .LVU784
 2964 0198 95F85130 		ldrb	r3, [r5, #81]	@ zero_extendqisi2
2066:Middlewares/Third_Party/SubGHz_Phy/stm32_radio_driver/radio.c ****         {
 2965              		.loc 1 2066 11 view .LVU785
 2966 019c 062B     		cmp	r3, #6
 2967 019e 25D0     		beq	.L238
2074:Middlewares/Third_Party/SubGHz_Phy/stm32_radio_driver/radio.c ****         }
 2968              		.loc 1 2074 13 is_stmt 1 view .LVU786
2074:Middlewares/Third_Party/SubGHz_Phy/stm32_radio_driver/radio.c ****         }
 2969              		.loc 1 2074 43 is_stmt 0 view .LVU787
 2970 01a0 40F68900 		movw	r0, #2185
 2971 01a4 FFF7FEFF 		bl	SUBGRF_ReadRegister
 2972              	.LVL278:
2074:Middlewares/Third_Party/SubGHz_Phy/stm32_radio_driver/radio.c ****         }
 2973              		.loc 1 2074 13 view .LVU788
 2974 01a8 40F00401 		orr	r1, r0, #4
 2975 01ac C9B2     		uxtb	r1, r1
 2976 01ae 40F68900 		movw	r0, #2185
 2977 01b2 FFF7FEFF 		bl	SUBGRF_WriteRegister
 2978              	.LVL279:
 2979 01b6 36E7     		b	.L217
 2980              	.L237:
2036:Middlewares/Third_Party/SubGHz_Phy/stm32_radio_driver/radio.c ****             break;
 2981              		.loc 1 2036 13 is_stmt 1 view .LVU789
2036:Middlewares/Third_Party/SubGHz_Phy/stm32_radio_driver/radio.c ****             break;
 2982              		.loc 1 2036 69 is_stmt 0 view .LVU790
 2983 01b8 224B     		ldr	r3, .L240
 2984 01ba 0022     		movs	r2, #0
 2985 01bc 83F85320 		strb	r2, [r3, #83]
2037:Middlewares/Third_Party/SubGHz_Phy/stm32_radio_driver/radio.c ****           case RADIO_LORA_LOWDR_OPT_ON:
 2986              		.loc 1 2037 13 is_stmt 1 view .LVU791
 2987 01c0 CBE7     		b	.L228
 2988              	.L226:
2039:Middlewares/Third_Party/SubGHz_Phy/stm32_radio_driver/radio.c ****             break;
 2989              		.loc 1 2039 13 view .LVU792
2039:Middlewares/Third_Party/SubGHz_Phy/stm32_radio_driver/radio.c ****             break;
 2990              		.loc 1 2039 69 is_stmt 0 view .LVU793
 2991 01c2 204B     		ldr	r3, .L240
 2992 01c4 0122     		movs	r2, #1
 2993 01c6 83F85320 		strb	r2, [r3, #83]
ARM GAS  /tmp/ccldRdip.s 			page 100


2040:Middlewares/Third_Party/SubGHz_Phy/stm32_radio_driver/radio.c ****           case RADIO_LORA_LOWDR_OPT_AUTO:
 2994              		.loc 1 2040 13 is_stmt 1 view .LVU794
 2995 01ca C6E7     		b	.L228
 2996              	.L227:
2042:Middlewares/Third_Party/SubGHz_Phy/stm32_radio_driver/radio.c ****             {
 2997              		.loc 1 2042 13 view .LVU795
2042:Middlewares/Third_Party/SubGHz_Phy/stm32_radio_driver/radio.c ****             {
 2998              		.loc 1 2042 31 is_stmt 0 view .LVU796
 2999 01cc 94F82830 		ldrb	r3, [r4, #40]	@ zero_extendqisi2
2042:Middlewares/Third_Party/SubGHz_Phy/stm32_radio_driver/radio.c ****             {
 3000              		.loc 1 2042 69 view .LVU797
 3001 01d0 0B3B     		subs	r3, r3, #11
 3002 01d2 DBB2     		uxtb	r3, r3
2042:Middlewares/Third_Party/SubGHz_Phy/stm32_radio_driver/radio.c ****             {
 3003              		.loc 1 2042 15 view .LVU798
 3004 01d4 012B     		cmp	r3, #1
 3005 01d6 04D9     		bls	.L239
2048:Middlewares/Third_Party/SubGHz_Phy/stm32_radio_driver/radio.c ****             }
 3006              		.loc 1 2048 15 is_stmt 1 view .LVU799
2048:Middlewares/Third_Party/SubGHz_Phy/stm32_radio_driver/radio.c ****             }
 3007              		.loc 1 2048 71 is_stmt 0 view .LVU800
 3008 01d8 1A4B     		ldr	r3, .L240
 3009 01da 0022     		movs	r2, #0
 3010 01dc 83F85320 		strb	r2, [r3, #83]
 3011 01e0 BBE7     		b	.L228
 3012              	.L239:
2044:Middlewares/Third_Party/SubGHz_Phy/stm32_radio_driver/radio.c ****             }
 3013              		.loc 1 2044 15 is_stmt 1 view .LVU801
2044:Middlewares/Third_Party/SubGHz_Phy/stm32_radio_driver/radio.c ****             }
 3014              		.loc 1 2044 71 is_stmt 0 view .LVU802
 3015 01e2 184B     		ldr	r3, .L240
 3016 01e4 0122     		movs	r2, #1
 3017 01e6 83F85320 		strb	r2, [r3, #83]
 3018 01ea B6E7     		b	.L228
 3019              	.L238:
2069:Middlewares/Third_Party/SubGHz_Phy/stm32_radio_driver/radio.c ****         }
 3020              		.loc 1 2069 13 is_stmt 1 view .LVU803
2069:Middlewares/Third_Party/SubGHz_Phy/stm32_radio_driver/radio.c ****         }
 3021              		.loc 1 2069 43 is_stmt 0 view .LVU804
 3022 01ec 40F68900 		movw	r0, #2185
 3023 01f0 FFF7FEFF 		bl	SUBGRF_ReadRegister
 3024              	.LVL280:
2069:Middlewares/Third_Party/SubGHz_Phy/stm32_radio_driver/radio.c ****         }
 3025              		.loc 1 2069 13 view .LVU805
 3026 01f4 00F0FB01 		and	r1, r0, #251
 3027 01f8 40F68900 		movw	r0, #2185
 3028 01fc FFF7FEFF 		bl	SUBGRF_WriteRegister
 3029              	.LVL281:
 3030 0200 11E7     		b	.L217
 3031              	.L216:
2079:Middlewares/Third_Party/SubGHz_Phy/stm32_radio_driver/radio.c ****         {
 3032              		.loc 1 2079 9 is_stmt 1 view .LVU806
2079:Middlewares/Third_Party/SubGHz_Phy/stm32_radio_driver/radio.c ****         {
 3033              		.loc 1 2079 27 is_stmt 0 view .LVU807
 3034 0202 636B     		ldr	r3, [r4, #52]
2079:Middlewares/Third_Party/SubGHz_Phy/stm32_radio_driver/radio.c ****         {
 3035              		.loc 1 2079 43 view .LVU808
ARM GAS  /tmp/ccldRdip.s 			page 101


 3036 0204 013B     		subs	r3, r3, #1
2079:Middlewares/Third_Party/SubGHz_Phy/stm32_radio_driver/radio.c ****         {
 3037              		.loc 1 2079 11 view .LVU809
 3038 0206 B3F57A7F 		cmp	r3, #1000
 3039 020a 18D2     		bcs	.L234
2083:Middlewares/Third_Party/SubGHz_Phy/stm32_radio_driver/radio.c ****         SubgRf.ModulationParams.PacketType = PACKET_TYPE_BPSK;
 3040              		.loc 1 2083 9 is_stmt 1 view .LVU810
 3041 020c 0220     		movs	r0, #2
 3042 020e FFF7FEFF 		bl	RadioSetModem
 3043              	.LVL282:
2084:Middlewares/Third_Party/SubGHz_Phy/stm32_radio_driver/radio.c ****         SubgRf.ModulationParams.Params.Bpsk.BitRate = config->bpsk.BitRate;
 3044              		.loc 1 2084 9 view .LVU811
2084:Middlewares/Third_Party/SubGHz_Phy/stm32_radio_driver/radio.c ****         SubgRf.ModulationParams.Params.Bpsk.BitRate = config->bpsk.BitRate;
 3045              		.loc 1 2084 44 is_stmt 0 view .LVU812
 3046 0212 0C48     		ldr	r0, .L240
 3047 0214 0223     		movs	r3, #2
 3048 0216 80F83830 		strb	r3, [r0, #56]
2085:Middlewares/Third_Party/SubGHz_Phy/stm32_radio_driver/radio.c ****         SubgRf.ModulationParams.Params.Bpsk.ModulationShaping = MOD_SHAPING_DBPSK;
 3049              		.loc 1 2085 9 is_stmt 1 view .LVU813
2085:Middlewares/Third_Party/SubGHz_Phy/stm32_radio_driver/radio.c ****         SubgRf.ModulationParams.Params.Bpsk.ModulationShaping = MOD_SHAPING_DBPSK;
 3050              		.loc 1 2085 67 is_stmt 0 view .LVU814
 3051 021a 636B     		ldr	r3, [r4, #52]
2085:Middlewares/Third_Party/SubGHz_Phy/stm32_radio_driver/radio.c ****         SubgRf.ModulationParams.Params.Bpsk.ModulationShaping = MOD_SHAPING_DBPSK;
 3052              		.loc 1 2085 53 view .LVU815
 3053 021c 8364     		str	r3, [r0, #72]
2086:Middlewares/Third_Party/SubGHz_Phy/stm32_radio_driver/radio.c ****         SUBGRF_SetModulationParams( &SubgRf.ModulationParams );
 3054              		.loc 1 2086 9 is_stmt 1 view .LVU816
2086:Middlewares/Third_Party/SubGHz_Phy/stm32_radio_driver/radio.c ****         SUBGRF_SetModulationParams( &SubgRf.ModulationParams );
 3055              		.loc 1 2086 63 is_stmt 0 view .LVU817
 3056 021e 1623     		movs	r3, #22
 3057 0220 80F84C30 		strb	r3, [r0, #76]
2087:Middlewares/Third_Party/SubGHz_Phy/stm32_radio_driver/radio.c ****         break;
 3058              		.loc 1 2087 9 is_stmt 1 view .LVU818
 3059 0224 3830     		adds	r0, r0, #56
 3060 0226 FFF7FEFF 		bl	SUBGRF_SetModulationParams
 3061              	.LVL283:
2088:Middlewares/Third_Party/SubGHz_Phy/stm32_radio_driver/radio.c ****     default:
 3062              		.loc 1 2088 9 view .LVU819
 3063 022a FCE6     		b	.L217
 3064              	.L231:
1967:Middlewares/Third_Party/SubGHz_Phy/stm32_radio_driver/radio.c ****         }
 3065              		.loc 1 1967 20 is_stmt 0 view .LVU820
 3066 022c 4FF0FF30 		mov	r0, #-1
 3067 0230 03E7     		b	.L214
 3068              	.L232:
 3069 0232 4FF0FF30 		mov	r0, #-1
 3070 0236 00E7     		b	.L214
 3071              	.L233:
1971:Middlewares/Third_Party/SubGHz_Phy/stm32_radio_driver/radio.c ****         }
 3072              		.loc 1 1971 20 view .LVU821
 3073 0238 4FF0FF30 		mov	r0, #-1
 3074 023c FDE6     		b	.L214
 3075              	.L234:
2081:Middlewares/Third_Party/SubGHz_Phy/stm32_radio_driver/radio.c ****         }
 3076              		.loc 1 2081 20 view .LVU822
 3077 023e 4FF0FF30 		mov	r0, #-1
 3078 0242 FAE6     		b	.L214
ARM GAS  /tmp/ccldRdip.s 			page 102


 3079              	.L241:
 3080              		.align	2
 3081              	.L240:
 3082 0244 00000000 		.word	.LANCHOR3
 3083 0248 00000000 		.word	.LANCHOR5
 3084 024c 00000000 		.word	.LANCHOR1
 3085              		.cfi_endproc
 3086              	.LFE1023:
 3088              		.section	.text.RadioSetRxGenericConfig,"ax",%progbits
 3089              		.align	1
 3090              		.syntax unified
 3091              		.thumb
 3092              		.thumb_func
 3093              		.fpu softvfp
 3095              	RadioSetRxGenericConfig:
 3096              	.LVL284:
 3097              	.LFB1022:
1783:Middlewares/Third_Party/SubGHz_Phy/stm32_radio_driver/radio.c ****     int32_t status = 0;
 3098              		.loc 1 1783 1 is_stmt 1 view -0
 3099              		.cfi_startproc
 3100              		@ args = 0, pretend = 0, frame = 24
 3101              		@ frame_needed = 0, uses_anonymous_args = 0
1783:Middlewares/Third_Party/SubGHz_Phy/stm32_radio_driver/radio.c ****     int32_t status = 0;
 3102              		.loc 1 1783 1 is_stmt 0 view .LVU824
 3103 0000 F0B5     		push	{r4, r5, r6, r7, lr}
 3104              	.LCFI42:
 3105              		.cfi_def_cfa_offset 20
 3106              		.cfi_offset 4, -20
 3107              		.cfi_offset 5, -16
 3108              		.cfi_offset 6, -12
 3109              		.cfi_offset 7, -8
 3110              		.cfi_offset 14, -4
 3111 0002 87B0     		sub	sp, sp, #28
 3112              	.LCFI43:
 3113              		.cfi_def_cfa_offset 48
 3114 0004 0746     		mov	r7, r0
 3115 0006 0C46     		mov	r4, r1
 3116 0008 1546     		mov	r5, r2
 3117 000a 1E46     		mov	r6, r3
1784:Middlewares/Third_Party/SubGHz_Phy/stm32_radio_driver/radio.c ****     uint8_t syncword[8] = {0};
 3118              		.loc 1 1784 5 is_stmt 1 view .LVU825
 3119              	.LVL285:
1785:Middlewares/Third_Party/SubGHz_Phy/stm32_radio_driver/radio.c ****     uint8_t MaxPayloadLength;
 3120              		.loc 1 1785 5 view .LVU826
1785:Middlewares/Third_Party/SubGHz_Phy/stm32_radio_driver/radio.c ****     uint8_t MaxPayloadLength;
 3121              		.loc 1 1785 13 is_stmt 0 view .LVU827
 3122 000c 0023     		movs	r3, #0
 3123              	.LVL286:
1785:Middlewares/Third_Party/SubGHz_Phy/stm32_radio_driver/radio.c ****     uint8_t MaxPayloadLength;
 3124              		.loc 1 1785 13 view .LVU828
 3125 000e 0493     		str	r3, [sp, #16]
 3126 0010 0593     		str	r3, [sp, #20]
1786:Middlewares/Third_Party/SubGHz_Phy/stm32_radio_driver/radio.c **** 
 3127              		.loc 1 1786 5 is_stmt 1 view .LVU829
1788:Middlewares/Third_Party/SubGHz_Phy/stm32_radio_driver/radio.c **** 
 3128              		.loc 1 1788 5 view .LVU830
 3129 0012 FFF7FEFF 		bl	RFW_DeInit
ARM GAS  /tmp/ccldRdip.s 			page 103


 3130              	.LVL287:
1790:Middlewares/Third_Party/SubGHz_Phy/stm32_radio_driver/radio.c ****     {
 3131              		.loc 1 1790 5 view .LVU831
1790:Middlewares/Third_Party/SubGHz_Phy/stm32_radio_driver/radio.c ****     {
 3132              		.loc 1 1790 7 is_stmt 0 view .LVU832
 3133 0016 05B1     		cbz	r5, .L243
1792:Middlewares/Third_Party/SubGHz_Phy/stm32_radio_driver/radio.c ****     }
 3134              		.loc 1 1792 21 view .LVU833
 3135 0018 0026     		movs	r6, #0
 3136              	.LVL288:
 3137              	.L243:
1794:Middlewares/Third_Party/SubGHz_Phy/stm32_radio_driver/radio.c **** 
 3138              		.loc 1 1794 5 is_stmt 1 view .LVU834
1794:Middlewares/Third_Party/SubGHz_Phy/stm32_radio_driver/radio.c **** 
 3139              		.loc 1 1794 57 is_stmt 0 view .LVU835
 3140 001a 003D     		subs	r5, r5, #0
1794:Middlewares/Third_Party/SubGHz_Phy/stm32_radio_driver/radio.c **** 
 3141              		.loc 1 1794 57 view .LVU836
 3142 001c 18BF     		it	ne
 3143 001e 0125     		movne	r5, #1
 3144              	.LVL289:
1794:Middlewares/Third_Party/SubGHz_Phy/stm32_radio_driver/radio.c **** 
 3145              		.loc 1 1794 25 view .LVU837
 3146 0020 944B     		ldr	r3, .L276
 3147 0022 5D70     		strb	r5, [r3, #1]
1796:Middlewares/Third_Party/SubGHz_Phy/stm32_radio_driver/radio.c ****     {
 3148              		.loc 1 1796 5 is_stmt 1 view .LVU838
 3149 0024 2FB1     		cbz	r7, .L244
 3150 0026 012F     		cmp	r7, #1
 3151 0028 00F09580 		beq	.L245
 3152 002c 0020     		movs	r0, #0
 3153              	.LVL290:
 3154              	.L242:
1956:Middlewares/Third_Party/SubGHz_Phy/stm32_radio_driver/radio.c **** 
 3155              		.loc 1 1956 1 is_stmt 0 view .LVU839
 3156 002e 07B0     		add	sp, sp, #28
 3157              	.LCFI44:
 3158              		.cfi_remember_state
 3159              		.cfi_def_cfa_offset 20
 3160              		@ sp needed
 3161 0030 F0BD     		pop	{r4, r5, r6, r7, pc}
 3162              	.LVL291:
 3163              	.L244:
 3164              	.LCFI45:
 3165              		.cfi_restore_state
1799:Middlewares/Third_Party/SubGHz_Phy/stm32_radio_driver/radio.c ****         {
 3166              		.loc 1 1799 9 is_stmt 1 view .LVU840
1799:Middlewares/Third_Party/SubGHz_Phy/stm32_radio_driver/radio.c ****         {
 3167              		.loc 1 1799 26 is_stmt 0 view .LVU841
 3168 0032 E368     		ldr	r3, [r4, #12]
1799:Middlewares/Third_Party/SubGHz_Phy/stm32_radio_driver/radio.c ****         {
 3169              		.loc 1 1799 11 view .LVU842
 3170 0034 002B     		cmp	r3, #0
 3171 0036 00F01181 		beq	.L265
1799:Middlewares/Third_Party/SubGHz_Phy/stm32_radio_driver/radio.c ****         {
 3172              		.loc 1 1799 58 discriminator 1 view .LVU843
 3173 003a 2369     		ldr	r3, [r4, #16]
ARM GAS  /tmp/ccldRdip.s 			page 104


1799:Middlewares/Third_Party/SubGHz_Phy/stm32_radio_driver/radio.c ****         {
 3174              		.loc 1 1799 42 discriminator 1 view .LVU844
 3175 003c 002B     		cmp	r3, #0
 3176 003e 00F01081 		beq	.L266
1803:Middlewares/Third_Party/SubGHz_Phy/stm32_radio_driver/radio.c ****         {
 3177              		.loc 1 1803 9 is_stmt 1 view .LVU845
1803:Middlewares/Third_Party/SubGHz_Phy/stm32_radio_driver/radio.c ****         {
 3178              		.loc 1 1803 24 is_stmt 0 view .LVU846
 3179 0042 637D     		ldrb	r3, [r4, #21]	@ zero_extendqisi2
1803:Middlewares/Third_Party/SubGHz_Phy/stm32_radio_driver/radio.c ****         {
 3180              		.loc 1 1803 11 view .LVU847
 3181 0044 082B     		cmp	r3, #8
 3182 0046 00F20F81 		bhi	.L267
 3183              	.LBB7:
1809:Middlewares/Third_Party/SubGHz_Phy/stm32_radio_driver/radio.c ****             {
 3184              		.loc 1 1809 21 view .LVU848
 3185 004a 0022     		movs	r2, #0
 3186 004c 07E0     		b	.L247
 3187              	.LVL292:
 3188              	.L248:
1811:Middlewares/Third_Party/SubGHz_Phy/stm32_radio_driver/radio.c ****             }
 3189              		.loc 1 1811 17 is_stmt 1 discriminator 3 view .LVU849
1811:Middlewares/Third_Party/SubGHz_Phy/stm32_radio_driver/radio.c ****             }
 3190              		.loc 1 1811 42 is_stmt 0 discriminator 3 view .LVU850
 3191 004e A169     		ldr	r1, [r4, #24]
1811:Middlewares/Third_Party/SubGHz_Phy/stm32_radio_driver/radio.c ****             }
 3192              		.loc 1 1811 51 discriminator 3 view .LVU851
 3193 0050 885C     		ldrb	r0, [r1, r2]	@ zero_extendqisi2
1811:Middlewares/Third_Party/SubGHz_Phy/stm32_radio_driver/radio.c ****             }
 3194              		.loc 1 1811 29 discriminator 3 view .LVU852
 3195 0052 02F11801 		add	r1, r2, #24
 3196 0056 6944     		add	r1, sp, r1
 3197 0058 01F8080C 		strb	r0, [r1, #-8]
1809:Middlewares/Third_Party/SubGHz_Phy/stm32_radio_driver/radio.c ****             {
 3198              		.loc 1 1809 60 is_stmt 1 discriminator 3 view .LVU853
1809:Middlewares/Third_Party/SubGHz_Phy/stm32_radio_driver/radio.c ****             {
 3199              		.loc 1 1809 61 is_stmt 0 discriminator 3 view .LVU854
 3200 005c 0132     		adds	r2, r2, #1
 3201              	.LVL293:
 3202              	.L247:
1809:Middlewares/Third_Party/SubGHz_Phy/stm32_radio_driver/radio.c ****             {
 3203              		.loc 1 1809 28 is_stmt 1 discriminator 1 view .LVU855
1809:Middlewares/Third_Party/SubGHz_Phy/stm32_radio_driver/radio.c ****             {
 3204              		.loc 1 1809 13 is_stmt 0 discriminator 1 view .LVU856
 3205 005e 9342     		cmp	r3, r2
 3206 0060 F5DC     		bgt	.L248
 3207              	.LBE7:
1815:Middlewares/Third_Party/SubGHz_Phy/stm32_radio_driver/radio.c **** 
 3208              		.loc 1 1815 9 is_stmt 1 view .LVU857
1815:Middlewares/Third_Party/SubGHz_Phy/stm32_radio_driver/radio.c **** 
 3209              		.loc 1 1815 61 is_stmt 0 view .LVU858
 3210 0062 2068     		ldr	r0, [r4]
1815:Middlewares/Third_Party/SubGHz_Phy/stm32_radio_driver/radio.c **** 
 3211              		.loc 1 1815 9 view .LVU859
 3212 0064 0038     		subs	r0, r0, #0
 3213 0066 18BF     		it	ne
 3214 0068 0120     		movne	r0, #1
ARM GAS  /tmp/ccldRdip.s 			page 105


 3215 006a FFF7FEFF 		bl	SUBGRF_SetStopRxTimerOnPreambleDetect
 3216              	.LVL294:
1817:Middlewares/Third_Party/SubGHz_Phy/stm32_radio_driver/radio.c ****         SubgRf.ModulationParams.Params.Gfsk.BitRate = config->fsk.BitRate;
 3217              		.loc 1 1817 9 is_stmt 1 view .LVU860
1817:Middlewares/Third_Party/SubGHz_Phy/stm32_radio_driver/radio.c ****         SubgRf.ModulationParams.Params.Gfsk.BitRate = config->fsk.BitRate;
 3218              		.loc 1 1817 44 is_stmt 0 view .LVU861
 3219 006e 814D     		ldr	r5, .L276
 3220 0070 0027     		movs	r7, #0
 3221 0072 85F83870 		strb	r7, [r5, #56]
1818:Middlewares/Third_Party/SubGHz_Phy/stm32_radio_driver/radio.c ****         SubgRf.ModulationParams.Params.Gfsk.ModulationShaping = (RadioModShapings_t) config->fsk.Mo
 3222              		.loc 1 1818 9 is_stmt 1 view .LVU862
1818:Middlewares/Third_Party/SubGHz_Phy/stm32_radio_driver/radio.c ****         SubgRf.ModulationParams.Params.Gfsk.ModulationShaping = (RadioModShapings_t) config->fsk.Mo
 3223              		.loc 1 1818 66 is_stmt 0 view .LVU863
 3224 0076 E368     		ldr	r3, [r4, #12]
1818:Middlewares/Third_Party/SubGHz_Phy/stm32_radio_driver/radio.c ****         SubgRf.ModulationParams.Params.Gfsk.ModulationShaping = (RadioModShapings_t) config->fsk.Mo
 3225              		.loc 1 1818 53 view .LVU864
 3226 0078 EB63     		str	r3, [r5, #60]
1819:Middlewares/Third_Party/SubGHz_Phy/stm32_radio_driver/radio.c ****         SubgRf.ModulationParams.Params.Gfsk.Bandwidth = SUBGRF_GetFskBandwidthRegValue( config->fsk
 3227              		.loc 1 1819 9 is_stmt 1 view .LVU865
1819:Middlewares/Third_Party/SubGHz_Phy/stm32_radio_driver/radio.c ****         SubgRf.ModulationParams.Params.Gfsk.Bandwidth = SUBGRF_GetFskBandwidthRegValue( config->fsk
 3228              		.loc 1 1819 97 is_stmt 0 view .LVU866
 3229 007a 2379     		ldrb	r3, [r4, #4]	@ zero_extendqisi2
1819:Middlewares/Third_Party/SubGHz_Phy/stm32_radio_driver/radio.c ****         SubgRf.ModulationParams.Params.Gfsk.Bandwidth = SUBGRF_GetFskBandwidthRegValue( config->fsk
 3230              		.loc 1 1819 63 view .LVU867
 3231 007c 85F84430 		strb	r3, [r5, #68]
1820:Middlewares/Third_Party/SubGHz_Phy/stm32_radio_driver/radio.c **** 
 3232              		.loc 1 1820 9 is_stmt 1 view .LVU868
1820:Middlewares/Third_Party/SubGHz_Phy/stm32_radio_driver/radio.c **** 
 3233              		.loc 1 1820 57 is_stmt 0 view .LVU869
 3234 0080 A068     		ldr	r0, [r4, #8]
 3235 0082 FFF7FEFF 		bl	SUBGRF_GetFskBandwidthRegValue
 3236              	.LVL295:
1820:Middlewares/Third_Party/SubGHz_Phy/stm32_radio_driver/radio.c **** 
 3237              		.loc 1 1820 55 view .LVU870
 3238 0086 85F84500 		strb	r0, [r5, #69]
1822:Middlewares/Third_Party/SubGHz_Phy/stm32_radio_driver/radio.c ****         SubgRf.PacketParams.Params.Gfsk.PreambleLength = ( config->fsk.PreambleLen ) << 3 ; // conv
 3239              		.loc 1 1822 9 is_stmt 1 view .LVU871
1822:Middlewares/Third_Party/SubGHz_Phy/stm32_radio_driver/radio.c ****         SubgRf.PacketParams.Params.Gfsk.PreambleLength = ( config->fsk.PreambleLen ) << 3 ; // conv
 3240              		.loc 1 1822 40 is_stmt 0 view .LVU872
 3241 008a AF73     		strb	r7, [r5, #14]
1823:Middlewares/Third_Party/SubGHz_Phy/stm32_radio_driver/radio.c ****         SubgRf.PacketParams.Params.Gfsk.PreambleMinDetect = ( RadioPreambleDetection_t ) config->fs
 3242              		.loc 1 1823 9 is_stmt 1 view .LVU873
1823:Middlewares/Third_Party/SubGHz_Phy/stm32_radio_driver/radio.c ****         SubgRf.PacketParams.Params.Gfsk.PreambleMinDetect = ( RadioPreambleDetection_t ) config->fs
 3243              		.loc 1 1823 71 is_stmt 0 view .LVU874
 3244 008c 2369     		ldr	r3, [r4, #16]
1823:Middlewares/Third_Party/SubGHz_Phy/stm32_radio_driver/radio.c ****         SubgRf.PacketParams.Params.Gfsk.PreambleMinDetect = ( RadioPreambleDetection_t ) config->fs
 3245              		.loc 1 1823 86 view .LVU875
 3246 008e DB00     		lsls	r3, r3, #3
1823:Middlewares/Third_Party/SubGHz_Phy/stm32_radio_driver/radio.c ****         SubgRf.PacketParams.Params.Gfsk.PreambleMinDetect = ( RadioPreambleDetection_t ) config->fs
 3247              		.loc 1 1823 56 view .LVU876
 3248 0090 2B82     		strh	r3, [r5, #16]	@ movhi
1824:Middlewares/Third_Party/SubGHz_Phy/stm32_radio_driver/radio.c ****         SubgRf.PacketParams.Params.Gfsk.SyncWordLength = ( config->fsk.SyncWordLength ) << 3; // co
 3249              		.loc 1 1824 9 is_stmt 1 view .LVU877
1824:Middlewares/Third_Party/SubGHz_Phy/stm32_radio_driver/radio.c ****         SubgRf.PacketParams.Params.Gfsk.SyncWordLength = ( config->fsk.SyncWordLength ) << 3; // co
 3250              		.loc 1 1824 101 is_stmt 0 view .LVU878
 3251 0092 237D     		ldrb	r3, [r4, #20]	@ zero_extendqisi2
1824:Middlewares/Third_Party/SubGHz_Phy/stm32_radio_driver/radio.c ****         SubgRf.PacketParams.Params.Gfsk.SyncWordLength = ( config->fsk.SyncWordLength ) << 3; // co
ARM GAS  /tmp/ccldRdip.s 			page 106


 3252              		.loc 1 1824 59 view .LVU879
 3253 0094 AB74     		strb	r3, [r5, #18]
1825:Middlewares/Third_Party/SubGHz_Phy/stm32_radio_driver/radio.c ****         SubgRf.PacketParams.Params.Gfsk.AddrComp = ( RadioAddressComp_t ) config->fsk.AddrComp;
 3254              		.loc 1 1825 9 is_stmt 1 view .LVU880
1825:Middlewares/Third_Party/SubGHz_Phy/stm32_radio_driver/radio.c ****         SubgRf.PacketParams.Params.Gfsk.AddrComp = ( RadioAddressComp_t ) config->fsk.AddrComp;
 3255              		.loc 1 1825 71 is_stmt 0 view .LVU881
 3256 0096 637D     		ldrb	r3, [r4, #21]	@ zero_extendqisi2
1825:Middlewares/Third_Party/SubGHz_Phy/stm32_radio_driver/radio.c ****         SubgRf.PacketParams.Params.Gfsk.AddrComp = ( RadioAddressComp_t ) config->fsk.AddrComp;
 3257              		.loc 1 1825 89 view .LVU882
 3258 0098 DB00     		lsls	r3, r3, #3
1825:Middlewares/Third_Party/SubGHz_Phy/stm32_radio_driver/radio.c ****         SubgRf.PacketParams.Params.Gfsk.AddrComp = ( RadioAddressComp_t ) config->fsk.AddrComp;
 3259              		.loc 1 1825 56 view .LVU883
 3260 009a EB74     		strb	r3, [r5, #19]
1826:Middlewares/Third_Party/SubGHz_Phy/stm32_radio_driver/radio.c **** 
 3261              		.loc 1 1826 9 is_stmt 1 view .LVU884
1826:Middlewares/Third_Party/SubGHz_Phy/stm32_radio_driver/radio.c **** 
 3262              		.loc 1 1826 86 is_stmt 0 view .LVU885
 3263 009c 94F82230 		ldrb	r3, [r4, #34]	@ zero_extendqisi2
1826:Middlewares/Third_Party/SubGHz_Phy/stm32_radio_driver/radio.c **** 
 3264              		.loc 1 1826 50 view .LVU886
 3265 00a0 2B75     		strb	r3, [r5, #20]
1828:Middlewares/Third_Party/SubGHz_Phy/stm32_radio_driver/radio.c ****         {
 3266              		.loc 1 1828 9 is_stmt 1 view .LVU887
1828:Middlewares/Third_Party/SubGHz_Phy/stm32_radio_driver/radio.c ****         {
 3267              		.loc 1 1828 24 is_stmt 0 view .LVU888
 3268 00a2 94F82330 		ldrb	r3, [r4, #35]	@ zero_extendqisi2
1828:Middlewares/Third_Party/SubGHz_Phy/stm32_radio_driver/radio.c ****         {
 3269              		.loc 1 1828 11 view .LVU889
 3270 00a6 73B9     		cbnz	r3, .L249
1830:Middlewares/Third_Party/SubGHz_Phy/stm32_radio_driver/radio.c ****         }
 3271              		.loc 1 1830 13 is_stmt 1 view .LVU890
1830:Middlewares/Third_Party/SubGHz_Phy/stm32_radio_driver/radio.c ****         }
 3272              		.loc 1 1830 72 is_stmt 0 view .LVU891
 3273 00a8 E169     		ldr	r1, [r4, #28]
1830:Middlewares/Third_Party/SubGHz_Phy/stm32_radio_driver/radio.c ****         }
 3274              		.loc 1 1830 59 view .LVU892
 3275 00aa A975     		strb	r1, [r5, #22]
 3276              	.L250:
1843:Middlewares/Third_Party/SubGHz_Phy/stm32_radio_driver/radio.c ****         {
 3277              		.loc 1 1843 9 is_stmt 1 view .LVU893
1843:Middlewares/Third_Party/SubGHz_Phy/stm32_radio_driver/radio.c ****         {
 3278              		.loc 1 1843 26 is_stmt 0 view .LVU894
 3279 00ac 94F82A20 		ldrb	r2, [r4, #42]	@ zero_extendqisi2
1843:Middlewares/Third_Party/SubGHz_Phy/stm32_radio_driver/radio.c ****         {
 3280              		.loc 1 1843 11 view .LVU895
 3281 00b0 022A     		cmp	r2, #2
 3282 00b2 12D0     		beq	.L252
1843:Middlewares/Third_Party/SubGHz_Phy/stm32_radio_driver/radio.c ****         {
 3283              		.loc 1 1843 69 discriminator 1 view .LVU896
 3284 00b4 022B     		cmp	r3, #2
 3285 00b6 10D0     		beq	.L252
1866:Middlewares/Third_Party/SubGHz_Phy/stm32_radio_driver/radio.c ****           SubgRf.PacketParams.Params.Gfsk.DcFree = ( RadioDcFree_t ) config->fsk.Whitening;
 3286              		.loc 1 1866 11 is_stmt 1 view .LVU897
1866:Middlewares/Third_Party/SubGHz_Phy/stm32_radio_driver/radio.c ****           SubgRf.PacketParams.Params.Gfsk.DcFree = ( RadioDcFree_t ) config->fsk.Whitening;
 3287              		.loc 1 1866 86 is_stmt 0 view .LVU898
 3288 00b8 94F82400 		ldrb	r0, [r4, #36]	@ zero_extendqisi2
1866:Middlewares/Third_Party/SubGHz_Phy/stm32_radio_driver/radio.c ****           SubgRf.PacketParams.Params.Gfsk.DcFree = ( RadioDcFree_t ) config->fsk.Whitening;
ARM GAS  /tmp/ccldRdip.s 			page 107


 3289              		.loc 1 1866 53 view .LVU899
 3290 00bc 6D49     		ldr	r1, .L276
 3291 00be C875     		strb	r0, [r1, #23]
1867:Middlewares/Third_Party/SubGHz_Phy/stm32_radio_driver/radio.c ****           SubgRf.PacketParams.Params.Gfsk.HeaderType = ( RadioPacketLengthModes_t ) config->fsk.Len
 3292              		.loc 1 1867 11 is_stmt 1 view .LVU900
1867:Middlewares/Third_Party/SubGHz_Phy/stm32_radio_driver/radio.c ****           SubgRf.PacketParams.Params.Gfsk.HeaderType = ( RadioPacketLengthModes_t ) config->fsk.Len
 3293              		.loc 1 1867 50 is_stmt 0 view .LVU901
 3294 00c0 0A76     		strb	r2, [r1, #24]
1868:Middlewares/Third_Party/SubGHz_Phy/stm32_radio_driver/radio.c ****         }
 3295              		.loc 1 1868 11 is_stmt 1 view .LVU902
1868:Middlewares/Third_Party/SubGHz_Phy/stm32_radio_driver/radio.c ****         }
 3296              		.loc 1 1868 54 is_stmt 0 view .LVU903
 3297 00c2 4B75     		strb	r3, [r1, #21]
 3298 00c4 23E0     		b	.L256
 3299              	.L249:
1832:Middlewares/Third_Party/SubGHz_Phy/stm32_radio_driver/radio.c ****         {
 3300              		.loc 1 1832 14 is_stmt 1 view .LVU904
1832:Middlewares/Third_Party/SubGHz_Phy/stm32_radio_driver/radio.c ****         {
 3301              		.loc 1 1832 16 is_stmt 0 view .LVU905
 3302 00c6 022B     		cmp	r3, #2
 3303 00c8 03D0     		beq	.L271
1840:Middlewares/Third_Party/SubGHz_Phy/stm32_radio_driver/radio.c ****         }
 3304              		.loc 1 1840 11 is_stmt 1 view .LVU906
1840:Middlewares/Third_Party/SubGHz_Phy/stm32_radio_driver/radio.c ****         }
 3305              		.loc 1 1840 57 is_stmt 0 view .LVU907
 3306 00ca 6A4A     		ldr	r2, .L276
 3307 00cc FF21     		movs	r1, #255
 3308 00ce 9175     		strb	r1, [r2, #22]
 3309 00d0 ECE7     		b	.L250
 3310              	.L271:
1835:Middlewares/Third_Party/SubGHz_Phy/stm32_radio_driver/radio.c ****         }
 3311              		.loc 1 1835 11 is_stmt 1 view .LVU908
1835:Middlewares/Third_Party/SubGHz_Phy/stm32_radio_driver/radio.c ****         }
 3312              		.loc 1 1835 57 is_stmt 0 view .LVU909
 3313 00d2 684A     		ldr	r2, .L276
 3314 00d4 FF21     		movs	r1, #255
 3315 00d6 9175     		strb	r1, [r2, #22]
 3316 00d8 E8E7     		b	.L250
 3317              	.L252:
 3318              	.LBB8:
1846:Middlewares/Third_Party/SubGHz_Phy/stm32_radio_driver/radio.c ****           {
 3319              		.loc 1 1846 11 is_stmt 1 view .LVU910
1846:Middlewares/Third_Party/SubGHz_Phy/stm32_radio_driver/radio.c ****           {
 3320              		.loc 1 1846 28 is_stmt 0 view .LVU911
 3321 00da 94F82420 		ldrb	r2, [r4, #36]	@ zero_extendqisi2
1846:Middlewares/Third_Party/SubGHz_Phy/stm32_radio_driver/radio.c ****           {
 3322              		.loc 1 1846 70 view .LVU912
 3323 00de 02F10F03 		add	r3, r2, #15
 3324 00e2 DBB2     		uxtb	r3, r3
1846:Middlewares/Third_Party/SubGHz_Phy/stm32_radio_driver/radio.c ****           {
 3325              		.loc 1 1846 13 view .LVU913
 3326 00e4 012B     		cmp	r3, #1
 3327 00e6 01D9     		bls	.L254
1846:Middlewares/Third_Party/SubGHz_Phy/stm32_radio_driver/radio.c ****           {
 3328              		.loc 1 1846 129 discriminator 1 view .LVU914
 3329 00e8 012A     		cmp	r2, #1
 3330 00ea 31D1     		bne	.L255
ARM GAS  /tmp/ccldRdip.s 			page 108


 3331              	.L254:
1850:Middlewares/Third_Party/SubGHz_Phy/stm32_radio_driver/radio.c ****           ConfigGeneric.rtx = CONFIG_RX;
 3332              		.loc 1 1850 11 is_stmt 1 view .LVU915
1851:Middlewares/Third_Party/SubGHz_Phy/stm32_radio_driver/radio.c ****           ConfigGeneric.RxConfig = config;
 3333              		.loc 1 1851 11 view .LVU916
1851:Middlewares/Third_Party/SubGHz_Phy/stm32_radio_driver/radio.c ****           ConfigGeneric.RxConfig = config;
 3334              		.loc 1 1851 29 is_stmt 0 view .LVU917
 3335 00ec 0023     		movs	r3, #0
 3336 00ee 8DF80C30 		strb	r3, [sp, #12]
1852:Middlewares/Third_Party/SubGHz_Phy/stm32_radio_driver/radio.c ****           if( 0UL != RFW_Init( &ConfigGeneric, RadioEvents, &RxTimeoutTimer ) )
 3337              		.loc 1 1852 11 is_stmt 1 view .LVU918
1852:Middlewares/Third_Party/SubGHz_Phy/stm32_radio_driver/radio.c ****           if( 0UL != RFW_Init( &ConfigGeneric, RadioEvents, &RxTimeoutTimer ) )
 3338              		.loc 1 1852 34 is_stmt 0 view .LVU919
 3339 00f2 0294     		str	r4, [sp, #8]
1853:Middlewares/Third_Party/SubGHz_Phy/stm32_radio_driver/radio.c ****           {
 3340              		.loc 1 1853 11 is_stmt 1 view .LVU920
1853:Middlewares/Third_Party/SubGHz_Phy/stm32_radio_driver/radio.c ****           {
 3341              		.loc 1 1853 22 is_stmt 0 view .LVU921
 3342 00f4 604A     		ldr	r2, .L276+4
 3343 00f6 614B     		ldr	r3, .L276+8
 3344 00f8 1968     		ldr	r1, [r3]
 3345 00fa 01A8     		add	r0, sp, #4
 3346 00fc FFF7FEFF 		bl	RFW_Init
 3347              	.LVL296:
1853:Middlewares/Third_Party/SubGHz_Phy/stm32_radio_driver/radio.c ****           {
 3348              		.loc 1 1853 13 view .LVU922
 3349 0100 30BB     		cbnz	r0, .L255
1858:Middlewares/Third_Party/SubGHz_Phy/stm32_radio_driver/radio.c ****           /* Crc off, Crc processed by FW, switch off built-in radio Crc*/
 3350              		.loc 1 1858 11 is_stmt 1 view .LVU923
1858:Middlewares/Third_Party/SubGHz_Phy/stm32_radio_driver/radio.c ****           /* Crc off, Crc processed by FW, switch off built-in radio Crc*/
 3351              		.loc 1 1858 50 is_stmt 0 view .LVU924
 3352 0102 5C4B     		ldr	r3, .L276
 3353 0104 0022     		movs	r2, #0
 3354 0106 1A76     		strb	r2, [r3, #24]
1860:Middlewares/Third_Party/SubGHz_Phy/stm32_radio_driver/radio.c ****           /* Length contained in Tx, but will be processed by FW after de-whitening*/
 3355              		.loc 1 1860 11 is_stmt 1 view .LVU925
1860:Middlewares/Third_Party/SubGHz_Phy/stm32_radio_driver/radio.c ****           /* Length contained in Tx, but will be processed by FW after de-whitening*/
 3356              		.loc 1 1860 53 is_stmt 0 view .LVU926
 3357 0108 0121     		movs	r1, #1
 3358 010a D975     		strb	r1, [r3, #23]
1862:Middlewares/Third_Party/SubGHz_Phy/stm32_radio_driver/radio.c ****         }
 3359              		.loc 1 1862 11 is_stmt 1 view .LVU927
1862:Middlewares/Third_Party/SubGHz_Phy/stm32_radio_driver/radio.c ****         }
 3360              		.loc 1 1862 54 is_stmt 0 view .LVU928
 3361 010c 5A75     		strb	r2, [r3, #21]
 3362              	.L256:
1862:Middlewares/Third_Party/SubGHz_Phy/stm32_radio_driver/radio.c ****         }
 3363              		.loc 1 1862 54 view .LVU929
 3364              	.LBE8:
1871:Middlewares/Third_Party/SubGHz_Phy/stm32_radio_driver/radio.c ****         RadioSetModem( MODEM_FSK );
 3365              		.loc 1 1871 9 is_stmt 1 view .LVU930
 3366 010e FFF7FEFF 		bl	RadioStandby
 3367              	.LVL297:
1872:Middlewares/Third_Party/SubGHz_Phy/stm32_radio_driver/radio.c ****         SUBGRF_SetModulationParams( &SubgRf.ModulationParams );
 3368              		.loc 1 1872 9 view .LVU931
 3369 0112 0020     		movs	r0, #0
 3370 0114 FFF7FEFF 		bl	RadioSetModem
ARM GAS  /tmp/ccldRdip.s 			page 109


 3371              	.LVL298:
1873:Middlewares/Third_Party/SubGHz_Phy/stm32_radio_driver/radio.c ****         SUBGRF_SetPacketParams( &SubgRf.PacketParams );
 3372              		.loc 1 1873 9 view .LVU932
 3373 0118 564D     		ldr	r5, .L276
 3374 011a 05F13800 		add	r0, r5, #56
 3375 011e FFF7FEFF 		bl	SUBGRF_SetModulationParams
 3376              	.LVL299:
1874:Middlewares/Third_Party/SubGHz_Phy/stm32_radio_driver/radio.c ****         SUBGRF_SetSyncWord( syncword );
 3377              		.loc 1 1874 9 view .LVU933
 3378 0122 05F10E00 		add	r0, r5, #14
 3379 0126 FFF7FEFF 		bl	SUBGRF_SetPacketParams
 3380              	.LVL300:
1875:Middlewares/Third_Party/SubGHz_Phy/stm32_radio_driver/radio.c ****         SUBGRF_SetWhiteningSeed( config->fsk.whiteSeed );
 3381              		.loc 1 1875 9 view .LVU934
 3382 012a 04A8     		add	r0, sp, #16
 3383 012c FFF7FEFF 		bl	SUBGRF_SetSyncWord
 3384              	.LVL301:
1876:Middlewares/Third_Party/SubGHz_Phy/stm32_radio_driver/radio.c ****         SUBGRF_SetCrcPolynomial( config->fsk.CrcPolynomial );
 3385              		.loc 1 1876 9 view .LVU935
 3386 0130 208C     		ldrh	r0, [r4, #32]
 3387 0132 FFF7FEFF 		bl	SUBGRF_SetWhiteningSeed
 3388              	.LVL302:
1877:Middlewares/Third_Party/SubGHz_Phy/stm32_radio_driver/radio.c ****         /* timeout unused when SubgRf.RxContinuous */
 3389              		.loc 1 1877 9 view .LVU936
 3390 0136 E08C     		ldrh	r0, [r4, #38]
 3391 0138 FFF7FEFF 		bl	SUBGRF_SetCrcPolynomial
 3392              	.LVL303:
1879:Middlewares/Third_Party/SubGHz_Phy/stm32_radio_driver/radio.c ****         break;
 3393              		.loc 1 1879 9 view .LVU937
1879:Middlewares/Third_Party/SubGHz_Phy/stm32_radio_driver/radio.c ****         break;
 3394              		.loc 1 1879 63 is_stmt 0 view .LVU938
 3395 013c 4FF4FA53 		mov	r3, #8000
 3396 0140 03FB06F6 		mul	r6, r3, r6
 3397              	.LVL304:
1879:Middlewares/Third_Party/SubGHz_Phy/stm32_radio_driver/radio.c ****         break;
 3398              		.loc 1 1879 82 view .LVU939
 3399 0144 E368     		ldr	r3, [r4, #12]
1879:Middlewares/Third_Party/SubGHz_Phy/stm32_radio_driver/radio.c ****         break;
 3400              		.loc 1 1879 28 view .LVU940
 3401 0146 B6FBF3F6 		udiv	r6, r6, r3
1879:Middlewares/Third_Party/SubGHz_Phy/stm32_radio_driver/radio.c ****         break;
 3402              		.loc 1 1879 26 view .LVU941
 3403 014a AE60     		str	r6, [r5, #8]
1880:Middlewares/Third_Party/SubGHz_Phy/stm32_radio_driver/radio.c ****     case GENERIC_LORA:
 3404              		.loc 1 1880 9 is_stmt 1 view .LVU942
1955:Middlewares/Third_Party/SubGHz_Phy/stm32_radio_driver/radio.c **** }
 3405              		.loc 1 1955 12 is_stmt 0 view .LVU943
 3406 014c 0020     		movs	r0, #0
1880:Middlewares/Third_Party/SubGHz_Phy/stm32_radio_driver/radio.c ****     case GENERIC_LORA:
 3407              		.loc 1 1880 9 view .LVU944
 3408 014e 6EE7     		b	.L242
 3409              	.LVL305:
 3410              	.L255:
 3411              	.LBB9:
1848:Middlewares/Third_Party/SubGHz_Phy/stm32_radio_driver/radio.c ****           }
 3412              		.loc 1 1848 20 discriminator 1 view .LVU945
 3413 0150 4FF0FF30 		mov	r0, #-1
ARM GAS  /tmp/ccldRdip.s 			page 110


 3414 0154 6BE7     		b	.L242
 3415              	.L245:
1848:Middlewares/Third_Party/SubGHz_Phy/stm32_radio_driver/radio.c ****           }
 3416              		.loc 1 1848 20 discriminator 1 view .LVU946
 3417              	.LBE9:
1882:Middlewares/Third_Party/SubGHz_Phy/stm32_radio_driver/radio.c ****         {
 3418              		.loc 1 1882 9 is_stmt 1 view .LVU947
1882:Middlewares/Third_Party/SubGHz_Phy/stm32_radio_driver/radio.c ****         {
 3419              		.loc 1 1882 25 is_stmt 0 view .LVU948
 3420 0156 A38E     		ldrh	r3, [r4, #52]
1882:Middlewares/Third_Party/SubGHz_Phy/stm32_radio_driver/radio.c ****         {
 3421              		.loc 1 1882 11 view .LVU949
 3422 0158 002B     		cmp	r3, #0
 3423 015a 00F08880 		beq	.L268
1887:Middlewares/Third_Party/SubGHz_Phy/stm32_radio_driver/radio.c ****         {
 3424              		.loc 1 1887 9 is_stmt 1 view .LVU950
1887:Middlewares/Third_Party/SubGHz_Phy/stm32_radio_driver/radio.c ****         {
 3425              		.loc 1 1887 25 is_stmt 0 view .LVU951
 3426 015e 94F83630 		ldrb	r3, [r4, #54]	@ zero_extendqisi2
1887:Middlewares/Third_Party/SubGHz_Phy/stm32_radio_driver/radio.c ****         {
 3427              		.loc 1 1887 11 view .LVU952
 3428 0162 012B     		cmp	r3, #1
 3429 0164 53D0     		beq	.L272
1893:Middlewares/Third_Party/SubGHz_Phy/stm32_radio_driver/radio.c ****         }
 3430              		.loc 1 1893 30 view .LVU953
 3431 0166 FF27     		movs	r7, #255
 3432              	.L257:
 3433              	.LVL306:
1895:Middlewares/Third_Party/SubGHz_Phy/stm32_radio_driver/radio.c ****         SUBGRF_SetLoRaSymbNumTimeout( symbTimeout );
 3434              		.loc 1 1895 9 is_stmt 1 view .LVU954
1895:Middlewares/Third_Party/SubGHz_Phy/stm32_radio_driver/radio.c ****         SUBGRF_SetLoRaSymbNumTimeout( symbTimeout );
 3435              		.loc 1 1895 62 is_stmt 0 view .LVU955
 3436 0168 E06A     		ldr	r0, [r4, #44]
1895:Middlewares/Third_Party/SubGHz_Phy/stm32_radio_driver/radio.c ****         SUBGRF_SetLoRaSymbNumTimeout( symbTimeout );
 3437              		.loc 1 1895 9 view .LVU956
 3438 016a 0038     		subs	r0, r0, #0
 3439 016c 18BF     		it	ne
 3440 016e 0120     		movne	r0, #1
 3441 0170 FFF7FEFF 		bl	SUBGRF_SetStopRxTimerOnPreambleDetect
 3442              	.LVL307:
1896:Middlewares/Third_Party/SubGHz_Phy/stm32_radio_driver/radio.c **** 
 3443              		.loc 1 1896 9 is_stmt 1 view .LVU957
 3444 0174 F0B2     		uxtb	r0, r6
 3445 0176 FFF7FEFF 		bl	SUBGRF_SetLoRaSymbNumTimeout
 3446              	.LVL308:
1898:Middlewares/Third_Party/SubGHz_Phy/stm32_radio_driver/radio.c ****         SubgRf.ModulationParams.Params.LoRa.SpreadingFactor = ( RadioLoRaSpreadingFactors_t ) confi
 3447              		.loc 1 1898 9 view .LVU958
1898:Middlewares/Third_Party/SubGHz_Phy/stm32_radio_driver/radio.c ****         SubgRf.ModulationParams.Params.LoRa.SpreadingFactor = ( RadioLoRaSpreadingFactors_t ) confi
 3448              		.loc 1 1898 44 is_stmt 0 view .LVU959
 3449 017a 3E4B     		ldr	r3, .L276
 3450 017c 0122     		movs	r2, #1
 3451 017e 83F83820 		strb	r2, [r3, #56]
1899:Middlewares/Third_Party/SubGHz_Phy/stm32_radio_driver/radio.c ****         SubgRf.ModulationParams.Params.LoRa.Bandwidth = ( RadioLoRaBandwidths_t ) config->lora.Band
 3452              		.loc 1 1899 9 is_stmt 1 view .LVU960
1899:Middlewares/Third_Party/SubGHz_Phy/stm32_radio_driver/radio.c ****         SubgRf.ModulationParams.Params.LoRa.Bandwidth = ( RadioLoRaBandwidths_t ) config->lora.Band
 3453              		.loc 1 1899 107 is_stmt 0 view .LVU961
 3454 0182 94F83020 		ldrb	r2, [r4, #48]	@ zero_extendqisi2
ARM GAS  /tmp/ccldRdip.s 			page 111


1899:Middlewares/Third_Party/SubGHz_Phy/stm32_radio_driver/radio.c ****         SubgRf.ModulationParams.Params.LoRa.Bandwidth = ( RadioLoRaBandwidths_t ) config->lora.Band
 3455              		.loc 1 1899 61 view .LVU962
 3456 0186 83F85020 		strb	r2, [r3, #80]
1900:Middlewares/Third_Party/SubGHz_Phy/stm32_radio_driver/radio.c ****         SubgRf.ModulationParams.Params.LoRa.CodingRate = ( RadioLoRaCodingRates_t ) config->lora.Co
 3457              		.loc 1 1900 9 is_stmt 1 view .LVU963
1900:Middlewares/Third_Party/SubGHz_Phy/stm32_radio_driver/radio.c ****         SubgRf.ModulationParams.Params.LoRa.CodingRate = ( RadioLoRaCodingRates_t ) config->lora.Co
 3458              		.loc 1 1900 95 is_stmt 0 view .LVU964
 3459 018a 94F83120 		ldrb	r2, [r4, #49]	@ zero_extendqisi2
1900:Middlewares/Third_Party/SubGHz_Phy/stm32_radio_driver/radio.c ****         SubgRf.ModulationParams.Params.LoRa.CodingRate = ( RadioLoRaCodingRates_t ) config->lora.Co
 3460              		.loc 1 1900 55 view .LVU965
 3461 018e 83F85120 		strb	r2, [r3, #81]
1901:Middlewares/Third_Party/SubGHz_Phy/stm32_radio_driver/radio.c ****         switch( config->lora.LowDatarateOptimize )
 3462              		.loc 1 1901 9 is_stmt 1 view .LVU966
1901:Middlewares/Third_Party/SubGHz_Phy/stm32_radio_driver/radio.c ****         switch( config->lora.LowDatarateOptimize )
 3463              		.loc 1 1901 97 is_stmt 0 view .LVU967
 3464 0192 94F83220 		ldrb	r2, [r4, #50]	@ zero_extendqisi2
1901:Middlewares/Third_Party/SubGHz_Phy/stm32_radio_driver/radio.c ****         switch( config->lora.LowDatarateOptimize )
 3465              		.loc 1 1901 56 view .LVU968
 3466 0196 83F85220 		strb	r2, [r3, #82]
1902:Middlewares/Third_Party/SubGHz_Phy/stm32_radio_driver/radio.c ****         {
 3467              		.loc 1 1902 9 is_stmt 1 view .LVU969
1902:Middlewares/Third_Party/SubGHz_Phy/stm32_radio_driver/radio.c ****         {
 3468              		.loc 1 1902 29 is_stmt 0 view .LVU970
 3469 019a 94F83330 		ldrb	r3, [r4, #51]	@ zero_extendqisi2
 3470 019e 012B     		cmp	r3, #1
 3471 01a0 3CD0     		beq	.L258
 3472 01a2 022B     		cmp	r3, #2
 3473 01a4 3FD0     		beq	.L259
 3474 01a6 A3B3     		cbz	r3, .L273
 3475              	.L260:
1924:Middlewares/Third_Party/SubGHz_Phy/stm32_radio_driver/radio.c ****         SubgRf.PacketParams.Params.LoRa.PreambleLength = config->lora.PreambleLen;
 3476              		.loc 1 1924 9 is_stmt 1 view .LVU971
1924:Middlewares/Third_Party/SubGHz_Phy/stm32_radio_driver/radio.c ****         SubgRf.PacketParams.Params.LoRa.PreambleLength = config->lora.PreambleLen;
 3477              		.loc 1 1924 40 is_stmt 0 view .LVU972
 3478 01a8 324D     		ldr	r5, .L276
 3479 01aa 0126     		movs	r6, #1
 3480              	.LVL309:
1924:Middlewares/Third_Party/SubGHz_Phy/stm32_radio_driver/radio.c ****         SubgRf.PacketParams.Params.LoRa.PreambleLength = config->lora.PreambleLen;
 3481              		.loc 1 1924 40 view .LVU973
 3482 01ac AE73     		strb	r6, [r5, #14]
1925:Middlewares/Third_Party/SubGHz_Phy/stm32_radio_driver/radio.c ****         SubgRf.PacketParams.Params.LoRa.HeaderType = ( RadioLoRaPacketLengthsMode_t ) config->lora.
 3483              		.loc 1 1925 9 is_stmt 1 view .LVU974
1925:Middlewares/Third_Party/SubGHz_Phy/stm32_radio_driver/radio.c ****         SubgRf.PacketParams.Params.LoRa.HeaderType = ( RadioLoRaPacketLengthsMode_t ) config->lora.
 3484              		.loc 1 1925 70 is_stmt 0 view .LVU975
 3485 01ae A38E     		ldrh	r3, [r4, #52]
1925:Middlewares/Third_Party/SubGHz_Phy/stm32_radio_driver/radio.c ****         SubgRf.PacketParams.Params.LoRa.HeaderType = ( RadioLoRaPacketLengthsMode_t ) config->lora.
 3486              		.loc 1 1925 56 view .LVU976
 3487 01b0 AB83     		strh	r3, [r5, #28]	@ movhi
1926:Middlewares/Third_Party/SubGHz_Phy/stm32_radio_driver/radio.c ****         SubgRf.PacketParams.Params.LoRa.PayloadLength = MaxPayloadLength;
 3488              		.loc 1 1926 9 is_stmt 1 view .LVU977
1926:Middlewares/Third_Party/SubGHz_Phy/stm32_radio_driver/radio.c ****         SubgRf.PacketParams.Params.LoRa.PayloadLength = MaxPayloadLength;
 3489              		.loc 1 1926 99 is_stmt 0 view .LVU978
 3490 01b2 94F83630 		ldrb	r3, [r4, #54]	@ zero_extendqisi2
1926:Middlewares/Third_Party/SubGHz_Phy/stm32_radio_driver/radio.c ****         SubgRf.PacketParams.Params.LoRa.PayloadLength = MaxPayloadLength;
 3491              		.loc 1 1926 52 view .LVU979
 3492 01b6 AB77     		strb	r3, [r5, #30]
1927:Middlewares/Third_Party/SubGHz_Phy/stm32_radio_driver/radio.c ****         SubgRf.PacketParams.Params.LoRa.CrcMode = ( RadioLoRaCrcModes_t ) config->lora.CrcMode;
ARM GAS  /tmp/ccldRdip.s 			page 112


 3493              		.loc 1 1927 9 is_stmt 1 view .LVU980
1927:Middlewares/Third_Party/SubGHz_Phy/stm32_radio_driver/radio.c ****         SubgRf.PacketParams.Params.LoRa.CrcMode = ( RadioLoRaCrcModes_t ) config->lora.CrcMode;
 3494              		.loc 1 1927 55 is_stmt 0 view .LVU981
 3495 01b8 EF77     		strb	r7, [r5, #31]
1928:Middlewares/Third_Party/SubGHz_Phy/stm32_radio_driver/radio.c ****         SubgRf.PacketParams.Params.LoRa.InvertIQ = ( RadioLoRaIQModes_t ) config->lora.IqInverted;
 3496              		.loc 1 1928 9 is_stmt 1 view .LVU982
1928:Middlewares/Third_Party/SubGHz_Phy/stm32_radio_driver/radio.c ****         SubgRf.PacketParams.Params.LoRa.InvertIQ = ( RadioLoRaIQModes_t ) config->lora.IqInverted;
 3497              		.loc 1 1928 87 is_stmt 0 view .LVU983
 3498 01ba 94F83830 		ldrb	r3, [r4, #56]	@ zero_extendqisi2
1928:Middlewares/Third_Party/SubGHz_Phy/stm32_radio_driver/radio.c ****         SubgRf.PacketParams.Params.LoRa.InvertIQ = ( RadioLoRaIQModes_t ) config->lora.IqInverted;
 3499              		.loc 1 1928 49 view .LVU984
 3500 01be 85F82030 		strb	r3, [r5, #32]
1929:Middlewares/Third_Party/SubGHz_Phy/stm32_radio_driver/radio.c **** 
 3501              		.loc 1 1929 9 is_stmt 1 view .LVU985
1929:Middlewares/Third_Party/SubGHz_Phy/stm32_radio_driver/radio.c **** 
 3502              		.loc 1 1929 87 is_stmt 0 view .LVU986
 3503 01c2 94F83930 		ldrb	r3, [r4, #57]	@ zero_extendqisi2
1929:Middlewares/Third_Party/SubGHz_Phy/stm32_radio_driver/radio.c **** 
 3504              		.loc 1 1929 50 view .LVU987
 3505 01c6 85F82130 		strb	r3, [r5, #33]
1931:Middlewares/Third_Party/SubGHz_Phy/stm32_radio_driver/radio.c ****         RadioSetModem( MODEM_LORA );
 3506              		.loc 1 1931 9 is_stmt 1 view .LVU988
 3507 01ca FFF7FEFF 		bl	RadioStandby
 3508              	.LVL310:
1932:Middlewares/Third_Party/SubGHz_Phy/stm32_radio_driver/radio.c ****         SUBGRF_SetModulationParams( &SubgRf.ModulationParams );
 3509              		.loc 1 1932 9 view .LVU989
 3510 01ce 3046     		mov	r0, r6
 3511 01d0 FFF7FEFF 		bl	RadioSetModem
 3512              	.LVL311:
1933:Middlewares/Third_Party/SubGHz_Phy/stm32_radio_driver/radio.c ****         SUBGRF_SetPacketParams( &SubgRf.PacketParams );
 3513              		.loc 1 1933 9 view .LVU990
 3514 01d4 05F13800 		add	r0, r5, #56
 3515 01d8 FFF7FEFF 		bl	SUBGRF_SetModulationParams
 3516              	.LVL312:
1934:Middlewares/Third_Party/SubGHz_Phy/stm32_radio_driver/radio.c **** 
 3517              		.loc 1 1934 9 view .LVU991
 3518 01dc 05F10E00 		add	r0, r5, #14
 3519 01e0 FFF7FEFF 		bl	SUBGRF_SetPacketParams
 3520              	.LVL313:
1937:Middlewares/Third_Party/SubGHz_Phy/stm32_radio_driver/radio.c ****         {
 3521              		.loc 1 1937 9 view .LVU992
1937:Middlewares/Third_Party/SubGHz_Phy/stm32_radio_driver/radio.c ****         {
 3522              		.loc 1 1937 44 is_stmt 0 view .LVU993
 3523 01e4 95F82130 		ldrb	r3, [r5, #33]	@ zero_extendqisi2
1937:Middlewares/Third_Party/SubGHz_Phy/stm32_radio_driver/radio.c ****         {
 3524              		.loc 1 1937 11 view .LVU994
 3525 01e8 B342     		cmp	r3, r6
 3526 01ea 2CD0     		beq	.L274
1945:Middlewares/Third_Party/SubGHz_Phy/stm32_radio_driver/radio.c ****         }
 3527              		.loc 1 1945 13 is_stmt 1 view .LVU995
1945:Middlewares/Third_Party/SubGHz_Phy/stm32_radio_driver/radio.c ****         }
 3528              		.loc 1 1945 43 is_stmt 0 view .LVU996
 3529 01ec 40F23670 		movw	r0, #1846
 3530 01f0 FFF7FEFF 		bl	SUBGRF_ReadRegister
 3531              	.LVL314:
1945:Middlewares/Third_Party/SubGHz_Phy/stm32_radio_driver/radio.c ****         }
 3532              		.loc 1 1945 13 view .LVU997
ARM GAS  /tmp/ccldRdip.s 			page 113


 3533 01f4 40F00401 		orr	r1, r0, #4
 3534 01f8 C9B2     		uxtb	r1, r1
 3535 01fa 40F23670 		movw	r0, #1846
 3536 01fe FFF7FEFF 		bl	SUBGRF_WriteRegister
 3537              	.LVL315:
 3538              	.L263:
1950:Middlewares/Third_Party/SubGHz_Phy/stm32_radio_driver/radio.c ****         break;
 3539              		.loc 1 1950 9 is_stmt 1 view .LVU998
1950:Middlewares/Third_Party/SubGHz_Phy/stm32_radio_driver/radio.c ****         break;
 3540              		.loc 1 1950 26 is_stmt 0 view .LVU999
 3541 0202 1C4B     		ldr	r3, .L276
 3542 0204 4FF6FF72 		movw	r2, #65535
 3543 0208 9A60     		str	r2, [r3, #8]
1951:Middlewares/Third_Party/SubGHz_Phy/stm32_radio_driver/radio.c ****     default:
 3544              		.loc 1 1951 9 is_stmt 1 view .LVU1000
1955:Middlewares/Third_Party/SubGHz_Phy/stm32_radio_driver/radio.c **** }
 3545              		.loc 1 1955 12 is_stmt 0 view .LVU1001
 3546 020a 0020     		movs	r0, #0
1951:Middlewares/Third_Party/SubGHz_Phy/stm32_radio_driver/radio.c ****     default:
 3547              		.loc 1 1951 9 view .LVU1002
 3548 020c 0FE7     		b	.L242
 3549              	.LVL316:
 3550              	.L272:
1889:Middlewares/Third_Party/SubGHz_Phy/stm32_radio_driver/radio.c ****         }
 3551              		.loc 1 1889 13 is_stmt 1 view .LVU1003
1889:Middlewares/Third_Party/SubGHz_Phy/stm32_radio_driver/radio.c ****         }
 3552              		.loc 1 1889 30 is_stmt 0 view .LVU1004
 3553 020e 277F     		ldrb	r7, [r4, #28]	@ zero_extendqisi2
 3554              	.LVL317:
1889:Middlewares/Third_Party/SubGHz_Phy/stm32_radio_driver/radio.c ****         }
 3555              		.loc 1 1889 30 view .LVU1005
 3556 0210 AAE7     		b	.L257
 3557              	.L273:
1905:Middlewares/Third_Party/SubGHz_Phy/stm32_radio_driver/radio.c ****             break;
 3558              		.loc 1 1905 13 is_stmt 1 view .LVU1006
1905:Middlewares/Third_Party/SubGHz_Phy/stm32_radio_driver/radio.c ****             break;
 3559              		.loc 1 1905 69 is_stmt 0 view .LVU1007
 3560 0212 184B     		ldr	r3, .L276
 3561 0214 0022     		movs	r2, #0
 3562 0216 83F85320 		strb	r2, [r3, #83]
1906:Middlewares/Third_Party/SubGHz_Phy/stm32_radio_driver/radio.c ****         case RADIO_LORA_LOWDR_OPT_ON:
 3563              		.loc 1 1906 13 is_stmt 1 view .LVU1008
 3564 021a C5E7     		b	.L260
 3565              	.L258:
1908:Middlewares/Third_Party/SubGHz_Phy/stm32_radio_driver/radio.c ****             break;
 3566              		.loc 1 1908 13 view .LVU1009
1908:Middlewares/Third_Party/SubGHz_Phy/stm32_radio_driver/radio.c ****             break;
 3567              		.loc 1 1908 69 is_stmt 0 view .LVU1010
 3568 021c 154B     		ldr	r3, .L276
 3569 021e 0122     		movs	r2, #1
 3570 0220 83F85320 		strb	r2, [r3, #83]
1909:Middlewares/Third_Party/SubGHz_Phy/stm32_radio_driver/radio.c ****         case RADIO_LORA_LOWDR_OPT_AUTO:
 3571              		.loc 1 1909 13 is_stmt 1 view .LVU1011
 3572 0224 C0E7     		b	.L260
 3573              	.L259:
1911:Middlewares/Third_Party/SubGHz_Phy/stm32_radio_driver/radio.c ****             {
 3574              		.loc 1 1911 13 view .LVU1012
ARM GAS  /tmp/ccldRdip.s 			page 114


1911:Middlewares/Third_Party/SubGHz_Phy/stm32_radio_driver/radio.c ****             {
 3575              		.loc 1 1911 31 is_stmt 0 view .LVU1013
 3576 0226 94F83030 		ldrb	r3, [r4, #48]	@ zero_extendqisi2
1911:Middlewares/Third_Party/SubGHz_Phy/stm32_radio_driver/radio.c ****             {
 3577              		.loc 1 1911 69 view .LVU1014
 3578 022a 0B3B     		subs	r3, r3, #11
 3579 022c DBB2     		uxtb	r3, r3
1911:Middlewares/Third_Party/SubGHz_Phy/stm32_radio_driver/radio.c ****             {
 3580              		.loc 1 1911 15 view .LVU1015
 3581 022e 012B     		cmp	r3, #1
 3582 0230 04D9     		bls	.L275
1917:Middlewares/Third_Party/SubGHz_Phy/stm32_radio_driver/radio.c ****             }
 3583              		.loc 1 1917 15 is_stmt 1 view .LVU1016
1917:Middlewares/Third_Party/SubGHz_Phy/stm32_radio_driver/radio.c ****             }
 3584              		.loc 1 1917 71 is_stmt 0 view .LVU1017
 3585 0232 104B     		ldr	r3, .L276
 3586 0234 0022     		movs	r2, #0
 3587 0236 83F85320 		strb	r2, [r3, #83]
 3588 023a B5E7     		b	.L260
 3589              	.L275:
1913:Middlewares/Third_Party/SubGHz_Phy/stm32_radio_driver/radio.c ****             }
 3590              		.loc 1 1913 15 is_stmt 1 view .LVU1018
1913:Middlewares/Third_Party/SubGHz_Phy/stm32_radio_driver/radio.c ****             }
 3591              		.loc 1 1913 71 is_stmt 0 view .LVU1019
 3592 023c 0D4B     		ldr	r3, .L276
 3593 023e 0122     		movs	r2, #1
 3594 0240 83F85320 		strb	r2, [r3, #83]
 3595 0244 B0E7     		b	.L260
 3596              	.LVL318:
 3597              	.L274:
1940:Middlewares/Third_Party/SubGHz_Phy/stm32_radio_driver/radio.c ****         }
 3598              		.loc 1 1940 13 is_stmt 1 view .LVU1020
1940:Middlewares/Third_Party/SubGHz_Phy/stm32_radio_driver/radio.c ****         }
 3599              		.loc 1 1940 43 is_stmt 0 view .LVU1021
 3600 0246 40F23670 		movw	r0, #1846
 3601 024a FFF7FEFF 		bl	SUBGRF_ReadRegister
 3602              	.LVL319:
1940:Middlewares/Third_Party/SubGHz_Phy/stm32_radio_driver/radio.c ****         }
 3603              		.loc 1 1940 13 view .LVU1022
 3604 024e 00F0FB01 		and	r1, r0, #251
 3605 0252 40F23670 		movw	r0, #1846
 3606 0256 FFF7FEFF 		bl	SUBGRF_WriteRegister
 3607              	.LVL320:
 3608 025a D2E7     		b	.L263
 3609              	.LVL321:
 3610              	.L265:
1801:Middlewares/Third_Party/SubGHz_Phy/stm32_radio_driver/radio.c ****         }
 3611              		.loc 1 1801 20 view .LVU1023
 3612 025c 4FF0FF30 		mov	r0, #-1
 3613 0260 E5E6     		b	.L242
 3614              	.L266:
 3615 0262 4FF0FF30 		mov	r0, #-1
 3616 0266 E2E6     		b	.L242
 3617              	.L267:
1805:Middlewares/Third_Party/SubGHz_Phy/stm32_radio_driver/radio.c ****         }
 3618              		.loc 1 1805 20 view .LVU1024
 3619 0268 4FF0FF30 		mov	r0, #-1
ARM GAS  /tmp/ccldRdip.s 			page 115


 3620 026c DFE6     		b	.L242
 3621              	.L268:
1884:Middlewares/Third_Party/SubGHz_Phy/stm32_radio_driver/radio.c ****         }
 3622              		.loc 1 1884 20 view .LVU1025
 3623 026e 4FF0FF30 		mov	r0, #-1
 3624 0272 DCE6     		b	.L242
 3625              	.L277:
 3626              		.align	2
 3627              	.L276:
 3628 0274 00000000 		.word	.LANCHOR3
 3629 0278 00000000 		.word	.LANCHOR4
 3630 027c 00000000 		.word	.LANCHOR1
 3631              		.cfi_endproc
 3632              	.LFE1022:
 3634              		.section	.text.RadioSetPublicNetwork,"ax",%progbits
 3635              		.align	1
 3636              		.syntax unified
 3637              		.thumb
 3638              		.thumb_func
 3639              		.fpu softvfp
 3641              	RadioSetPublicNetwork:
 3642              	.LVL322:
 3643              	.LFB1011:
1506:Middlewares/Third_Party/SubGHz_Phy/stm32_radio_driver/radio.c ****     SubgRf.PublicNetwork.Current = SubgRf.PublicNetwork.Previous = enable;
 3644              		.loc 1 1506 1 is_stmt 1 view -0
 3645              		.cfi_startproc
 3646              		@ args = 0, pretend = 0, frame = 0
 3647              		@ frame_needed = 0, uses_anonymous_args = 0
1506:Middlewares/Third_Party/SubGHz_Phy/stm32_radio_driver/radio.c ****     SubgRf.PublicNetwork.Current = SubgRf.PublicNetwork.Previous = enable;
 3648              		.loc 1 1506 1 is_stmt 0 view .LVU1027
 3649 0000 10B5     		push	{r4, lr}
 3650              	.LCFI46:
 3651              		.cfi_def_cfa_offset 8
 3652              		.cfi_offset 4, -8
 3653              		.cfi_offset 14, -4
 3654 0002 0446     		mov	r4, r0
1507:Middlewares/Third_Party/SubGHz_Phy/stm32_radio_driver/radio.c **** 
 3655              		.loc 1 1507 5 is_stmt 1 view .LVU1028
1507:Middlewares/Third_Party/SubGHz_Phy/stm32_radio_driver/radio.c **** 
 3656              		.loc 1 1507 66 is_stmt 0 view .LVU1029
 3657 0004 0E4B     		ldr	r3, .L282
 3658 0006 1873     		strb	r0, [r3, #12]
1507:Middlewares/Third_Party/SubGHz_Phy/stm32_radio_driver/radio.c **** 
 3659              		.loc 1 1507 34 view .LVU1030
 3660 0008 5873     		strb	r0, [r3, #13]
1509:Middlewares/Third_Party/SubGHz_Phy/stm32_radio_driver/radio.c ****     if( enable == true )
 3661              		.loc 1 1509 5 is_stmt 1 view .LVU1031
 3662 000a 0120     		movs	r0, #1
 3663              	.LVL323:
1509:Middlewares/Third_Party/SubGHz_Phy/stm32_radio_driver/radio.c ****     if( enable == true )
 3664              		.loc 1 1509 5 is_stmt 0 view .LVU1032
 3665 000c FFF7FEFF 		bl	RadioSetModem
 3666              	.LVL324:
1510:Middlewares/Third_Party/SubGHz_Phy/stm32_radio_driver/radio.c ****     {
 3667              		.loc 1 1510 5 is_stmt 1 view .LVU1033
1510:Middlewares/Third_Party/SubGHz_Phy/stm32_radio_driver/radio.c ****     {
 3668              		.loc 1 1510 7 is_stmt 0 view .LVU1034
ARM GAS  /tmp/ccldRdip.s 			page 116


 3669 0010 54B1     		cbz	r4, .L279
1513:Middlewares/Third_Party/SubGHz_Phy/stm32_radio_driver/radio.c ****         SUBGRF_WriteRegister( REG_LR_SYNCWORD + 1, LORA_MAC_PUBLIC_SYNCWORD & 0xFF );
 3670              		.loc 1 1513 9 is_stmt 1 view .LVU1035
 3671 0012 3421     		movs	r1, #52
 3672 0014 4FF4E860 		mov	r0, #1856
 3673 0018 FFF7FEFF 		bl	SUBGRF_WriteRegister
 3674              	.LVL325:
1514:Middlewares/Third_Party/SubGHz_Phy/stm32_radio_driver/radio.c ****     }
 3675              		.loc 1 1514 9 view .LVU1036
 3676 001c 4421     		movs	r1, #68
 3677 001e 40F24170 		movw	r0, #1857
 3678 0022 FFF7FEFF 		bl	SUBGRF_WriteRegister
 3679              	.LVL326:
 3680              	.L278:
1522:Middlewares/Third_Party/SubGHz_Phy/stm32_radio_driver/radio.c **** 
 3681              		.loc 1 1522 1 is_stmt 0 view .LVU1037
 3682 0026 10BD     		pop	{r4, pc}
 3683              	.L279:
1519:Middlewares/Third_Party/SubGHz_Phy/stm32_radio_driver/radio.c ****         SUBGRF_WriteRegister( REG_LR_SYNCWORD + 1, LORA_MAC_PRIVATE_SYNCWORD & 0xFF );
 3684              		.loc 1 1519 9 is_stmt 1 view .LVU1038
 3685 0028 1421     		movs	r1, #20
 3686 002a 4FF4E860 		mov	r0, #1856
 3687 002e FFF7FEFF 		bl	SUBGRF_WriteRegister
 3688              	.LVL327:
1520:Middlewares/Third_Party/SubGHz_Phy/stm32_radio_driver/radio.c ****     }
 3689              		.loc 1 1520 9 view .LVU1039
 3690 0032 2421     		movs	r1, #36
 3691 0034 40F24170 		movw	r0, #1857
 3692 0038 FFF7FEFF 		bl	SUBGRF_WriteRegister
 3693              	.LVL328:
1522:Middlewares/Third_Party/SubGHz_Phy/stm32_radio_driver/radio.c **** 
 3694              		.loc 1 1522 1 is_stmt 0 view .LVU1040
 3695 003c F3E7     		b	.L278
 3696              	.L283:
 3697 003e 00BF     		.align	2
 3698              	.L282:
 3699 0040 00000000 		.word	.LANCHOR3
 3700              		.cfi_endproc
 3701              	.LFE1011:
 3703              		.section	.text.RadioSetTxConfig,"ax",%progbits
 3704              		.align	1
 3705              		.syntax unified
 3706              		.thumb
 3707              		.thumb_func
 3708              		.fpu softvfp
 3710              	RadioSetTxConfig:
 3711              	.LVL329:
 3712              	.LFB991:
 979:Middlewares/Third_Party/SubGHz_Phy/stm32_radio_driver/radio.c ****     RFW_DeInit(); /* ST_WORKAROUND: Switch Off FwPacketDecoding by default */
 3713              		.loc 1 979 1 is_stmt 1 view -0
 3714              		.cfi_startproc
 3715              		@ args = 36, pretend = 0, frame = 8
 3716              		@ frame_needed = 0, uses_anonymous_args = 0
 979:Middlewares/Third_Party/SubGHz_Phy/stm32_radio_driver/radio.c ****     RFW_DeInit(); /* ST_WORKAROUND: Switch Off FwPacketDecoding by default */
 3717              		.loc 1 979 1 is_stmt 0 view .LVU1042
 3718 0000 2DE9F04F 		push	{r4, r5, r6, r7, r8, r9, r10, fp, lr}
 3719              	.LCFI47:
ARM GAS  /tmp/ccldRdip.s 			page 117


 3720              		.cfi_def_cfa_offset 36
 3721              		.cfi_offset 4, -36
 3722              		.cfi_offset 5, -32
 3723              		.cfi_offset 6, -28
 3724              		.cfi_offset 7, -24
 3725              		.cfi_offset 8, -20
 3726              		.cfi_offset 9, -16
 3727              		.cfi_offset 10, -12
 3728              		.cfi_offset 11, -8
 3729              		.cfi_offset 14, -4
 3730 0004 83B0     		sub	sp, sp, #12
 3731              	.LCFI48:
 3732              		.cfi_def_cfa_offset 48
 3733 0006 0446     		mov	r4, r0
 3734 0008 0D46     		mov	r5, r1
 3735 000a 9146     		mov	r9, r2
 3736 000c 1F46     		mov	r7, r3
 3737 000e BDF83860 		ldrh	r6, [sp, #56]
 3738 0012 9DF83C80 		ldrb	r8, [sp, #60]	@ zero_extendqisi2
 3739 0016 9DF840A0 		ldrb	r10, [sp, #64]	@ zero_extendqisi2
 980:Middlewares/Third_Party/SubGHz_Phy/stm32_radio_driver/radio.c ****     switch( modem )
 3740              		.loc 1 980 5 is_stmt 1 view .LVU1043
 3741 001a FFF7FEFF 		bl	RFW_DeInit
 3742              	.LVL330:
 981:Middlewares/Third_Party/SubGHz_Phy/stm32_radio_driver/radio.c ****     {
 3743              		.loc 1 981 5 view .LVU1044
 3744 001e 012C     		cmp	r4, #1
 3745 0020 5AD0     		beq	.L285
 3746 0022 032C     		cmp	r4, #3
 3747 0024 00F0AB80 		beq	.L286
 3748 0028 64B1     		cbz	r4, .L298
 3749              	.L287:
1075:Middlewares/Third_Party/SubGHz_Phy/stm32_radio_driver/radio.c ****     RFW_SetAntSwitch( SubgRf.AntSwitchPaSelect ); /* ST_WORKAROUND: ?????? */
 3750              		.loc 1 1075 5 view .LVU1045
1075:Middlewares/Third_Party/SubGHz_Phy/stm32_radio_driver/radio.c ****     RFW_SetAntSwitch( SubgRf.AntSwitchPaSelect ); /* ST_WORKAROUND: ?????? */
 3751              		.loc 1 1075 32 is_stmt 0 view .LVU1046
 3752 002a 2846     		mov	r0, r5
 3753 002c FFF7FEFF 		bl	SUBGRF_SetRfTxPower
 3754              	.LVL331:
1075:Middlewares/Third_Party/SubGHz_Phy/stm32_radio_driver/radio.c ****     RFW_SetAntSwitch( SubgRf.AntSwitchPaSelect ); /* ST_WORKAROUND: ?????? */
 3755              		.loc 1 1075 30 view .LVU1047
 3756 0030 5B4C     		ldr	r4, .L301
 3757 0032 84F85600 		strb	r0, [r4, #86]
1076:Middlewares/Third_Party/SubGHz_Phy/stm32_radio_driver/radio.c ****     SubgRf.TxTimeout = timeout;
 3758              		.loc 1 1076 5 is_stmt 1 view .LVU1048
 3759 0036 FFF7FEFF 		bl	RFW_SetAntSwitch
 3760              	.LVL332:
1077:Middlewares/Third_Party/SubGHz_Phy/stm32_radio_driver/radio.c **** }
 3761              		.loc 1 1077 5 view .LVU1049
1077:Middlewares/Third_Party/SubGHz_Phy/stm32_radio_driver/radio.c **** }
 3762              		.loc 1 1077 22 is_stmt 0 view .LVU1050
 3763 003a 149B     		ldr	r3, [sp, #80]
 3764 003c 6360     		str	r3, [r4, #4]
1078:Middlewares/Third_Party/SubGHz_Phy/stm32_radio_driver/radio.c **** 
 3765              		.loc 1 1078 1 view .LVU1051
 3766 003e 03B0     		add	sp, sp, #12
 3767              	.LCFI49:
ARM GAS  /tmp/ccldRdip.s 			page 118


 3768              		.cfi_remember_state
 3769              		.cfi_def_cfa_offset 36
 3770              		@ sp needed
 3771 0040 BDE8F08F 		pop	{r4, r5, r6, r7, r8, r9, r10, fp, pc}
 3772              	.LVL333:
 3773              	.L298:
 3774              	.LCFI50:
 3775              		.cfi_restore_state
 3776              	.LBB10:
 984:Middlewares/Third_Party/SubGHz_Phy/stm32_radio_driver/radio.c ****             SubgRf.ModulationParams.Params.Gfsk.BitRate = datarate;
 3777              		.loc 1 984 13 is_stmt 1 view .LVU1052
 984:Middlewares/Third_Party/SubGHz_Phy/stm32_radio_driver/radio.c ****             SubgRf.ModulationParams.Params.Gfsk.BitRate = datarate;
 3778              		.loc 1 984 48 is_stmt 0 view .LVU1053
 3779 0044 564C     		ldr	r4, .L301
 3780 0046 4FF0000B 		mov	fp, #0
 3781 004a 84F838B0 		strb	fp, [r4, #56]
 985:Middlewares/Third_Party/SubGHz_Phy/stm32_radio_driver/radio.c **** 
 3782              		.loc 1 985 13 is_stmt 1 view .LVU1054
 985:Middlewares/Third_Party/SubGHz_Phy/stm32_radio_driver/radio.c **** 
 3783              		.loc 1 985 57 is_stmt 0 view .LVU1055
 3784 004e 0C9B     		ldr	r3, [sp, #48]
 3785 0050 E363     		str	r3, [r4, #60]
 987:Middlewares/Third_Party/SubGHz_Phy/stm32_radio_driver/radio.c ****             SubgRf.ModulationParams.Params.Gfsk.Bandwidth = SUBGRF_GetFskBandwidthRegValue( bandwid
 3786              		.loc 1 987 13 is_stmt 1 view .LVU1056
 987:Middlewares/Third_Party/SubGHz_Phy/stm32_radio_driver/radio.c ****             SubgRf.ModulationParams.Params.Gfsk.Bandwidth = SUBGRF_GetFskBandwidthRegValue( bandwid
 3787              		.loc 1 987 67 is_stmt 0 view .LVU1057
 3788 0052 0B23     		movs	r3, #11
 3789 0054 84F84430 		strb	r3, [r4, #68]
 988:Middlewares/Third_Party/SubGHz_Phy/stm32_radio_driver/radio.c ****             SubgRf.ModulationParams.Params.Gfsk.Fdev = fdev;
 3790              		.loc 1 988 13 is_stmt 1 view .LVU1058
 988:Middlewares/Third_Party/SubGHz_Phy/stm32_radio_driver/radio.c ****             SubgRf.ModulationParams.Params.Gfsk.Fdev = fdev;
 3791              		.loc 1 988 61 is_stmt 0 view .LVU1059
 3792 0058 3846     		mov	r0, r7
 3793 005a FFF7FEFF 		bl	SUBGRF_GetFskBandwidthRegValue
 3794              	.LVL334:
 988:Middlewares/Third_Party/SubGHz_Phy/stm32_radio_driver/radio.c ****             SubgRf.ModulationParams.Params.Gfsk.Fdev = fdev;
 3795              		.loc 1 988 59 view .LVU1060
 3796 005e 84F84500 		strb	r0, [r4, #69]
 989:Middlewares/Third_Party/SubGHz_Phy/stm32_radio_driver/radio.c **** 
 3797              		.loc 1 989 13 is_stmt 1 view .LVU1061
 989:Middlewares/Third_Party/SubGHz_Phy/stm32_radio_driver/radio.c **** 
 3798              		.loc 1 989 54 is_stmt 0 view .LVU1062
 3799 0062 C4F84090 		str	r9, [r4, #64]
 991:Middlewares/Third_Party/SubGHz_Phy/stm32_radio_driver/radio.c ****             SubgRf.PacketParams.Params.Gfsk.PreambleLength = ( preambleLen << 3 ); // convert byte 
 3800              		.loc 1 991 13 is_stmt 1 view .LVU1063
 991:Middlewares/Third_Party/SubGHz_Phy/stm32_radio_driver/radio.c ****             SubgRf.PacketParams.Params.Gfsk.PreambleLength = ( preambleLen << 3 ); // convert byte 
 3801              		.loc 1 991 44 is_stmt 0 view .LVU1064
 3802 0066 84F80EB0 		strb	fp, [r4, #14]
 992:Middlewares/Third_Party/SubGHz_Phy/stm32_radio_driver/radio.c ****             SubgRf.PacketParams.Params.Gfsk.PreambleMinDetect = RADIO_PREAMBLE_DETECTOR_08_BITS;
 3803              		.loc 1 992 13 is_stmt 1 view .LVU1065
 992:Middlewares/Third_Party/SubGHz_Phy/stm32_radio_driver/radio.c ****             SubgRf.PacketParams.Params.Gfsk.PreambleMinDetect = RADIO_PREAMBLE_DETECTOR_08_BITS;
 3804              		.loc 1 992 76 is_stmt 0 view .LVU1066
 3805 006a F600     		lsls	r6, r6, #3
 992:Middlewares/Third_Party/SubGHz_Phy/stm32_radio_driver/radio.c ****             SubgRf.PacketParams.Params.Gfsk.PreambleMinDetect = RADIO_PREAMBLE_DETECTOR_08_BITS;
 3806              		.loc 1 992 60 view .LVU1067
 3807 006c 2682     		strh	r6, [r4, #16]	@ movhi
 993:Middlewares/Third_Party/SubGHz_Phy/stm32_radio_driver/radio.c ****             SubgRf.PacketParams.Params.Gfsk.SyncWordLength = 3 << 3 ; // convert byte into bit
ARM GAS  /tmp/ccldRdip.s 			page 119


 3808              		.loc 1 993 13 is_stmt 1 view .LVU1068
 993:Middlewares/Third_Party/SubGHz_Phy/stm32_radio_driver/radio.c ****             SubgRf.PacketParams.Params.Gfsk.SyncWordLength = 3 << 3 ; // convert byte into bit
 3809              		.loc 1 993 63 is_stmt 0 view .LVU1069
 3810 006e 0423     		movs	r3, #4
 3811 0070 A374     		strb	r3, [r4, #18]
 994:Middlewares/Third_Party/SubGHz_Phy/stm32_radio_driver/radio.c ****             SubgRf.PacketParams.Params.Gfsk.AddrComp = RADIO_ADDRESSCOMP_FILT_OFF;
 3812              		.loc 1 994 13 is_stmt 1 view .LVU1070
 994:Middlewares/Third_Party/SubGHz_Phy/stm32_radio_driver/radio.c ****             SubgRf.PacketParams.Params.Gfsk.AddrComp = RADIO_ADDRESSCOMP_FILT_OFF;
 3813              		.loc 1 994 60 is_stmt 0 view .LVU1071
 3814 0072 1823     		movs	r3, #24
 3815 0074 E374     		strb	r3, [r4, #19]
 995:Middlewares/Third_Party/SubGHz_Phy/stm32_radio_driver/radio.c ****             SubgRf.PacketParams.Params.Gfsk.HeaderType = ( fixLen == true ) ? RADIO_PACKET_FIXED_LE
 3816              		.loc 1 995 13 is_stmt 1 view .LVU1072
 995:Middlewares/Third_Party/SubGHz_Phy/stm32_radio_driver/radio.c ****             SubgRf.PacketParams.Params.Gfsk.HeaderType = ( fixLen == true ) ? RADIO_PACKET_FIXED_LE
 3817              		.loc 1 995 54 is_stmt 0 view .LVU1073
 3818 0076 84F814B0 		strb	fp, [r4, #20]
 996:Middlewares/Third_Party/SubGHz_Phy/stm32_radio_driver/radio.c **** 
 3819              		.loc 1 996 13 is_stmt 1 view .LVU1074
 996:Middlewares/Third_Party/SubGHz_Phy/stm32_radio_driver/radio.c **** 
 3820              		.loc 1 996 105 is_stmt 0 view .LVU1075
 3821 007a 88F00108 		eor	r8, r8, #1
 996:Middlewares/Third_Party/SubGHz_Phy/stm32_radio_driver/radio.c **** 
 3822              		.loc 1 996 56 view .LVU1076
 3823 007e 84F81580 		strb	r8, [r4, #21]
 998:Middlewares/Third_Party/SubGHz_Phy/stm32_radio_driver/radio.c ****             {
 3824              		.loc 1 998 13 is_stmt 1 view .LVU1077
 998:Middlewares/Third_Party/SubGHz_Phy/stm32_radio_driver/radio.c ****             {
 3825              		.loc 1 998 15 is_stmt 0 view .LVU1078
 3826 0082 BAF1000F 		cmp	r10, #0
 3827 0086 23D0     		beq	.L288
1000:Middlewares/Third_Party/SubGHz_Phy/stm32_radio_driver/radio.c ****             }
 3828              		.loc 1 1000 17 is_stmt 1 view .LVU1079
1000:Middlewares/Third_Party/SubGHz_Phy/stm32_radio_driver/radio.c ****             }
 3829              		.loc 1 1000 59 is_stmt 0 view .LVU1080
 3830 0088 F222     		movs	r2, #242
 3831 008a E275     		strb	r2, [r4, #23]
 3832              	.L289:
1006:Middlewares/Third_Party/SubGHz_Phy/stm32_radio_driver/radio.c **** 
 3833              		.loc 1 1006 13 is_stmt 1 view .LVU1081
1006:Middlewares/Third_Party/SubGHz_Phy/stm32_radio_driver/radio.c **** 
 3834              		.loc 1 1006 52 is_stmt 0 view .LVU1082
 3835 008c 444C     		ldr	r4, .L301
 3836 008e 0123     		movs	r3, #1
 3837 0090 2376     		strb	r3, [r4, #24]
1008:Middlewares/Third_Party/SubGHz_Phy/stm32_radio_driver/radio.c ****             RadioSetModem( ( SubgRf.ModulationParams.PacketType == PACKET_TYPE_GFSK ) ? MODEM_FSK :
 3838              		.loc 1 1008 13 is_stmt 1 view .LVU1083
 3839 0092 FFF7FEFF 		bl	RadioStandby
 3840              	.LVL335:
1009:Middlewares/Third_Party/SubGHz_Phy/stm32_radio_driver/radio.c ****             SUBGRF_SetModulationParams( &SubgRf.ModulationParams );
 3841              		.loc 1 1009 13 view .LVU1084
1009:Middlewares/Third_Party/SubGHz_Phy/stm32_radio_driver/radio.c ****             SUBGRF_SetModulationParams( &SubgRf.ModulationParams );
 3842              		.loc 1 1009 53 is_stmt 0 view .LVU1085
 3843 0096 2646     		mov	r6, r4
 3844 0098 16F8380F 		ldrb	r0, [r6, #56]!	@ zero_extendqisi2
1009:Middlewares/Third_Party/SubGHz_Phy/stm32_radio_driver/radio.c ****             SUBGRF_SetModulationParams( &SubgRf.ModulationParams );
 3845              		.loc 1 1009 13 view .LVU1086
 3846 009c 0038     		subs	r0, r0, #0
ARM GAS  /tmp/ccldRdip.s 			page 120


 3847 009e 18BF     		it	ne
 3848 00a0 0120     		movne	r0, #1
 3849 00a2 FFF7FEFF 		bl	RadioSetModem
 3850              	.LVL336:
1010:Middlewares/Third_Party/SubGHz_Phy/stm32_radio_driver/radio.c ****             SUBGRF_SetPacketParams( &SubgRf.PacketParams );
 3851              		.loc 1 1010 13 is_stmt 1 view .LVU1087
 3852 00a6 3046     		mov	r0, r6
 3853 00a8 FFF7FEFF 		bl	SUBGRF_SetModulationParams
 3854              	.LVL337:
1011:Middlewares/Third_Party/SubGHz_Phy/stm32_radio_driver/radio.c ****             SUBGRF_SetSyncWord( ( uint8_t[] ){ 0xC1, 0x94, 0xC1, 0x00, 0x00, 0x00, 0x00, 0x00 } );
 3855              		.loc 1 1011 13 view .LVU1088
 3856 00ac 04F10E00 		add	r0, r4, #14
 3857 00b0 FFF7FEFF 		bl	SUBGRF_SetPacketParams
 3858              	.LVL338:
1012:Middlewares/Third_Party/SubGHz_Phy/stm32_radio_driver/radio.c ****             SUBGRF_SetWhiteningSeed( 0x01FF );
 3859              		.loc 1 1012 13 view .LVU1089
1012:Middlewares/Third_Party/SubGHz_Phy/stm32_radio_driver/radio.c ****             SUBGRF_SetWhiteningSeed( 0x01FF );
 3860              		.loc 1 1012 46 is_stmt 0 view .LVU1090
 3861 00b4 3B4A     		ldr	r2, .L301+4
 3862 00b6 6B46     		mov	r3, sp
 3863 00b8 92E80300 		ldm	r2, {r0, r1}
 3864 00bc 83E80300 		stm	r3, {r0, r1}
1012:Middlewares/Third_Party/SubGHz_Phy/stm32_radio_driver/radio.c ****             SUBGRF_SetWhiteningSeed( 0x01FF );
 3865              		.loc 1 1012 13 view .LVU1091
 3866 00c0 1846     		mov	r0, r3
 3867 00c2 FFF7FEFF 		bl	SUBGRF_SetSyncWord
 3868              	.LVL339:
1013:Middlewares/Third_Party/SubGHz_Phy/stm32_radio_driver/radio.c ****             break;
 3869              		.loc 1 1013 13 is_stmt 1 view .LVU1092
 3870 00c6 40F2FF10 		movw	r0, #511
 3871 00ca FFF7FEFF 		bl	SUBGRF_SetWhiteningSeed
 3872              	.LVL340:
1014:Middlewares/Third_Party/SubGHz_Phy/stm32_radio_driver/radio.c **** 
 3873              		.loc 1 1014 13 view .LVU1093
 3874 00ce ACE7     		b	.L287
 3875              	.L288:
1004:Middlewares/Third_Party/SubGHz_Phy/stm32_radio_driver/radio.c ****             }
 3876              		.loc 1 1004 17 view .LVU1094
1004:Middlewares/Third_Party/SubGHz_Phy/stm32_radio_driver/radio.c ****             }
 3877              		.loc 1 1004 59 is_stmt 0 view .LVU1095
 3878 00d0 334B     		ldr	r3, .L301
 3879 00d2 0122     		movs	r2, #1
 3880 00d4 DA75     		strb	r2, [r3, #23]
 3881 00d6 D9E7     		b	.L289
 3882              	.L285:
1017:Middlewares/Third_Party/SubGHz_Phy/stm32_radio_driver/radio.c ****             SubgRf.ModulationParams.Params.LoRa.SpreadingFactor = ( RadioLoRaSpreadingFactors_t ) d
 3883              		.loc 1 1017 13 is_stmt 1 view .LVU1096
1017:Middlewares/Third_Party/SubGHz_Phy/stm32_radio_driver/radio.c ****             SubgRf.ModulationParams.Params.LoRa.SpreadingFactor = ( RadioLoRaSpreadingFactors_t ) d
 3884              		.loc 1 1017 48 is_stmt 0 view .LVU1097
 3885 00d8 314A     		ldr	r2, .L301
 3886 00da 0123     		movs	r3, #1
 3887 00dc 82F83830 		strb	r3, [r2, #56]
1018:Middlewares/Third_Party/SubGHz_Phy/stm32_radio_driver/radio.c ****             SubgRf.ModulationParams.Params.LoRa.Bandwidth =  Bandwidths[bandwidth];
 3888              		.loc 1 1018 13 is_stmt 1 view .LVU1098
1018:Middlewares/Third_Party/SubGHz_Phy/stm32_radio_driver/radio.c ****             SubgRf.ModulationParams.Params.LoRa.Bandwidth =  Bandwidths[bandwidth];
 3889              		.loc 1 1018 67 is_stmt 0 view .LVU1099
 3890 00e0 0C9B     		ldr	r3, [sp, #48]
ARM GAS  /tmp/ccldRdip.s 			page 121


 3891 00e2 DBB2     		uxtb	r3, r3
1018:Middlewares/Third_Party/SubGHz_Phy/stm32_radio_driver/radio.c ****             SubgRf.ModulationParams.Params.LoRa.Bandwidth =  Bandwidths[bandwidth];
 3892              		.loc 1 1018 65 view .LVU1100
 3893 00e4 82F85030 		strb	r3, [r2, #80]
1019:Middlewares/Third_Party/SubGHz_Phy/stm32_radio_driver/radio.c ****             SubgRf.ModulationParams.Params.LoRa.CodingRate= ( RadioLoRaCodingRates_t )coderate;
 3894              		.loc 1 1019 13 is_stmt 1 view .LVU1101
1019:Middlewares/Third_Party/SubGHz_Phy/stm32_radio_driver/radio.c ****             SubgRf.ModulationParams.Params.LoRa.CodingRate= ( RadioLoRaCodingRates_t )coderate;
 3895              		.loc 1 1019 72 is_stmt 0 view .LVU1102
 3896 00e8 2F49     		ldr	r1, .L301+8
 3897 00ea C95D     		ldrb	r1, [r1, r7]	@ zero_extendqisi2
1019:Middlewares/Third_Party/SubGHz_Phy/stm32_radio_driver/radio.c ****             SubgRf.ModulationParams.Params.LoRa.CodingRate= ( RadioLoRaCodingRates_t )coderate;
 3898              		.loc 1 1019 59 view .LVU1103
 3899 00ec 82F85110 		strb	r1, [r2, #81]
1020:Middlewares/Third_Party/SubGHz_Phy/stm32_radio_driver/radio.c **** 
 3900              		.loc 1 1020 13 is_stmt 1 view .LVU1104
1020:Middlewares/Third_Party/SubGHz_Phy/stm32_radio_driver/radio.c **** 
 3901              		.loc 1 1020 59 is_stmt 0 view .LVU1105
 3902 00f0 9DF83410 		ldrb	r1, [sp, #52]	@ zero_extendqisi2
 3903 00f4 82F85210 		strb	r1, [r2, #82]
1022:Middlewares/Third_Party/SubGHz_Phy/stm32_radio_driver/radio.c ****                 ( ( bandwidth == 1 ) && ( datarate == 12 ) ) )
 3904              		.loc 1 1022 13 is_stmt 1 view .LVU1106
1022:Middlewares/Third_Party/SubGHz_Phy/stm32_radio_driver/radio.c ****                 ( ( bandwidth == 1 ) && ( datarate == 12 ) ) )
 3905              		.loc 1 1022 15 is_stmt 0 view .LVU1107
 3906 00f8 1FB9     		cbnz	r7, .L290
1022:Middlewares/Third_Party/SubGHz_Phy/stm32_radio_driver/radio.c ****                 ( ( bandwidth == 1 ) && ( datarate == 12 ) ) )
 3907              		.loc 1 1022 62 discriminator 1 view .LVU1108
 3908 00fa 0C9A     		ldr	r2, [sp, #48]
 3909 00fc 0B3A     		subs	r2, r2, #11
1022:Middlewares/Third_Party/SubGHz_Phy/stm32_radio_driver/radio.c ****                 ( ( bandwidth == 1 ) && ( datarate == 12 ) ) )
 3910              		.loc 1 1022 38 discriminator 1 view .LVU1109
 3911 00fe 012A     		cmp	r2, #1
 3912 0100 2FD9     		bls	.L291
 3913              	.L290:
1022:Middlewares/Third_Party/SubGHz_Phy/stm32_radio_driver/radio.c ****                 ( ( bandwidth == 1 ) && ( datarate == 12 ) ) )
 3914              		.loc 1 1022 88 discriminator 3 view .LVU1110
 3915 0102 012F     		cmp	r7, #1
 3916 0104 2AD0     		beq	.L299
 3917              	.L292:
1029:Middlewares/Third_Party/SubGHz_Phy/stm32_radio_driver/radio.c ****             }
 3918              		.loc 1 1029 17 is_stmt 1 view .LVU1111
1029:Middlewares/Third_Party/SubGHz_Phy/stm32_radio_driver/radio.c ****             }
 3919              		.loc 1 1029 73 is_stmt 0 view .LVU1112
 3920 0106 264A     		ldr	r2, .L301
 3921 0108 0021     		movs	r1, #0
 3922 010a 82F85310 		strb	r1, [r2, #83]
 3923              	.L293:
1032:Middlewares/Third_Party/SubGHz_Phy/stm32_radio_driver/radio.c **** 
 3924              		.loc 1 1032 13 is_stmt 1 view .LVU1113
1032:Middlewares/Third_Party/SubGHz_Phy/stm32_radio_driver/radio.c **** 
 3925              		.loc 1 1032 44 is_stmt 0 view .LVU1114
 3926 010e 244A     		ldr	r2, .L301
 3927 0110 0121     		movs	r1, #1
 3928 0112 9173     		strb	r1, [r2, #14]
1034:Middlewares/Third_Party/SubGHz_Phy/stm32_radio_driver/radio.c ****                 ( SubgRf.ModulationParams.Params.LoRa.SpreadingFactor == LORA_SF6 ) )
 3929              		.loc 1 1034 13 is_stmt 1 view .LVU1115
1034:Middlewares/Third_Party/SubGHz_Phy/stm32_radio_driver/radio.c ****                 ( SubgRf.ModulationParams.Params.LoRa.SpreadingFactor == LORA_SF6 ) )
 3930              		.loc 1 1034 85 is_stmt 0 view .LVU1116
ARM GAS  /tmp/ccldRdip.s 			page 122


 3931 0114 053B     		subs	r3, r3, #5
 3932 0116 DBB2     		uxtb	r3, r3
1034:Middlewares/Third_Party/SubGHz_Phy/stm32_radio_driver/radio.c ****                 ( SubgRf.ModulationParams.Params.LoRa.SpreadingFactor == LORA_SF6 ) )
 3933              		.loc 1 1034 15 view .LVU1117
 3934 0118 8B42     		cmp	r3, r1
 3935 011a 27D9     		bls	.L300
1048:Middlewares/Third_Party/SubGHz_Phy/stm32_radio_driver/radio.c ****             }
 3936              		.loc 1 1048 17 is_stmt 1 view .LVU1118
1048:Middlewares/Third_Party/SubGHz_Phy/stm32_radio_driver/radio.c ****             }
 3937              		.loc 1 1048 64 is_stmt 0 view .LVU1119
 3938 011c 204B     		ldr	r3, .L301
 3939 011e 9E83     		strh	r6, [r3, #28]	@ movhi
 3940              	.L296:
1050:Middlewares/Third_Party/SubGHz_Phy/stm32_radio_driver/radio.c ****             SubgRf.PacketParams.Params.LoRa.PayloadLength = MaxPayloadLength;
 3941              		.loc 1 1050 13 is_stmt 1 view .LVU1120
1050:Middlewares/Third_Party/SubGHz_Phy/stm32_radio_driver/radio.c ****             SubgRf.PacketParams.Params.LoRa.PayloadLength = MaxPayloadLength;
 3942              		.loc 1 1050 56 is_stmt 0 view .LVU1121
 3943 0120 1F4C     		ldr	r4, .L301
 3944 0122 84F81E80 		strb	r8, [r4, #30]
1051:Middlewares/Third_Party/SubGHz_Phy/stm32_radio_driver/radio.c ****             SubgRf.PacketParams.Params.LoRa.CrcMode = ( RadioLoRaCrcModes_t )crcOn;
 3945              		.loc 1 1051 13 is_stmt 1 view .LVU1122
1051:Middlewares/Third_Party/SubGHz_Phy/stm32_radio_driver/radio.c ****             SubgRf.PacketParams.Params.LoRa.CrcMode = ( RadioLoRaCrcModes_t )crcOn;
 3946              		.loc 1 1051 59 is_stmt 0 view .LVU1123
 3947 0126 214B     		ldr	r3, .L301+12
 3948 0128 1B78     		ldrb	r3, [r3]	@ zero_extendqisi2
 3949 012a E377     		strb	r3, [r4, #31]
1052:Middlewares/Third_Party/SubGHz_Phy/stm32_radio_driver/radio.c ****             SubgRf.PacketParams.Params.LoRa.InvertIQ = ( RadioLoRaIQModes_t )iqInverted;
 3950              		.loc 1 1052 13 is_stmt 1 view .LVU1124
1052:Middlewares/Third_Party/SubGHz_Phy/stm32_radio_driver/radio.c ****             SubgRf.PacketParams.Params.LoRa.InvertIQ = ( RadioLoRaIQModes_t )iqInverted;
 3951              		.loc 1 1052 53 is_stmt 0 view .LVU1125
 3952 012c 84F820A0 		strb	r10, [r4, #32]
1053:Middlewares/Third_Party/SubGHz_Phy/stm32_radio_driver/radio.c **** 
 3953              		.loc 1 1053 13 is_stmt 1 view .LVU1126
1053:Middlewares/Third_Party/SubGHz_Phy/stm32_radio_driver/radio.c **** 
 3954              		.loc 1 1053 54 is_stmt 0 view .LVU1127
 3955 0130 9DF84C30 		ldrb	r3, [sp, #76]	@ zero_extendqisi2
 3956 0134 84F82130 		strb	r3, [r4, #33]
1055:Middlewares/Third_Party/SubGHz_Phy/stm32_radio_driver/radio.c ****             RadioSetModem( ( SubgRf.ModulationParams.PacketType == PACKET_TYPE_GFSK ) ? MODEM_FSK :
 3957              		.loc 1 1055 13 is_stmt 1 view .LVU1128
 3958 0138 FFF7FEFF 		bl	RadioStandby
 3959              	.LVL341:
1056:Middlewares/Third_Party/SubGHz_Phy/stm32_radio_driver/radio.c ****             SUBGRF_SetModulationParams( &SubgRf.ModulationParams );
 3960              		.loc 1 1056 13 view .LVU1129
1056:Middlewares/Third_Party/SubGHz_Phy/stm32_radio_driver/radio.c ****             SUBGRF_SetModulationParams( &SubgRf.ModulationParams );
 3961              		.loc 1 1056 53 is_stmt 0 view .LVU1130
 3962 013c 2646     		mov	r6, r4
 3963 013e 16F8380F 		ldrb	r0, [r6, #56]!	@ zero_extendqisi2
1056:Middlewares/Third_Party/SubGHz_Phy/stm32_radio_driver/radio.c ****             SUBGRF_SetModulationParams( &SubgRf.ModulationParams );
 3964              		.loc 1 1056 13 view .LVU1131
 3965 0142 0038     		subs	r0, r0, #0
 3966 0144 18BF     		it	ne
 3967 0146 0120     		movne	r0, #1
 3968 0148 FFF7FEFF 		bl	RadioSetModem
 3969              	.LVL342:
1057:Middlewares/Third_Party/SubGHz_Phy/stm32_radio_driver/radio.c ****             SUBGRF_SetPacketParams( &SubgRf.PacketParams );
 3970              		.loc 1 1057 13 is_stmt 1 view .LVU1132
 3971 014c 3046     		mov	r0, r6
ARM GAS  /tmp/ccldRdip.s 			page 123


 3972 014e FFF7FEFF 		bl	SUBGRF_SetModulationParams
 3973              	.LVL343:
1058:Middlewares/Third_Party/SubGHz_Phy/stm32_radio_driver/radio.c ****             break;
 3974              		.loc 1 1058 13 view .LVU1133
 3975 0152 04F10E00 		add	r0, r4, #14
 3976 0156 FFF7FEFF 		bl	SUBGRF_SetPacketParams
 3977              	.LVL344:
1059:Middlewares/Third_Party/SubGHz_Phy/stm32_radio_driver/radio.c **** 
 3978              		.loc 1 1059 13 view .LVU1134
 3979 015a 66E7     		b	.L287
 3980              	.L299:
1023:Middlewares/Third_Party/SubGHz_Phy/stm32_radio_driver/radio.c ****             {
 3981              		.loc 1 1023 38 is_stmt 0 view .LVU1135
 3982 015c 0C9A     		ldr	r2, [sp, #48]
 3983 015e 0C2A     		cmp	r2, #12
 3984 0160 D1D1     		bne	.L292
 3985              	.L291:
1025:Middlewares/Third_Party/SubGHz_Phy/stm32_radio_driver/radio.c ****             }
 3986              		.loc 1 1025 17 is_stmt 1 view .LVU1136
1025:Middlewares/Third_Party/SubGHz_Phy/stm32_radio_driver/radio.c ****             }
 3987              		.loc 1 1025 73 is_stmt 0 view .LVU1137
 3988 0162 0F4A     		ldr	r2, .L301
 3989 0164 0121     		movs	r1, #1
 3990 0166 82F85310 		strb	r1, [r2, #83]
 3991 016a D0E7     		b	.L293
 3992              	.L300:
1037:Middlewares/Third_Party/SubGHz_Phy/stm32_radio_driver/radio.c ****                 {
 3993              		.loc 1 1037 17 is_stmt 1 view .LVU1138
1037:Middlewares/Third_Party/SubGHz_Phy/stm32_radio_driver/radio.c ****                 {
 3994              		.loc 1 1037 19 is_stmt 0 view .LVU1139
 3995 016c 0B2E     		cmp	r6, #11
 3996 016e 03D8     		bhi	.L295
1039:Middlewares/Third_Party/SubGHz_Phy/stm32_radio_driver/radio.c ****                 }
 3997              		.loc 1 1039 21 is_stmt 1 view .LVU1140
1039:Middlewares/Third_Party/SubGHz_Phy/stm32_radio_driver/radio.c ****                 }
 3998              		.loc 1 1039 68 is_stmt 0 view .LVU1141
 3999 0170 1346     		mov	r3, r2
 4000 0172 0C22     		movs	r2, #12
 4001 0174 9A83     		strh	r2, [r3, #28]	@ movhi
 4002 0176 D3E7     		b	.L296
 4003              	.L295:
1043:Middlewares/Third_Party/SubGHz_Phy/stm32_radio_driver/radio.c ****                 }
 4004              		.loc 1 1043 21 is_stmt 1 view .LVU1142
1043:Middlewares/Third_Party/SubGHz_Phy/stm32_radio_driver/radio.c ****                 }
 4005              		.loc 1 1043 68 is_stmt 0 view .LVU1143
 4006 0178 094B     		ldr	r3, .L301
 4007 017a 9E83     		strh	r6, [r3, #28]	@ movhi
 4008 017c D0E7     		b	.L296
 4009              	.L286:
1062:Middlewares/Third_Party/SubGHz_Phy/stm32_radio_driver/radio.c ****             SubgRf.ModulationParams.PacketType = PACKET_TYPE_BPSK;
 4010              		.loc 1 1062 13 is_stmt 1 view .LVU1144
 4011 017e 0320     		movs	r0, #3
 4012 0180 FFF7FEFF 		bl	RadioSetModem
 4013              	.LVL345:
1063:Middlewares/Third_Party/SubGHz_Phy/stm32_radio_driver/radio.c ****             SubgRf.ModulationParams.Params.Bpsk.BitRate           = datarate;
 4014              		.loc 1 1063 13 view .LVU1145
1063:Middlewares/Third_Party/SubGHz_Phy/stm32_radio_driver/radio.c ****             SubgRf.ModulationParams.Params.Bpsk.BitRate           = datarate;
ARM GAS  /tmp/ccldRdip.s 			page 124


 4015              		.loc 1 1063 48 is_stmt 0 view .LVU1146
 4016 0184 0648     		ldr	r0, .L301
 4017 0186 0223     		movs	r3, #2
 4018 0188 80F83830 		strb	r3, [r0, #56]
1064:Middlewares/Third_Party/SubGHz_Phy/stm32_radio_driver/radio.c ****             SubgRf.ModulationParams.Params.Bpsk.ModulationShaping = MOD_SHAPING_DBPSK;
 4019              		.loc 1 1064 13 is_stmt 1 view .LVU1147
1064:Middlewares/Third_Party/SubGHz_Phy/stm32_radio_driver/radio.c ****             SubgRf.ModulationParams.Params.Bpsk.ModulationShaping = MOD_SHAPING_DBPSK;
 4020              		.loc 1 1064 67 is_stmt 0 view .LVU1148
 4021 018c 0C9B     		ldr	r3, [sp, #48]
 4022 018e 8364     		str	r3, [r0, #72]
1065:Middlewares/Third_Party/SubGHz_Phy/stm32_radio_driver/radio.c ****             SUBGRF_SetModulationParams( &SubgRf.ModulationParams );
 4023              		.loc 1 1065 13 is_stmt 1 view .LVU1149
1065:Middlewares/Third_Party/SubGHz_Phy/stm32_radio_driver/radio.c ****             SUBGRF_SetModulationParams( &SubgRf.ModulationParams );
 4024              		.loc 1 1065 67 is_stmt 0 view .LVU1150
 4025 0190 1623     		movs	r3, #22
 4026 0192 80F84C30 		strb	r3, [r0, #76]
1066:Middlewares/Third_Party/SubGHz_Phy/stm32_radio_driver/radio.c ****             break;
 4027              		.loc 1 1066 13 is_stmt 1 view .LVU1151
 4028 0196 3830     		adds	r0, r0, #56
 4029 0198 FFF7FEFF 		bl	SUBGRF_SetModulationParams
 4030              	.LVL346:
1067:Middlewares/Third_Party/SubGHz_Phy/stm32_radio_driver/radio.c **** 
 4031              		.loc 1 1067 13 view .LVU1152
 4032 019c 45E7     		b	.L287
 4033              	.L302:
 4034 019e 00BF     		.align	2
 4035              	.L301:
 4036 01a0 00000000 		.word	.LANCHOR3
 4037 01a4 00000000 		.word	.LANCHOR7
 4038 01a8 00000000 		.word	.LANCHOR0
 4039 01ac 00000000 		.word	.LANCHOR2
 4040              	.LBE10:
 4041              		.cfi_endproc
 4042              	.LFE991:
 4044              		.section	.text.RadioSetRxConfig,"ax",%progbits
 4045              		.align	1
 4046              		.syntax unified
 4047              		.thumb
 4048              		.thumb_func
 4049              		.fpu softvfp
 4051              	RadioSetRxConfig:
 4052              	.LVL347:
 4053              	.LFB990:
 798:Middlewares/Third_Party/SubGHz_Phy/stm32_radio_driver/radio.c **** 
 4054              		.loc 1 798 1 view -0
 4055              		.cfi_startproc
 4056              		@ args = 40, pretend = 0, frame = 24
 4057              		@ frame_needed = 0, uses_anonymous_args = 0
 798:Middlewares/Third_Party/SubGHz_Phy/stm32_radio_driver/radio.c **** 
 4058              		.loc 1 798 1 is_stmt 0 view .LVU1154
 4059 0000 2DE9F04F 		push	{r4, r5, r6, r7, r8, r9, r10, fp, lr}
 4060              	.LCFI51:
 4061              		.cfi_def_cfa_offset 36
 4062              		.cfi_offset 4, -36
 4063              		.cfi_offset 5, -32
 4064              		.cfi_offset 6, -28
 4065              		.cfi_offset 7, -24
ARM GAS  /tmp/ccldRdip.s 			page 125


 4066              		.cfi_offset 8, -20
 4067              		.cfi_offset 9, -16
 4068              		.cfi_offset 10, -12
 4069              		.cfi_offset 11, -8
 4070              		.cfi_offset 14, -4
 4071 0004 87B0     		sub	sp, sp, #28
 4072              	.LCFI52:
 4073              		.cfi_def_cfa_offset 64
 4074 0006 0446     		mov	r4, r0
 4075 0008 0E46     		mov	r6, r1
 4076 000a 1546     		mov	r5, r2
 4077 000c 0193     		str	r3, [sp, #4]
 4078 000e BDF84490 		ldrh	r9, [sp, #68]
 4079 0012 BDF848A0 		ldrh	r10, [sp, #72]
 4080 0016 9DF84C70 		ldrb	r7, [sp, #76]	@ zero_extendqisi2
 4081 001a 9DF854B0 		ldrb	fp, [sp, #84]	@ zero_extendqisi2
 4082 001e 9DF86480 		ldrb	r8, [sp, #100]	@ zero_extendqisi2
 800:Middlewares/Third_Party/SubGHz_Phy/stm32_radio_driver/radio.c ****     SubgRf.RxContinuous = rxContinuous;
 4083              		.loc 1 800 5 is_stmt 1 view .LVU1155
 801:Middlewares/Third_Party/SubGHz_Phy/stm32_radio_driver/radio.c ****     RFW_DeInit(); /* ST_WORKAROUND: Switch Off FwPacketDecoding by default */
 4084              		.loc 1 801 5 view .LVU1156
 801:Middlewares/Third_Party/SubGHz_Phy/stm32_radio_driver/radio.c ****     RFW_DeInit(); /* ST_WORKAROUND: Switch Off FwPacketDecoding by default */
 4085              		.loc 1 801 25 is_stmt 0 view .LVU1157
 4086 0022 AF4B     		ldr	r3, .L328
 4087              	.LVL348:
 801:Middlewares/Third_Party/SubGHz_Phy/stm32_radio_driver/radio.c ****     RFW_DeInit(); /* ST_WORKAROUND: Switch Off FwPacketDecoding by default */
 4088              		.loc 1 801 25 view .LVU1158
 4089 0024 83F80180 		strb	r8, [r3, #1]
 802:Middlewares/Third_Party/SubGHz_Phy/stm32_radio_driver/radio.c ****     if( rxContinuous == true )
 4090              		.loc 1 802 5 is_stmt 1 view .LVU1159
 4091 0028 FFF7FEFF 		bl	RFW_DeInit
 4092              	.LVL349:
 803:Middlewares/Third_Party/SubGHz_Phy/stm32_radio_driver/radio.c ****     {
 4093              		.loc 1 803 5 view .LVU1160
 803:Middlewares/Third_Party/SubGHz_Phy/stm32_radio_driver/radio.c ****     {
 4094              		.loc 1 803 7 is_stmt 0 view .LVU1161
 4095 002c B8F1000F 		cmp	r8, #0
 4096 0030 01D0     		beq	.L304
 805:Middlewares/Third_Party/SubGHz_Phy/stm32_radio_driver/radio.c ****     }
 4097              		.loc 1 805 21 view .LVU1162
 4098 0032 4FF0000A 		mov	r10, #0
 4099              	.L304:
 4100              	.LVL350:
 807:Middlewares/Third_Party/SubGHz_Phy/stm32_radio_driver/radio.c ****     {
 4101              		.loc 1 807 5 is_stmt 1 view .LVU1163
 807:Middlewares/Third_Party/SubGHz_Phy/stm32_radio_driver/radio.c ****     {
 4102              		.loc 1 807 7 is_stmt 0 view .LVU1164
 4103 0036 6FB1     		cbz	r7, .L305
 809:Middlewares/Third_Party/SubGHz_Phy/stm32_radio_driver/radio.c ****     }
 4104              		.loc 1 809 9 is_stmt 1 view .LVU1165
 809:Middlewares/Third_Party/SubGHz_Phy/stm32_radio_driver/radio.c ****     }
 4105              		.loc 1 809 26 is_stmt 0 view .LVU1166
 4106 0038 9DF85020 		ldrb	r2, [sp, #80]	@ zero_extendqisi2
 4107 003c A94B     		ldr	r3, .L328+4
 4108 003e 1A70     		strb	r2, [r3]
 4109              	.L306:
 816:Middlewares/Third_Party/SubGHz_Phy/stm32_radio_driver/radio.c ****     {
ARM GAS  /tmp/ccldRdip.s 			page 126


 4110              		.loc 1 816 5 is_stmt 1 view .LVU1167
 4111 0040 012C     		cmp	r4, #1
 4112 0042 00F0D680 		beq	.L307
 4113 0046 042C     		cmp	r4, #4
 4114 0048 08D0     		beq	.L308
 4115 004a 002C     		cmp	r4, #0
 4116 004c 7CD0     		beq	.L324
 4117              	.LVL351:
 4118              	.L303:
 972:Middlewares/Third_Party/SubGHz_Phy/stm32_radio_driver/radio.c **** 
 4119              		.loc 1 972 1 is_stmt 0 view .LVU1168
 4120 004e 07B0     		add	sp, sp, #28
 4121              	.LCFI53:
 4122              		.cfi_remember_state
 4123              		.cfi_def_cfa_offset 36
 4124              		@ sp needed
 4125 0050 BDE8F08F 		pop	{r4, r5, r6, r7, r8, r9, r10, fp, pc}
 4126              	.LVL352:
 4127              	.L305:
 4128              	.LCFI54:
 4129              		.cfi_restore_state
 813:Middlewares/Third_Party/SubGHz_Phy/stm32_radio_driver/radio.c ****     }
 4130              		.loc 1 813 9 is_stmt 1 view .LVU1169
 813:Middlewares/Third_Party/SubGHz_Phy/stm32_radio_driver/radio.c ****     }
 4131              		.loc 1 813 26 is_stmt 0 view .LVU1170
 4132 0054 A34B     		ldr	r3, .L328+4
 4133 0056 FF22     		movs	r2, #255
 4134 0058 1A70     		strb	r2, [r3]
 4135 005a F1E7     		b	.L306
 4136              	.L308:
 4137              	.LBB11:
 819:Middlewares/Third_Party/SubGHz_Phy/stm32_radio_driver/radio.c ****             SubgRf.ModulationParams.PacketType = PACKET_TYPE_GFSK;
 4138              		.loc 1 819 13 is_stmt 1 view .LVU1171
 4139 005c 0120     		movs	r0, #1
 4140 005e FFF7FEFF 		bl	SUBGRF_SetStopRxTimerOnPreambleDetect
 4141              	.LVL353:
 820:Middlewares/Third_Party/SubGHz_Phy/stm32_radio_driver/radio.c **** 
 4142              		.loc 1 820 13 view .LVU1172
 820:Middlewares/Third_Party/SubGHz_Phy/stm32_radio_driver/radio.c **** 
 4143              		.loc 1 820 48 is_stmt 0 view .LVU1173
 4144 0062 9F4C     		ldr	r4, .L328
 4145 0064 0027     		movs	r7, #0
 4146 0066 84F83870 		strb	r7, [r4, #56]
 822:Middlewares/Third_Party/SubGHz_Phy/stm32_radio_driver/radio.c ****             SubgRf.ModulationParams.Params.Gfsk.ModulationShaping = MOD_SHAPING_G_BT_05;
 4147              		.loc 1 822 13 is_stmt 1 view .LVU1174
 822:Middlewares/Third_Party/SubGHz_Phy/stm32_radio_driver/radio.c ****             SubgRf.ModulationParams.Params.Gfsk.ModulationShaping = MOD_SHAPING_G_BT_05;
 4148              		.loc 1 822 57 is_stmt 0 view .LVU1175
 4149 006a E563     		str	r5, [r4, #60]
 823:Middlewares/Third_Party/SubGHz_Phy/stm32_radio_driver/radio.c ****             SubgRf.ModulationParams.Params.Gfsk.Fdev = 800;
 4150              		.loc 1 823 13 is_stmt 1 view .LVU1176
 823:Middlewares/Third_Party/SubGHz_Phy/stm32_radio_driver/radio.c ****             SubgRf.ModulationParams.Params.Gfsk.Fdev = 800;
 4151              		.loc 1 823 67 is_stmt 0 view .LVU1177
 4152 006c 0923     		movs	r3, #9
 4153 006e 84F84430 		strb	r3, [r4, #68]
 824:Middlewares/Third_Party/SubGHz_Phy/stm32_radio_driver/radio.c ****             SubgRf.ModulationParams.Params.Gfsk.Bandwidth = SUBGRF_GetFskBandwidthRegValue( bandwid
 4154              		.loc 1 824 13 is_stmt 1 view .LVU1178
 824:Middlewares/Third_Party/SubGHz_Phy/stm32_radio_driver/radio.c ****             SubgRf.ModulationParams.Params.Gfsk.Bandwidth = SUBGRF_GetFskBandwidthRegValue( bandwid
ARM GAS  /tmp/ccldRdip.s 			page 127


 4155              		.loc 1 824 54 is_stmt 0 view .LVU1179
 4156 0072 4FF44873 		mov	r3, #800
 4157 0076 2364     		str	r3, [r4, #64]
 825:Middlewares/Third_Party/SubGHz_Phy/stm32_radio_driver/radio.c **** 
 4158              		.loc 1 825 13 is_stmt 1 view .LVU1180
 825:Middlewares/Third_Party/SubGHz_Phy/stm32_radio_driver/radio.c **** 
 4159              		.loc 1 825 61 is_stmt 0 view .LVU1181
 4160 0078 3046     		mov	r0, r6
 4161 007a FFF7FEFF 		bl	SUBGRF_GetFskBandwidthRegValue
 4162              	.LVL354:
 825:Middlewares/Third_Party/SubGHz_Phy/stm32_radio_driver/radio.c **** 
 4163              		.loc 1 825 59 view .LVU1182
 4164 007e 84F84500 		strb	r0, [r4, #69]
 827:Middlewares/Third_Party/SubGHz_Phy/stm32_radio_driver/radio.c ****             SubgRf.PacketParams.Params.Gfsk.PreambleLength = ( preambleLen << 3 ); // convert byte 
 4165              		.loc 1 827 13 is_stmt 1 view .LVU1183
 827:Middlewares/Third_Party/SubGHz_Phy/stm32_radio_driver/radio.c ****             SubgRf.PacketParams.Params.Gfsk.PreambleLength = ( preambleLen << 3 ); // convert byte 
 4166              		.loc 1 827 44 is_stmt 0 view .LVU1184
 4167 0082 A773     		strb	r7, [r4, #14]
 828:Middlewares/Third_Party/SubGHz_Phy/stm32_radio_driver/radio.c ****             SubgRf.PacketParams.Params.Gfsk.PreambleMinDetect = RADIO_PREAMBLE_DETECTOR_OFF;
 4168              		.loc 1 828 13 is_stmt 1 view .LVU1185
 828:Middlewares/Third_Party/SubGHz_Phy/stm32_radio_driver/radio.c ****             SubgRf.PacketParams.Params.Gfsk.PreambleMinDetect = RADIO_PREAMBLE_DETECTOR_OFF;
 4169              		.loc 1 828 76 is_stmt 0 view .LVU1186
 4170 0084 4FEAC909 		lsl	r9, r9, #3
 828:Middlewares/Third_Party/SubGHz_Phy/stm32_radio_driver/radio.c ****             SubgRf.PacketParams.Params.Gfsk.PreambleMinDetect = RADIO_PREAMBLE_DETECTOR_OFF;
 4171              		.loc 1 828 60 view .LVU1187
 4172 0088 A4F81090 		strh	r9, [r4, #16]	@ movhi
 829:Middlewares/Third_Party/SubGHz_Phy/stm32_radio_driver/radio.c ****             SubgRf.PacketParams.Params.Gfsk.SyncWordLength = 2 << 3; // convert byte into bit
 4173              		.loc 1 829 13 is_stmt 1 view .LVU1188
 829:Middlewares/Third_Party/SubGHz_Phy/stm32_radio_driver/radio.c ****             SubgRf.PacketParams.Params.Gfsk.SyncWordLength = 2 << 3; // convert byte into bit
 4174              		.loc 1 829 63 is_stmt 0 view .LVU1189
 4175 008c A774     		strb	r7, [r4, #18]
 830:Middlewares/Third_Party/SubGHz_Phy/stm32_radio_driver/radio.c ****             SubgRf.PacketParams.Params.Gfsk.AddrComp = RADIO_ADDRESSCOMP_FILT_OFF;
 4176              		.loc 1 830 13 is_stmt 1 view .LVU1190
 830:Middlewares/Third_Party/SubGHz_Phy/stm32_radio_driver/radio.c ****             SubgRf.PacketParams.Params.Gfsk.AddrComp = RADIO_ADDRESSCOMP_FILT_OFF;
 4177              		.loc 1 830 60 is_stmt 0 view .LVU1191
 4178 008e 1023     		movs	r3, #16
 4179 0090 E374     		strb	r3, [r4, #19]
 831:Middlewares/Third_Party/SubGHz_Phy/stm32_radio_driver/radio.c ****             SubgRf.PacketParams.Params.Gfsk.HeaderType = RADIO_PACKET_FIXED_LENGTH;
 4180              		.loc 1 831 13 is_stmt 1 view .LVU1192
 831:Middlewares/Third_Party/SubGHz_Phy/stm32_radio_driver/radio.c ****             SubgRf.PacketParams.Params.Gfsk.HeaderType = RADIO_PACKET_FIXED_LENGTH;
 4181              		.loc 1 831 54 is_stmt 0 view .LVU1193
 4182 0092 2775     		strb	r7, [r4, #20]
 832:Middlewares/Third_Party/SubGHz_Phy/stm32_radio_driver/radio.c ****             SubgRf.PacketParams.Params.Gfsk.PayloadLength = MaxPayloadLength;
 4183              		.loc 1 832 13 is_stmt 1 view .LVU1194
 832:Middlewares/Third_Party/SubGHz_Phy/stm32_radio_driver/radio.c ****             SubgRf.PacketParams.Params.Gfsk.PayloadLength = MaxPayloadLength;
 4184              		.loc 1 832 56 is_stmt 0 view .LVU1195
 4185 0094 6775     		strb	r7, [r4, #21]
 833:Middlewares/Third_Party/SubGHz_Phy/stm32_radio_driver/radio.c ****             SubgRf.PacketParams.Params.Gfsk.CrcLength = RADIO_CRC_OFF;
 4186              		.loc 1 833 13 is_stmt 1 view .LVU1196
 833:Middlewares/Third_Party/SubGHz_Phy/stm32_radio_driver/radio.c ****             SubgRf.PacketParams.Params.Gfsk.CrcLength = RADIO_CRC_OFF;
 4187              		.loc 1 833 59 is_stmt 0 view .LVU1197
 4188 0096 934B     		ldr	r3, .L328+4
 4189 0098 1B78     		ldrb	r3, [r3]	@ zero_extendqisi2
 4190 009a A375     		strb	r3, [r4, #22]
 834:Middlewares/Third_Party/SubGHz_Phy/stm32_radio_driver/radio.c **** 
 4191              		.loc 1 834 13 is_stmt 1 view .LVU1198
 834:Middlewares/Third_Party/SubGHz_Phy/stm32_radio_driver/radio.c **** 
ARM GAS  /tmp/ccldRdip.s 			page 128


 4192              		.loc 1 834 55 is_stmt 0 view .LVU1199
 4193 009c 0123     		movs	r3, #1
 4194 009e E375     		strb	r3, [r4, #23]
 836:Middlewares/Third_Party/SubGHz_Phy/stm32_radio_driver/radio.c **** 
 4195              		.loc 1 836 13 is_stmt 1 view .LVU1200
 836:Middlewares/Third_Party/SubGHz_Phy/stm32_radio_driver/radio.c **** 
 4196              		.loc 1 836 52 is_stmt 0 view .LVU1201
 4197 00a0 2776     		strb	r7, [r4, #24]
 838:Middlewares/Third_Party/SubGHz_Phy/stm32_radio_driver/radio.c ****             SUBGRF_SetModulationParams( &SubgRf.ModulationParams );
 4198              		.loc 1 838 13 is_stmt 1 view .LVU1202
 4199 00a2 0420     		movs	r0, #4
 4200 00a4 FFF7FEFF 		bl	RadioSetModem
 4201              	.LVL355:
 839:Middlewares/Third_Party/SubGHz_Phy/stm32_radio_driver/radio.c ****             SUBGRF_SetPacketParams( &SubgRf.PacketParams );
 4202              		.loc 1 839 13 view .LVU1203
 4203 00a8 04F13800 		add	r0, r4, #56
 4204 00ac FFF7FEFF 		bl	SUBGRF_SetModulationParams
 4205              	.LVL356:
 840:Middlewares/Third_Party/SubGHz_Phy/stm32_radio_driver/radio.c ****             SUBGRF_SetSyncWord( ( uint8_t[] ){0xB2, 0x27, 0x00, 0x00, 0x00, 0x00, 0x00, 0x00 } );
 4206              		.loc 1 840 13 view .LVU1204
 4207 00b0 04F10E00 		add	r0, r4, #14
 4208 00b4 FFF7FEFF 		bl	SUBGRF_SetPacketParams
 4209              	.LVL357:
 841:Middlewares/Third_Party/SubGHz_Phy/stm32_radio_driver/radio.c ****             SUBGRF_SetWhiteningSeed( 0x01FF );
 4210              		.loc 1 841 13 view .LVU1205
 841:Middlewares/Third_Party/SubGHz_Phy/stm32_radio_driver/radio.c ****             SUBGRF_SetWhiteningSeed( 0x01FF );
 4211              		.loc 1 841 46 is_stmt 0 view .LVU1206
 4212 00b8 02AB     		add	r3, sp, #8
 4213 00ba 8B4A     		ldr	r2, .L328+8
 4214 00bc 92E80300 		ldm	r2, {r0, r1}
 4215 00c0 83E80300 		stm	r3, {r0, r1}
 841:Middlewares/Third_Party/SubGHz_Phy/stm32_radio_driver/radio.c ****             SUBGRF_SetWhiteningSeed( 0x01FF );
 4216              		.loc 1 841 13 view .LVU1207
 4217 00c4 1846     		mov	r0, r3
 4218 00c6 FFF7FEFF 		bl	SUBGRF_SetSyncWord
 4219              	.LVL358:
 842:Middlewares/Third_Party/SubGHz_Phy/stm32_radio_driver/radio.c **** 
 4220              		.loc 1 842 13 is_stmt 1 view .LVU1208
 4221 00ca 40F2FF10 		movw	r0, #511
 4222 00ce FFF7FEFF 		bl	SUBGRF_SetWhiteningSeed
 4223              	.LVL359:
 845:Middlewares/Third_Party/SubGHz_Phy/stm32_radio_driver/radio.c ****             modReg&=RADIO_BIT_MASK(4);
 4224              		.loc 1 845 13 view .LVU1209
 845:Middlewares/Third_Party/SubGHz_Phy/stm32_radio_driver/radio.c ****             modReg&=RADIO_BIT_MASK(4);
 4225              		.loc 1 845 21 is_stmt 0 view .LVU1210
 4226 00d2 40F6B800 		movw	r0, #2232
 4227 00d6 FFF7FEFF 		bl	RadioRead
 4228              	.LVL360:
 846:Middlewares/Third_Party/SubGHz_Phy/stm32_radio_driver/radio.c ****             RadioWrite(0x8b8, modReg);
 4229              		.loc 1 846 13 is_stmt 1 view .LVU1211
 847:Middlewares/Third_Party/SubGHz_Phy/stm32_radio_driver/radio.c ****             /* Lower the threshold of cfo_reset */
 4230              		.loc 1 847 13 view .LVU1212
 4231 00da 00F0EF01 		and	r1, r0, #239
 4232 00de 40F6B800 		movw	r0, #2232
 4233              	.LVL361:
 847:Middlewares/Third_Party/SubGHz_Phy/stm32_radio_driver/radio.c ****             /* Lower the threshold of cfo_reset */
 4234              		.loc 1 847 13 is_stmt 0 view .LVU1213
ARM GAS  /tmp/ccldRdip.s 			page 129


 4235 00e2 FFF7FEFF 		bl	RadioWrite
 4236              	.LVL362:
 849:Middlewares/Third_Party/SubGHz_Phy/stm32_radio_driver/radio.c **** 
 4237              		.loc 1 849 13 is_stmt 1 view .LVU1214
 4238 00e6 0421     		movs	r1, #4
 4239 00e8 40F6B900 		movw	r0, #2233
 4240 00ec FFF7FEFF 		bl	RadioWrite
 4241              	.LVL363:
 852:Middlewares/Third_Party/SubGHz_Phy/stm32_radio_driver/radio.c ****             modReg&=( RADIO_BIT_MASK(2) & RADIO_BIT_MASK(3) & RADIO_BIT_MASK(4) );
 4242              		.loc 1 852 13 view .LVU1215
 852:Middlewares/Third_Party/SubGHz_Phy/stm32_radio_driver/radio.c ****             modReg&=( RADIO_BIT_MASK(2) & RADIO_BIT_MASK(3) & RADIO_BIT_MASK(4) );
 4243              		.loc 1 852 21 is_stmt 0 view .LVU1216
 4244 00f0 40F69B00 		movw	r0, #2203
 4245 00f4 FFF7FEFF 		bl	RadioRead
 4246              	.LVL364:
 853:Middlewares/Third_Party/SubGHz_Phy/stm32_radio_driver/radio.c ****             RadioWrite(0x89b, (modReg| (0x1<<3) ) );
 4247              		.loc 1 853 13 is_stmt 1 view .LVU1217
 853:Middlewares/Third_Party/SubGHz_Phy/stm32_radio_driver/radio.c ****             RadioWrite(0x89b, (modReg| (0x1<<3) ) );
 4248              		.loc 1 853 19 is_stmt 0 view .LVU1218
 4249 00f8 00F0E301 		and	r1, r0, #227
 4250              	.LVL365:
 854:Middlewares/Third_Party/SubGHz_Phy/stm32_radio_driver/radio.c **** 
 4251              		.loc 1 854 13 is_stmt 1 view .LVU1219
 4252 00fc 41F00801 		orr	r1, r1, #8
 4253              	.LVL366:
 854:Middlewares/Third_Party/SubGHz_Phy/stm32_radio_driver/radio.c **** 
 4254              		.loc 1 854 13 is_stmt 0 view .LVU1220
 4255 0100 40F69B00 		movw	r0, #2203
 4256              	.LVL367:
 854:Middlewares/Third_Party/SubGHz_Phy/stm32_radio_driver/radio.c **** 
 4257              		.loc 1 854 13 view .LVU1221
 4258 0104 FFF7FEFF 		bl	RadioWrite
 4259              	.LVL368:
 857:Middlewares/Third_Party/SubGHz_Phy/stm32_radio_driver/radio.c ****             modReg&=( RADIO_BIT_MASK(3) & RADIO_BIT_MASK(4) );
 4260              		.loc 1 857 13 is_stmt 1 view .LVU1222
 857:Middlewares/Third_Party/SubGHz_Phy/stm32_radio_driver/radio.c ****             modReg&=( RADIO_BIT_MASK(3) & RADIO_BIT_MASK(4) );
 4261              		.loc 1 857 21 is_stmt 0 view .LVU1223
 4262 0108 40F2D160 		movw	r0, #1745
 4263 010c FFF7FEFF 		bl	RadioRead
 4264              	.LVL369:
 858:Middlewares/Third_Party/SubGHz_Phy/stm32_radio_driver/radio.c ****             RadioWrite(0x6d1, (modReg| (0x3<<3) ));
 4265              		.loc 1 858 13 is_stmt 1 view .LVU1224
 858:Middlewares/Third_Party/SubGHz_Phy/stm32_radio_driver/radio.c ****             RadioWrite(0x6d1, (modReg| (0x3<<3) ));
 4266              		.loc 1 858 19 is_stmt 0 view .LVU1225
 4267 0110 00F0E701 		and	r1, r0, #231
 4268              	.LVL370:
 859:Middlewares/Third_Party/SubGHz_Phy/stm32_radio_driver/radio.c **** 
 4269              		.loc 1 859 13 is_stmt 1 view .LVU1226
 4270 0114 41F01801 		orr	r1, r1, #24
 4271              	.LVL371:
 859:Middlewares/Third_Party/SubGHz_Phy/stm32_radio_driver/radio.c **** 
 4272              		.loc 1 859 13 is_stmt 0 view .LVU1227
 4273 0118 40F2D160 		movw	r0, #1745
 4274              	.LVL372:
 859:Middlewares/Third_Party/SubGHz_Phy/stm32_radio_driver/radio.c **** 
 4275              		.loc 1 859 13 view .LVU1228
 4276 011c FFF7FEFF 		bl	RadioWrite
ARM GAS  /tmp/ccldRdip.s 			page 130


 4277              	.LVL373:
 862:Middlewares/Third_Party/SubGHz_Phy/stm32_radio_driver/radio.c ****             modReg&=( RADIO_BIT_MASK(4) & RADIO_BIT_MASK(5) & RADIO_BIT_MASK(6) );
 4278              		.loc 1 862 13 is_stmt 1 view .LVU1229
 862:Middlewares/Third_Party/SubGHz_Phy/stm32_radio_driver/radio.c ****             modReg&=( RADIO_BIT_MASK(4) & RADIO_BIT_MASK(5) & RADIO_BIT_MASK(6) );
 4279              		.loc 1 862 21 is_stmt 0 view .LVU1230
 4280 0120 40F2AC60 		movw	r0, #1708
 4281 0124 FFF7FEFF 		bl	RadioRead
 4282              	.LVL374:
 863:Middlewares/Third_Party/SubGHz_Phy/stm32_radio_driver/radio.c ****             RadioWrite(0x6ac, (modReg| (0x5<<4) ));
 4283              		.loc 1 863 13 is_stmt 1 view .LVU1231
 863:Middlewares/Third_Party/SubGHz_Phy/stm32_radio_driver/radio.c ****             RadioWrite(0x6ac, (modReg| (0x5<<4) ));
 4284              		.loc 1 863 19 is_stmt 0 view .LVU1232
 4285 0128 00F08F01 		and	r1, r0, #143
 4286              	.LVL375:
 864:Middlewares/Third_Party/SubGHz_Phy/stm32_radio_driver/radio.c ****             /*timeout unused when SubgRf.RxContinuous*/
 4287              		.loc 1 864 13 is_stmt 1 view .LVU1233
 4288 012c 41F05001 		orr	r1, r1, #80
 4289              	.LVL376:
 864:Middlewares/Third_Party/SubGHz_Phy/stm32_radio_driver/radio.c ****             /*timeout unused when SubgRf.RxContinuous*/
 4290              		.loc 1 864 13 is_stmt 0 view .LVU1234
 4291 0130 40F2AC60 		movw	r0, #1708
 4292              	.LVL377:
 864:Middlewares/Third_Party/SubGHz_Phy/stm32_radio_driver/radio.c ****             /*timeout unused when SubgRf.RxContinuous*/
 4293              		.loc 1 864 13 view .LVU1235
 4294 0134 FFF7FEFF 		bl	RadioWrite
 4295              	.LVL378:
 866:Middlewares/Third_Party/SubGHz_Phy/stm32_radio_driver/radio.c ****             break;
 4296              		.loc 1 866 13 is_stmt 1 view .LVU1236
 866:Middlewares/Third_Party/SubGHz_Phy/stm32_radio_driver/radio.c ****             break;
 4297              		.loc 1 866 63 is_stmt 0 view .LVU1237
 4298 0138 4FF4FA53 		mov	r3, #8000
 4299 013c 03FB0AFA 		mul	r10, r3, r10
 4300              	.LVL379:
 866:Middlewares/Third_Party/SubGHz_Phy/stm32_radio_driver/radio.c ****             break;
 4301              		.loc 1 866 32 view .LVU1238
 4302 0140 BAFBF5F5 		udiv	r5, r10, r5
 4303              	.LVL380:
 866:Middlewares/Third_Party/SubGHz_Phy/stm32_radio_driver/radio.c ****             break;
 4304              		.loc 1 866 30 view .LVU1239
 4305 0144 A560     		str	r5, [r4, #8]
 867:Middlewares/Third_Party/SubGHz_Phy/stm32_radio_driver/radio.c ****         case MODEM_FSK:
 4306              		.loc 1 867 13 is_stmt 1 view .LVU1240
 4307 0146 82E7     		b	.L303
 4308              	.LVL381:
 4309              	.L324:
 869:Middlewares/Third_Party/SubGHz_Phy/stm32_radio_driver/radio.c ****             SubgRf.ModulationParams.PacketType = PACKET_TYPE_GFSK;
 4310              		.loc 1 869 13 view .LVU1241
 4311 0148 0020     		movs	r0, #0
 4312 014a FFF7FEFF 		bl	SUBGRF_SetStopRxTimerOnPreambleDetect
 4313              	.LVL382:
 870:Middlewares/Third_Party/SubGHz_Phy/stm32_radio_driver/radio.c **** 
 4314              		.loc 1 870 13 view .LVU1242
 870:Middlewares/Third_Party/SubGHz_Phy/stm32_radio_driver/radio.c **** 
 4315              		.loc 1 870 48 is_stmt 0 view .LVU1243
 4316 014e 644C     		ldr	r4, .L328
 4317 0150 4FF00008 		mov	r8, #0
 4318 0154 84F83880 		strb	r8, [r4, #56]
ARM GAS  /tmp/ccldRdip.s 			page 131


 872:Middlewares/Third_Party/SubGHz_Phy/stm32_radio_driver/radio.c ****             SubgRf.ModulationParams.Params.Gfsk.ModulationShaping = MOD_SHAPING_G_BT_1;
 4319              		.loc 1 872 13 is_stmt 1 view .LVU1244
 872:Middlewares/Third_Party/SubGHz_Phy/stm32_radio_driver/radio.c ****             SubgRf.ModulationParams.Params.Gfsk.ModulationShaping = MOD_SHAPING_G_BT_1;
 4320              		.loc 1 872 57 is_stmt 0 view .LVU1245
 4321 0158 E563     		str	r5, [r4, #60]
 873:Middlewares/Third_Party/SubGHz_Phy/stm32_radio_driver/radio.c ****             SubgRf.ModulationParams.Params.Gfsk.Bandwidth = SUBGRF_GetFskBandwidthRegValue( bandwid
 4322              		.loc 1 873 13 is_stmt 1 view .LVU1246
 873:Middlewares/Third_Party/SubGHz_Phy/stm32_radio_driver/radio.c ****             SubgRf.ModulationParams.Params.Gfsk.Bandwidth = SUBGRF_GetFskBandwidthRegValue( bandwid
 4323              		.loc 1 873 67 is_stmt 0 view .LVU1247
 4324 015a 0B23     		movs	r3, #11
 4325 015c 84F84430 		strb	r3, [r4, #68]
 874:Middlewares/Third_Party/SubGHz_Phy/stm32_radio_driver/radio.c **** 
 4326              		.loc 1 874 13 is_stmt 1 view .LVU1248
 874:Middlewares/Third_Party/SubGHz_Phy/stm32_radio_driver/radio.c **** 
 4327              		.loc 1 874 61 is_stmt 0 view .LVU1249
 4328 0160 3046     		mov	r0, r6
 4329 0162 FFF7FEFF 		bl	SUBGRF_GetFskBandwidthRegValue
 4330              	.LVL383:
 874:Middlewares/Third_Party/SubGHz_Phy/stm32_radio_driver/radio.c **** 
 4331              		.loc 1 874 59 view .LVU1250
 4332 0166 84F84500 		strb	r0, [r4, #69]
 876:Middlewares/Third_Party/SubGHz_Phy/stm32_radio_driver/radio.c ****             SubgRf.PacketParams.Params.Gfsk.PreambleLength = ( preambleLen << 3 ); // convert byte 
 4333              		.loc 1 876 13 is_stmt 1 view .LVU1251
 876:Middlewares/Third_Party/SubGHz_Phy/stm32_radio_driver/radio.c ****             SubgRf.PacketParams.Params.Gfsk.PreambleLength = ( preambleLen << 3 ); // convert byte 
 4334              		.loc 1 876 44 is_stmt 0 view .LVU1252
 4335 016a 84F80E80 		strb	r8, [r4, #14]
 877:Middlewares/Third_Party/SubGHz_Phy/stm32_radio_driver/radio.c ****             SubgRf.PacketParams.Params.Gfsk.PreambleMinDetect = RADIO_PREAMBLE_DETECTOR_08_BITS;
 4336              		.loc 1 877 13 is_stmt 1 view .LVU1253
 877:Middlewares/Third_Party/SubGHz_Phy/stm32_radio_driver/radio.c ****             SubgRf.PacketParams.Params.Gfsk.PreambleMinDetect = RADIO_PREAMBLE_DETECTOR_08_BITS;
 4337              		.loc 1 877 76 is_stmt 0 view .LVU1254
 4338 016e 4FEAC909 		lsl	r9, r9, #3
 877:Middlewares/Third_Party/SubGHz_Phy/stm32_radio_driver/radio.c ****             SubgRf.PacketParams.Params.Gfsk.PreambleMinDetect = RADIO_PREAMBLE_DETECTOR_08_BITS;
 4339              		.loc 1 877 60 view .LVU1255
 4340 0172 A4F81090 		strh	r9, [r4, #16]	@ movhi
 878:Middlewares/Third_Party/SubGHz_Phy/stm32_radio_driver/radio.c ****             SubgRf.PacketParams.Params.Gfsk.SyncWordLength = 3 << 3; // convert byte into bit
 4341              		.loc 1 878 13 is_stmt 1 view .LVU1256
 878:Middlewares/Third_Party/SubGHz_Phy/stm32_radio_driver/radio.c ****             SubgRf.PacketParams.Params.Gfsk.SyncWordLength = 3 << 3; // convert byte into bit
 4342              		.loc 1 878 63 is_stmt 0 view .LVU1257
 4343 0176 0423     		movs	r3, #4
 4344 0178 A374     		strb	r3, [r4, #18]
 879:Middlewares/Third_Party/SubGHz_Phy/stm32_radio_driver/radio.c ****             SubgRf.PacketParams.Params.Gfsk.AddrComp = RADIO_ADDRESSCOMP_FILT_OFF;
 4345              		.loc 1 879 13 is_stmt 1 view .LVU1258
 879:Middlewares/Third_Party/SubGHz_Phy/stm32_radio_driver/radio.c ****             SubgRf.PacketParams.Params.Gfsk.AddrComp = RADIO_ADDRESSCOMP_FILT_OFF;
 4346              		.loc 1 879 60 is_stmt 0 view .LVU1259
 4347 017a 1823     		movs	r3, #24
 4348 017c E374     		strb	r3, [r4, #19]
 880:Middlewares/Third_Party/SubGHz_Phy/stm32_radio_driver/radio.c ****             SubgRf.PacketParams.Params.Gfsk.HeaderType = ( fixLen == true ) ? RADIO_PACKET_FIXED_LE
 4349              		.loc 1 880 13 is_stmt 1 view .LVU1260
 880:Middlewares/Third_Party/SubGHz_Phy/stm32_radio_driver/radio.c ****             SubgRf.PacketParams.Params.Gfsk.HeaderType = ( fixLen == true ) ? RADIO_PACKET_FIXED_LE
 4350              		.loc 1 880 54 is_stmt 0 view .LVU1261
 4351 017e 84F81480 		strb	r8, [r4, #20]
 881:Middlewares/Third_Party/SubGHz_Phy/stm32_radio_driver/radio.c ****             SubgRf.PacketParams.Params.Gfsk.PayloadLength = MaxPayloadLength;
 4352              		.loc 1 881 13 is_stmt 1 view .LVU1262
 881:Middlewares/Third_Party/SubGHz_Phy/stm32_radio_driver/radio.c ****             SubgRf.PacketParams.Params.Gfsk.PayloadLength = MaxPayloadLength;
 4353              		.loc 1 881 105 is_stmt 0 view .LVU1263
 4354 0182 87F00107 		eor	r7, r7, #1
 881:Middlewares/Third_Party/SubGHz_Phy/stm32_radio_driver/radio.c ****             SubgRf.PacketParams.Params.Gfsk.PayloadLength = MaxPayloadLength;
ARM GAS  /tmp/ccldRdip.s 			page 132


 4355              		.loc 1 881 56 view .LVU1264
 4356 0186 6775     		strb	r7, [r4, #21]
 882:Middlewares/Third_Party/SubGHz_Phy/stm32_radio_driver/radio.c ****             if( crcOn == true )
 4357              		.loc 1 882 13 is_stmt 1 view .LVU1265
 882:Middlewares/Third_Party/SubGHz_Phy/stm32_radio_driver/radio.c ****             if( crcOn == true )
 4358              		.loc 1 882 59 is_stmt 0 view .LVU1266
 4359 0188 564B     		ldr	r3, .L328+4
 4360 018a 1B78     		ldrb	r3, [r3]	@ zero_extendqisi2
 4361 018c A375     		strb	r3, [r4, #22]
 883:Middlewares/Third_Party/SubGHz_Phy/stm32_radio_driver/radio.c ****             {
 4362              		.loc 1 883 13 is_stmt 1 view .LVU1267
 883:Middlewares/Third_Party/SubGHz_Phy/stm32_radio_driver/radio.c ****             {
 4363              		.loc 1 883 15 is_stmt 0 view .LVU1268
 4364 018e BBF1000F 		cmp	fp, #0
 4365 0192 2AD0     		beq	.L311
 885:Middlewares/Third_Party/SubGHz_Phy/stm32_radio_driver/radio.c ****             }
 4366              		.loc 1 885 17 is_stmt 1 view .LVU1269
 885:Middlewares/Third_Party/SubGHz_Phy/stm32_radio_driver/radio.c ****             }
 4367              		.loc 1 885 59 is_stmt 0 view .LVU1270
 4368 0194 F222     		movs	r2, #242
 4369 0196 E275     		strb	r2, [r4, #23]
 4370              	.L312:
 891:Middlewares/Third_Party/SubGHz_Phy/stm32_radio_driver/radio.c **** 
 4371              		.loc 1 891 13 is_stmt 1 view .LVU1271
 891:Middlewares/Third_Party/SubGHz_Phy/stm32_radio_driver/radio.c **** 
 4372              		.loc 1 891 52 is_stmt 0 view .LVU1272
 4373 0198 514C     		ldr	r4, .L328
 4374 019a 0123     		movs	r3, #1
 4375 019c 2376     		strb	r3, [r4, #24]
 893:Middlewares/Third_Party/SubGHz_Phy/stm32_radio_driver/radio.c ****             RadioSetModem( ( SubgRf.ModulationParams.PacketType == PACKET_TYPE_GFSK ) ? MODEM_FSK :
 4376              		.loc 1 893 13 is_stmt 1 view .LVU1273
 4377 019e FFF7FEFF 		bl	RadioStandby
 4378              	.LVL384:
 894:Middlewares/Third_Party/SubGHz_Phy/stm32_radio_driver/radio.c ****             SUBGRF_SetModulationParams( &SubgRf.ModulationParams );
 4379              		.loc 1 894 13 view .LVU1274
 894:Middlewares/Third_Party/SubGHz_Phy/stm32_radio_driver/radio.c ****             SUBGRF_SetModulationParams( &SubgRf.ModulationParams );
 4380              		.loc 1 894 53 is_stmt 0 view .LVU1275
 4381 01a2 2646     		mov	r6, r4
 4382              	.LVL385:
 894:Middlewares/Third_Party/SubGHz_Phy/stm32_radio_driver/radio.c ****             SUBGRF_SetModulationParams( &SubgRf.ModulationParams );
 4383              		.loc 1 894 53 view .LVU1276
 4384 01a4 16F8380F 		ldrb	r0, [r6, #56]!	@ zero_extendqisi2
 894:Middlewares/Third_Party/SubGHz_Phy/stm32_radio_driver/radio.c ****             SUBGRF_SetModulationParams( &SubgRf.ModulationParams );
 4385              		.loc 1 894 13 view .LVU1277
 4386 01a8 0038     		subs	r0, r0, #0
 4387 01aa 18BF     		it	ne
 4388 01ac 0120     		movne	r0, #1
 4389 01ae FFF7FEFF 		bl	RadioSetModem
 4390              	.LVL386:
 895:Middlewares/Third_Party/SubGHz_Phy/stm32_radio_driver/radio.c ****             SUBGRF_SetPacketParams( &SubgRf.PacketParams );
 4391              		.loc 1 895 13 is_stmt 1 view .LVU1278
 4392 01b2 3046     		mov	r0, r6
 4393 01b4 FFF7FEFF 		bl	SUBGRF_SetModulationParams
 4394              	.LVL387:
 896:Middlewares/Third_Party/SubGHz_Phy/stm32_radio_driver/radio.c ****             SUBGRF_SetSyncWord( ( uint8_t[] ){ 0xC1, 0x94, 0xC1, 0x00, 0x00, 0x00, 0x00, 0x00 } );
 4395              		.loc 1 896 13 view .LVU1279
 4396 01b8 04F10E00 		add	r0, r4, #14
ARM GAS  /tmp/ccldRdip.s 			page 133


 4397 01bc FFF7FEFF 		bl	SUBGRF_SetPacketParams
 4398              	.LVL388:
 897:Middlewares/Third_Party/SubGHz_Phy/stm32_radio_driver/radio.c ****             SUBGRF_SetWhiteningSeed( 0x01FF );
 4399              		.loc 1 897 13 view .LVU1280
 897:Middlewares/Third_Party/SubGHz_Phy/stm32_radio_driver/radio.c ****             SUBGRF_SetWhiteningSeed( 0x01FF );
 4400              		.loc 1 897 46 is_stmt 0 view .LVU1281
 4401 01c0 4A4A     		ldr	r2, .L328+12
 4402 01c2 04AB     		add	r3, sp, #16
 4403 01c4 92E80300 		ldm	r2, {r0, r1}
 4404 01c8 83E80300 		stm	r3, {r0, r1}
 897:Middlewares/Third_Party/SubGHz_Phy/stm32_radio_driver/radio.c ****             SUBGRF_SetWhiteningSeed( 0x01FF );
 4405              		.loc 1 897 13 view .LVU1282
 4406 01cc 1846     		mov	r0, r3
 4407 01ce FFF7FEFF 		bl	SUBGRF_SetSyncWord
 4408              	.LVL389:
 898:Middlewares/Third_Party/SubGHz_Phy/stm32_radio_driver/radio.c **** 
 4409              		.loc 1 898 13 is_stmt 1 view .LVU1283
 4410 01d2 40F2FF10 		movw	r0, #511
 4411 01d6 FFF7FEFF 		bl	SUBGRF_SetWhiteningSeed
 4412              	.LVL390:
 901:Middlewares/Third_Party/SubGHz_Phy/stm32_radio_driver/radio.c ****             break;
 4413              		.loc 1 901 13 view .LVU1284
 901:Middlewares/Third_Party/SubGHz_Phy/stm32_radio_driver/radio.c ****             break;
 4414              		.loc 1 901 63 is_stmt 0 view .LVU1285
 4415 01da 4FF4FA53 		mov	r3, #8000
 4416 01de 03FB0AFA 		mul	r10, r3, r10
 4417              	.LVL391:
 901:Middlewares/Third_Party/SubGHz_Phy/stm32_radio_driver/radio.c ****             break;
 4418              		.loc 1 901 32 view .LVU1286
 4419 01e2 BAFBF5F5 		udiv	r5, r10, r5
 4420              	.LVL392:
 901:Middlewares/Third_Party/SubGHz_Phy/stm32_radio_driver/radio.c ****             break;
 4421              		.loc 1 901 30 view .LVU1287
 4422 01e6 A560     		str	r5, [r4, #8]
 902:Middlewares/Third_Party/SubGHz_Phy/stm32_radio_driver/radio.c **** 
 4423              		.loc 1 902 13 is_stmt 1 view .LVU1288
 4424 01e8 31E7     		b	.L303
 4425              	.LVL393:
 4426              	.L311:
 889:Middlewares/Third_Party/SubGHz_Phy/stm32_radio_driver/radio.c ****             }
 4427              		.loc 1 889 17 view .LVU1289
 889:Middlewares/Third_Party/SubGHz_Phy/stm32_radio_driver/radio.c ****             }
 4428              		.loc 1 889 59 is_stmt 0 view .LVU1290
 4429 01ea 3D4B     		ldr	r3, .L328
 4430 01ec 0122     		movs	r2, #1
 4431 01ee DA75     		strb	r2, [r3, #23]
 4432 01f0 D2E7     		b	.L312
 4433              	.L307:
 905:Middlewares/Third_Party/SubGHz_Phy/stm32_radio_driver/radio.c ****             SubgRf.ModulationParams.PacketType = PACKET_TYPE_LORA;
 4434              		.loc 1 905 13 is_stmt 1 view .LVU1291
 4435 01f2 0020     		movs	r0, #0
 4436 01f4 FFF7FEFF 		bl	SUBGRF_SetStopRxTimerOnPreambleDetect
 4437              	.LVL394:
 906:Middlewares/Third_Party/SubGHz_Phy/stm32_radio_driver/radio.c ****             SubgRf.ModulationParams.Params.LoRa.SpreadingFactor = ( RadioLoRaSpreadingFactors_t )da
 4438              		.loc 1 906 13 view .LVU1292
 906:Middlewares/Third_Party/SubGHz_Phy/stm32_radio_driver/radio.c ****             SubgRf.ModulationParams.Params.LoRa.SpreadingFactor = ( RadioLoRaSpreadingFactors_t )da
 4439              		.loc 1 906 48 is_stmt 0 view .LVU1293
ARM GAS  /tmp/ccldRdip.s 			page 134


 4440 01f8 394A     		ldr	r2, .L328
 4441 01fa 0123     		movs	r3, #1
 4442 01fc 82F83830 		strb	r3, [r2, #56]
 907:Middlewares/Third_Party/SubGHz_Phy/stm32_radio_driver/radio.c ****             SubgRf.ModulationParams.Params.LoRa.Bandwidth = Bandwidths[bandwidth];
 4443              		.loc 1 907 13 is_stmt 1 view .LVU1294
 907:Middlewares/Third_Party/SubGHz_Phy/stm32_radio_driver/radio.c ****             SubgRf.ModulationParams.Params.LoRa.Bandwidth = Bandwidths[bandwidth];
 4444              		.loc 1 907 67 is_stmt 0 view .LVU1295
 4445 0200 EBB2     		uxtb	r3, r5
 907:Middlewares/Third_Party/SubGHz_Phy/stm32_radio_driver/radio.c ****             SubgRf.ModulationParams.Params.LoRa.Bandwidth = Bandwidths[bandwidth];
 4446              		.loc 1 907 65 view .LVU1296
 4447 0202 82F85030 		strb	r3, [r2, #80]
 908:Middlewares/Third_Party/SubGHz_Phy/stm32_radio_driver/radio.c ****             SubgRf.ModulationParams.Params.LoRa.CodingRate = ( RadioLoRaCodingRates_t )coderate;
 4448              		.loc 1 908 13 is_stmt 1 view .LVU1297
 908:Middlewares/Third_Party/SubGHz_Phy/stm32_radio_driver/radio.c ****             SubgRf.ModulationParams.Params.LoRa.CodingRate = ( RadioLoRaCodingRates_t )coderate;
 4449              		.loc 1 908 71 is_stmt 0 view .LVU1298
 4450 0206 3A49     		ldr	r1, .L328+16
 4451 0208 895D     		ldrb	r1, [r1, r6]	@ zero_extendqisi2
 908:Middlewares/Third_Party/SubGHz_Phy/stm32_radio_driver/radio.c ****             SubgRf.ModulationParams.Params.LoRa.CodingRate = ( RadioLoRaCodingRates_t )coderate;
 4452              		.loc 1 908 59 view .LVU1299
 4453 020a 82F85110 		strb	r1, [r2, #81]
 909:Middlewares/Third_Party/SubGHz_Phy/stm32_radio_driver/radio.c **** 
 4454              		.loc 1 909 13 is_stmt 1 view .LVU1300
 909:Middlewares/Third_Party/SubGHz_Phy/stm32_radio_driver/radio.c **** 
 4455              		.loc 1 909 60 is_stmt 0 view .LVU1301
 4456 020e 0199     		ldr	r1, [sp, #4]
 4457 0210 82F85210 		strb	r1, [r2, #82]
 911:Middlewares/Third_Party/SubGHz_Phy/stm32_radio_driver/radio.c ****                 ( ( bandwidth == 1 ) && ( datarate == 12 ) ) )
 4458              		.loc 1 911 13 is_stmt 1 view .LVU1302
 911:Middlewares/Third_Party/SubGHz_Phy/stm32_radio_driver/radio.c ****                 ( ( bandwidth == 1 ) && ( datarate == 12 ) ) )
 4459              		.loc 1 911 15 is_stmt 0 view .LVU1303
 4460 0214 1EB9     		cbnz	r6, .L313
 911:Middlewares/Third_Party/SubGHz_Phy/stm32_radio_driver/radio.c ****                 ( ( bandwidth == 1 ) && ( datarate == 12 ) ) )
 4461              		.loc 1 911 62 discriminator 1 view .LVU1304
 4462 0216 A5F10B02 		sub	r2, r5, #11
 911:Middlewares/Third_Party/SubGHz_Phy/stm32_radio_driver/radio.c ****                 ( ( bandwidth == 1 ) && ( datarate == 12 ) ) )
 4463              		.loc 1 911 38 discriminator 1 view .LVU1305
 4464 021a 012A     		cmp	r2, #1
 4465 021c 45D9     		bls	.L314
 4466              	.L313:
 911:Middlewares/Third_Party/SubGHz_Phy/stm32_radio_driver/radio.c ****                 ( ( bandwidth == 1 ) && ( datarate == 12 ) ) )
 4467              		.loc 1 911 88 discriminator 3 view .LVU1306
 4468 021e 012E     		cmp	r6, #1
 4469 0220 41D0     		beq	.L325
 4470              	.L315:
 918:Middlewares/Third_Party/SubGHz_Phy/stm32_radio_driver/radio.c ****             }
 4471              		.loc 1 918 17 is_stmt 1 view .LVU1307
 918:Middlewares/Third_Party/SubGHz_Phy/stm32_radio_driver/radio.c ****             }
 4472              		.loc 1 918 73 is_stmt 0 view .LVU1308
 4473 0222 2F4A     		ldr	r2, .L328
 4474 0224 0021     		movs	r1, #0
 4475 0226 82F85310 		strb	r1, [r2, #83]
 4476              	.L316:
 921:Middlewares/Third_Party/SubGHz_Phy/stm32_radio_driver/radio.c **** 
 4477              		.loc 1 921 13 is_stmt 1 view .LVU1309
 921:Middlewares/Third_Party/SubGHz_Phy/stm32_radio_driver/radio.c **** 
 4478              		.loc 1 921 44 is_stmt 0 view .LVU1310
 4479 022a 2D4A     		ldr	r2, .L328
ARM GAS  /tmp/ccldRdip.s 			page 135


 4480 022c 0121     		movs	r1, #1
 4481 022e 9173     		strb	r1, [r2, #14]
 923:Middlewares/Third_Party/SubGHz_Phy/stm32_radio_driver/radio.c ****                 ( SubgRf.ModulationParams.Params.LoRa.SpreadingFactor == LORA_SF6 ) )
 4482              		.loc 1 923 13 is_stmt 1 view .LVU1311
 923:Middlewares/Third_Party/SubGHz_Phy/stm32_radio_driver/radio.c ****                 ( SubgRf.ModulationParams.Params.LoRa.SpreadingFactor == LORA_SF6 ) )
 4483              		.loc 1 923 85 is_stmt 0 view .LVU1312
 4484 0230 053B     		subs	r3, r3, #5
 4485 0232 DBB2     		uxtb	r3, r3
 923:Middlewares/Third_Party/SubGHz_Phy/stm32_radio_driver/radio.c ****                 ( SubgRf.ModulationParams.Params.LoRa.SpreadingFactor == LORA_SF6 ) )
 4486              		.loc 1 923 15 view .LVU1313
 4487 0234 8B42     		cmp	r3, r1
 4488 0236 3DD9     		bls	.L326
 937:Middlewares/Third_Party/SubGHz_Phy/stm32_radio_driver/radio.c ****             }
 4489              		.loc 1 937 17 is_stmt 1 view .LVU1314
 937:Middlewares/Third_Party/SubGHz_Phy/stm32_radio_driver/radio.c ****             }
 4490              		.loc 1 937 64 is_stmt 0 view .LVU1315
 4491 0238 294B     		ldr	r3, .L328
 4492 023a A3F81C90 		strh	r9, [r3, #28]	@ movhi
 4493              	.L319:
 940:Middlewares/Third_Party/SubGHz_Phy/stm32_radio_driver/radio.c **** 
 4494              		.loc 1 940 13 is_stmt 1 view .LVU1316
 940:Middlewares/Third_Party/SubGHz_Phy/stm32_radio_driver/radio.c **** 
 4495              		.loc 1 940 56 is_stmt 0 view .LVU1317
 4496 023e 284C     		ldr	r4, .L328
 4497 0240 A777     		strb	r7, [r4, #30]
 942:Middlewares/Third_Party/SubGHz_Phy/stm32_radio_driver/radio.c ****             SubgRf.PacketParams.Params.LoRa.CrcMode = ( RadioLoRaCrcModes_t )crcOn;
 4498              		.loc 1 942 13 is_stmt 1 view .LVU1318
 942:Middlewares/Third_Party/SubGHz_Phy/stm32_radio_driver/radio.c ****             SubgRf.PacketParams.Params.LoRa.CrcMode = ( RadioLoRaCrcModes_t )crcOn;
 4499              		.loc 1 942 59 is_stmt 0 view .LVU1319
 4500 0242 284B     		ldr	r3, .L328+4
 4501 0244 1B78     		ldrb	r3, [r3]	@ zero_extendqisi2
 4502 0246 E377     		strb	r3, [r4, #31]
 943:Middlewares/Third_Party/SubGHz_Phy/stm32_radio_driver/radio.c ****             SubgRf.PacketParams.Params.LoRa.InvertIQ = ( RadioLoRaIQModes_t )iqInverted;
 4503              		.loc 1 943 13 is_stmt 1 view .LVU1320
 943:Middlewares/Third_Party/SubGHz_Phy/stm32_radio_driver/radio.c ****             SubgRf.PacketParams.Params.LoRa.InvertIQ = ( RadioLoRaIQModes_t )iqInverted;
 4504              		.loc 1 943 53 is_stmt 0 view .LVU1321
 4505 0248 84F820B0 		strb	fp, [r4, #32]
 944:Middlewares/Third_Party/SubGHz_Phy/stm32_radio_driver/radio.c **** 
 4506              		.loc 1 944 13 is_stmt 1 view .LVU1322
 944:Middlewares/Third_Party/SubGHz_Phy/stm32_radio_driver/radio.c **** 
 4507              		.loc 1 944 54 is_stmt 0 view .LVU1323
 4508 024c 9DF86030 		ldrb	r3, [sp, #96]	@ zero_extendqisi2
 4509 0250 84F82130 		strb	r3, [r4, #33]
 946:Middlewares/Third_Party/SubGHz_Phy/stm32_radio_driver/radio.c ****             RadioSetModem( ( SubgRf.ModulationParams.PacketType == PACKET_TYPE_GFSK ) ? MODEM_FSK :
 4510              		.loc 1 946 13 is_stmt 1 view .LVU1324
 4511 0254 FFF7FEFF 		bl	RadioStandby
 4512              	.LVL395:
 947:Middlewares/Third_Party/SubGHz_Phy/stm32_radio_driver/radio.c ****             SUBGRF_SetModulationParams( &SubgRf.ModulationParams );
 4513              		.loc 1 947 13 view .LVU1325
 947:Middlewares/Third_Party/SubGHz_Phy/stm32_radio_driver/radio.c ****             SUBGRF_SetModulationParams( &SubgRf.ModulationParams );
 4514              		.loc 1 947 53 is_stmt 0 view .LVU1326
 4515 0258 2546     		mov	r5, r4
 4516              	.LVL396:
 947:Middlewares/Third_Party/SubGHz_Phy/stm32_radio_driver/radio.c ****             SUBGRF_SetModulationParams( &SubgRf.ModulationParams );
 4517              		.loc 1 947 53 view .LVU1327
 4518 025a 15F8380F 		ldrb	r0, [r5, #56]!	@ zero_extendqisi2
 947:Middlewares/Third_Party/SubGHz_Phy/stm32_radio_driver/radio.c ****             SUBGRF_SetModulationParams( &SubgRf.ModulationParams );
ARM GAS  /tmp/ccldRdip.s 			page 136


 4519              		.loc 1 947 13 view .LVU1328
 4520 025e 0038     		subs	r0, r0, #0
 4521 0260 18BF     		it	ne
 4522 0262 0120     		movne	r0, #1
 4523 0264 FFF7FEFF 		bl	RadioSetModem
 4524              	.LVL397:
 948:Middlewares/Third_Party/SubGHz_Phy/stm32_radio_driver/radio.c ****             SUBGRF_SetPacketParams( &SubgRf.PacketParams );
 4525              		.loc 1 948 13 is_stmt 1 view .LVU1329
 4526 0268 2846     		mov	r0, r5
 4527 026a FFF7FEFF 		bl	SUBGRF_SetModulationParams
 4528              	.LVL398:
 949:Middlewares/Third_Party/SubGHz_Phy/stm32_radio_driver/radio.c ****             SUBGRF_SetLoRaSymbNumTimeout( symbTimeout );
 4529              		.loc 1 949 13 view .LVU1330
 4530 026e 04F10E00 		add	r0, r4, #14
 4531 0272 FFF7FEFF 		bl	SUBGRF_SetPacketParams
 4532              	.LVL399:
 950:Middlewares/Third_Party/SubGHz_Phy/stm32_radio_driver/radio.c **** 
 4533              		.loc 1 950 13 view .LVU1331
 4534 0276 5FFA8AF0 		uxtb	r0, r10
 4535 027a FFF7FEFF 		bl	SUBGRF_SetLoRaSymbNumTimeout
 4536              	.LVL400:
 953:Middlewares/Third_Party/SubGHz_Phy/stm32_radio_driver/radio.c ****             {
 4537              		.loc 1 953 13 view .LVU1332
 953:Middlewares/Third_Party/SubGHz_Phy/stm32_radio_driver/radio.c ****             {
 4538              		.loc 1 953 48 is_stmt 0 view .LVU1333
 4539 027e 94F82130 		ldrb	r3, [r4, #33]	@ zero_extendqisi2
 953:Middlewares/Third_Party/SubGHz_Phy/stm32_radio_driver/radio.c ****             {
 4540              		.loc 1 953 15 view .LVU1334
 4541 0282 012B     		cmp	r3, #1
 4542 0284 21D0     		beq	.L327
 961:Middlewares/Third_Party/SubGHz_Phy/stm32_radio_driver/radio.c ****             }
 4543              		.loc 1 961 17 is_stmt 1 view .LVU1335
 961:Middlewares/Third_Party/SubGHz_Phy/stm32_radio_driver/radio.c ****             }
 4544              		.loc 1 961 47 is_stmt 0 view .LVU1336
 4545 0286 40F23670 		movw	r0, #1846
 4546 028a FFF7FEFF 		bl	SUBGRF_ReadRegister
 4547              	.LVL401:
 961:Middlewares/Third_Party/SubGHz_Phy/stm32_radio_driver/radio.c ****             }
 4548              		.loc 1 961 17 view .LVU1337
 4549 028e 40F00401 		orr	r1, r0, #4
 4550 0292 C9B2     		uxtb	r1, r1
 4551 0294 40F23670 		movw	r0, #1846
 4552 0298 FFF7FEFF 		bl	SUBGRF_WriteRegister
 4553              	.LVL402:
 4554              	.L321:
 966:Middlewares/Third_Party/SubGHz_Phy/stm32_radio_driver/radio.c **** 
 4555              		.loc 1 966 13 is_stmt 1 view .LVU1338
 966:Middlewares/Third_Party/SubGHz_Phy/stm32_radio_driver/radio.c **** 
 4556              		.loc 1 966 30 is_stmt 0 view .LVU1339
 4557 029c 104B     		ldr	r3, .L328
 4558 029e 4FF6FF72 		movw	r2, #65535
 4559 02a2 9A60     		str	r2, [r3, #8]
 968:Middlewares/Third_Party/SubGHz_Phy/stm32_radio_driver/radio.c ****         default:
 4560              		.loc 1 968 13 is_stmt 1 view .LVU1340
 4561              	.LBE11:
 972:Middlewares/Third_Party/SubGHz_Phy/stm32_radio_driver/radio.c **** 
 4562              		.loc 1 972 1 is_stmt 0 view .LVU1341
ARM GAS  /tmp/ccldRdip.s 			page 137


 4563 02a4 D3E6     		b	.L303
 4564              	.LVL403:
 4565              	.L325:
 4566              	.LBB12:
 912:Middlewares/Third_Party/SubGHz_Phy/stm32_radio_driver/radio.c ****             {
 4567              		.loc 1 912 38 view .LVU1342
 4568 02a6 0C2D     		cmp	r5, #12
 4569 02a8 BBD1     		bne	.L315
 4570              	.L314:
 914:Middlewares/Third_Party/SubGHz_Phy/stm32_radio_driver/radio.c ****             }
 4571              		.loc 1 914 17 is_stmt 1 view .LVU1343
 914:Middlewares/Third_Party/SubGHz_Phy/stm32_radio_driver/radio.c ****             }
 4572              		.loc 1 914 73 is_stmt 0 view .LVU1344
 4573 02aa 0D4A     		ldr	r2, .L328
 4574 02ac 0121     		movs	r1, #1
 4575 02ae 82F85310 		strb	r1, [r2, #83]
 4576 02b2 BAE7     		b	.L316
 4577              	.L326:
 926:Middlewares/Third_Party/SubGHz_Phy/stm32_radio_driver/radio.c ****                 {
 4578              		.loc 1 926 17 is_stmt 1 view .LVU1345
 926:Middlewares/Third_Party/SubGHz_Phy/stm32_radio_driver/radio.c ****                 {
 4579              		.loc 1 926 19 is_stmt 0 view .LVU1346
 4580 02b4 B9F10B0F 		cmp	r9, #11
 4581 02b8 03D8     		bhi	.L318
 928:Middlewares/Third_Party/SubGHz_Phy/stm32_radio_driver/radio.c ****                 }
 4582              		.loc 1 928 21 is_stmt 1 view .LVU1347
 928:Middlewares/Third_Party/SubGHz_Phy/stm32_radio_driver/radio.c ****                 }
 4583              		.loc 1 928 68 is_stmt 0 view .LVU1348
 4584 02ba 1346     		mov	r3, r2
 4585 02bc 0C22     		movs	r2, #12
 4586 02be 9A83     		strh	r2, [r3, #28]	@ movhi
 4587 02c0 BDE7     		b	.L319
 4588              	.L318:
 932:Middlewares/Third_Party/SubGHz_Phy/stm32_radio_driver/radio.c ****                 }
 4589              		.loc 1 932 21 is_stmt 1 view .LVU1349
 932:Middlewares/Third_Party/SubGHz_Phy/stm32_radio_driver/radio.c ****                 }
 4590              		.loc 1 932 68 is_stmt 0 view .LVU1350
 4591 02c2 074B     		ldr	r3, .L328
 4592 02c4 A3F81C90 		strh	r9, [r3, #28]	@ movhi
 4593 02c8 B9E7     		b	.L319
 4594              	.LVL404:
 4595              	.L327:
 956:Middlewares/Third_Party/SubGHz_Phy/stm32_radio_driver/radio.c ****             }
 4596              		.loc 1 956 17 is_stmt 1 view .LVU1351
 956:Middlewares/Third_Party/SubGHz_Phy/stm32_radio_driver/radio.c ****             }
 4597              		.loc 1 956 47 is_stmt 0 view .LVU1352
 4598 02ca 40F23670 		movw	r0, #1846
 4599 02ce FFF7FEFF 		bl	SUBGRF_ReadRegister
 4600              	.LVL405:
 956:Middlewares/Third_Party/SubGHz_Phy/stm32_radio_driver/radio.c ****             }
 4601              		.loc 1 956 17 view .LVU1353
 4602 02d2 00F0FB01 		and	r1, r0, #251
 4603 02d6 40F23670 		movw	r0, #1846
 4604 02da FFF7FEFF 		bl	SUBGRF_WriteRegister
 4605              	.LVL406:
 4606 02de DDE7     		b	.L321
 4607              	.L329:
ARM GAS  /tmp/ccldRdip.s 			page 138


 4608              		.align	2
 4609              	.L328:
 4610 02e0 00000000 		.word	.LANCHOR3
 4611 02e4 00000000 		.word	.LANCHOR2
 4612 02e8 08000000 		.word	.LANCHOR7+8
 4613 02ec 00000000 		.word	.LANCHOR7
 4614 02f0 00000000 		.word	.LANCHOR0
 4615              	.LBE12:
 4616              		.cfi_endproc
 4617              	.LFE990:
 4619              		.section	.text.RadioRandom,"ax",%progbits
 4620              		.align	1
 4621              		.syntax unified
 4622              		.thumb
 4623              		.thumb_func
 4624              		.fpu softvfp
 4626              	RadioRandom:
 4627              	.LFB989:
 774:Middlewares/Third_Party/SubGHz_Phy/stm32_radio_driver/radio.c ****     uint32_t rnd = 0;
 4628              		.loc 1 774 1 is_stmt 1 view -0
 4629              		.cfi_startproc
 4630              		@ args = 0, pretend = 0, frame = 0
 4631              		@ frame_needed = 0, uses_anonymous_args = 0
 4632 0000 08B5     		push	{r3, lr}
 4633              	.LCFI55:
 4634              		.cfi_def_cfa_offset 8
 4635              		.cfi_offset 3, -8
 4636              		.cfi_offset 14, -4
 775:Middlewares/Third_Party/SubGHz_Phy/stm32_radio_driver/radio.c **** 
 4637              		.loc 1 775 5 view .LVU1355
 4638              	.LVL407:
 781:Middlewares/Third_Party/SubGHz_Phy/stm32_radio_driver/radio.c **** 
 4639              		.loc 1 781 5 view .LVU1356
 4640 0002 0120     		movs	r0, #1
 4641 0004 FFF7FEFF 		bl	RadioSetModem
 4642              	.LVL408:
 784:Middlewares/Third_Party/SubGHz_Phy/stm32_radio_driver/radio.c **** 
 4643              		.loc 1 784 5 view .LVU1357
 4644 0008 0023     		movs	r3, #0
 4645 000a 1A46     		mov	r2, r3
 4646 000c 1946     		mov	r1, r3
 4647 000e 1846     		mov	r0, r3
 4648 0010 FFF7FEFF 		bl	SUBGRF_SetDioIrqParams
 4649              	.LVL409:
 786:Middlewares/Third_Party/SubGHz_Phy/stm32_radio_driver/radio.c **** 
 4650              		.loc 1 786 5 view .LVU1358
 786:Middlewares/Third_Party/SubGHz_Phy/stm32_radio_driver/radio.c **** 
 4651              		.loc 1 786 11 is_stmt 0 view .LVU1359
 4652 0014 FFF7FEFF 		bl	SUBGRF_GetRandom
 4653              	.LVL410:
 788:Middlewares/Third_Party/SubGHz_Phy/stm32_radio_driver/radio.c **** }
 4654              		.loc 1 788 5 is_stmt 1 view .LVU1360
 789:Middlewares/Third_Party/SubGHz_Phy/stm32_radio_driver/radio.c **** 
 4655              		.loc 1 789 1 is_stmt 0 view .LVU1361
 4656 0018 08BD     		pop	{r3, pc}
 4657              		.cfi_endproc
 4658              	.LFE989:
ARM GAS  /tmp/ccldRdip.s 			page 139


 4660              		.section	.text.RadioIsChannelFree,"ax",%progbits
 4661              		.align	1
 4662              		.syntax unified
 4663              		.thumb
 4664              		.thumb_func
 4665              		.fpu softvfp
 4667              	RadioIsChannelFree:
 4668              	.LVL411:
 4669              	.LFB988:
 734:Middlewares/Third_Party/SubGHz_Phy/stm32_radio_driver/radio.c ****     bool status = true;
 4670              		.loc 1 734 1 is_stmt 1 view -0
 4671              		.cfi_startproc
 4672              		@ args = 0, pretend = 0, frame = 0
 4673              		@ frame_needed = 0, uses_anonymous_args = 0
 734:Middlewares/Third_Party/SubGHz_Phy/stm32_radio_driver/radio.c ****     bool status = true;
 4674              		.loc 1 734 1 is_stmt 0 view .LVU1363
 4675 0000 F0B5     		push	{r4, r5, r6, r7, lr}
 4676              	.LCFI56:
 4677              		.cfi_def_cfa_offset 20
 4678              		.cfi_offset 4, -20
 4679              		.cfi_offset 5, -16
 4680              		.cfi_offset 6, -12
 4681              		.cfi_offset 7, -8
 4682              		.cfi_offset 14, -4
 4683 0002 8BB0     		sub	sp, sp, #44
 4684              	.LCFI57:
 4685              		.cfi_def_cfa_offset 64
 4686 0004 0446     		mov	r4, r0
 4687 0006 0F46     		mov	r7, r1
 4688 0008 1646     		mov	r6, r2
 4689 000a 1D46     		mov	r5, r3
 735:Middlewares/Third_Party/SubGHz_Phy/stm32_radio_driver/radio.c ****     int16_t rssi = 0;
 4690              		.loc 1 735 5 is_stmt 1 view .LVU1364
 4691              	.LVL412:
 736:Middlewares/Third_Party/SubGHz_Phy/stm32_radio_driver/radio.c ****     uint32_t carrierSenseTime = 0;
 4692              		.loc 1 736 5 view .LVU1365
 737:Middlewares/Third_Party/SubGHz_Phy/stm32_radio_driver/radio.c **** 
 4693              		.loc 1 737 5 view .LVU1366
 740:Middlewares/Third_Party/SubGHz_Phy/stm32_radio_driver/radio.c ****     /* ST_WORKAROUND_END */
 4694              		.loc 1 740 5 view .LVU1367
 4695 000c FFF7FEFF 		bl	RadioStandby
 4696              	.LVL413:
 743:Middlewares/Third_Party/SubGHz_Phy/stm32_radio_driver/radio.c **** 
 4697              		.loc 1 743 5 view .LVU1368
 4698 0010 0020     		movs	r0, #0
 4699 0012 FFF7FEFF 		bl	RadioSetModem
 4700              	.LVL414:
 745:Middlewares/Third_Party/SubGHz_Phy/stm32_radio_driver/radio.c **** 
 4701              		.loc 1 745 5 view .LVU1369
 4702 0016 2046     		mov	r0, r4
 4703 0018 FFF7FEFF 		bl	RadioSetChannel
 4704              	.LVL415:
 748:Middlewares/Third_Party/SubGHz_Phy/stm32_radio_driver/radio.c ****                       0, false, 0, 0, false, true );
 4705              		.loc 1 748 5 view .LVU1370
 4706 001c 0123     		movs	r3, #1
 4707 001e 0993     		str	r3, [sp, #36]
 4708 0020 0024     		movs	r4, #0
ARM GAS  /tmp/ccldRdip.s 			page 140


 4709              	.LVL416:
 748:Middlewares/Third_Party/SubGHz_Phy/stm32_radio_driver/radio.c ****                       0, false, 0, 0, false, true );
 4710              		.loc 1 748 5 is_stmt 0 view .LVU1371
 4711 0022 0894     		str	r4, [sp, #32]
 4712 0024 0794     		str	r4, [sp, #28]
 4713 0026 0694     		str	r4, [sp, #24]
 4714 0028 0594     		str	r4, [sp, #20]
 4715 002a 0494     		str	r4, [sp, #16]
 4716 002c 0394     		str	r4, [sp, #12]
 4717 002e 0294     		str	r4, [sp, #8]
 4718 0030 0323     		movs	r3, #3
 4719 0032 0193     		str	r3, [sp, #4]
 4720 0034 0097     		str	r7, [sp]
 4721 0036 2346     		mov	r3, r4
 4722 0038 4FF41672 		mov	r2, #600
 4723 003c 3946     		mov	r1, r7
 4724 003e 2046     		mov	r0, r4
 4725 0040 FFF7FEFF 		bl	RadioSetRxConfig
 4726              	.LVL417:
 750:Middlewares/Third_Party/SubGHz_Phy/stm32_radio_driver/radio.c **** 
 4727              		.loc 1 750 5 is_stmt 1 view .LVU1372
 4728 0044 2046     		mov	r0, r4
 4729 0046 FFF7FEFF 		bl	RadioRx
 4730              	.LVL418:
 752:Middlewares/Third_Party/SubGHz_Phy/stm32_radio_driver/radio.c **** 
 4731              		.loc 1 752 5 view .LVU1373
 4732 004a FFF7FEFF 		bl	RadioGetWakeupTime
 4733              	.LVL419:
 4734 004e FFF7FEFF 		bl	HAL_Delay
 4735              	.LVL420:
 754:Middlewares/Third_Party/SubGHz_Phy/stm32_radio_driver/radio.c **** 
 4736              		.loc 1 754 5 view .LVU1374
 754:Middlewares/Third_Party/SubGHz_Phy/stm32_radio_driver/radio.c **** 
 4737              		.loc 1 754 24 is_stmt 0 view .LVU1375
 4738 0052 FFF7FEFF 		bl	UTIL_TIMER_GetCurrentTime
 4739              	.LVL421:
 4740 0056 0446     		mov	r4, r0
 4741              	.LVL422:
 757:Middlewares/Third_Party/SubGHz_Phy/stm32_radio_driver/radio.c ****     {
 4742              		.loc 1 757 5 is_stmt 1 view .LVU1376
 4743              	.L333:
 757:Middlewares/Third_Party/SubGHz_Phy/stm32_radio_driver/radio.c ****     {
 4744              		.loc 1 757 10 view .LVU1377
 757:Middlewares/Third_Party/SubGHz_Phy/stm32_radio_driver/radio.c ****     {
 4745              		.loc 1 757 12 is_stmt 0 view .LVU1378
 4746 0058 2046     		mov	r0, r4
 4747 005a FFF7FEFF 		bl	UTIL_TIMER_GetElapsedTime
 4748              	.LVL423:
 757:Middlewares/Third_Party/SubGHz_Phy/stm32_radio_driver/radio.c ****     {
 4749              		.loc 1 757 10 view .LVU1379
 4750 005e A842     		cmp	r0, r5
 4751 0060 06D2     		bcs	.L338
 759:Middlewares/Third_Party/SubGHz_Phy/stm32_radio_driver/radio.c **** 
 4752              		.loc 1 759 9 is_stmt 1 view .LVU1380
 759:Middlewares/Third_Party/SubGHz_Phy/stm32_radio_driver/radio.c **** 
 4753              		.loc 1 759 16 is_stmt 0 view .LVU1381
 4754 0062 0020     		movs	r0, #0
ARM GAS  /tmp/ccldRdip.s 			page 141


 4755 0064 FFF7FEFF 		bl	RadioRssi
 4756              	.LVL424:
 761:Middlewares/Third_Party/SubGHz_Phy/stm32_radio_driver/radio.c ****         {
 4757              		.loc 1 761 9 is_stmt 1 view .LVU1382
 761:Middlewares/Third_Party/SubGHz_Phy/stm32_radio_driver/radio.c ****         {
 4758              		.loc 1 761 11 is_stmt 0 view .LVU1383
 4759 0068 B042     		cmp	r0, r6
 4760 006a F5DD     		ble	.L333
 763:Middlewares/Third_Party/SubGHz_Phy/stm32_radio_driver/radio.c ****             break;
 4761              		.loc 1 763 20 view .LVU1384
 4762 006c 0024     		movs	r4, #0
 4763              	.LVL425:
 763:Middlewares/Third_Party/SubGHz_Phy/stm32_radio_driver/radio.c ****             break;
 4764              		.loc 1 763 20 view .LVU1385
 4765 006e 00E0     		b	.L334
 4766              	.LVL426:
 4767              	.L338:
 735:Middlewares/Third_Party/SubGHz_Phy/stm32_radio_driver/radio.c ****     int16_t rssi = 0;
 4768              		.loc 1 735 10 view .LVU1386
 4769 0070 0124     		movs	r4, #1
 4770              	.LVL427:
 4771              	.L334:
 768:Middlewares/Third_Party/SubGHz_Phy/stm32_radio_driver/radio.c ****     /* ST_WORKAROUND_END */
 4772              		.loc 1 768 5 is_stmt 1 view .LVU1387
 4773 0072 FFF7FEFF 		bl	RadioStandby
 4774              	.LVL428:
 770:Middlewares/Third_Party/SubGHz_Phy/stm32_radio_driver/radio.c **** }
 4775              		.loc 1 770 5 view .LVU1388
 771:Middlewares/Third_Party/SubGHz_Phy/stm32_radio_driver/radio.c **** 
 4776              		.loc 1 771 1 is_stmt 0 view .LVU1389
 4777 0076 2046     		mov	r0, r4
 4778 0078 0BB0     		add	sp, sp, #44
 4779              	.LCFI58:
 4780              		.cfi_def_cfa_offset 20
 4781              		@ sp needed
 4782 007a F0BD     		pop	{r4, r5, r6, r7, pc}
 771:Middlewares/Third_Party/SubGHz_Phy/stm32_radio_driver/radio.c **** 
 4783              		.loc 1 771 1 view .LVU1390
 4784              		.cfi_endproc
 4785              	.LFE988:
 4787              		.section	.text.RadioInit,"ax",%progbits
 4788              		.align	1
 4789              		.syntax unified
 4790              		.thumb
 4791              		.thumb_func
 4792              		.fpu softvfp
 4794              	RadioInit:
 4795              	.LVL429:
 4796              	.LFB984:
 641:Middlewares/Third_Party/SubGHz_Phy/stm32_radio_driver/radio.c ****     RadioEvents = events;
 4797              		.loc 1 641 1 is_stmt 1 view -0
 4798              		.cfi_startproc
 4799              		@ args = 0, pretend = 0, frame = 0
 4800              		@ frame_needed = 0, uses_anonymous_args = 0
 641:Middlewares/Third_Party/SubGHz_Phy/stm32_radio_driver/radio.c ****     RadioEvents = events;
 4801              		.loc 1 641 1 is_stmt 0 view .LVU1392
 4802 0000 70B5     		push	{r4, r5, r6, lr}
ARM GAS  /tmp/ccldRdip.s 			page 142


 4803              	.LCFI59:
 4804              		.cfi_def_cfa_offset 16
 4805              		.cfi_offset 4, -16
 4806              		.cfi_offset 5, -12
 4807              		.cfi_offset 6, -8
 4808              		.cfi_offset 14, -4
 4809 0002 82B0     		sub	sp, sp, #8
 4810              	.LCFI60:
 4811              		.cfi_def_cfa_offset 24
 642:Middlewares/Third_Party/SubGHz_Phy/stm32_radio_driver/radio.c **** 
 4812              		.loc 1 642 5 is_stmt 1 view .LVU1393
 642:Middlewares/Third_Party/SubGHz_Phy/stm32_radio_driver/radio.c **** 
 4813              		.loc 1 642 17 is_stmt 0 view .LVU1394
 4814 0004 1D4B     		ldr	r3, .L341
 4815 0006 1860     		str	r0, [r3]
 644:Middlewares/Third_Party/SubGHz_Phy/stm32_radio_driver/radio.c ****     SubgRf.TxTimeout = 0;
 4816              		.loc 1 644 5 is_stmt 1 view .LVU1395
 644:Middlewares/Third_Party/SubGHz_Phy/stm32_radio_driver/radio.c ****     SubgRf.TxTimeout = 0;
 4817              		.loc 1 644 25 is_stmt 0 view .LVU1396
 4818 0008 1D4B     		ldr	r3, .L341+4
 4819 000a 0024     		movs	r4, #0
 4820 000c 5C70     		strb	r4, [r3, #1]
 645:Middlewares/Third_Party/SubGHz_Phy/stm32_radio_driver/radio.c ****     SubgRf.RxTimeout = 0;
 4821              		.loc 1 645 5 is_stmt 1 view .LVU1397
 645:Middlewares/Third_Party/SubGHz_Phy/stm32_radio_driver/radio.c ****     SubgRf.RxTimeout = 0;
 4822              		.loc 1 645 22 is_stmt 0 view .LVU1398
 4823 000e 5C60     		str	r4, [r3, #4]
 646:Middlewares/Third_Party/SubGHz_Phy/stm32_radio_driver/radio.c **** 
 4824              		.loc 1 646 5 is_stmt 1 view .LVU1399
 646:Middlewares/Third_Party/SubGHz_Phy/stm32_radio_driver/radio.c **** 
 4825              		.loc 1 646 22 is_stmt 0 view .LVU1400
 4826 0010 9C60     		str	r4, [r3, #8]
 648:Middlewares/Third_Party/SubGHz_Phy/stm32_radio_driver/radio.c ****     /*SubgRf.publicNetwork set to false*/
 4827              		.loc 1 648 5 is_stmt 1 view .LVU1401
 4828 0012 1C48     		ldr	r0, .L341+8
 4829              	.LVL430:
 648:Middlewares/Third_Party/SubGHz_Phy/stm32_radio_driver/radio.c ****     /*SubgRf.publicNetwork set to false*/
 4830              		.loc 1 648 5 is_stmt 0 view .LVU1402
 4831 0014 FFF7FEFF 		bl	SUBGRF_Init
 4832              	.LVL431:
 650:Middlewares/Third_Party/SubGHz_Phy/stm32_radio_driver/radio.c **** 
 4833              		.loc 1 650 5 is_stmt 1 view .LVU1403
 4834 0018 2046     		mov	r0, r4
 4835 001a FFF7FEFF 		bl	RadioSetPublicNetwork
 4836              	.LVL432:
 652:Middlewares/Third_Party/SubGHz_Phy/stm32_radio_driver/radio.c **** 
 4837              		.loc 1 652 29 view .LVU1404
 654:Middlewares/Third_Party/SubGHz_Phy/stm32_radio_driver/radio.c **** 
 4838              		.loc 1 654 5 view .LVU1405
 4839 001e FFF7FEFF 		bl	SUBGRF_SetRegulatorMode
 4840              	.LVL433:
 656:Middlewares/Third_Party/SubGHz_Phy/stm32_radio_driver/radio.c ****     SUBGRF_SetTxParams(RFO_LP, 0, RADIO_RAMP_200_US);
 4841              		.loc 1 656 5 view .LVU1406
 4842 0022 2146     		mov	r1, r4
 4843 0024 2046     		mov	r0, r4
 4844 0026 FFF7FEFF 		bl	SUBGRF_SetBufferBaseAddress
 4845              	.LVL434:
ARM GAS  /tmp/ccldRdip.s 			page 143


 657:Middlewares/Third_Party/SubGHz_Phy/stm32_radio_driver/radio.c ****     SUBGRF_SetDioIrqParams( IRQ_RADIO_ALL, IRQ_RADIO_ALL, IRQ_RADIO_NONE, IRQ_RADIO_NONE );
 4846              		.loc 1 657 5 view .LVU1407
 4847 002a 0422     		movs	r2, #4
 4848 002c 2146     		mov	r1, r4
 4849 002e 0120     		movs	r0, #1
 4850 0030 FFF7FEFF 		bl	SUBGRF_SetTxParams
 4851              	.LVL435:
 658:Middlewares/Third_Party/SubGHz_Phy/stm32_radio_driver/radio.c **** 
 4852              		.loc 1 658 5 view .LVU1408
 4853 0034 2346     		mov	r3, r4
 4854 0036 2246     		mov	r2, r4
 4855 0038 4FF6FF71 		movw	r1, #65535
 4856 003c 0846     		mov	r0, r1
 4857 003e FFF7FEFF 		bl	SUBGRF_SetDioIrqParams
 4858              	.LVL436:
 661:Middlewares/Third_Party/SubGHz_Phy/stm32_radio_driver/radio.c ****     /* ST_WORKAROUND_END */
 4859              		.loc 1 661 5 view .LVU1409
 4860 0042 FFF7FEFF 		bl	RadioSleep
 4861              	.LVL437:
 664:Middlewares/Third_Party/SubGHz_Phy/stm32_radio_driver/radio.c ****     TimerInit( &RxTimeoutTimer, RadioOnRxTimeoutIrq );
 4862              		.loc 1 664 5 view .LVU1410
 664:Middlewares/Third_Party/SubGHz_Phy/stm32_radio_driver/radio.c ****     TimerInit( &RxTimeoutTimer, RadioOnRxTimeoutIrq );
 4863              		.loc 1 664 5 view .LVU1411
 4864 0046 104E     		ldr	r6, .L341+12
 4865 0048 0094     		str	r4, [sp]
 4866 004a 104B     		ldr	r3, .L341+16
 4867 004c 2246     		mov	r2, r4
 4868 004e 4FF0FF31 		mov	r1, #-1
 4869 0052 3046     		mov	r0, r6
 4870 0054 FFF7FEFF 		bl	UTIL_TIMER_Create
 4871              	.LVL438:
 664:Middlewares/Third_Party/SubGHz_Phy/stm32_radio_driver/radio.c ****     TimerInit( &RxTimeoutTimer, RadioOnRxTimeoutIrq );
 4872              		.loc 1 664 5 view .LVU1412
 665:Middlewares/Third_Party/SubGHz_Phy/stm32_radio_driver/radio.c ****     TimerStop( &TxTimeoutTimer );
 4873              		.loc 1 665 5 view .LVU1413
 665:Middlewares/Third_Party/SubGHz_Phy/stm32_radio_driver/radio.c ****     TimerStop( &TxTimeoutTimer );
 4874              		.loc 1 665 5 view .LVU1414
 4875 0058 0D4D     		ldr	r5, .L341+20
 4876 005a 0094     		str	r4, [sp]
 4877 005c 0D4B     		ldr	r3, .L341+24
 4878 005e 2246     		mov	r2, r4
 4879 0060 4FF0FF31 		mov	r1, #-1
 4880 0064 2846     		mov	r0, r5
 4881 0066 FFF7FEFF 		bl	UTIL_TIMER_Create
 4882              	.LVL439:
 665:Middlewares/Third_Party/SubGHz_Phy/stm32_radio_driver/radio.c ****     TimerStop( &TxTimeoutTimer );
 4883              		.loc 1 665 5 view .LVU1415
 666:Middlewares/Third_Party/SubGHz_Phy/stm32_radio_driver/radio.c ****     TimerStop( &RxTimeoutTimer );
 4884              		.loc 1 666 5 view .LVU1416
 666:Middlewares/Third_Party/SubGHz_Phy/stm32_radio_driver/radio.c ****     TimerStop( &RxTimeoutTimer );
 4885              		.loc 1 666 5 view .LVU1417
 4886 006a 3046     		mov	r0, r6
 4887 006c FFF7FEFF 		bl	UTIL_TIMER_Stop
 4888              	.LVL440:
 666:Middlewares/Third_Party/SubGHz_Phy/stm32_radio_driver/radio.c ****     TimerStop( &RxTimeoutTimer );
 4889              		.loc 1 666 5 view .LVU1418
 667:Middlewares/Third_Party/SubGHz_Phy/stm32_radio_driver/radio.c **** }
ARM GAS  /tmp/ccldRdip.s 			page 144


 4890              		.loc 1 667 5 view .LVU1419
 667:Middlewares/Third_Party/SubGHz_Phy/stm32_radio_driver/radio.c **** }
 4891              		.loc 1 667 5 view .LVU1420
 4892 0070 2846     		mov	r0, r5
 4893 0072 FFF7FEFF 		bl	UTIL_TIMER_Stop
 4894              	.LVL441:
 667:Middlewares/Third_Party/SubGHz_Phy/stm32_radio_driver/radio.c **** }
 4895              		.loc 1 667 5 view .LVU1421
 668:Middlewares/Third_Party/SubGHz_Phy/stm32_radio_driver/radio.c **** 
 4896              		.loc 1 668 1 is_stmt 0 view .LVU1422
 4897 0076 02B0     		add	sp, sp, #8
 4898              	.LCFI61:
 4899              		.cfi_def_cfa_offset 16
 4900              		@ sp needed
 4901 0078 70BD     		pop	{r4, r5, r6, pc}
 4902              	.L342:
 4903 007a 00BF     		.align	2
 4904              	.L341:
 4905 007c 00000000 		.word	.LANCHOR1
 4906 0080 00000000 		.word	.LANCHOR3
 4907 0084 00000000 		.word	RadioOnDioIrq
 4908 0088 00000000 		.word	.LANCHOR5
 4909 008c 00000000 		.word	RadioOnTxTimeoutIrq
 4910 0090 00000000 		.word	.LANCHOR4
 4911 0094 00000000 		.word	RadioOnRxTimeoutIrq
 4912              		.cfi_endproc
 4913              	.LFE984:
 4915              		.global	RxTimeoutTimer
 4916              		.global	TxTimeoutTimer
 4917              		.global	SubgRf
 4918              		.global	Bandwidths
 4919              		.global	Radio
 4920              		.section	.rodata
 4921              		.align	2
 4922              		.set	.LANCHOR7,. + 0
 4923              	.LC0:
 4924 0000 C1       		.byte	-63
 4925 0001 94       		.byte	-108
 4926 0002 C1       		.byte	-63
 4927 0003 00       		.byte	0
 4928 0004 00       		.byte	0
 4929 0005 00       		.byte	0
 4930 0006 00       		.byte	0
 4931 0007 00       		.byte	0
 4932              	.LC1:
 4933 0008 B2       		.byte	-78
 4934 0009 27       		.byte	39
 4935 000a 00       		.byte	0
 4936 000b 00       		.byte	0
 4937 000c 00       		.byte	0
 4938 000d 00       		.byte	0
 4939 000e 00       		.byte	0
 4940 000f 00       		.byte	0
 4941              		.section	.bss.RadioBuffer,"aw",%nobits
 4942              		.align	2
 4943              		.set	.LANCHOR6,. + 0
 4946              	RadioBuffer:
ARM GAS  /tmp/ccldRdip.s 			page 145


 4947 0000 00000000 		.space	255
 4947      00000000 
 4947      00000000 
 4947      00000000 
 4947      00000000 
 4948              		.section	.bss.RadioEvents,"aw",%nobits
 4949              		.align	2
 4950              		.set	.LANCHOR1,. + 0
 4953              	RadioEvents:
 4954 0000 00000000 		.space	4
 4955              		.section	.bss.RxTimeoutTimer,"aw",%nobits
 4956              		.align	2
 4957              		.set	.LANCHOR4,. + 0
 4960              	RxTimeoutTimer:
 4961 0000 00000000 		.space	24
 4961      00000000 
 4961      00000000 
 4961      00000000 
 4961      00000000 
 4962              		.section	.bss.SubgRf,"aw",%nobits
 4963              		.align	2
 4964              		.set	.LANCHOR3,. + 0
 4967              	SubgRf:
 4968 0000 00000000 		.space	88
 4968      00000000 
 4968      00000000 
 4968      00000000 
 4968      00000000 
 4969              		.section	.bss.TxTimeoutTimer,"aw",%nobits
 4970              		.align	2
 4971              		.set	.LANCHOR5,. + 0
 4974              	TxTimeoutTimer:
 4975 0000 00000000 		.space	24
 4975      00000000 
 4975      00000000 
 4975      00000000 
 4975      00000000 
 4976              		.section	.data.MaxPayloadLength,"aw"
 4977              		.set	.LANCHOR2,. + 0
 4980              	MaxPayloadLength:
 4981 0000 FF       		.byte	-1
 4982              		.section	.rodata.Bandwidths,"a"
 4983              		.align	2
 4984              		.set	.LANCHOR0,. + 0
 4987              	Bandwidths:
 4988 0000 04       		.byte	4
 4989 0001 05       		.byte	5
 4990 0002 06       		.byte	6
 4991              		.section	.rodata.Radio,"a"
 4992              		.align	2
 4995              	Radio:
 4996 0000 00000000 		.word	RadioInit
 4997 0004 00000000 		.word	RadioGetStatus
 4998 0008 00000000 		.word	RadioSetModem
 4999 000c 00000000 		.word	RadioSetChannel
 5000 0010 00000000 		.word	RadioIsChannelFree
 5001 0014 00000000 		.word	RadioRandom
ARM GAS  /tmp/ccldRdip.s 			page 146


 5002 0018 00000000 		.word	RadioSetRxConfig
 5003 001c 00000000 		.word	RadioSetTxConfig
 5004 0020 00000000 		.word	RadioCheckRfFrequency
 5005 0024 00000000 		.word	RadioTimeOnAir
 5006 0028 00000000 		.word	RadioSend
 5007 002c 00000000 		.word	RadioSleep
 5008 0030 00000000 		.word	RadioStandby
 5009 0034 00000000 		.word	RadioRx
 5010 0038 00000000 		.word	RadioStartCad
 5011 003c 00000000 		.word	RadioSetTxContinuousWave
 5012 0040 00000000 		.word	RadioRssi
 5013 0044 00000000 		.word	RadioWrite
 5014 0048 00000000 		.word	RadioRead
 5015 004c 00000000 		.word	RadioWriteRegisters
 5016 0050 00000000 		.word	RadioReadRegisters
 5017 0054 00000000 		.word	RadioSetMaxPayloadLength
 5018 0058 00000000 		.word	RadioSetPublicNetwork
 5019 005c 00000000 		.word	RadioGetWakeupTime
 5020 0060 00000000 		.word	RadioIrqProcess
 5021 0064 00000000 		.word	RadioRxBoosted
 5022 0068 00000000 		.word	RadioSetRxDutyCycle
 5023 006c 00000000 		.word	RadioTxPrbs
 5024 0070 00000000 		.word	RadioTxCw
 5025 0074 00000000 		.word	RadioSetRxGenericConfig
 5026 0078 00000000 		.word	RadioSetTxGenericConfig
 5027 007c 00000000 		.word	RFW_TransmitLongPacket
 5028 0080 00000000 		.word	RFW_ReceiveLongPacket
 5029              		.text
 5030              	.Letext0:
 5031              		.file 2 "/home/eatkinso/Downloads/gcc-arm-none-eabi-10.3-2021.07/gcc-arm-none-eabi-10.3-2021.07/ar
 5032              		.file 3 "/home/eatkinso/Downloads/gcc-arm-none-eabi-10.3-2021.07/gcc-arm-none-eabi-10.3-2021.07/ar
 5033              		.file 4 "Utilities/timer/stm32_timer.h"
 5034              		.file 5 "Middlewares/Third_Party/SubGHz_Phy/radio.h"
 5035              		.file 6 "Middlewares/Third_Party/SubGHz_Phy/radio_ex.h"
 5036              		.file 7 "Middlewares/Third_Party/SubGHz_Phy/stm32_radio_driver/radio_fw.h"
 5037              		.file 8 "Middlewares/Third_Party/SubGHz_Phy/stm32_radio_driver/radio_driver.h"
 5038              		.file 9 "Drivers/STM32WLxx_HAL_Driver/Inc/stm32wlxx_ll_dma.h"
 5039              		.file 10 "Drivers/STM32WLxx_HAL_Driver/Inc/stm32wlxx_hal.h"
ARM GAS  /tmp/ccldRdip.s 			page 147


DEFINED SYMBOLS
                            *ABS*:0000000000000000 radio.c
     /tmp/ccldRdip.s:16     .text.RadioCheckRfFrequency:0000000000000000 $t
     /tmp/ccldRdip.s:23     .text.RadioCheckRfFrequency:0000000000000000 RadioCheckRfFrequency
     /tmp/ccldRdip.s:42     .text.RadioGetLoRaBandwidthInHz:0000000000000000 $t
     /tmp/ccldRdip.s:48     .text.RadioGetLoRaBandwidthInHz:0000000000000000 RadioGetLoRaBandwidthInHz
     /tmp/ccldRdip.s:62     .text.RadioGetLoRaBandwidthInHz:0000000000000008 $d
     /tmp/ccldRdip.s:171    .text.RadioGetLoRaBandwidthInHz:0000000000000050 $d
     /tmp/ccldRdip.s:178    .text.RadioGetGfskTimeOnAirNumerator:0000000000000000 $t
     /tmp/ccldRdip.s:184    .text.RadioGetGfskTimeOnAirNumerator:0000000000000000 RadioGetGfskTimeOnAirNumerator
     /tmp/ccldRdip.s:236    .text.RadioGetLoRaTimeOnAirNumerator:0000000000000000 $t
     /tmp/ccldRdip.s:242    .text.RadioGetLoRaTimeOnAirNumerator:0000000000000000 RadioGetLoRaTimeOnAirNumerator
     /tmp/ccldRdip.s:418    .text.RadioTimeOnAir:0000000000000000 $t
     /tmp/ccldRdip.s:424    .text.RadioTimeOnAir:0000000000000000 RadioTimeOnAir
     /tmp/ccldRdip.s:535    .text.RadioTimeOnAir:0000000000000070 $d
     /tmp/ccldRdip.s:540    .text.RadioOnTxTimeoutProcess:0000000000000000 $t
     /tmp/ccldRdip.s:546    .text.RadioOnTxTimeoutProcess:0000000000000000 RadioOnTxTimeoutProcess
     /tmp/ccldRdip.s:577    .text.RadioOnTxTimeoutProcess:0000000000000010 $d
     /tmp/ccldRdip.s:582    .text.RadioOnTxTimeoutIrq:0000000000000000 $t
     /tmp/ccldRdip.s:588    .text.RadioOnTxTimeoutIrq:0000000000000000 RadioOnTxTimeoutIrq
     /tmp/ccldRdip.s:610    .text.RadioOnRxTimeoutProcess:0000000000000000 $t
     /tmp/ccldRdip.s:616    .text.RadioOnRxTimeoutProcess:0000000000000000 RadioOnRxTimeoutProcess
     /tmp/ccldRdip.s:647    .text.RadioOnRxTimeoutProcess:0000000000000010 $d
     /tmp/ccldRdip.s:652    .text.RadioOnRxTimeoutIrq:0000000000000000 $t
     /tmp/ccldRdip.s:658    .text.RadioOnRxTimeoutIrq:0000000000000000 RadioOnRxTimeoutIrq
     /tmp/ccldRdip.s:680    .text.payload_integration:0000000000000000 $t
     /tmp/ccldRdip.s:686    .text.payload_integration:0000000000000000 payload_integration
     /tmp/ccldRdip.s:859    .text.RadioSetMaxPayloadLength:0000000000000000 $t
     /tmp/ccldRdip.s:865    .text.RadioSetMaxPayloadLength:0000000000000000 RadioSetMaxPayloadLength
     /tmp/ccldRdip.s:930    .text.RadioSetMaxPayloadLength:0000000000000030 $d
     /tmp/ccldRdip.s:936    .text.RadioRead:0000000000000000 $t
     /tmp/ccldRdip.s:942    .text.RadioRead:0000000000000000 RadioRead
     /tmp/ccldRdip.s:965    .text.RadioWrite:0000000000000000 $t
     /tmp/ccldRdip.s:971    .text.RadioWrite:0000000000000000 RadioWrite
     /tmp/ccldRdip.s:993    .text.RadioTxCw:0000000000000000 $t
     /tmp/ccldRdip.s:999    .text.RadioTxCw:0000000000000000 RadioTxCw
     /tmp/ccldRdip.s:1029   .text.RadioTxPrbs:0000000000000000 $t
     /tmp/ccldRdip.s:1035   .text.RadioTxPrbs:0000000000000000 RadioTxPrbs
     /tmp/ccldRdip.s:1069   .text.RadioTxPrbs:0000000000000024 $d
     /tmp/ccldRdip.s:1075   .text.RadioSetRxDutyCycle:0000000000000000 $t
     /tmp/ccldRdip.s:1081   .text.RadioSetRxDutyCycle:0000000000000000 RadioSetRxDutyCycle
     /tmp/ccldRdip.s:1120   .text.RadioSetRxDutyCycle:000000000000001c $d
     /tmp/ccldRdip.s:1125   .text.RadioRxBoosted:0000000000000000 $t
     /tmp/ccldRdip.s:1131   .text.RadioRxBoosted:0000000000000000 RadioRxBoosted
     /tmp/ccldRdip.s:1223   .text.RadioRxBoosted:000000000000005c $d
     /tmp/ccldRdip.s:1229   .text.RadioStandby:0000000000000000 $t
     /tmp/ccldRdip.s:1235   .text.RadioStandby:0000000000000000 RadioStandby
     /tmp/ccldRdip.s:1256   .text.RadioGetStatus:0000000000000000 $t
     /tmp/ccldRdip.s:1262   .text.RadioGetStatus:0000000000000000 RadioGetStatus
     /tmp/ccldRdip.s:1305   .text.RadioIrqProcess:0000000000000000 $t
     /tmp/ccldRdip.s:1311   .text.RadioIrqProcess:0000000000000000 RadioIrqProcess
     /tmp/ccldRdip.s:1351   .text.RadioIrqProcess:0000000000000034 $d
     /tmp/ccldRdip.s:1383   .text.RadioIrqProcess:0000000000000074 $t
     /tmp/ccldRdip.s:1743   .text.RadioIrqProcess:0000000000000234 $d
     /tmp/ccldRdip.s:1754   .text.RadioOnDioIrq:0000000000000000 $t
     /tmp/ccldRdip.s:1760   .text.RadioOnDioIrq:0000000000000000 RadioOnDioIrq
     /tmp/ccldRdip.s:1785   .text.RadioOnDioIrq:0000000000000010 $d
ARM GAS  /tmp/ccldRdip.s 			page 148


     /tmp/ccldRdip.s:1790   .text.RadioGetWakeupTime:0000000000000000 $t
     /tmp/ccldRdip.s:1796   .text.RadioGetWakeupTime:0000000000000000 RadioGetWakeupTime
     /tmp/ccldRdip.s:1818   .text.RadioReadRegisters:0000000000000000 $t
     /tmp/ccldRdip.s:1824   .text.RadioReadRegisters:0000000000000000 RadioReadRegisters
     /tmp/ccldRdip.s:1846   .text.RadioWriteRegisters:0000000000000000 $t
     /tmp/ccldRdip.s:1852   .text.RadioWriteRegisters:0000000000000000 RadioWriteRegisters
     /tmp/ccldRdip.s:1874   .text.RadioRssi:0000000000000000 $t
     /tmp/ccldRdip.s:1880   .text.RadioRssi:0000000000000000 RadioRssi
     /tmp/ccldRdip.s:1904   .text.RadioSetTxContinuousWave:0000000000000000 $t
     /tmp/ccldRdip.s:1910   .text.RadioSetTxContinuousWave:0000000000000000 RadioSetTxContinuousWave
     /tmp/ccldRdip.s:1968   .text.RadioSetTxContinuousWave:0000000000000034 $d
     /tmp/ccldRdip.s:1973   .text.RadioSetChannel:0000000000000000 $t
     /tmp/ccldRdip.s:1979   .text.RadioSetChannel:0000000000000000 RadioSetChannel
     /tmp/ccldRdip.s:2001   .text.RadioStartCad:0000000000000000 $t
     /tmp/ccldRdip.s:2007   .text.RadioStartCad:0000000000000000 RadioStartCad
     /tmp/ccldRdip.s:2039   .text.RadioStartCad:0000000000000024 $d
     /tmp/ccldRdip.s:2044   .text.RadioRx:0000000000000000 $t
     /tmp/ccldRdip.s:2050   .text.RadioRx:0000000000000000 RadioRx
     /tmp/ccldRdip.s:2143   .text.RadioRx:000000000000005c $d
     /tmp/ccldRdip.s:2149   .text.RadioSleep:0000000000000000 $t
     /tmp/ccldRdip.s:2155   .text.RadioSleep:0000000000000000 RadioSleep
     /tmp/ccldRdip.s:2182   .text.RadioSend:0000000000000000 $t
     /tmp/ccldRdip.s:2188   .text.RadioSend:0000000000000000 RadioSend
     /tmp/ccldRdip.s:2259   .text.RadioSend:0000000000000052 $d
     /tmp/ccldRdip.s:2263   .text.RadioSend:0000000000000056 $t
     /tmp/ccldRdip.s:2486   .text.RadioSend:0000000000000174 $d
     /tmp/ccldRdip.s:2494   .text.RadioSetModem:0000000000000000 $t
     /tmp/ccldRdip.s:2500   .text.RadioSetModem:0000000000000000 RadioSetModem
     /tmp/ccldRdip.s:2527   .text.RadioSetModem:0000000000000016 $d
     /tmp/ccldRdip.s:2531   .text.RadioSetModem:000000000000001a $t
     /tmp/ccldRdip.s:3641   .text.RadioSetPublicNetwork:0000000000000000 RadioSetPublicNetwork
     /tmp/ccldRdip.s:2607   .text.RadioSetModem:000000000000006c $d
     /tmp/ccldRdip.s:2612   .text.RadioSetTxGenericConfig:0000000000000000 $t
     /tmp/ccldRdip.s:2618   .text.RadioSetTxGenericConfig:0000000000000000 RadioSetTxGenericConfig
     /tmp/ccldRdip.s:3082   .text.RadioSetTxGenericConfig:0000000000000244 $d
     /tmp/ccldRdip.s:3089   .text.RadioSetRxGenericConfig:0000000000000000 $t
     /tmp/ccldRdip.s:3095   .text.RadioSetRxGenericConfig:0000000000000000 RadioSetRxGenericConfig
     /tmp/ccldRdip.s:3628   .text.RadioSetRxGenericConfig:0000000000000274 $d
     /tmp/ccldRdip.s:3635   .text.RadioSetPublicNetwork:0000000000000000 $t
     /tmp/ccldRdip.s:3699   .text.RadioSetPublicNetwork:0000000000000040 $d
     /tmp/ccldRdip.s:3704   .text.RadioSetTxConfig:0000000000000000 $t
     /tmp/ccldRdip.s:3710   .text.RadioSetTxConfig:0000000000000000 RadioSetTxConfig
     /tmp/ccldRdip.s:4036   .text.RadioSetTxConfig:00000000000001a0 $d
     /tmp/ccldRdip.s:4045   .text.RadioSetRxConfig:0000000000000000 $t
     /tmp/ccldRdip.s:4051   .text.RadioSetRxConfig:0000000000000000 RadioSetRxConfig
     /tmp/ccldRdip.s:4610   .text.RadioSetRxConfig:00000000000002e0 $d
     /tmp/ccldRdip.s:4620   .text.RadioRandom:0000000000000000 $t
     /tmp/ccldRdip.s:4626   .text.RadioRandom:0000000000000000 RadioRandom
     /tmp/ccldRdip.s:4661   .text.RadioIsChannelFree:0000000000000000 $t
     /tmp/ccldRdip.s:4667   .text.RadioIsChannelFree:0000000000000000 RadioIsChannelFree
     /tmp/ccldRdip.s:4788   .text.RadioInit:0000000000000000 $t
     /tmp/ccldRdip.s:4794   .text.RadioInit:0000000000000000 RadioInit
     /tmp/ccldRdip.s:4905   .text.RadioInit:000000000000007c $d
     /tmp/ccldRdip.s:4960   .bss.RxTimeoutTimer:0000000000000000 RxTimeoutTimer
     /tmp/ccldRdip.s:4974   .bss.TxTimeoutTimer:0000000000000000 TxTimeoutTimer
     /tmp/ccldRdip.s:4967   .bss.SubgRf:0000000000000000 SubgRf
     /tmp/ccldRdip.s:4987   .rodata.Bandwidths:0000000000000000 Bandwidths
ARM GAS  /tmp/ccldRdip.s 			page 149


     /tmp/ccldRdip.s:4995   .rodata.Radio:0000000000000000 Radio
     /tmp/ccldRdip.s:4921   .rodata:0000000000000000 $d
     /tmp/ccldRdip.s:4942   .bss.RadioBuffer:0000000000000000 $d
     /tmp/ccldRdip.s:4946   .bss.RadioBuffer:0000000000000000 RadioBuffer
     /tmp/ccldRdip.s:4949   .bss.RadioEvents:0000000000000000 $d
     /tmp/ccldRdip.s:4953   .bss.RadioEvents:0000000000000000 RadioEvents
     /tmp/ccldRdip.s:4956   .bss.RxTimeoutTimer:0000000000000000 $d
     /tmp/ccldRdip.s:4963   .bss.SubgRf:0000000000000000 $d
     /tmp/ccldRdip.s:4970   .bss.TxTimeoutTimer:0000000000000000 $d
     /tmp/ccldRdip.s:4980   .data.MaxPayloadLength:0000000000000000 MaxPayloadLength
     /tmp/ccldRdip.s:4983   .rodata.Bandwidths:0000000000000000 $d
     /tmp/ccldRdip.s:4992   .rodata.Radio:0000000000000000 $d
     /tmp/ccldRdip.s:73     .text.RadioGetLoRaBandwidthInHz:0000000000000013 $d
     /tmp/ccldRdip.s:73     .text.RadioGetLoRaBandwidthInHz:0000000000000014 $t

UNDEFINED SYMBOLS
SUBGRF_SetPacketParams
SUBGRF_ReadRegister
SUBGRF_WriteRegister
SUBGRF_SetRfTxPower
SUBGRF_SetSwitch
SUBGRF_SetTxContinuousWave
SUBGRF_SetTxInfinitePreamble
SUBGRF_SetTx
SUBGRF_SetRxDutyCycle
RFW_Is_Init
SUBGRF_SetDioIrqParams
SUBGRF_SetRxBoosted
RFW_ReceiveInit
UTIL_TIMER_SetPeriod
UTIL_TIMER_Start
SUBGRF_SetStandby
SUBGRF_GetOperatingMode
UTIL_TIMER_Stop
RFW_Is_LongPacketModeEnabled
RFW_DeInit_TxLongPacket
SUBGRF_GetPayload
SUBGRF_GetPacketStatus
SUBGRF_GetCFO
RFW_ReceivePayload
SUBGRF_GetRadioWakeUpTime
SUBGRF_ReadRegisters
SUBGRF_WriteRegisters
SUBGRF_GetRssiInst
SUBGRF_SetRfFrequency
SUBGRF_SetCad
SUBGRF_SetRx
SUBGRF_SetSleep
HAL_Delay
SUBGRF_SendPayload
RFW_TransmitInit
RFW_SetRadioModem
SUBGRF_SetPacketType
RFW_DeInit
RFW_SetAntSwitch
SUBGRF_GetFskBandwidthRegValue
RFW_Init
ARM GAS  /tmp/ccldRdip.s 			page 150


SUBGRF_SetModulationParams
SUBGRF_SetSyncWord
SUBGRF_SetWhiteningSeed
SUBGRF_SetCrcPolynomial
SUBGRF_SetStopRxTimerOnPreambleDetect
SUBGRF_SetLoRaSymbNumTimeout
SUBGRF_GetRandom
UTIL_TIMER_GetCurrentTime
UTIL_TIMER_GetElapsedTime
SUBGRF_Init
SUBGRF_SetRegulatorMode
SUBGRF_SetBufferBaseAddress
SUBGRF_SetTxParams
UTIL_TIMER_Create
RFW_TransmitLongPacket
RFW_ReceiveLongPacket
