ARM GAS  /tmp/cc1L9RAu.s 			page 1


   1              		.cpu cortex-m4
   2              		.eabi_attribute 20, 1
   3              		.eabi_attribute 21, 1
   4              		.eabi_attribute 23, 3
   5              		.eabi_attribute 24, 1
   6              		.eabi_attribute 25, 1
   7              		.eabi_attribute 26, 1
   8              		.eabi_attribute 30, 1
   9              		.eabi_attribute 34, 1
  10              		.eabi_attribute 18, 4
  11              		.file	"Region.c"
  12              		.text
  13              	.Ltext0:
  14              		.cfi_sections	.debug_frame
  15              		.section	.text.RegionIsActive,"ax",%progbits
  16              		.align	1
  17              		.global	RegionIsActive
  18              		.arch armv7e-m
  19              		.syntax unified
  20              		.thumb
  21              		.thumb_func
  22              		.fpu softvfp
  24              	RegionIsActive:
  25              	.LVL0:
  26              	.LFB104:
  27              		.file 1 "Middlewares/Third_Party/LoRaWAN/Mac/Region/Region.c"
   1:Middlewares/Third_Party/LoRaWAN/Mac/Region/Region.c **** /*!
   2:Middlewares/Third_Party/LoRaWAN/Mac/Region/Region.c ****  * \file      Region.c
   3:Middlewares/Third_Party/LoRaWAN/Mac/Region/Region.c ****  *
   4:Middlewares/Third_Party/LoRaWAN/Mac/Region/Region.c ****  * \brief     Region implementation.
   5:Middlewares/Third_Party/LoRaWAN/Mac/Region/Region.c ****  *
   6:Middlewares/Third_Party/LoRaWAN/Mac/Region/Region.c ****  * \copyright Revised BSD License, see section \ref LICENSE.
   7:Middlewares/Third_Party/LoRaWAN/Mac/Region/Region.c ****  *
   8:Middlewares/Third_Party/LoRaWAN/Mac/Region/Region.c ****  * \code
   9:Middlewares/Third_Party/LoRaWAN/Mac/Region/Region.c ****  *                ______                              _
  10:Middlewares/Third_Party/LoRaWAN/Mac/Region/Region.c ****  *               / _____)             _              | |
  11:Middlewares/Third_Party/LoRaWAN/Mac/Region/Region.c ****  *              ( (____  _____ ____ _| |_ _____  ____| |__
  12:Middlewares/Third_Party/LoRaWAN/Mac/Region/Region.c ****  *               \____ \| ___ |    (_   _) ___ |/ ___)  _ \
  13:Middlewares/Third_Party/LoRaWAN/Mac/Region/Region.c ****  *               _____) ) ____| | | || |_| ____( (___| | | |
  14:Middlewares/Third_Party/LoRaWAN/Mac/Region/Region.c ****  *              (______/|_____)_|_|_| \__)_____)\____)_| |_|
  15:Middlewares/Third_Party/LoRaWAN/Mac/Region/Region.c ****  *              (C)2013-2017 Semtech
  16:Middlewares/Third_Party/LoRaWAN/Mac/Region/Region.c ****  *
  17:Middlewares/Third_Party/LoRaWAN/Mac/Region/Region.c ****  *               ___ _____ _   ___ _  _____ ___  ___  ___ ___
  18:Middlewares/Third_Party/LoRaWAN/Mac/Region/Region.c ****  *              / __|_   _/_\ / __| |/ / __/ _ \| _ \/ __| __|
  19:Middlewares/Third_Party/LoRaWAN/Mac/Region/Region.c ****  *              \__ \ | |/ _ \ (__| ' <| _| (_) |   / (__| _|
  20:Middlewares/Third_Party/LoRaWAN/Mac/Region/Region.c ****  *              |___/ |_/_/ \_\___|_|\_\_| \___/|_|_\\___|___|
  21:Middlewares/Third_Party/LoRaWAN/Mac/Region/Region.c ****  *              embedded.connectivity.solutions===============
  22:Middlewares/Third_Party/LoRaWAN/Mac/Region/Region.c ****  *
  23:Middlewares/Third_Party/LoRaWAN/Mac/Region/Region.c ****  * \endcode
  24:Middlewares/Third_Party/LoRaWAN/Mac/Region/Region.c ****  *
  25:Middlewares/Third_Party/LoRaWAN/Mac/Region/Region.c ****  * \author    Miguel Luis ( Semtech )
  26:Middlewares/Third_Party/LoRaWAN/Mac/Region/Region.c ****  *
  27:Middlewares/Third_Party/LoRaWAN/Mac/Region/Region.c ****  * \author    Gregory Cristian ( Semtech )
  28:Middlewares/Third_Party/LoRaWAN/Mac/Region/Region.c ****  *
  29:Middlewares/Third_Party/LoRaWAN/Mac/Region/Region.c ****  * \author    Daniel Jaeckle ( STACKFORCE )
  30:Middlewares/Third_Party/LoRaWAN/Mac/Region/Region.c ****  */
  31:Middlewares/Third_Party/LoRaWAN/Mac/Region/Region.c **** #include "LoRaMac.h"
ARM GAS  /tmp/cc1L9RAu.s 			page 2


  32:Middlewares/Third_Party/LoRaWAN/Mac/Region/Region.c **** 
  33:Middlewares/Third_Party/LoRaWAN/Mac/Region/Region.c **** // Setup regions
  34:Middlewares/Third_Party/LoRaWAN/Mac/Region/Region.c **** #ifdef REGION_AS923
  35:Middlewares/Third_Party/LoRaWAN/Mac/Region/Region.c **** #include "RegionAS923.h"
  36:Middlewares/Third_Party/LoRaWAN/Mac/Region/Region.c **** #define AS923_CASE                                 case LORAMAC_REGION_AS923:
  37:Middlewares/Third_Party/LoRaWAN/Mac/Region/Region.c **** #define AS923_IS_ACTIVE( )                         AS923_CASE { return true; }
  38:Middlewares/Third_Party/LoRaWAN/Mac/Region/Region.c **** #define AS923_GET_PHY_PARAM( )                     AS923_CASE { return RegionAS923GetPhyParam( getP
  39:Middlewares/Third_Party/LoRaWAN/Mac/Region/Region.c **** #define AS923_SET_BAND_TX_DONE( )                  AS923_CASE { RegionAS923SetBandTxDone( txDone );
  40:Middlewares/Third_Party/LoRaWAN/Mac/Region/Region.c **** #define AS923_INIT_DEFAULTS( )                     AS923_CASE { RegionAS923InitDefaults( params ); 
  41:Middlewares/Third_Party/LoRaWAN/Mac/Region/Region.c **** #define AS923_VERIFY( )                            AS923_CASE { return RegionAS923Verify( verify, p
  42:Middlewares/Third_Party/LoRaWAN/Mac/Region/Region.c **** #define AS923_APPLY_CF_LIST( )                     AS923_CASE { RegionAS923ApplyCFList( applyCFList
  43:Middlewares/Third_Party/LoRaWAN/Mac/Region/Region.c **** #define AS923_CHAN_MASK_SET( )                     AS923_CASE { return RegionAS923ChanMaskSet( chan
  44:Middlewares/Third_Party/LoRaWAN/Mac/Region/Region.c **** #define AS923_COMPUTE_RX_WINDOW_PARAMETERS( )      AS923_CASE { RegionAS923ComputeRxWindowParameter
  45:Middlewares/Third_Party/LoRaWAN/Mac/Region/Region.c **** #define AS923_RX_CONFIG( )                         AS923_CASE { return RegionAS923RxConfig( rxConfi
  46:Middlewares/Third_Party/LoRaWAN/Mac/Region/Region.c **** #define AS923_TX_CONFIG( )                         AS923_CASE { return RegionAS923TxConfig( txConfi
  47:Middlewares/Third_Party/LoRaWAN/Mac/Region/Region.c **** #define AS923_LINK_ADR_REQ( )                      AS923_CASE { return RegionAS923LinkAdrReq( linkA
  48:Middlewares/Third_Party/LoRaWAN/Mac/Region/Region.c **** #define AS923_RX_PARAM_SETUP_REQ( )                AS923_CASE { return RegionAS923RxParamSetupReq( 
  49:Middlewares/Third_Party/LoRaWAN/Mac/Region/Region.c **** #define AS923_NEW_CHANNEL_REQ( )                   AS923_CASE { return RegionAS923NewChannelReq( ne
  50:Middlewares/Third_Party/LoRaWAN/Mac/Region/Region.c **** #define AS923_TX_PARAM_SETUP_REQ( )                AS923_CASE { return RegionAS923TxParamSetupReq( 
  51:Middlewares/Third_Party/LoRaWAN/Mac/Region/Region.c **** #define AS923_DL_CHANNEL_REQ( )                    AS923_CASE { return RegionAS923DlChannelReq( dlC
  52:Middlewares/Third_Party/LoRaWAN/Mac/Region/Region.c **** #define AS923_ALTERNATE_DR( )                      AS923_CASE { return RegionAS923AlternateDr( curr
  53:Middlewares/Third_Party/LoRaWAN/Mac/Region/Region.c **** #define AS923_NEXT_CHANNEL( )                      AS923_CASE { return RegionAS923NextChannel( next
  54:Middlewares/Third_Party/LoRaWAN/Mac/Region/Region.c **** #define AS923_CHANNEL_ADD( )                       AS923_CASE { return RegionAS923ChannelAdd( chann
  55:Middlewares/Third_Party/LoRaWAN/Mac/Region/Region.c **** #define AS923_CHANNEL_REMOVE( )                    AS923_CASE { return RegionAS923ChannelsRemove( c
  56:Middlewares/Third_Party/LoRaWAN/Mac/Region/Region.c **** #define AS923_SET_CONTINUOUS_WAVE( )               AS923_CASE { RegionAS923SetContinuousWave( conti
  57:Middlewares/Third_Party/LoRaWAN/Mac/Region/Region.c **** #define AS923_APPLY_DR_OFFSET( )                   AS923_CASE { return RegionAS923ApplyDrOffset( do
  58:Middlewares/Third_Party/LoRaWAN/Mac/Region/Region.c **** #define AS923_RX_BEACON_SETUP( )                   AS923_CASE { RegionAS923RxBeaconSetup( rxBeaconS
  59:Middlewares/Third_Party/LoRaWAN/Mac/Region/Region.c **** #else
  60:Middlewares/Third_Party/LoRaWAN/Mac/Region/Region.c **** #define AS923_IS_ACTIVE( )
  61:Middlewares/Third_Party/LoRaWAN/Mac/Region/Region.c **** #define AS923_GET_PHY_PARAM( )
  62:Middlewares/Third_Party/LoRaWAN/Mac/Region/Region.c **** #define AS923_SET_BAND_TX_DONE( )
  63:Middlewares/Third_Party/LoRaWAN/Mac/Region/Region.c **** #define AS923_INIT_DEFAULTS( )
  64:Middlewares/Third_Party/LoRaWAN/Mac/Region/Region.c **** #define AS923_GET_NVM_CTX( )
  65:Middlewares/Third_Party/LoRaWAN/Mac/Region/Region.c **** #define AS923_VERIFY( )
  66:Middlewares/Third_Party/LoRaWAN/Mac/Region/Region.c **** #define AS923_APPLY_CF_LIST( )
  67:Middlewares/Third_Party/LoRaWAN/Mac/Region/Region.c **** #define AS923_CHAN_MASK_SET( )
  68:Middlewares/Third_Party/LoRaWAN/Mac/Region/Region.c **** #define AS923_COMPUTE_RX_WINDOW_PARAMETERS( )
  69:Middlewares/Third_Party/LoRaWAN/Mac/Region/Region.c **** #define AS923_RX_CONFIG( )
  70:Middlewares/Third_Party/LoRaWAN/Mac/Region/Region.c **** #define AS923_TX_CONFIG( )
  71:Middlewares/Third_Party/LoRaWAN/Mac/Region/Region.c **** #define AS923_LINK_ADR_REQ( )
  72:Middlewares/Third_Party/LoRaWAN/Mac/Region/Region.c **** #define AS923_RX_PARAM_SETUP_REQ( )
  73:Middlewares/Third_Party/LoRaWAN/Mac/Region/Region.c **** #define AS923_NEW_CHANNEL_REQ( )
  74:Middlewares/Third_Party/LoRaWAN/Mac/Region/Region.c **** #define AS923_TX_PARAM_SETUP_REQ( )
  75:Middlewares/Third_Party/LoRaWAN/Mac/Region/Region.c **** #define AS923_DL_CHANNEL_REQ( )
  76:Middlewares/Third_Party/LoRaWAN/Mac/Region/Region.c **** #define AS923_ALTERNATE_DR( )
  77:Middlewares/Third_Party/LoRaWAN/Mac/Region/Region.c **** #define AS923_NEXT_CHANNEL( )
  78:Middlewares/Third_Party/LoRaWAN/Mac/Region/Region.c **** #define AS923_CHANNEL_ADD( )
  79:Middlewares/Third_Party/LoRaWAN/Mac/Region/Region.c **** #define AS923_CHANNEL_REMOVE( )
  80:Middlewares/Third_Party/LoRaWAN/Mac/Region/Region.c **** #define AS923_SET_CONTINUOUS_WAVE( )
  81:Middlewares/Third_Party/LoRaWAN/Mac/Region/Region.c **** #define AS923_APPLY_DR_OFFSET( )
  82:Middlewares/Third_Party/LoRaWAN/Mac/Region/Region.c **** #define AS923_RX_BEACON_SETUP( )
  83:Middlewares/Third_Party/LoRaWAN/Mac/Region/Region.c **** #endif
  84:Middlewares/Third_Party/LoRaWAN/Mac/Region/Region.c **** 
  85:Middlewares/Third_Party/LoRaWAN/Mac/Region/Region.c **** #ifdef REGION_AU915
  86:Middlewares/Third_Party/LoRaWAN/Mac/Region/Region.c **** #include "RegionAU915.h"
  87:Middlewares/Third_Party/LoRaWAN/Mac/Region/Region.c **** #define AU915_CASE                                 case LORAMAC_REGION_AU915:
  88:Middlewares/Third_Party/LoRaWAN/Mac/Region/Region.c **** #define AU915_IS_ACTIVE( )                         AU915_CASE { return true; }
ARM GAS  /tmp/cc1L9RAu.s 			page 3


  89:Middlewares/Third_Party/LoRaWAN/Mac/Region/Region.c **** #define AU915_GET_PHY_PARAM( )                     AU915_CASE { return RegionAU915GetPhyParam( getP
  90:Middlewares/Third_Party/LoRaWAN/Mac/Region/Region.c **** #define AU915_SET_BAND_TX_DONE( )                  AU915_CASE { RegionAU915SetBandTxDone( txDone );
  91:Middlewares/Third_Party/LoRaWAN/Mac/Region/Region.c **** #define AU915_INIT_DEFAULTS( )                     AU915_CASE { RegionAU915InitDefaults( params ); 
  92:Middlewares/Third_Party/LoRaWAN/Mac/Region/Region.c **** #define AU915_VERIFY( )                            AU915_CASE { return RegionAU915Verify( verify, p
  93:Middlewares/Third_Party/LoRaWAN/Mac/Region/Region.c **** #define AU915_APPLY_CF_LIST( )                     AU915_CASE { RegionAU915ApplyCFList( applyCFList
  94:Middlewares/Third_Party/LoRaWAN/Mac/Region/Region.c **** #define AU915_CHAN_MASK_SET( )                     AU915_CASE { return RegionAU915ChanMaskSet( chan
  95:Middlewares/Third_Party/LoRaWAN/Mac/Region/Region.c **** #define AU915_COMPUTE_RX_WINDOW_PARAMETERS( )      AU915_CASE { RegionAU915ComputeRxWindowParameter
  96:Middlewares/Third_Party/LoRaWAN/Mac/Region/Region.c **** #define AU915_RX_CONFIG( )                         AU915_CASE { return RegionAU915RxConfig( rxConfi
  97:Middlewares/Third_Party/LoRaWAN/Mac/Region/Region.c **** #define AU915_TX_CONFIG( )                         AU915_CASE { return RegionAU915TxConfig( txConfi
  98:Middlewares/Third_Party/LoRaWAN/Mac/Region/Region.c **** #define AU915_LINK_ADR_REQ( )                      AU915_CASE { return RegionAU915LinkAdrReq( linkA
  99:Middlewares/Third_Party/LoRaWAN/Mac/Region/Region.c **** #define AU915_RX_PARAM_SETUP_REQ( )                AU915_CASE { return RegionAU915RxParamSetupReq( 
 100:Middlewares/Third_Party/LoRaWAN/Mac/Region/Region.c **** #define AU915_NEW_CHANNEL_REQ( )                   AU915_CASE { return RegionAU915NewChannelReq( ne
 101:Middlewares/Third_Party/LoRaWAN/Mac/Region/Region.c **** #define AU915_TX_PARAM_SETUP_REQ( )                AU915_CASE { return RegionAU915TxParamSetupReq( 
 102:Middlewares/Third_Party/LoRaWAN/Mac/Region/Region.c **** #define AU915_DL_CHANNEL_REQ( )                    AU915_CASE { return RegionAU915DlChannelReq( dlC
 103:Middlewares/Third_Party/LoRaWAN/Mac/Region/Region.c **** #define AU915_ALTERNATE_DR( )                      AU915_CASE { return RegionAU915AlternateDr( curr
 104:Middlewares/Third_Party/LoRaWAN/Mac/Region/Region.c **** #define AU915_NEXT_CHANNEL( )                      AU915_CASE { return RegionAU915NextChannel( next
 105:Middlewares/Third_Party/LoRaWAN/Mac/Region/Region.c **** #define AU915_CHANNEL_ADD( )                       AU915_CASE { return RegionAU915ChannelAdd( chann
 106:Middlewares/Third_Party/LoRaWAN/Mac/Region/Region.c **** #define AU915_CHANNEL_REMOVE( )                    AU915_CASE { return RegionAU915ChannelsRemove( c
 107:Middlewares/Third_Party/LoRaWAN/Mac/Region/Region.c **** #define AU915_SET_CONTINUOUS_WAVE( )               AU915_CASE { RegionAU915SetContinuousWave( conti
 108:Middlewares/Third_Party/LoRaWAN/Mac/Region/Region.c **** #define AU915_APPLY_DR_OFFSET( )                   AU915_CASE { return RegionAU915ApplyDrOffset( do
 109:Middlewares/Third_Party/LoRaWAN/Mac/Region/Region.c **** #define AU915_RX_BEACON_SETUP( )                   AU915_CASE { RegionAU915RxBeaconSetup( rxBeaconS
 110:Middlewares/Third_Party/LoRaWAN/Mac/Region/Region.c **** #else
 111:Middlewares/Third_Party/LoRaWAN/Mac/Region/Region.c **** #define AU915_IS_ACTIVE( )
 112:Middlewares/Third_Party/LoRaWAN/Mac/Region/Region.c **** #define AU915_GET_PHY_PARAM( )
 113:Middlewares/Third_Party/LoRaWAN/Mac/Region/Region.c **** #define AU915_SET_BAND_TX_DONE( )
 114:Middlewares/Third_Party/LoRaWAN/Mac/Region/Region.c **** #define AU915_INIT_DEFAULTS( )
 115:Middlewares/Third_Party/LoRaWAN/Mac/Region/Region.c **** #define AU915_GET_NVM_CTX( )
 116:Middlewares/Third_Party/LoRaWAN/Mac/Region/Region.c **** #define AU915_VERIFY( )
 117:Middlewares/Third_Party/LoRaWAN/Mac/Region/Region.c **** #define AU915_APPLY_CF_LIST( )
 118:Middlewares/Third_Party/LoRaWAN/Mac/Region/Region.c **** #define AU915_CHAN_MASK_SET( )
 119:Middlewares/Third_Party/LoRaWAN/Mac/Region/Region.c **** #define AU915_COMPUTE_RX_WINDOW_PARAMETERS( )
 120:Middlewares/Third_Party/LoRaWAN/Mac/Region/Region.c **** #define AU915_RX_CONFIG( )
 121:Middlewares/Third_Party/LoRaWAN/Mac/Region/Region.c **** #define AU915_TX_CONFIG( )
 122:Middlewares/Third_Party/LoRaWAN/Mac/Region/Region.c **** #define AU915_LINK_ADR_REQ( )
 123:Middlewares/Third_Party/LoRaWAN/Mac/Region/Region.c **** #define AU915_RX_PARAM_SETUP_REQ( )
 124:Middlewares/Third_Party/LoRaWAN/Mac/Region/Region.c **** #define AU915_NEW_CHANNEL_REQ( )
 125:Middlewares/Third_Party/LoRaWAN/Mac/Region/Region.c **** #define AU915_TX_PARAM_SETUP_REQ( )
 126:Middlewares/Third_Party/LoRaWAN/Mac/Region/Region.c **** #define AU915_DL_CHANNEL_REQ( )
 127:Middlewares/Third_Party/LoRaWAN/Mac/Region/Region.c **** #define AU915_ALTERNATE_DR( )
 128:Middlewares/Third_Party/LoRaWAN/Mac/Region/Region.c **** #define AU915_NEXT_CHANNEL( )
 129:Middlewares/Third_Party/LoRaWAN/Mac/Region/Region.c **** #define AU915_CHANNEL_ADD( )
 130:Middlewares/Third_Party/LoRaWAN/Mac/Region/Region.c **** #define AU915_CHANNEL_REMOVE( )
 131:Middlewares/Third_Party/LoRaWAN/Mac/Region/Region.c **** #define AU915_SET_CONTINUOUS_WAVE( )
 132:Middlewares/Third_Party/LoRaWAN/Mac/Region/Region.c **** #define AU915_APPLY_DR_OFFSET( )
 133:Middlewares/Third_Party/LoRaWAN/Mac/Region/Region.c **** #define AU915_RX_BEACON_SETUP( )
 134:Middlewares/Third_Party/LoRaWAN/Mac/Region/Region.c **** #endif
 135:Middlewares/Third_Party/LoRaWAN/Mac/Region/Region.c **** 
 136:Middlewares/Third_Party/LoRaWAN/Mac/Region/Region.c **** #ifdef REGION_CN470
 137:Middlewares/Third_Party/LoRaWAN/Mac/Region/Region.c **** #include "RegionCN470.h"
 138:Middlewares/Third_Party/LoRaWAN/Mac/Region/Region.c **** #define CN470_CASE                                 case LORAMAC_REGION_CN470:
 139:Middlewares/Third_Party/LoRaWAN/Mac/Region/Region.c **** #define CN470_IS_ACTIVE( )                         CN470_CASE { return true; }
 140:Middlewares/Third_Party/LoRaWAN/Mac/Region/Region.c **** #define CN470_GET_PHY_PARAM( )                     CN470_CASE { return RegionCN470GetPhyParam( getP
 141:Middlewares/Third_Party/LoRaWAN/Mac/Region/Region.c **** #define CN470_SET_BAND_TX_DONE( )                  CN470_CASE { RegionCN470SetBandTxDone( txDone );
 142:Middlewares/Third_Party/LoRaWAN/Mac/Region/Region.c **** #define CN470_INIT_DEFAULTS( )                     CN470_CASE { RegionCN470InitDefaults( params ); 
 143:Middlewares/Third_Party/LoRaWAN/Mac/Region/Region.c **** #define CN470_VERIFY( )                            CN470_CASE { return RegionCN470Verify( verify, p
 144:Middlewares/Third_Party/LoRaWAN/Mac/Region/Region.c **** #define CN470_APPLY_CF_LIST( )                     CN470_CASE { RegionCN470ApplyCFList( applyCFList
 145:Middlewares/Third_Party/LoRaWAN/Mac/Region/Region.c **** #define CN470_CHAN_MASK_SET( )                     CN470_CASE { return RegionCN470ChanMaskSet( chan
ARM GAS  /tmp/cc1L9RAu.s 			page 4


 146:Middlewares/Third_Party/LoRaWAN/Mac/Region/Region.c **** #define CN470_COMPUTE_RX_WINDOW_PARAMETERS( )      CN470_CASE { RegionCN470ComputeRxWindowParameter
 147:Middlewares/Third_Party/LoRaWAN/Mac/Region/Region.c **** #define CN470_RX_CONFIG( )                         CN470_CASE { return RegionCN470RxConfig( rxConfi
 148:Middlewares/Third_Party/LoRaWAN/Mac/Region/Region.c **** #define CN470_TX_CONFIG( )                         CN470_CASE { return RegionCN470TxConfig( txConfi
 149:Middlewares/Third_Party/LoRaWAN/Mac/Region/Region.c **** #define CN470_LINK_ADR_REQ( )                      CN470_CASE { return RegionCN470LinkAdrReq( linkA
 150:Middlewares/Third_Party/LoRaWAN/Mac/Region/Region.c **** #define CN470_RX_PARAM_SETUP_REQ( )                CN470_CASE { return RegionCN470RxParamSetupReq( 
 151:Middlewares/Third_Party/LoRaWAN/Mac/Region/Region.c **** #define CN470_NEW_CHANNEL_REQ( )                   CN470_CASE { return RegionCN470NewChannelReq( ne
 152:Middlewares/Third_Party/LoRaWAN/Mac/Region/Region.c **** #define CN470_TX_PARAM_SETUP_REQ( )                CN470_CASE { return RegionCN470TxParamSetupReq( 
 153:Middlewares/Third_Party/LoRaWAN/Mac/Region/Region.c **** #define CN470_DL_CHANNEL_REQ( )                    CN470_CASE { return RegionCN470DlChannelReq( dlC
 154:Middlewares/Third_Party/LoRaWAN/Mac/Region/Region.c **** #define CN470_ALTERNATE_DR( )                      CN470_CASE { return RegionCN470AlternateDr( curr
 155:Middlewares/Third_Party/LoRaWAN/Mac/Region/Region.c **** #define CN470_NEXT_CHANNEL( )                      CN470_CASE { return RegionCN470NextChannel( next
 156:Middlewares/Third_Party/LoRaWAN/Mac/Region/Region.c **** #define CN470_CHANNEL_ADD( )                       CN470_CASE { return RegionCN470ChannelAdd( chann
 157:Middlewares/Third_Party/LoRaWAN/Mac/Region/Region.c **** #define CN470_CHANNEL_REMOVE( )                    CN470_CASE { return RegionCN470ChannelsRemove( c
 158:Middlewares/Third_Party/LoRaWAN/Mac/Region/Region.c **** #define CN470_SET_CONTINUOUS_WAVE( )               CN470_CASE { RegionCN470SetContinuousWave( conti
 159:Middlewares/Third_Party/LoRaWAN/Mac/Region/Region.c **** #define CN470_APPLY_DR_OFFSET( )                   CN470_CASE { return RegionCN470ApplyDrOffset( do
 160:Middlewares/Third_Party/LoRaWAN/Mac/Region/Region.c **** #define CN470_RX_BEACON_SETUP( )                   CN470_CASE { RegionCN470RxBeaconSetup( rxBeaconS
 161:Middlewares/Third_Party/LoRaWAN/Mac/Region/Region.c **** #else
 162:Middlewares/Third_Party/LoRaWAN/Mac/Region/Region.c **** #define CN470_IS_ACTIVE( )
 163:Middlewares/Third_Party/LoRaWAN/Mac/Region/Region.c **** #define CN470_GET_PHY_PARAM( )
 164:Middlewares/Third_Party/LoRaWAN/Mac/Region/Region.c **** #define CN470_SET_BAND_TX_DONE( )
 165:Middlewares/Third_Party/LoRaWAN/Mac/Region/Region.c **** #define CN470_INIT_DEFAULTS( )
 166:Middlewares/Third_Party/LoRaWAN/Mac/Region/Region.c **** #define CN470_GET_NVM_CTX( )
 167:Middlewares/Third_Party/LoRaWAN/Mac/Region/Region.c **** #define CN470_VERIFY( )
 168:Middlewares/Third_Party/LoRaWAN/Mac/Region/Region.c **** #define CN470_APPLY_CF_LIST( )
 169:Middlewares/Third_Party/LoRaWAN/Mac/Region/Region.c **** #define CN470_CHAN_MASK_SET( )
 170:Middlewares/Third_Party/LoRaWAN/Mac/Region/Region.c **** #define CN470_COMPUTE_RX_WINDOW_PARAMETERS( )
 171:Middlewares/Third_Party/LoRaWAN/Mac/Region/Region.c **** #define CN470_RX_CONFIG( )
 172:Middlewares/Third_Party/LoRaWAN/Mac/Region/Region.c **** #define CN470_TX_CONFIG( )
 173:Middlewares/Third_Party/LoRaWAN/Mac/Region/Region.c **** #define CN470_LINK_ADR_REQ( )
 174:Middlewares/Third_Party/LoRaWAN/Mac/Region/Region.c **** #define CN470_RX_PARAM_SETUP_REQ( )
 175:Middlewares/Third_Party/LoRaWAN/Mac/Region/Region.c **** #define CN470_NEW_CHANNEL_REQ( )
 176:Middlewares/Third_Party/LoRaWAN/Mac/Region/Region.c **** #define CN470_TX_PARAM_SETUP_REQ( )
 177:Middlewares/Third_Party/LoRaWAN/Mac/Region/Region.c **** #define CN470_DL_CHANNEL_REQ( )
 178:Middlewares/Third_Party/LoRaWAN/Mac/Region/Region.c **** #define CN470_ALTERNATE_DR( )
 179:Middlewares/Third_Party/LoRaWAN/Mac/Region/Region.c **** #define CN470_NEXT_CHANNEL( )
 180:Middlewares/Third_Party/LoRaWAN/Mac/Region/Region.c **** #define CN470_CHANNEL_ADD( )
 181:Middlewares/Third_Party/LoRaWAN/Mac/Region/Region.c **** #define CN470_CHANNEL_REMOVE( )
 182:Middlewares/Third_Party/LoRaWAN/Mac/Region/Region.c **** #define CN470_SET_CONTINUOUS_WAVE( )
 183:Middlewares/Third_Party/LoRaWAN/Mac/Region/Region.c **** #define CN470_APPLY_DR_OFFSET( )
 184:Middlewares/Third_Party/LoRaWAN/Mac/Region/Region.c **** #define CN470_RX_BEACON_SETUP( )
 185:Middlewares/Third_Party/LoRaWAN/Mac/Region/Region.c **** #endif
 186:Middlewares/Third_Party/LoRaWAN/Mac/Region/Region.c **** 
 187:Middlewares/Third_Party/LoRaWAN/Mac/Region/Region.c **** #ifdef REGION_CN779
 188:Middlewares/Third_Party/LoRaWAN/Mac/Region/Region.c **** #include "RegionCN779.h"
 189:Middlewares/Third_Party/LoRaWAN/Mac/Region/Region.c **** #define CN779_CASE                                 case LORAMAC_REGION_CN779:
 190:Middlewares/Third_Party/LoRaWAN/Mac/Region/Region.c **** #define CN779_IS_ACTIVE( )                         CN779_CASE { return true; }
 191:Middlewares/Third_Party/LoRaWAN/Mac/Region/Region.c **** #define CN779_GET_PHY_PARAM( )                     CN779_CASE { return RegionCN779GetPhyParam( getP
 192:Middlewares/Third_Party/LoRaWAN/Mac/Region/Region.c **** #define CN779_SET_BAND_TX_DONE( )                  CN779_CASE { RegionCN779SetBandTxDone( txDone );
 193:Middlewares/Third_Party/LoRaWAN/Mac/Region/Region.c **** #define CN779_INIT_DEFAULTS( )                     CN779_CASE { RegionCN779InitDefaults( params ); 
 194:Middlewares/Third_Party/LoRaWAN/Mac/Region/Region.c **** #define CN779_VERIFY( )                            CN779_CASE { return RegionCN779Verify( verify, p
 195:Middlewares/Third_Party/LoRaWAN/Mac/Region/Region.c **** #define CN779_APPLY_CF_LIST( )                     CN779_CASE { RegionCN779ApplyCFList( applyCFList
 196:Middlewares/Third_Party/LoRaWAN/Mac/Region/Region.c **** #define CN779_CHAN_MASK_SET( )                     CN779_CASE { return RegionCN779ChanMaskSet( chan
 197:Middlewares/Third_Party/LoRaWAN/Mac/Region/Region.c **** #define CN779_COMPUTE_RX_WINDOW_PARAMETERS( )      CN779_CASE { RegionCN779ComputeRxWindowParameter
 198:Middlewares/Third_Party/LoRaWAN/Mac/Region/Region.c **** #define CN779_RX_CONFIG( )                         CN779_CASE { return RegionCN779RxConfig( rxConfi
 199:Middlewares/Third_Party/LoRaWAN/Mac/Region/Region.c **** #define CN779_TX_CONFIG( )                         CN779_CASE { return RegionCN779TxConfig( txConfi
 200:Middlewares/Third_Party/LoRaWAN/Mac/Region/Region.c **** #define CN779_LINK_ADR_REQ( )                      CN779_CASE { return RegionCN779LinkAdrReq( linkA
 201:Middlewares/Third_Party/LoRaWAN/Mac/Region/Region.c **** #define CN779_RX_PARAM_SETUP_REQ( )                CN779_CASE { return RegionCN779RxParamSetupReq( 
 202:Middlewares/Third_Party/LoRaWAN/Mac/Region/Region.c **** #define CN779_NEW_CHANNEL_REQ( )                   CN779_CASE { return RegionCN779NewChannelReq( ne
ARM GAS  /tmp/cc1L9RAu.s 			page 5


 203:Middlewares/Third_Party/LoRaWAN/Mac/Region/Region.c **** #define CN779_TX_PARAM_SETUP_REQ( )                CN779_CASE { return RegionCN779TxParamSetupReq( 
 204:Middlewares/Third_Party/LoRaWAN/Mac/Region/Region.c **** #define CN779_DL_CHANNEL_REQ( )                    CN779_CASE { return RegionCN779DlChannelReq( dlC
 205:Middlewares/Third_Party/LoRaWAN/Mac/Region/Region.c **** #define CN779_ALTERNATE_DR( )                      CN779_CASE { return RegionCN779AlternateDr( curr
 206:Middlewares/Third_Party/LoRaWAN/Mac/Region/Region.c **** #define CN779_NEXT_CHANNEL( )                      CN779_CASE { return RegionCN779NextChannel( next
 207:Middlewares/Third_Party/LoRaWAN/Mac/Region/Region.c **** #define CN779_CHANNEL_ADD( )                       CN779_CASE { return RegionCN779ChannelAdd( chann
 208:Middlewares/Third_Party/LoRaWAN/Mac/Region/Region.c **** #define CN779_CHANNEL_REMOVE( )                    CN779_CASE { return RegionCN779ChannelsRemove( c
 209:Middlewares/Third_Party/LoRaWAN/Mac/Region/Region.c **** #define CN779_SET_CONTINUOUS_WAVE( )               CN779_CASE { RegionCN779SetContinuousWave( conti
 210:Middlewares/Third_Party/LoRaWAN/Mac/Region/Region.c **** #define CN779_APPLY_DR_OFFSET( )                   CN779_CASE { return RegionCN779ApplyDrOffset( do
 211:Middlewares/Third_Party/LoRaWAN/Mac/Region/Region.c **** #define CN779_RX_BEACON_SETUP( )                   CN779_CASE { RegionCN779RxBeaconSetup( rxBeaconS
 212:Middlewares/Third_Party/LoRaWAN/Mac/Region/Region.c **** #else
 213:Middlewares/Third_Party/LoRaWAN/Mac/Region/Region.c **** #define CN779_IS_ACTIVE( )
 214:Middlewares/Third_Party/LoRaWAN/Mac/Region/Region.c **** #define CN779_GET_PHY_PARAM( )
 215:Middlewares/Third_Party/LoRaWAN/Mac/Region/Region.c **** #define CN779_SET_BAND_TX_DONE( )
 216:Middlewares/Third_Party/LoRaWAN/Mac/Region/Region.c **** #define CN779_INIT_DEFAULTS( )
 217:Middlewares/Third_Party/LoRaWAN/Mac/Region/Region.c **** #define CN779_GET_NVM_CTX( )
 218:Middlewares/Third_Party/LoRaWAN/Mac/Region/Region.c **** #define CN779_VERIFY( )
 219:Middlewares/Third_Party/LoRaWAN/Mac/Region/Region.c **** #define CN779_APPLY_CF_LIST( )
 220:Middlewares/Third_Party/LoRaWAN/Mac/Region/Region.c **** #define CN779_CHAN_MASK_SET( )
 221:Middlewares/Third_Party/LoRaWAN/Mac/Region/Region.c **** #define CN779_COMPUTE_RX_WINDOW_PARAMETERS( )
 222:Middlewares/Third_Party/LoRaWAN/Mac/Region/Region.c **** #define CN779_RX_CONFIG( )
 223:Middlewares/Third_Party/LoRaWAN/Mac/Region/Region.c **** #define CN779_TX_CONFIG( )
 224:Middlewares/Third_Party/LoRaWAN/Mac/Region/Region.c **** #define CN779_LINK_ADR_REQ( )
 225:Middlewares/Third_Party/LoRaWAN/Mac/Region/Region.c **** #define CN779_RX_PARAM_SETUP_REQ( )
 226:Middlewares/Third_Party/LoRaWAN/Mac/Region/Region.c **** #define CN779_NEW_CHANNEL_REQ( )
 227:Middlewares/Third_Party/LoRaWAN/Mac/Region/Region.c **** #define CN779_TX_PARAM_SETUP_REQ( )
 228:Middlewares/Third_Party/LoRaWAN/Mac/Region/Region.c **** #define CN779_DL_CHANNEL_REQ( )
 229:Middlewares/Third_Party/LoRaWAN/Mac/Region/Region.c **** #define CN779_ALTERNATE_DR( )
 230:Middlewares/Third_Party/LoRaWAN/Mac/Region/Region.c **** #define CN779_NEXT_CHANNEL( )
 231:Middlewares/Third_Party/LoRaWAN/Mac/Region/Region.c **** #define CN779_CHANNEL_ADD( )
 232:Middlewares/Third_Party/LoRaWAN/Mac/Region/Region.c **** #define CN779_CHANNEL_REMOVE( )
 233:Middlewares/Third_Party/LoRaWAN/Mac/Region/Region.c **** #define CN779_SET_CONTINUOUS_WAVE( )
 234:Middlewares/Third_Party/LoRaWAN/Mac/Region/Region.c **** #define CN779_APPLY_DR_OFFSET( )
 235:Middlewares/Third_Party/LoRaWAN/Mac/Region/Region.c **** #define CN779_RX_BEACON_SETUP( )
 236:Middlewares/Third_Party/LoRaWAN/Mac/Region/Region.c **** #endif
 237:Middlewares/Third_Party/LoRaWAN/Mac/Region/Region.c **** 
 238:Middlewares/Third_Party/LoRaWAN/Mac/Region/Region.c **** #ifdef REGION_EU433
 239:Middlewares/Third_Party/LoRaWAN/Mac/Region/Region.c **** #include "RegionEU433.h"
 240:Middlewares/Third_Party/LoRaWAN/Mac/Region/Region.c **** #define EU433_CASE                                 case LORAMAC_REGION_EU433:
 241:Middlewares/Third_Party/LoRaWAN/Mac/Region/Region.c **** #define EU433_IS_ACTIVE( )                         EU433_CASE { return true; }
 242:Middlewares/Third_Party/LoRaWAN/Mac/Region/Region.c **** #define EU433_GET_PHY_PARAM( )                     EU433_CASE { return RegionEU433GetPhyParam( getP
 243:Middlewares/Third_Party/LoRaWAN/Mac/Region/Region.c **** #define EU433_SET_BAND_TX_DONE( )                  EU433_CASE { RegionEU433SetBandTxDone( txDone );
 244:Middlewares/Third_Party/LoRaWAN/Mac/Region/Region.c **** #define EU433_INIT_DEFAULTS( )                     EU433_CASE { RegionEU433InitDefaults( params ); 
 245:Middlewares/Third_Party/LoRaWAN/Mac/Region/Region.c **** #define EU433_VERIFY( )                            EU433_CASE { return RegionEU433Verify( verify, p
 246:Middlewares/Third_Party/LoRaWAN/Mac/Region/Region.c **** #define EU433_APPLY_CF_LIST( )                     EU433_CASE { RegionEU433ApplyCFList( applyCFList
 247:Middlewares/Third_Party/LoRaWAN/Mac/Region/Region.c **** #define EU433_CHAN_MASK_SET( )                     EU433_CASE { return RegionEU433ChanMaskSet( chan
 248:Middlewares/Third_Party/LoRaWAN/Mac/Region/Region.c **** #define EU433_COMPUTE_RX_WINDOW_PARAMETERS( )      EU433_CASE { RegionEU433ComputeRxWindowParameter
 249:Middlewares/Third_Party/LoRaWAN/Mac/Region/Region.c **** #define EU433_RX_CONFIG( )                         EU433_CASE { return RegionEU433RxConfig( rxConfi
 250:Middlewares/Third_Party/LoRaWAN/Mac/Region/Region.c **** #define EU433_TX_CONFIG( )                         EU433_CASE { return RegionEU433TxConfig( txConfi
 251:Middlewares/Third_Party/LoRaWAN/Mac/Region/Region.c **** #define EU433_LINK_ADR_REQ( )                      EU433_CASE { return RegionEU433LinkAdrReq( linkA
 252:Middlewares/Third_Party/LoRaWAN/Mac/Region/Region.c **** #define EU433_RX_PARAM_SETUP_REQ( )                EU433_CASE { return RegionEU433RxParamSetupReq( 
 253:Middlewares/Third_Party/LoRaWAN/Mac/Region/Region.c **** #define EU433_NEW_CHANNEL_REQ( )                   EU433_CASE { return RegionEU433NewChannelReq( ne
 254:Middlewares/Third_Party/LoRaWAN/Mac/Region/Region.c **** #define EU433_TX_PARAM_SETUP_REQ( )                EU433_CASE { return RegionEU433TxParamSetupReq( 
 255:Middlewares/Third_Party/LoRaWAN/Mac/Region/Region.c **** #define EU433_DL_CHANNEL_REQ( )                    EU433_CASE { return RegionEU433DlChannelReq( dlC
 256:Middlewares/Third_Party/LoRaWAN/Mac/Region/Region.c **** #define EU433_ALTERNATE_DR( )                      EU433_CASE { return RegionEU433AlternateDr( curr
 257:Middlewares/Third_Party/LoRaWAN/Mac/Region/Region.c **** #define EU433_NEXT_CHANNEL( )                      EU433_CASE { return RegionEU433NextChannel( next
 258:Middlewares/Third_Party/LoRaWAN/Mac/Region/Region.c **** #define EU433_CHANNEL_ADD( )                       EU433_CASE { return RegionEU433ChannelAdd( chann
 259:Middlewares/Third_Party/LoRaWAN/Mac/Region/Region.c **** #define EU433_CHANNEL_REMOVE( )                    EU433_CASE { return RegionEU433ChannelsRemove( c
ARM GAS  /tmp/cc1L9RAu.s 			page 6


 260:Middlewares/Third_Party/LoRaWAN/Mac/Region/Region.c **** #define EU433_SET_CONTINUOUS_WAVE( )               EU433_CASE { RegionEU433SetContinuousWave( conti
 261:Middlewares/Third_Party/LoRaWAN/Mac/Region/Region.c **** #define EU433_APPLY_DR_OFFSET( )                   EU433_CASE { return RegionEU433ApplyDrOffset( do
 262:Middlewares/Third_Party/LoRaWAN/Mac/Region/Region.c **** #define EU433_RX_BEACON_SETUP( )                   EU433_CASE { RegionEU433RxBeaconSetup( rxBeaconS
 263:Middlewares/Third_Party/LoRaWAN/Mac/Region/Region.c **** #else
 264:Middlewares/Third_Party/LoRaWAN/Mac/Region/Region.c **** #define EU433_IS_ACTIVE( )
 265:Middlewares/Third_Party/LoRaWAN/Mac/Region/Region.c **** #define EU433_GET_PHY_PARAM( )
 266:Middlewares/Third_Party/LoRaWAN/Mac/Region/Region.c **** #define EU433_SET_BAND_TX_DONE( )
 267:Middlewares/Third_Party/LoRaWAN/Mac/Region/Region.c **** #define EU433_INIT_DEFAULTS( )
 268:Middlewares/Third_Party/LoRaWAN/Mac/Region/Region.c **** #define EU433_GET_NVM_CTX( )
 269:Middlewares/Third_Party/LoRaWAN/Mac/Region/Region.c **** #define EU433_VERIFY( )
 270:Middlewares/Third_Party/LoRaWAN/Mac/Region/Region.c **** #define EU433_APPLY_CF_LIST( )
 271:Middlewares/Third_Party/LoRaWAN/Mac/Region/Region.c **** #define EU433_CHAN_MASK_SET( )
 272:Middlewares/Third_Party/LoRaWAN/Mac/Region/Region.c **** #define EU433_COMPUTE_RX_WINDOW_PARAMETERS( )
 273:Middlewares/Third_Party/LoRaWAN/Mac/Region/Region.c **** #define EU433_RX_CONFIG( )
 274:Middlewares/Third_Party/LoRaWAN/Mac/Region/Region.c **** #define EU433_TX_CONFIG( )
 275:Middlewares/Third_Party/LoRaWAN/Mac/Region/Region.c **** #define EU433_LINK_ADR_REQ( )
 276:Middlewares/Third_Party/LoRaWAN/Mac/Region/Region.c **** #define EU433_RX_PARAM_SETUP_REQ( )
 277:Middlewares/Third_Party/LoRaWAN/Mac/Region/Region.c **** #define EU433_NEW_CHANNEL_REQ( )
 278:Middlewares/Third_Party/LoRaWAN/Mac/Region/Region.c **** #define EU433_TX_PARAM_SETUP_REQ( )
 279:Middlewares/Third_Party/LoRaWAN/Mac/Region/Region.c **** #define EU433_DL_CHANNEL_REQ( )
 280:Middlewares/Third_Party/LoRaWAN/Mac/Region/Region.c **** #define EU433_ALTERNATE_DR( )
 281:Middlewares/Third_Party/LoRaWAN/Mac/Region/Region.c **** #define EU433_NEXT_CHANNEL( )
 282:Middlewares/Third_Party/LoRaWAN/Mac/Region/Region.c **** #define EU433_CHANNEL_ADD( )
 283:Middlewares/Third_Party/LoRaWAN/Mac/Region/Region.c **** #define EU433_CHANNEL_REMOVE( )
 284:Middlewares/Third_Party/LoRaWAN/Mac/Region/Region.c **** #define EU433_SET_CONTINUOUS_WAVE( )
 285:Middlewares/Third_Party/LoRaWAN/Mac/Region/Region.c **** #define EU433_APPLY_DR_OFFSET( )
 286:Middlewares/Third_Party/LoRaWAN/Mac/Region/Region.c **** #define EU433_RX_BEACON_SETUP( )
 287:Middlewares/Third_Party/LoRaWAN/Mac/Region/Region.c **** #endif
 288:Middlewares/Third_Party/LoRaWAN/Mac/Region/Region.c **** 
 289:Middlewares/Third_Party/LoRaWAN/Mac/Region/Region.c **** #ifdef REGION_EU868
 290:Middlewares/Third_Party/LoRaWAN/Mac/Region/Region.c **** #include "RegionEU868.h"
 291:Middlewares/Third_Party/LoRaWAN/Mac/Region/Region.c **** #define EU868_CASE                                 case LORAMAC_REGION_EU868:
 292:Middlewares/Third_Party/LoRaWAN/Mac/Region/Region.c **** #define EU868_IS_ACTIVE( )                         EU868_CASE { return true; }
 293:Middlewares/Third_Party/LoRaWAN/Mac/Region/Region.c **** #define EU868_GET_PHY_PARAM( )                     EU868_CASE { return RegionEU868GetPhyParam( getP
 294:Middlewares/Third_Party/LoRaWAN/Mac/Region/Region.c **** #define EU868_SET_BAND_TX_DONE( )                  EU868_CASE { RegionEU868SetBandTxDone( txDone );
 295:Middlewares/Third_Party/LoRaWAN/Mac/Region/Region.c **** #define EU868_INIT_DEFAULTS( )                     EU868_CASE { RegionEU868InitDefaults( params ); 
 296:Middlewares/Third_Party/LoRaWAN/Mac/Region/Region.c **** #define EU868_VERIFY( )                            EU868_CASE { return RegionEU868Verify( verify, p
 297:Middlewares/Third_Party/LoRaWAN/Mac/Region/Region.c **** #define EU868_APPLY_CF_LIST( )                     EU868_CASE { RegionEU868ApplyCFList( applyCFList
 298:Middlewares/Third_Party/LoRaWAN/Mac/Region/Region.c **** #define EU868_CHAN_MASK_SET( )                     EU868_CASE { return RegionEU868ChanMaskSet( chan
 299:Middlewares/Third_Party/LoRaWAN/Mac/Region/Region.c **** #define EU868_COMPUTE_RX_WINDOW_PARAMETERS( )      EU868_CASE { RegionEU868ComputeRxWindowParameter
 300:Middlewares/Third_Party/LoRaWAN/Mac/Region/Region.c **** #define EU868_RX_CONFIG( )                         EU868_CASE { return RegionEU868RxConfig( rxConfi
 301:Middlewares/Third_Party/LoRaWAN/Mac/Region/Region.c **** #define EU868_TX_CONFIG( )                         EU868_CASE { return RegionEU868TxConfig( txConfi
 302:Middlewares/Third_Party/LoRaWAN/Mac/Region/Region.c **** #define EU868_LINK_ADR_REQ( )                      EU868_CASE { return RegionEU868LinkAdrReq( linkA
 303:Middlewares/Third_Party/LoRaWAN/Mac/Region/Region.c **** #define EU868_RX_PARAM_SETUP_REQ( )                EU868_CASE { return RegionEU868RxParamSetupReq( 
 304:Middlewares/Third_Party/LoRaWAN/Mac/Region/Region.c **** #define EU868_NEW_CHANNEL_REQ( )                   EU868_CASE { return RegionEU868NewChannelReq( ne
 305:Middlewares/Third_Party/LoRaWAN/Mac/Region/Region.c **** #define EU868_TX_PARAM_SETUP_REQ( )                EU868_CASE { return RegionEU868TxParamSetupReq( 
 306:Middlewares/Third_Party/LoRaWAN/Mac/Region/Region.c **** #define EU868_DL_CHANNEL_REQ( )                    EU868_CASE { return RegionEU868DlChannelReq( dlC
 307:Middlewares/Third_Party/LoRaWAN/Mac/Region/Region.c **** #define EU868_ALTERNATE_DR( )                      EU868_CASE { return RegionEU868AlternateDr( curr
 308:Middlewares/Third_Party/LoRaWAN/Mac/Region/Region.c **** #define EU868_NEXT_CHANNEL( )                      EU868_CASE { return RegionEU868NextChannel( next
 309:Middlewares/Third_Party/LoRaWAN/Mac/Region/Region.c **** #define EU868_CHANNEL_ADD( )                       EU868_CASE { return RegionEU868ChannelAdd( chann
 310:Middlewares/Third_Party/LoRaWAN/Mac/Region/Region.c **** #define EU868_CHANNEL_REMOVE( )                    EU868_CASE { return RegionEU868ChannelsRemove( c
 311:Middlewares/Third_Party/LoRaWAN/Mac/Region/Region.c **** #define EU868_SET_CONTINUOUS_WAVE( )               EU868_CASE { RegionEU868SetContinuousWave( conti
 312:Middlewares/Third_Party/LoRaWAN/Mac/Region/Region.c **** #define EU868_APPLY_DR_OFFSET( )                   EU868_CASE { return RegionEU868ApplyDrOffset( do
 313:Middlewares/Third_Party/LoRaWAN/Mac/Region/Region.c **** #define EU868_RX_BEACON_SETUP( )                   EU868_CASE { RegionEU868RxBeaconSetup( rxBeaconS
 314:Middlewares/Third_Party/LoRaWAN/Mac/Region/Region.c **** #else
 315:Middlewares/Third_Party/LoRaWAN/Mac/Region/Region.c **** #define EU868_IS_ACTIVE( )
 316:Middlewares/Third_Party/LoRaWAN/Mac/Region/Region.c **** #define EU868_GET_PHY_PARAM( )
ARM GAS  /tmp/cc1L9RAu.s 			page 7


 317:Middlewares/Third_Party/LoRaWAN/Mac/Region/Region.c **** #define EU868_SET_BAND_TX_DONE( )
 318:Middlewares/Third_Party/LoRaWAN/Mac/Region/Region.c **** #define EU868_INIT_DEFAULTS( )
 319:Middlewares/Third_Party/LoRaWAN/Mac/Region/Region.c **** #define EU868_GET_NVM_CTX( )
 320:Middlewares/Third_Party/LoRaWAN/Mac/Region/Region.c **** #define EU868_VERIFY( )
 321:Middlewares/Third_Party/LoRaWAN/Mac/Region/Region.c **** #define EU868_APPLY_CF_LIST( )
 322:Middlewares/Third_Party/LoRaWAN/Mac/Region/Region.c **** #define EU868_CHAN_MASK_SET( )
 323:Middlewares/Third_Party/LoRaWAN/Mac/Region/Region.c **** #define EU868_COMPUTE_RX_WINDOW_PARAMETERS( )
 324:Middlewares/Third_Party/LoRaWAN/Mac/Region/Region.c **** #define EU868_RX_CONFIG( )
 325:Middlewares/Third_Party/LoRaWAN/Mac/Region/Region.c **** #define EU868_TX_CONFIG( )
 326:Middlewares/Third_Party/LoRaWAN/Mac/Region/Region.c **** #define EU868_LINK_ADR_REQ( )
 327:Middlewares/Third_Party/LoRaWAN/Mac/Region/Region.c **** #define EU868_RX_PARAM_SETUP_REQ( )
 328:Middlewares/Third_Party/LoRaWAN/Mac/Region/Region.c **** #define EU868_NEW_CHANNEL_REQ( )
 329:Middlewares/Third_Party/LoRaWAN/Mac/Region/Region.c **** #define EU868_TX_PARAM_SETUP_REQ( )
 330:Middlewares/Third_Party/LoRaWAN/Mac/Region/Region.c **** #define EU868_DL_CHANNEL_REQ( )
 331:Middlewares/Third_Party/LoRaWAN/Mac/Region/Region.c **** #define EU868_ALTERNATE_DR( )
 332:Middlewares/Third_Party/LoRaWAN/Mac/Region/Region.c **** #define EU868_NEXT_CHANNEL( )
 333:Middlewares/Third_Party/LoRaWAN/Mac/Region/Region.c **** #define EU868_CHANNEL_ADD( )
 334:Middlewares/Third_Party/LoRaWAN/Mac/Region/Region.c **** #define EU868_CHANNEL_REMOVE( )
 335:Middlewares/Third_Party/LoRaWAN/Mac/Region/Region.c **** #define EU868_SET_CONTINUOUS_WAVE( )
 336:Middlewares/Third_Party/LoRaWAN/Mac/Region/Region.c **** #define EU868_APPLY_DR_OFFSET( )
 337:Middlewares/Third_Party/LoRaWAN/Mac/Region/Region.c **** #define EU868_RX_BEACON_SETUP( )
 338:Middlewares/Third_Party/LoRaWAN/Mac/Region/Region.c **** #endif
 339:Middlewares/Third_Party/LoRaWAN/Mac/Region/Region.c **** 
 340:Middlewares/Third_Party/LoRaWAN/Mac/Region/Region.c **** #ifdef REGION_KR920
 341:Middlewares/Third_Party/LoRaWAN/Mac/Region/Region.c **** #include "RegionKR920.h"
 342:Middlewares/Third_Party/LoRaWAN/Mac/Region/Region.c **** #define KR920_CASE                                 case LORAMAC_REGION_KR920:
 343:Middlewares/Third_Party/LoRaWAN/Mac/Region/Region.c **** #define KR920_IS_ACTIVE( )                         KR920_CASE { return true; }
 344:Middlewares/Third_Party/LoRaWAN/Mac/Region/Region.c **** #define KR920_GET_PHY_PARAM( )                     KR920_CASE { return RegionKR920GetPhyParam( getP
 345:Middlewares/Third_Party/LoRaWAN/Mac/Region/Region.c **** #define KR920_SET_BAND_TX_DONE( )                  KR920_CASE { RegionKR920SetBandTxDone( txDone );
 346:Middlewares/Third_Party/LoRaWAN/Mac/Region/Region.c **** #define KR920_INIT_DEFAULTS( )                     KR920_CASE { RegionKR920InitDefaults( params ); 
 347:Middlewares/Third_Party/LoRaWAN/Mac/Region/Region.c **** #define KR920_VERIFY( )                            KR920_CASE { return RegionKR920Verify( verify, p
 348:Middlewares/Third_Party/LoRaWAN/Mac/Region/Region.c **** #define KR920_APPLY_CF_LIST( )                     KR920_CASE { RegionKR920ApplyCFList( applyCFList
 349:Middlewares/Third_Party/LoRaWAN/Mac/Region/Region.c **** #define KR920_CHAN_MASK_SET( )                     KR920_CASE { return RegionKR920ChanMaskSet( chan
 350:Middlewares/Third_Party/LoRaWAN/Mac/Region/Region.c **** #define KR920_COMPUTE_RX_WINDOW_PARAMETERS( )      KR920_CASE { RegionKR920ComputeRxWindowParameter
 351:Middlewares/Third_Party/LoRaWAN/Mac/Region/Region.c **** #define KR920_RX_CONFIG( )                         KR920_CASE { return RegionKR920RxConfig( rxConfi
 352:Middlewares/Third_Party/LoRaWAN/Mac/Region/Region.c **** #define KR920_TX_CONFIG( )                         KR920_CASE { return RegionKR920TxConfig( txConfi
 353:Middlewares/Third_Party/LoRaWAN/Mac/Region/Region.c **** #define KR920_LINK_ADR_REQ( )                      KR920_CASE { return RegionKR920LinkAdrReq( linkA
 354:Middlewares/Third_Party/LoRaWAN/Mac/Region/Region.c **** #define KR920_RX_PARAM_SETUP_REQ( )                KR920_CASE { return RegionKR920RxParamSetupReq( 
 355:Middlewares/Third_Party/LoRaWAN/Mac/Region/Region.c **** #define KR920_NEW_CHANNEL_REQ( )                   KR920_CASE { return RegionKR920NewChannelReq( ne
 356:Middlewares/Third_Party/LoRaWAN/Mac/Region/Region.c **** #define KR920_TX_PARAM_SETUP_REQ( )                KR920_CASE { return RegionKR920TxParamSetupReq( 
 357:Middlewares/Third_Party/LoRaWAN/Mac/Region/Region.c **** #define KR920_DL_CHANNEL_REQ( )                    KR920_CASE { return RegionKR920DlChannelReq( dlC
 358:Middlewares/Third_Party/LoRaWAN/Mac/Region/Region.c **** #define KR920_ALTERNATE_DR( )                      KR920_CASE { return RegionKR920AlternateDr( curr
 359:Middlewares/Third_Party/LoRaWAN/Mac/Region/Region.c **** #define KR920_NEXT_CHANNEL( )                      KR920_CASE { return RegionKR920NextChannel( next
 360:Middlewares/Third_Party/LoRaWAN/Mac/Region/Region.c **** #define KR920_CHANNEL_ADD( )                       KR920_CASE { return RegionKR920ChannelAdd( chann
 361:Middlewares/Third_Party/LoRaWAN/Mac/Region/Region.c **** #define KR920_CHANNEL_REMOVE( )                    KR920_CASE { return RegionKR920ChannelsRemove( c
 362:Middlewares/Third_Party/LoRaWAN/Mac/Region/Region.c **** #define KR920_SET_CONTINUOUS_WAVE( )               KR920_CASE { RegionKR920SetContinuousWave( conti
 363:Middlewares/Third_Party/LoRaWAN/Mac/Region/Region.c **** #define KR920_APPLY_DR_OFFSET( )                   KR920_CASE { return RegionKR920ApplyDrOffset( do
 364:Middlewares/Third_Party/LoRaWAN/Mac/Region/Region.c **** #define KR920_RX_BEACON_SETUP( )                   KR920_CASE { RegionKR920RxBeaconSetup( rxBeaconS
 365:Middlewares/Third_Party/LoRaWAN/Mac/Region/Region.c **** #else
 366:Middlewares/Third_Party/LoRaWAN/Mac/Region/Region.c **** #define KR920_IS_ACTIVE( )
 367:Middlewares/Third_Party/LoRaWAN/Mac/Region/Region.c **** #define KR920_GET_PHY_PARAM( )
 368:Middlewares/Third_Party/LoRaWAN/Mac/Region/Region.c **** #define KR920_SET_BAND_TX_DONE( )
 369:Middlewares/Third_Party/LoRaWAN/Mac/Region/Region.c **** #define KR920_INIT_DEFAULTS( )
 370:Middlewares/Third_Party/LoRaWAN/Mac/Region/Region.c **** #define KR920_GET_NVM_CTX( )
 371:Middlewares/Third_Party/LoRaWAN/Mac/Region/Region.c **** #define KR920_VERIFY( )
 372:Middlewares/Third_Party/LoRaWAN/Mac/Region/Region.c **** #define KR920_APPLY_CF_LIST( )
 373:Middlewares/Third_Party/LoRaWAN/Mac/Region/Region.c **** #define KR920_CHAN_MASK_SET( )
ARM GAS  /tmp/cc1L9RAu.s 			page 8


 374:Middlewares/Third_Party/LoRaWAN/Mac/Region/Region.c **** #define KR920_COMPUTE_RX_WINDOW_PARAMETERS( )
 375:Middlewares/Third_Party/LoRaWAN/Mac/Region/Region.c **** #define KR920_RX_CONFIG( )
 376:Middlewares/Third_Party/LoRaWAN/Mac/Region/Region.c **** #define KR920_TX_CONFIG( )
 377:Middlewares/Third_Party/LoRaWAN/Mac/Region/Region.c **** #define KR920_LINK_ADR_REQ( )
 378:Middlewares/Third_Party/LoRaWAN/Mac/Region/Region.c **** #define KR920_RX_PARAM_SETUP_REQ( )
 379:Middlewares/Third_Party/LoRaWAN/Mac/Region/Region.c **** #define KR920_NEW_CHANNEL_REQ( )
 380:Middlewares/Third_Party/LoRaWAN/Mac/Region/Region.c **** #define KR920_TX_PARAM_SETUP_REQ( )
 381:Middlewares/Third_Party/LoRaWAN/Mac/Region/Region.c **** #define KR920_DL_CHANNEL_REQ( )
 382:Middlewares/Third_Party/LoRaWAN/Mac/Region/Region.c **** #define KR920_ALTERNATE_DR( )
 383:Middlewares/Third_Party/LoRaWAN/Mac/Region/Region.c **** #define KR920_NEXT_CHANNEL( )
 384:Middlewares/Third_Party/LoRaWAN/Mac/Region/Region.c **** #define KR920_CHANNEL_ADD( )
 385:Middlewares/Third_Party/LoRaWAN/Mac/Region/Region.c **** #define KR920_CHANNEL_REMOVE( )
 386:Middlewares/Third_Party/LoRaWAN/Mac/Region/Region.c **** #define KR920_SET_CONTINUOUS_WAVE( )
 387:Middlewares/Third_Party/LoRaWAN/Mac/Region/Region.c **** #define KR920_APPLY_DR_OFFSET( )
 388:Middlewares/Third_Party/LoRaWAN/Mac/Region/Region.c **** #define KR920_RX_BEACON_SETUP( )
 389:Middlewares/Third_Party/LoRaWAN/Mac/Region/Region.c **** #endif
 390:Middlewares/Third_Party/LoRaWAN/Mac/Region/Region.c **** 
 391:Middlewares/Third_Party/LoRaWAN/Mac/Region/Region.c **** #ifdef REGION_IN865
 392:Middlewares/Third_Party/LoRaWAN/Mac/Region/Region.c **** #include "RegionIN865.h"
 393:Middlewares/Third_Party/LoRaWAN/Mac/Region/Region.c **** #define IN865_CASE                                 case LORAMAC_REGION_IN865:
 394:Middlewares/Third_Party/LoRaWAN/Mac/Region/Region.c **** #define IN865_IS_ACTIVE( )                         IN865_CASE { return true; }
 395:Middlewares/Third_Party/LoRaWAN/Mac/Region/Region.c **** #define IN865_GET_PHY_PARAM( )                     IN865_CASE { return RegionIN865GetPhyParam( getP
 396:Middlewares/Third_Party/LoRaWAN/Mac/Region/Region.c **** #define IN865_SET_BAND_TX_DONE( )                  IN865_CASE { RegionIN865SetBandTxDone( txDone );
 397:Middlewares/Third_Party/LoRaWAN/Mac/Region/Region.c **** #define IN865_INIT_DEFAULTS( )                     IN865_CASE { RegionIN865InitDefaults( params ); 
 398:Middlewares/Third_Party/LoRaWAN/Mac/Region/Region.c **** #define IN865_VERIFY( )                            IN865_CASE { return RegionIN865Verify( verify, p
 399:Middlewares/Third_Party/LoRaWAN/Mac/Region/Region.c **** #define IN865_APPLY_CF_LIST( )                     IN865_CASE { RegionIN865ApplyCFList( applyCFList
 400:Middlewares/Third_Party/LoRaWAN/Mac/Region/Region.c **** #define IN865_CHAN_MASK_SET( )                     IN865_CASE { return RegionIN865ChanMaskSet( chan
 401:Middlewares/Third_Party/LoRaWAN/Mac/Region/Region.c **** #define IN865_COMPUTE_RX_WINDOW_PARAMETERS( )      IN865_CASE { RegionIN865ComputeRxWindowParameter
 402:Middlewares/Third_Party/LoRaWAN/Mac/Region/Region.c **** #define IN865_RX_CONFIG( )                         IN865_CASE { return RegionIN865RxConfig( rxConfi
 403:Middlewares/Third_Party/LoRaWAN/Mac/Region/Region.c **** #define IN865_TX_CONFIG( )                         IN865_CASE { return RegionIN865TxConfig( txConfi
 404:Middlewares/Third_Party/LoRaWAN/Mac/Region/Region.c **** #define IN865_LINK_ADR_REQ( )                      IN865_CASE { return RegionIN865LinkAdrReq( linkA
 405:Middlewares/Third_Party/LoRaWAN/Mac/Region/Region.c **** #define IN865_RX_PARAM_SETUP_REQ( )                IN865_CASE { return RegionIN865RxParamSetupReq( 
 406:Middlewares/Third_Party/LoRaWAN/Mac/Region/Region.c **** #define IN865_NEW_CHANNEL_REQ( )                   IN865_CASE { return RegionIN865NewChannelReq( ne
 407:Middlewares/Third_Party/LoRaWAN/Mac/Region/Region.c **** #define IN865_TX_PARAM_SETUP_REQ( )                IN865_CASE { return RegionIN865TxParamSetupReq( 
 408:Middlewares/Third_Party/LoRaWAN/Mac/Region/Region.c **** #define IN865_DL_CHANNEL_REQ( )                    IN865_CASE { return RegionIN865DlChannelReq( dlC
 409:Middlewares/Third_Party/LoRaWAN/Mac/Region/Region.c **** #define IN865_ALTERNATE_DR( )                      IN865_CASE { return RegionIN865AlternateDr( curr
 410:Middlewares/Third_Party/LoRaWAN/Mac/Region/Region.c **** #define IN865_NEXT_CHANNEL( )                      IN865_CASE { return RegionIN865NextChannel( next
 411:Middlewares/Third_Party/LoRaWAN/Mac/Region/Region.c **** #define IN865_CHANNEL_ADD( )                       IN865_CASE { return RegionIN865ChannelAdd( chann
 412:Middlewares/Third_Party/LoRaWAN/Mac/Region/Region.c **** #define IN865_CHANNEL_REMOVE( )                    IN865_CASE { return RegionIN865ChannelsRemove( c
 413:Middlewares/Third_Party/LoRaWAN/Mac/Region/Region.c **** #define IN865_SET_CONTINUOUS_WAVE( )               IN865_CASE { RegionIN865SetContinuousWave( conti
 414:Middlewares/Third_Party/LoRaWAN/Mac/Region/Region.c **** #define IN865_APPLY_DR_OFFSET( )                   IN865_CASE { return RegionIN865ApplyDrOffset( do
 415:Middlewares/Third_Party/LoRaWAN/Mac/Region/Region.c **** #define IN865_RX_BEACON_SETUP( )                   IN865_CASE { RegionIN865RxBeaconSetup( rxBeaconS
 416:Middlewares/Third_Party/LoRaWAN/Mac/Region/Region.c **** #else
 417:Middlewares/Third_Party/LoRaWAN/Mac/Region/Region.c **** #define IN865_IS_ACTIVE( )
 418:Middlewares/Third_Party/LoRaWAN/Mac/Region/Region.c **** #define IN865_GET_PHY_PARAM( )
 419:Middlewares/Third_Party/LoRaWAN/Mac/Region/Region.c **** #define IN865_SET_BAND_TX_DONE( )
 420:Middlewares/Third_Party/LoRaWAN/Mac/Region/Region.c **** #define IN865_INIT_DEFAULTS( )
 421:Middlewares/Third_Party/LoRaWAN/Mac/Region/Region.c **** #define IN865_GET_NVM_CTX( )
 422:Middlewares/Third_Party/LoRaWAN/Mac/Region/Region.c **** #define IN865_VERIFY( )
 423:Middlewares/Third_Party/LoRaWAN/Mac/Region/Region.c **** #define IN865_APPLY_CF_LIST( )
 424:Middlewares/Third_Party/LoRaWAN/Mac/Region/Region.c **** #define IN865_CHAN_MASK_SET( )
 425:Middlewares/Third_Party/LoRaWAN/Mac/Region/Region.c **** #define IN865_COMPUTE_RX_WINDOW_PARAMETERS( )
 426:Middlewares/Third_Party/LoRaWAN/Mac/Region/Region.c **** #define IN865_RX_CONFIG( )
 427:Middlewares/Third_Party/LoRaWAN/Mac/Region/Region.c **** #define IN865_TX_CONFIG( )
 428:Middlewares/Third_Party/LoRaWAN/Mac/Region/Region.c **** #define IN865_LINK_ADR_REQ( )
 429:Middlewares/Third_Party/LoRaWAN/Mac/Region/Region.c **** #define IN865_RX_PARAM_SETUP_REQ( )
 430:Middlewares/Third_Party/LoRaWAN/Mac/Region/Region.c **** #define IN865_NEW_CHANNEL_REQ( )
ARM GAS  /tmp/cc1L9RAu.s 			page 9


 431:Middlewares/Third_Party/LoRaWAN/Mac/Region/Region.c **** #define IN865_TX_PARAM_SETUP_REQ( )
 432:Middlewares/Third_Party/LoRaWAN/Mac/Region/Region.c **** #define IN865_DL_CHANNEL_REQ( )
 433:Middlewares/Third_Party/LoRaWAN/Mac/Region/Region.c **** #define IN865_ALTERNATE_DR( )
 434:Middlewares/Third_Party/LoRaWAN/Mac/Region/Region.c **** #define IN865_NEXT_CHANNEL( )
 435:Middlewares/Third_Party/LoRaWAN/Mac/Region/Region.c **** #define IN865_CHANNEL_ADD( )
 436:Middlewares/Third_Party/LoRaWAN/Mac/Region/Region.c **** #define IN865_CHANNEL_REMOVE( )
 437:Middlewares/Third_Party/LoRaWAN/Mac/Region/Region.c **** #define IN865_SET_CONTINUOUS_WAVE( )
 438:Middlewares/Third_Party/LoRaWAN/Mac/Region/Region.c **** #define IN865_APPLY_DR_OFFSET( )
 439:Middlewares/Third_Party/LoRaWAN/Mac/Region/Region.c **** #define IN865_RX_BEACON_SETUP( )
 440:Middlewares/Third_Party/LoRaWAN/Mac/Region/Region.c **** #endif
 441:Middlewares/Third_Party/LoRaWAN/Mac/Region/Region.c **** 
 442:Middlewares/Third_Party/LoRaWAN/Mac/Region/Region.c **** #ifdef REGION_US915
 443:Middlewares/Third_Party/LoRaWAN/Mac/Region/Region.c **** #include "RegionUS915.h"
 444:Middlewares/Third_Party/LoRaWAN/Mac/Region/Region.c **** #define US915_CASE                                 case LORAMAC_REGION_US915:
 445:Middlewares/Third_Party/LoRaWAN/Mac/Region/Region.c **** #define US915_IS_ACTIVE( )                         US915_CASE { return true; }
 446:Middlewares/Third_Party/LoRaWAN/Mac/Region/Region.c **** #define US915_GET_PHY_PARAM( )                     US915_CASE { return RegionUS915GetPhyParam( getP
 447:Middlewares/Third_Party/LoRaWAN/Mac/Region/Region.c **** #define US915_SET_BAND_TX_DONE( )                  US915_CASE { RegionUS915SetBandTxDone( txDone );
 448:Middlewares/Third_Party/LoRaWAN/Mac/Region/Region.c **** #define US915_INIT_DEFAULTS( )                     US915_CASE { RegionUS915InitDefaults( params ); 
 449:Middlewares/Third_Party/LoRaWAN/Mac/Region/Region.c **** #define US915_VERIFY( )                            US915_CASE { return RegionUS915Verify( verify, p
 450:Middlewares/Third_Party/LoRaWAN/Mac/Region/Region.c **** #define US915_APPLY_CF_LIST( )                     US915_CASE { RegionUS915ApplyCFList( applyCFList
 451:Middlewares/Third_Party/LoRaWAN/Mac/Region/Region.c **** #define US915_CHAN_MASK_SET( )                     US915_CASE { return RegionUS915ChanMaskSet( chan
 452:Middlewares/Third_Party/LoRaWAN/Mac/Region/Region.c **** #define US915_COMPUTE_RX_WINDOW_PARAMETERS( )      US915_CASE { RegionUS915ComputeRxWindowParameter
 453:Middlewares/Third_Party/LoRaWAN/Mac/Region/Region.c **** #define US915_RX_CONFIG( )                         US915_CASE { return RegionUS915RxConfig( rxConfi
 454:Middlewares/Third_Party/LoRaWAN/Mac/Region/Region.c **** #define US915_TX_CONFIG( )                         US915_CASE { return RegionUS915TxConfig( txConfi
 455:Middlewares/Third_Party/LoRaWAN/Mac/Region/Region.c **** #define US915_LINK_ADR_REQ( )                      US915_CASE { return RegionUS915LinkAdrReq( linkA
 456:Middlewares/Third_Party/LoRaWAN/Mac/Region/Region.c **** #define US915_RX_PARAM_SETUP_REQ( )                US915_CASE { return RegionUS915RxParamSetupReq( 
 457:Middlewares/Third_Party/LoRaWAN/Mac/Region/Region.c **** #define US915_NEW_CHANNEL_REQ( )                   US915_CASE { return RegionUS915NewChannelReq( ne
 458:Middlewares/Third_Party/LoRaWAN/Mac/Region/Region.c **** #define US915_TX_PARAM_SETUP_REQ( )                US915_CASE { return RegionUS915TxParamSetupReq( 
 459:Middlewares/Third_Party/LoRaWAN/Mac/Region/Region.c **** #define US915_DL_CHANNEL_REQ( )                    US915_CASE { return RegionUS915DlChannelReq( dlC
 460:Middlewares/Third_Party/LoRaWAN/Mac/Region/Region.c **** #define US915_ALTERNATE_DR( )                      US915_CASE { return RegionUS915AlternateDr( curr
 461:Middlewares/Third_Party/LoRaWAN/Mac/Region/Region.c **** #define US915_NEXT_CHANNEL( )                      US915_CASE { return RegionUS915NextChannel( next
 462:Middlewares/Third_Party/LoRaWAN/Mac/Region/Region.c **** #define US915_CHANNEL_ADD( )                       US915_CASE { return RegionUS915ChannelAdd( chann
 463:Middlewares/Third_Party/LoRaWAN/Mac/Region/Region.c **** #define US915_CHANNEL_REMOVE( )                    US915_CASE { return RegionUS915ChannelsRemove( c
 464:Middlewares/Third_Party/LoRaWAN/Mac/Region/Region.c **** #define US915_SET_CONTINUOUS_WAVE( )               US915_CASE { RegionUS915SetContinuousWave( conti
 465:Middlewares/Third_Party/LoRaWAN/Mac/Region/Region.c **** #define US915_APPLY_DR_OFFSET( )                   US915_CASE { return RegionUS915ApplyDrOffset( do
 466:Middlewares/Third_Party/LoRaWAN/Mac/Region/Region.c **** #define US915_RX_BEACON_SETUP( )                   US915_CASE { RegionUS915RxBeaconSetup( rxBeaconS
 467:Middlewares/Third_Party/LoRaWAN/Mac/Region/Region.c **** #else
 468:Middlewares/Third_Party/LoRaWAN/Mac/Region/Region.c **** #define US915_IS_ACTIVE( )
 469:Middlewares/Third_Party/LoRaWAN/Mac/Region/Region.c **** #define US915_GET_PHY_PARAM( )
 470:Middlewares/Third_Party/LoRaWAN/Mac/Region/Region.c **** #define US915_SET_BAND_TX_DONE( )
 471:Middlewares/Third_Party/LoRaWAN/Mac/Region/Region.c **** #define US915_INIT_DEFAULTS( )
 472:Middlewares/Third_Party/LoRaWAN/Mac/Region/Region.c **** #define US915_GET_NVM_CTX( )
 473:Middlewares/Third_Party/LoRaWAN/Mac/Region/Region.c **** #define US915_VERIFY( )
 474:Middlewares/Third_Party/LoRaWAN/Mac/Region/Region.c **** #define US915_APPLY_CF_LIST( )
 475:Middlewares/Third_Party/LoRaWAN/Mac/Region/Region.c **** #define US915_CHAN_MASK_SET( )
 476:Middlewares/Third_Party/LoRaWAN/Mac/Region/Region.c **** #define US915_COMPUTE_RX_WINDOW_PARAMETERS( )
 477:Middlewares/Third_Party/LoRaWAN/Mac/Region/Region.c **** #define US915_RX_CONFIG( )
 478:Middlewares/Third_Party/LoRaWAN/Mac/Region/Region.c **** #define US915_TX_CONFIG( )
 479:Middlewares/Third_Party/LoRaWAN/Mac/Region/Region.c **** #define US915_LINK_ADR_REQ( )
 480:Middlewares/Third_Party/LoRaWAN/Mac/Region/Region.c **** #define US915_RX_PARAM_SETUP_REQ( )
 481:Middlewares/Third_Party/LoRaWAN/Mac/Region/Region.c **** #define US915_NEW_CHANNEL_REQ( )
 482:Middlewares/Third_Party/LoRaWAN/Mac/Region/Region.c **** #define US915_TX_PARAM_SETUP_REQ( )
 483:Middlewares/Third_Party/LoRaWAN/Mac/Region/Region.c **** #define US915_DL_CHANNEL_REQ( )
 484:Middlewares/Third_Party/LoRaWAN/Mac/Region/Region.c **** #define US915_ALTERNATE_DR( )
 485:Middlewares/Third_Party/LoRaWAN/Mac/Region/Region.c **** #define US915_NEXT_CHANNEL( )
 486:Middlewares/Third_Party/LoRaWAN/Mac/Region/Region.c **** #define US915_CHANNEL_ADD( )
 487:Middlewares/Third_Party/LoRaWAN/Mac/Region/Region.c **** #define US915_CHANNEL_REMOVE( )
ARM GAS  /tmp/cc1L9RAu.s 			page 10


 488:Middlewares/Third_Party/LoRaWAN/Mac/Region/Region.c **** #define US915_SET_CONTINUOUS_WAVE( )
 489:Middlewares/Third_Party/LoRaWAN/Mac/Region/Region.c **** #define US915_APPLY_DR_OFFSET( )
 490:Middlewares/Third_Party/LoRaWAN/Mac/Region/Region.c **** #define US915_RX_BEACON_SETUP( )
 491:Middlewares/Third_Party/LoRaWAN/Mac/Region/Region.c **** #endif
 492:Middlewares/Third_Party/LoRaWAN/Mac/Region/Region.c **** 
 493:Middlewares/Third_Party/LoRaWAN/Mac/Region/Region.c **** #ifdef REGION_RU864
 494:Middlewares/Third_Party/LoRaWAN/Mac/Region/Region.c **** #include "RegionRU864.h"
 495:Middlewares/Third_Party/LoRaWAN/Mac/Region/Region.c **** #define RU864_CASE                                 case LORAMAC_REGION_RU864:
 496:Middlewares/Third_Party/LoRaWAN/Mac/Region/Region.c **** #define RU864_IS_ACTIVE( )                         RU864_CASE { return true; }
 497:Middlewares/Third_Party/LoRaWAN/Mac/Region/Region.c **** #define RU864_GET_PHY_PARAM( )                     RU864_CASE { return RegionRU864GetPhyParam( getP
 498:Middlewares/Third_Party/LoRaWAN/Mac/Region/Region.c **** #define RU864_SET_BAND_TX_DONE( )                  RU864_CASE { RegionRU864SetBandTxDone( txDone );
 499:Middlewares/Third_Party/LoRaWAN/Mac/Region/Region.c **** #define RU864_INIT_DEFAULTS( )                     RU864_CASE { RegionRU864InitDefaults( params ); 
 500:Middlewares/Third_Party/LoRaWAN/Mac/Region/Region.c **** #define RU864_VERIFY( )                            RU864_CASE { return RegionRU864Verify( verify, p
 501:Middlewares/Third_Party/LoRaWAN/Mac/Region/Region.c **** #define RU864_APPLY_CF_LIST( )                     RU864_CASE { RegionRU864ApplyCFList( applyCFList
 502:Middlewares/Third_Party/LoRaWAN/Mac/Region/Region.c **** #define RU864_CHAN_MASK_SET( )                     RU864_CASE { return RegionRU864ChanMaskSet( chan
 503:Middlewares/Third_Party/LoRaWAN/Mac/Region/Region.c **** #define RU864_COMPUTE_RX_WINDOW_PARAMETERS( )      RU864_CASE { RegionRU864ComputeRxWindowParameter
 504:Middlewares/Third_Party/LoRaWAN/Mac/Region/Region.c **** #define RU864_RX_CONFIG( )                         RU864_CASE { return RegionRU864RxConfig( rxConfi
 505:Middlewares/Third_Party/LoRaWAN/Mac/Region/Region.c **** #define RU864_TX_CONFIG( )                         RU864_CASE { return RegionRU864TxConfig( txConfi
 506:Middlewares/Third_Party/LoRaWAN/Mac/Region/Region.c **** #define RU864_LINK_ADR_REQ( )                      RU864_CASE { return RegionRU864LinkAdrReq( linkA
 507:Middlewares/Third_Party/LoRaWAN/Mac/Region/Region.c **** #define RU864_RX_PARAM_SETUP_REQ( )                RU864_CASE { return RegionRU864RxParamSetupReq( 
 508:Middlewares/Third_Party/LoRaWAN/Mac/Region/Region.c **** #define RU864_NEW_CHANNEL_REQ( )                   RU864_CASE { return RegionRU864NewChannelReq( ne
 509:Middlewares/Third_Party/LoRaWAN/Mac/Region/Region.c **** #define RU864_TX_PARAM_SETUP_REQ( )                RU864_CASE { return RegionRU864TxParamSetupReq( 
 510:Middlewares/Third_Party/LoRaWAN/Mac/Region/Region.c **** #define RU864_DL_CHANNEL_REQ( )                    RU864_CASE { return RegionRU864DlChannelReq( dlC
 511:Middlewares/Third_Party/LoRaWAN/Mac/Region/Region.c **** #define RU864_ALTERNATE_DR( )                      RU864_CASE { return RegionRU864AlternateDr( curr
 512:Middlewares/Third_Party/LoRaWAN/Mac/Region/Region.c **** #define RU864_NEXT_CHANNEL( )                      RU864_CASE { return RegionRU864NextChannel( next
 513:Middlewares/Third_Party/LoRaWAN/Mac/Region/Region.c **** #define RU864_CHANNEL_ADD( )                       RU864_CASE { return RegionRU864ChannelAdd( chann
 514:Middlewares/Third_Party/LoRaWAN/Mac/Region/Region.c **** #define RU864_CHANNEL_REMOVE( )                    RU864_CASE { return RegionRU864ChannelsRemove( c
 515:Middlewares/Third_Party/LoRaWAN/Mac/Region/Region.c **** #define RU864_SET_CONTINUOUS_WAVE( )               RU864_CASE { RegionRU864SetContinuousWave( conti
 516:Middlewares/Third_Party/LoRaWAN/Mac/Region/Region.c **** #define RU864_APPLY_DR_OFFSET( )                   RU864_CASE { return RegionRU864ApplyDrOffset( do
 517:Middlewares/Third_Party/LoRaWAN/Mac/Region/Region.c **** #define RU864_RX_BEACON_SETUP( )                   RU864_CASE { RegionRU864RxBeaconSetup( rxBeaconS
 518:Middlewares/Third_Party/LoRaWAN/Mac/Region/Region.c **** #else
 519:Middlewares/Third_Party/LoRaWAN/Mac/Region/Region.c **** #define RU864_IS_ACTIVE( )
 520:Middlewares/Third_Party/LoRaWAN/Mac/Region/Region.c **** #define RU864_GET_PHY_PARAM( )
 521:Middlewares/Third_Party/LoRaWAN/Mac/Region/Region.c **** #define RU864_SET_BAND_TX_DONE( )
 522:Middlewares/Third_Party/LoRaWAN/Mac/Region/Region.c **** #define RU864_INIT_DEFAULTS( )
 523:Middlewares/Third_Party/LoRaWAN/Mac/Region/Region.c **** #define RU864_GET_NVM_CTX( )
 524:Middlewares/Third_Party/LoRaWAN/Mac/Region/Region.c **** #define RU864_VERIFY( )
 525:Middlewares/Third_Party/LoRaWAN/Mac/Region/Region.c **** #define RU864_APPLY_CF_LIST( )
 526:Middlewares/Third_Party/LoRaWAN/Mac/Region/Region.c **** #define RU864_CHAN_MASK_SET( )
 527:Middlewares/Third_Party/LoRaWAN/Mac/Region/Region.c **** #define RU864_COMPUTE_RX_WINDOW_PARAMETERS( )
 528:Middlewares/Third_Party/LoRaWAN/Mac/Region/Region.c **** #define RU864_RX_CONFIG( )
 529:Middlewares/Third_Party/LoRaWAN/Mac/Region/Region.c **** #define RU864_TX_CONFIG( )
 530:Middlewares/Third_Party/LoRaWAN/Mac/Region/Region.c **** #define RU864_LINK_ADR_REQ( )
 531:Middlewares/Third_Party/LoRaWAN/Mac/Region/Region.c **** #define RU864_RX_PARAM_SETUP_REQ( )
 532:Middlewares/Third_Party/LoRaWAN/Mac/Region/Region.c **** #define RU864_NEW_CHANNEL_REQ( )
 533:Middlewares/Third_Party/LoRaWAN/Mac/Region/Region.c **** #define RU864_TX_PARAM_SETUP_REQ( )
 534:Middlewares/Third_Party/LoRaWAN/Mac/Region/Region.c **** #define RU864_DL_CHANNEL_REQ( )
 535:Middlewares/Third_Party/LoRaWAN/Mac/Region/Region.c **** #define RU864_ALTERNATE_DR( )
 536:Middlewares/Third_Party/LoRaWAN/Mac/Region/Region.c **** #define RU864_NEXT_CHANNEL( )
 537:Middlewares/Third_Party/LoRaWAN/Mac/Region/Region.c **** #define RU864_CHANNEL_ADD( )
 538:Middlewares/Third_Party/LoRaWAN/Mac/Region/Region.c **** #define RU864_CHANNEL_REMOVE( )
 539:Middlewares/Third_Party/LoRaWAN/Mac/Region/Region.c **** #define RU864_SET_CONTINUOUS_WAVE( )
 540:Middlewares/Third_Party/LoRaWAN/Mac/Region/Region.c **** #define RU864_APPLY_DR_OFFSET( )
 541:Middlewares/Third_Party/LoRaWAN/Mac/Region/Region.c **** #define RU864_RX_BEACON_SETUP( )
 542:Middlewares/Third_Party/LoRaWAN/Mac/Region/Region.c **** #endif
 543:Middlewares/Third_Party/LoRaWAN/Mac/Region/Region.c **** 
 544:Middlewares/Third_Party/LoRaWAN/Mac/Region/Region.c **** bool RegionIsActive( LoRaMacRegion_t region )
ARM GAS  /tmp/cc1L9RAu.s 			page 11


 545:Middlewares/Third_Party/LoRaWAN/Mac/Region/Region.c **** {
  28              		.loc 1 545 1 view -0
  29              		.cfi_startproc
  30              		@ args = 0, pretend = 0, frame = 0
  31              		@ frame_needed = 0, uses_anonymous_args = 0
  32              		@ link register save eliminated.
 546:Middlewares/Third_Party/LoRaWAN/Mac/Region/Region.c ****     switch( region )
  33              		.loc 1 546 5 view .LVU1
  34 0000 0528     		cmp	r0, #5
  35 0002 05D0     		beq	.L3
  36 0004 0828     		cmp	r0, #8
  37 0006 01D0     		beq	.L5
 547:Middlewares/Third_Party/LoRaWAN/Mac/Region/Region.c ****     {
 548:Middlewares/Third_Party/LoRaWAN/Mac/Region/Region.c ****         AS923_IS_ACTIVE( );
 549:Middlewares/Third_Party/LoRaWAN/Mac/Region/Region.c ****         AU915_IS_ACTIVE( );
 550:Middlewares/Third_Party/LoRaWAN/Mac/Region/Region.c ****         CN470_IS_ACTIVE( );
 551:Middlewares/Third_Party/LoRaWAN/Mac/Region/Region.c ****         CN779_IS_ACTIVE( );
 552:Middlewares/Third_Party/LoRaWAN/Mac/Region/Region.c ****         EU433_IS_ACTIVE( );
 553:Middlewares/Third_Party/LoRaWAN/Mac/Region/Region.c ****         EU868_IS_ACTIVE( );
 554:Middlewares/Third_Party/LoRaWAN/Mac/Region/Region.c ****         KR920_IS_ACTIVE( );
 555:Middlewares/Third_Party/LoRaWAN/Mac/Region/Region.c ****         IN865_IS_ACTIVE( );
 556:Middlewares/Third_Party/LoRaWAN/Mac/Region/Region.c ****         US915_IS_ACTIVE( );
 557:Middlewares/Third_Party/LoRaWAN/Mac/Region/Region.c ****         RU864_IS_ACTIVE( );
 558:Middlewares/Third_Party/LoRaWAN/Mac/Region/Region.c ****         default:
 559:Middlewares/Third_Party/LoRaWAN/Mac/Region/Region.c ****         {
 560:Middlewares/Third_Party/LoRaWAN/Mac/Region/Region.c ****             return false;
  38              		.loc 1 560 20 is_stmt 0 view .LVU2
  39 0008 0020     		movs	r0, #0
  40              	.LVL1:
 561:Middlewares/Third_Party/LoRaWAN/Mac/Region/Region.c ****         }
 562:Middlewares/Third_Party/LoRaWAN/Mac/Region/Region.c ****     }
 563:Middlewares/Third_Party/LoRaWAN/Mac/Region/Region.c **** }
  41              		.loc 1 563 1 view .LVU3
  42 000a 7047     		bx	lr
  43              	.LVL2:
  44              	.L5:
 546:Middlewares/Third_Party/LoRaWAN/Mac/Region/Region.c ****     {
  45              		.loc 1 546 5 view .LVU4
  46 000c 0120     		movs	r0, #1
  47              	.LVL3:
 546:Middlewares/Third_Party/LoRaWAN/Mac/Region/Region.c ****     {
  48              		.loc 1 546 5 view .LVU5
  49 000e 7047     		bx	lr
  50              	.LVL4:
  51              	.L3:
 546:Middlewares/Third_Party/LoRaWAN/Mac/Region/Region.c ****     {
  52              		.loc 1 546 5 view .LVU6
  53 0010 0120     		movs	r0, #1
  54              	.LVL5:
 546:Middlewares/Third_Party/LoRaWAN/Mac/Region/Region.c ****     {
  55              		.loc 1 546 5 view .LVU7
  56 0012 7047     		bx	lr
  57              		.cfi_endproc
  58              	.LFE104:
  60              		.section	.text.RegionGetPhyParam,"ax",%progbits
  61              		.align	1
  62              		.global	RegionGetPhyParam
ARM GAS  /tmp/cc1L9RAu.s 			page 12


  63              		.syntax unified
  64              		.thumb
  65              		.thumb_func
  66              		.fpu softvfp
  68              	RegionGetPhyParam:
  69              	.LVL6:
  70              	.LFB105:
 564:Middlewares/Third_Party/LoRaWAN/Mac/Region/Region.c **** 
 565:Middlewares/Third_Party/LoRaWAN/Mac/Region/Region.c **** PhyParam_t RegionGetPhyParam( LoRaMacRegion_t region, GetPhyParams_t* getPhy )
 566:Middlewares/Third_Party/LoRaWAN/Mac/Region/Region.c **** {
  71              		.loc 1 566 1 is_stmt 1 view -0
  72              		.cfi_startproc
  73              		@ args = 0, pretend = 0, frame = 8
  74              		@ frame_needed = 0, uses_anonymous_args = 0
  75              		.loc 1 566 1 is_stmt 0 view .LVU9
  76 0000 00B5     		push	{lr}
  77              	.LCFI0:
  78              		.cfi_def_cfa_offset 4
  79              		.cfi_offset 14, -4
  80 0002 83B0     		sub	sp, sp, #12
  81              	.LCFI1:
  82              		.cfi_def_cfa_offset 16
  83 0004 0346     		mov	r3, r0
  84 0006 0846     		mov	r0, r1
  85              	.LVL7:
 567:Middlewares/Third_Party/LoRaWAN/Mac/Region/Region.c ****     PhyParam_t phyParam = { 0 };
  86              		.loc 1 567 5 is_stmt 1 view .LVU10
  87              		.loc 1 567 16 is_stmt 0 view .LVU11
  88 0008 0022     		movs	r2, #0
  89 000a 0092     		str	r2, [sp]
 568:Middlewares/Third_Party/LoRaWAN/Mac/Region/Region.c ****     switch( region )
  90              		.loc 1 568 5 is_stmt 1 view .LVU12
  91 000c 052B     		cmp	r3, #5
  92 000e 04D0     		beq	.L7
  93 0010 082B     		cmp	r3, #8
  94 0012 09D0     		beq	.L8
 569:Middlewares/Third_Party/LoRaWAN/Mac/Region/Region.c ****     {
 570:Middlewares/Third_Party/LoRaWAN/Mac/Region/Region.c ****         AS923_GET_PHY_PARAM( );
 571:Middlewares/Third_Party/LoRaWAN/Mac/Region/Region.c ****         AU915_GET_PHY_PARAM( );
 572:Middlewares/Third_Party/LoRaWAN/Mac/Region/Region.c ****         CN470_GET_PHY_PARAM( );
 573:Middlewares/Third_Party/LoRaWAN/Mac/Region/Region.c ****         CN779_GET_PHY_PARAM( );
 574:Middlewares/Third_Party/LoRaWAN/Mac/Region/Region.c ****         EU433_GET_PHY_PARAM( );
 575:Middlewares/Third_Party/LoRaWAN/Mac/Region/Region.c ****         EU868_GET_PHY_PARAM( );
 576:Middlewares/Third_Party/LoRaWAN/Mac/Region/Region.c ****         KR920_GET_PHY_PARAM( );
 577:Middlewares/Third_Party/LoRaWAN/Mac/Region/Region.c ****         IN865_GET_PHY_PARAM( );
 578:Middlewares/Third_Party/LoRaWAN/Mac/Region/Region.c ****         US915_GET_PHY_PARAM( );
  95              		.loc 1 578 31 view .LVU13
 579:Middlewares/Third_Party/LoRaWAN/Mac/Region/Region.c ****         RU864_GET_PHY_PARAM( );
  96              		.loc 1 579 31 view .LVU14
 580:Middlewares/Third_Party/LoRaWAN/Mac/Region/Region.c ****         default:
 581:Middlewares/Third_Party/LoRaWAN/Mac/Region/Region.c ****         {
 582:Middlewares/Third_Party/LoRaWAN/Mac/Region/Region.c ****             return phyParam;
  97              		.loc 1 582 13 view .LVU15
  98              		.loc 1 582 20 is_stmt 0 view .LVU16
  99 0014 009B     		ldr	r3, [sp]
 100 0016 0193     		str	r3, [sp, #4]
 101 0018 02E0     		b	.L10
ARM GAS  /tmp/cc1L9RAu.s 			page 13


 102              	.L7:
 570:Middlewares/Third_Party/LoRaWAN/Mac/Region/Region.c ****         AU915_GET_PHY_PARAM( );
 103              		.loc 1 570 31 is_stmt 1 view .LVU17
 571:Middlewares/Third_Party/LoRaWAN/Mac/Region/Region.c ****         CN470_GET_PHY_PARAM( );
 104              		.loc 1 571 31 view .LVU18
 572:Middlewares/Third_Party/LoRaWAN/Mac/Region/Region.c ****         CN779_GET_PHY_PARAM( );
 105              		.loc 1 572 31 view .LVU19
 573:Middlewares/Third_Party/LoRaWAN/Mac/Region/Region.c ****         EU433_GET_PHY_PARAM( );
 106              		.loc 1 573 31 view .LVU20
 574:Middlewares/Third_Party/LoRaWAN/Mac/Region/Region.c ****         EU868_GET_PHY_PARAM( );
 107              		.loc 1 574 31 view .LVU21
 575:Middlewares/Third_Party/LoRaWAN/Mac/Region/Region.c ****         KR920_GET_PHY_PARAM( );
 108              		.loc 1 575 9 view .LVU22
 109 001a FFF7FEFF 		bl	RegionEU868GetPhyParam
 110              	.LVL8:
 575:Middlewares/Third_Party/LoRaWAN/Mac/Region/Region.c ****         KR920_GET_PHY_PARAM( );
 111              		.loc 1 575 9 is_stmt 0 view .LVU23
 112 001e 0190     		str	r0, [sp, #4]
 113              	.L10:
 583:Middlewares/Third_Party/LoRaWAN/Mac/Region/Region.c ****         }
 584:Middlewares/Third_Party/LoRaWAN/Mac/Region/Region.c ****     }
 585:Middlewares/Third_Party/LoRaWAN/Mac/Region/Region.c **** }
 114              		.loc 1 585 1 view .LVU24
 115 0020 0198     		ldr	r0, [sp, #4]
 116 0022 03B0     		add	sp, sp, #12
 117              	.LCFI2:
 118              		.cfi_remember_state
 119              		.cfi_def_cfa_offset 4
 120              		@ sp needed
 121 0024 5DF804FB 		ldr	pc, [sp], #4
 122              	.LVL9:
 123              	.L8:
 124              	.LCFI3:
 125              		.cfi_restore_state
 575:Middlewares/Third_Party/LoRaWAN/Mac/Region/Region.c ****         KR920_GET_PHY_PARAM( );
 126              		.loc 1 575 31 is_stmt 1 view .LVU25
 576:Middlewares/Third_Party/LoRaWAN/Mac/Region/Region.c ****         IN865_GET_PHY_PARAM( );
 127              		.loc 1 576 31 view .LVU26
 577:Middlewares/Third_Party/LoRaWAN/Mac/Region/Region.c ****         US915_GET_PHY_PARAM( );
 128              		.loc 1 577 31 view .LVU27
 578:Middlewares/Third_Party/LoRaWAN/Mac/Region/Region.c ****         RU864_GET_PHY_PARAM( );
 129              		.loc 1 578 9 view .LVU28
 130 0028 FFF7FEFF 		bl	RegionUS915GetPhyParam
 131              	.LVL10:
 578:Middlewares/Third_Party/LoRaWAN/Mac/Region/Region.c ****         RU864_GET_PHY_PARAM( );
 132              		.loc 1 578 9 is_stmt 0 view .LVU29
 133 002c 0190     		str	r0, [sp, #4]
 134 002e F7E7     		b	.L10
 135              		.cfi_endproc
 136              	.LFE105:
 138              		.section	.text.RegionSetBandTxDone,"ax",%progbits
 139              		.align	1
 140              		.global	RegionSetBandTxDone
 141              		.syntax unified
 142              		.thumb
 143              		.thumb_func
 144              		.fpu softvfp
ARM GAS  /tmp/cc1L9RAu.s 			page 14


 146              	RegionSetBandTxDone:
 147              	.LVL11:
 148              	.LFB106:
 586:Middlewares/Third_Party/LoRaWAN/Mac/Region/Region.c **** 
 587:Middlewares/Third_Party/LoRaWAN/Mac/Region/Region.c **** void RegionSetBandTxDone( LoRaMacRegion_t region, SetBandTxDoneParams_t* txDone )
 588:Middlewares/Third_Party/LoRaWAN/Mac/Region/Region.c **** {
 149              		.loc 1 588 1 is_stmt 1 view -0
 150              		.cfi_startproc
 151              		@ args = 0, pretend = 0, frame = 0
 152              		@ frame_needed = 0, uses_anonymous_args = 0
 153              		.loc 1 588 1 is_stmt 0 view .LVU31
 154 0000 08B5     		push	{r3, lr}
 155              	.LCFI4:
 156              		.cfi_def_cfa_offset 8
 157              		.cfi_offset 3, -8
 158              		.cfi_offset 14, -4
 159 0002 0346     		mov	r3, r0
 160 0004 0846     		mov	r0, r1
 161              	.LVL12:
 589:Middlewares/Third_Party/LoRaWAN/Mac/Region/Region.c ****     switch( region )
 162              		.loc 1 589 5 is_stmt 1 view .LVU32
 163 0006 052B     		cmp	r3, #5
 164 0008 02D0     		beq	.L14
 165 000a 082B     		cmp	r3, #8
 166 000c 03D0     		beq	.L15
 167              	.LVL13:
 168              	.L13:
 590:Middlewares/Third_Party/LoRaWAN/Mac/Region/Region.c ****     {
 591:Middlewares/Third_Party/LoRaWAN/Mac/Region/Region.c ****         AS923_SET_BAND_TX_DONE( );
 592:Middlewares/Third_Party/LoRaWAN/Mac/Region/Region.c ****         AU915_SET_BAND_TX_DONE( );
 593:Middlewares/Third_Party/LoRaWAN/Mac/Region/Region.c ****         CN470_SET_BAND_TX_DONE( );
 594:Middlewares/Third_Party/LoRaWAN/Mac/Region/Region.c ****         CN779_SET_BAND_TX_DONE( );
 595:Middlewares/Third_Party/LoRaWAN/Mac/Region/Region.c ****         EU433_SET_BAND_TX_DONE( );
 596:Middlewares/Third_Party/LoRaWAN/Mac/Region/Region.c ****         EU868_SET_BAND_TX_DONE( );
 597:Middlewares/Third_Party/LoRaWAN/Mac/Region/Region.c ****         KR920_SET_BAND_TX_DONE( );
 598:Middlewares/Third_Party/LoRaWAN/Mac/Region/Region.c ****         IN865_SET_BAND_TX_DONE( );
 599:Middlewares/Third_Party/LoRaWAN/Mac/Region/Region.c ****         US915_SET_BAND_TX_DONE( );
 600:Middlewares/Third_Party/LoRaWAN/Mac/Region/Region.c ****         RU864_SET_BAND_TX_DONE( );
 601:Middlewares/Third_Party/LoRaWAN/Mac/Region/Region.c ****         default:
 602:Middlewares/Third_Party/LoRaWAN/Mac/Region/Region.c ****         {
 603:Middlewares/Third_Party/LoRaWAN/Mac/Region/Region.c ****             return;
 604:Middlewares/Third_Party/LoRaWAN/Mac/Region/Region.c ****         }
 605:Middlewares/Third_Party/LoRaWAN/Mac/Region/Region.c ****     }
 606:Middlewares/Third_Party/LoRaWAN/Mac/Region/Region.c **** }
 169              		.loc 1 606 1 is_stmt 0 view .LVU33
 170 000e 08BD     		pop	{r3, pc}
 171              	.LVL14:
 172              	.L14:
 591:Middlewares/Third_Party/LoRaWAN/Mac/Region/Region.c ****         AU915_SET_BAND_TX_DONE( );
 173              		.loc 1 591 34 is_stmt 1 view .LVU34
 592:Middlewares/Third_Party/LoRaWAN/Mac/Region/Region.c ****         CN470_SET_BAND_TX_DONE( );
 174              		.loc 1 592 34 view .LVU35
 593:Middlewares/Third_Party/LoRaWAN/Mac/Region/Region.c ****         CN779_SET_BAND_TX_DONE( );
 175              		.loc 1 593 34 view .LVU36
 594:Middlewares/Third_Party/LoRaWAN/Mac/Region/Region.c ****         EU433_SET_BAND_TX_DONE( );
 176              		.loc 1 594 34 view .LVU37
 595:Middlewares/Third_Party/LoRaWAN/Mac/Region/Region.c ****         EU868_SET_BAND_TX_DONE( );
ARM GAS  /tmp/cc1L9RAu.s 			page 15


 177              		.loc 1 595 34 view .LVU38
 596:Middlewares/Third_Party/LoRaWAN/Mac/Region/Region.c ****         KR920_SET_BAND_TX_DONE( );
 178              		.loc 1 596 9 view .LVU39
 179 0010 FFF7FEFF 		bl	RegionEU868SetBandTxDone
 180              	.LVL15:
 596:Middlewares/Third_Party/LoRaWAN/Mac/Region/Region.c ****         KR920_SET_BAND_TX_DONE( );
 181              		.loc 1 596 9 view .LVU40
 182 0014 FBE7     		b	.L13
 183              	.LVL16:
 184              	.L15:
 596:Middlewares/Third_Party/LoRaWAN/Mac/Region/Region.c ****         KR920_SET_BAND_TX_DONE( );
 185              		.loc 1 596 34 view .LVU41
 597:Middlewares/Third_Party/LoRaWAN/Mac/Region/Region.c ****         IN865_SET_BAND_TX_DONE( );
 186              		.loc 1 597 34 view .LVU42
 598:Middlewares/Third_Party/LoRaWAN/Mac/Region/Region.c ****         US915_SET_BAND_TX_DONE( );
 187              		.loc 1 598 34 view .LVU43
 599:Middlewares/Third_Party/LoRaWAN/Mac/Region/Region.c ****         RU864_SET_BAND_TX_DONE( );
 188              		.loc 1 599 9 view .LVU44
 189 0016 FFF7FEFF 		bl	RegionUS915SetBandTxDone
 190              	.LVL17:
 599:Middlewares/Third_Party/LoRaWAN/Mac/Region/Region.c ****         RU864_SET_BAND_TX_DONE( );
 191              		.loc 1 599 9 view .LVU45
 192 001a F8E7     		b	.L13
 193              		.cfi_endproc
 194              	.LFE106:
 196              		.section	.text.RegionInitDefaults,"ax",%progbits
 197              		.align	1
 198              		.global	RegionInitDefaults
 199              		.syntax unified
 200              		.thumb
 201              		.thumb_func
 202              		.fpu softvfp
 204              	RegionInitDefaults:
 205              	.LVL18:
 206              	.LFB107:
 607:Middlewares/Third_Party/LoRaWAN/Mac/Region/Region.c **** 
 608:Middlewares/Third_Party/LoRaWAN/Mac/Region/Region.c **** void RegionInitDefaults( LoRaMacRegion_t region, InitDefaultsParams_t* params )
 609:Middlewares/Third_Party/LoRaWAN/Mac/Region/Region.c **** {
 207              		.loc 1 609 1 view -0
 208              		.cfi_startproc
 209              		@ args = 0, pretend = 0, frame = 0
 210              		@ frame_needed = 0, uses_anonymous_args = 0
 211              		.loc 1 609 1 is_stmt 0 view .LVU47
 212 0000 08B5     		push	{r3, lr}
 213              	.LCFI5:
 214              		.cfi_def_cfa_offset 8
 215              		.cfi_offset 3, -8
 216              		.cfi_offset 14, -4
 217 0002 0346     		mov	r3, r0
 218 0004 0846     		mov	r0, r1
 219              	.LVL19:
 610:Middlewares/Third_Party/LoRaWAN/Mac/Region/Region.c ****     switch( region )
 220              		.loc 1 610 5 is_stmt 1 view .LVU48
 221 0006 052B     		cmp	r3, #5
 222 0008 02D0     		beq	.L19
 223 000a 082B     		cmp	r3, #8
 224 000c 03D0     		beq	.L20
ARM GAS  /tmp/cc1L9RAu.s 			page 16


 225              	.LVL20:
 226              	.L18:
 611:Middlewares/Third_Party/LoRaWAN/Mac/Region/Region.c ****     {
 612:Middlewares/Third_Party/LoRaWAN/Mac/Region/Region.c ****         AS923_INIT_DEFAULTS( );
 613:Middlewares/Third_Party/LoRaWAN/Mac/Region/Region.c ****         AU915_INIT_DEFAULTS( );
 614:Middlewares/Third_Party/LoRaWAN/Mac/Region/Region.c ****         CN470_INIT_DEFAULTS( );
 615:Middlewares/Third_Party/LoRaWAN/Mac/Region/Region.c ****         CN779_INIT_DEFAULTS( );
 616:Middlewares/Third_Party/LoRaWAN/Mac/Region/Region.c ****         EU433_INIT_DEFAULTS( );
 617:Middlewares/Third_Party/LoRaWAN/Mac/Region/Region.c ****         EU868_INIT_DEFAULTS( );
 618:Middlewares/Third_Party/LoRaWAN/Mac/Region/Region.c ****         KR920_INIT_DEFAULTS( );
 619:Middlewares/Third_Party/LoRaWAN/Mac/Region/Region.c ****         IN865_INIT_DEFAULTS( );
 620:Middlewares/Third_Party/LoRaWAN/Mac/Region/Region.c ****         US915_INIT_DEFAULTS( );
 621:Middlewares/Third_Party/LoRaWAN/Mac/Region/Region.c ****         RU864_INIT_DEFAULTS( );
 622:Middlewares/Third_Party/LoRaWAN/Mac/Region/Region.c ****         default:
 623:Middlewares/Third_Party/LoRaWAN/Mac/Region/Region.c ****         {
 624:Middlewares/Third_Party/LoRaWAN/Mac/Region/Region.c ****             break;
 625:Middlewares/Third_Party/LoRaWAN/Mac/Region/Region.c ****         }
 626:Middlewares/Third_Party/LoRaWAN/Mac/Region/Region.c ****     }
 627:Middlewares/Third_Party/LoRaWAN/Mac/Region/Region.c **** }
 227              		.loc 1 627 1 is_stmt 0 view .LVU49
 228 000e 08BD     		pop	{r3, pc}
 229              	.LVL21:
 230              	.L19:
 612:Middlewares/Third_Party/LoRaWAN/Mac/Region/Region.c ****         AU915_INIT_DEFAULTS( );
 231              		.loc 1 612 31 is_stmt 1 view .LVU50
 613:Middlewares/Third_Party/LoRaWAN/Mac/Region/Region.c ****         CN470_INIT_DEFAULTS( );
 232              		.loc 1 613 31 view .LVU51
 614:Middlewares/Third_Party/LoRaWAN/Mac/Region/Region.c ****         CN779_INIT_DEFAULTS( );
 233              		.loc 1 614 31 view .LVU52
 615:Middlewares/Third_Party/LoRaWAN/Mac/Region/Region.c ****         EU433_INIT_DEFAULTS( );
 234              		.loc 1 615 31 view .LVU53
 616:Middlewares/Third_Party/LoRaWAN/Mac/Region/Region.c ****         EU868_INIT_DEFAULTS( );
 235              		.loc 1 616 31 view .LVU54
 617:Middlewares/Third_Party/LoRaWAN/Mac/Region/Region.c ****         KR920_INIT_DEFAULTS( );
 236              		.loc 1 617 9 view .LVU55
 237 0010 FFF7FEFF 		bl	RegionEU868InitDefaults
 238              	.LVL22:
 617:Middlewares/Third_Party/LoRaWAN/Mac/Region/Region.c ****         KR920_INIT_DEFAULTS( );
 239              		.loc 1 617 9 view .LVU56
 240 0014 FBE7     		b	.L18
 241              	.LVL23:
 242              	.L20:
 617:Middlewares/Third_Party/LoRaWAN/Mac/Region/Region.c ****         KR920_INIT_DEFAULTS( );
 243              		.loc 1 617 31 view .LVU57
 618:Middlewares/Third_Party/LoRaWAN/Mac/Region/Region.c ****         IN865_INIT_DEFAULTS( );
 244              		.loc 1 618 31 view .LVU58
 619:Middlewares/Third_Party/LoRaWAN/Mac/Region/Region.c ****         US915_INIT_DEFAULTS( );
 245              		.loc 1 619 31 view .LVU59
 620:Middlewares/Third_Party/LoRaWAN/Mac/Region/Region.c ****         RU864_INIT_DEFAULTS( );
 246              		.loc 1 620 9 view .LVU60
 247 0016 FFF7FEFF 		bl	RegionUS915InitDefaults
 248              	.LVL24:
 620:Middlewares/Third_Party/LoRaWAN/Mac/Region/Region.c ****         RU864_INIT_DEFAULTS( );
 249              		.loc 1 620 9 view .LVU61
 250              		.loc 1 627 1 is_stmt 0 view .LVU62
 251 001a F8E7     		b	.L18
 252              		.cfi_endproc
ARM GAS  /tmp/cc1L9RAu.s 			page 17


 253              	.LFE107:
 255              		.section	.text.RegionVerify,"ax",%progbits
 256              		.align	1
 257              		.global	RegionVerify
 258              		.syntax unified
 259              		.thumb
 260              		.thumb_func
 261              		.fpu softvfp
 263              	RegionVerify:
 264              	.LVL25:
 265              	.LFB108:
 628:Middlewares/Third_Party/LoRaWAN/Mac/Region/Region.c **** 
 629:Middlewares/Third_Party/LoRaWAN/Mac/Region/Region.c **** bool RegionVerify( LoRaMacRegion_t region, VerifyParams_t* verify, PhyAttribute_t phyAttribute )
 630:Middlewares/Third_Party/LoRaWAN/Mac/Region/Region.c **** {
 266              		.loc 1 630 1 is_stmt 1 view -0
 267              		.cfi_startproc
 268              		@ args = 0, pretend = 0, frame = 0
 269              		@ frame_needed = 0, uses_anonymous_args = 0
 270              		.loc 1 630 1 is_stmt 0 view .LVU64
 271 0000 08B5     		push	{r3, lr}
 272              	.LCFI6:
 273              		.cfi_def_cfa_offset 8
 274              		.cfi_offset 3, -8
 275              		.cfi_offset 14, -4
 276 0002 0346     		mov	r3, r0
 277 0004 0846     		mov	r0, r1
 278              	.LVL26:
 279              		.loc 1 630 1 view .LVU65
 280 0006 1146     		mov	r1, r2
 281              	.LVL27:
 631:Middlewares/Third_Party/LoRaWAN/Mac/Region/Region.c ****     switch( region )
 282              		.loc 1 631 5 is_stmt 1 view .LVU66
 283 0008 052B     		cmp	r3, #5
 284 000a 03D0     		beq	.L24
 285 000c 082B     		cmp	r3, #8
 286 000e 04D0     		beq	.L25
 287 0010 0020     		movs	r0, #0
 288              	.LVL28:
 289              	.L26:
 632:Middlewares/Third_Party/LoRaWAN/Mac/Region/Region.c ****     {
 633:Middlewares/Third_Party/LoRaWAN/Mac/Region/Region.c ****         AS923_VERIFY( );
 634:Middlewares/Third_Party/LoRaWAN/Mac/Region/Region.c ****         AU915_VERIFY( );
 635:Middlewares/Third_Party/LoRaWAN/Mac/Region/Region.c ****         CN470_VERIFY( );
 636:Middlewares/Third_Party/LoRaWAN/Mac/Region/Region.c ****         CN779_VERIFY( );
 637:Middlewares/Third_Party/LoRaWAN/Mac/Region/Region.c ****         EU433_VERIFY( );
 638:Middlewares/Third_Party/LoRaWAN/Mac/Region/Region.c ****         EU868_VERIFY( );
 639:Middlewares/Third_Party/LoRaWAN/Mac/Region/Region.c ****         KR920_VERIFY( );
 640:Middlewares/Third_Party/LoRaWAN/Mac/Region/Region.c ****         IN865_VERIFY( );
 641:Middlewares/Third_Party/LoRaWAN/Mac/Region/Region.c ****         US915_VERIFY( );
 642:Middlewares/Third_Party/LoRaWAN/Mac/Region/Region.c ****         RU864_VERIFY( );
 643:Middlewares/Third_Party/LoRaWAN/Mac/Region/Region.c ****         default:
 644:Middlewares/Third_Party/LoRaWAN/Mac/Region/Region.c ****         {
 645:Middlewares/Third_Party/LoRaWAN/Mac/Region/Region.c ****             return false;
 646:Middlewares/Third_Party/LoRaWAN/Mac/Region/Region.c ****         }
 647:Middlewares/Third_Party/LoRaWAN/Mac/Region/Region.c ****     }
 648:Middlewares/Third_Party/LoRaWAN/Mac/Region/Region.c **** }
 290              		.loc 1 648 1 is_stmt 0 view .LVU67
ARM GAS  /tmp/cc1L9RAu.s 			page 18


 291 0012 08BD     		pop	{r3, pc}
 292              	.LVL29:
 293              	.L24:
 633:Middlewares/Third_Party/LoRaWAN/Mac/Region/Region.c ****         AU915_VERIFY( );
 294              		.loc 1 633 24 is_stmt 1 view .LVU68
 634:Middlewares/Third_Party/LoRaWAN/Mac/Region/Region.c ****         CN470_VERIFY( );
 295              		.loc 1 634 24 view .LVU69
 635:Middlewares/Third_Party/LoRaWAN/Mac/Region/Region.c ****         CN779_VERIFY( );
 296              		.loc 1 635 24 view .LVU70
 636:Middlewares/Third_Party/LoRaWAN/Mac/Region/Region.c ****         EU433_VERIFY( );
 297              		.loc 1 636 24 view .LVU71
 637:Middlewares/Third_Party/LoRaWAN/Mac/Region/Region.c ****         EU868_VERIFY( );
 298              		.loc 1 637 24 view .LVU72
 638:Middlewares/Third_Party/LoRaWAN/Mac/Region/Region.c ****         KR920_VERIFY( );
 299              		.loc 1 638 9 view .LVU73
 300 0014 FFF7FEFF 		bl	RegionEU868Verify
 301              	.LVL30:
 638:Middlewares/Third_Party/LoRaWAN/Mac/Region/Region.c ****         KR920_VERIFY( );
 302              		.loc 1 638 9 is_stmt 0 view .LVU74
 303 0018 FBE7     		b	.L26
 304              	.LVL31:
 305              	.L25:
 638:Middlewares/Third_Party/LoRaWAN/Mac/Region/Region.c ****         KR920_VERIFY( );
 306              		.loc 1 638 24 is_stmt 1 view .LVU75
 639:Middlewares/Third_Party/LoRaWAN/Mac/Region/Region.c ****         IN865_VERIFY( );
 307              		.loc 1 639 24 view .LVU76
 640:Middlewares/Third_Party/LoRaWAN/Mac/Region/Region.c ****         US915_VERIFY( );
 308              		.loc 1 640 24 view .LVU77
 641:Middlewares/Third_Party/LoRaWAN/Mac/Region/Region.c ****         RU864_VERIFY( );
 309              		.loc 1 641 9 view .LVU78
 310 001a FFF7FEFF 		bl	RegionUS915Verify
 311              	.LVL32:
 641:Middlewares/Third_Party/LoRaWAN/Mac/Region/Region.c ****         RU864_VERIFY( );
 312              		.loc 1 641 9 is_stmt 0 view .LVU79
 313 001e F8E7     		b	.L26
 314              		.cfi_endproc
 315              	.LFE108:
 317              		.section	.text.RegionApplyCFList,"ax",%progbits
 318              		.align	1
 319              		.global	RegionApplyCFList
 320              		.syntax unified
 321              		.thumb
 322              		.thumb_func
 323              		.fpu softvfp
 325              	RegionApplyCFList:
 326              	.LVL33:
 327              	.LFB109:
 649:Middlewares/Third_Party/LoRaWAN/Mac/Region/Region.c **** 
 650:Middlewares/Third_Party/LoRaWAN/Mac/Region/Region.c **** void RegionApplyCFList( LoRaMacRegion_t region, ApplyCFListParams_t* applyCFList )
 651:Middlewares/Third_Party/LoRaWAN/Mac/Region/Region.c **** {
 328              		.loc 1 651 1 is_stmt 1 view -0
 329              		.cfi_startproc
 330              		@ args = 0, pretend = 0, frame = 0
 331              		@ frame_needed = 0, uses_anonymous_args = 0
 332              		.loc 1 651 1 is_stmt 0 view .LVU81
 333 0000 08B5     		push	{r3, lr}
 334              	.LCFI7:
ARM GAS  /tmp/cc1L9RAu.s 			page 19


 335              		.cfi_def_cfa_offset 8
 336              		.cfi_offset 3, -8
 337              		.cfi_offset 14, -4
 338 0002 0346     		mov	r3, r0
 339 0004 0846     		mov	r0, r1
 340              	.LVL34:
 652:Middlewares/Third_Party/LoRaWAN/Mac/Region/Region.c ****     switch( region )
 341              		.loc 1 652 5 is_stmt 1 view .LVU82
 342 0006 052B     		cmp	r3, #5
 343 0008 02D0     		beq	.L29
 344 000a 082B     		cmp	r3, #8
 345 000c 03D0     		beq	.L30
 346              	.LVL35:
 347              	.L28:
 653:Middlewares/Third_Party/LoRaWAN/Mac/Region/Region.c ****     {
 654:Middlewares/Third_Party/LoRaWAN/Mac/Region/Region.c ****         AS923_APPLY_CF_LIST( );
 655:Middlewares/Third_Party/LoRaWAN/Mac/Region/Region.c ****         AU915_APPLY_CF_LIST( );
 656:Middlewares/Third_Party/LoRaWAN/Mac/Region/Region.c ****         CN470_APPLY_CF_LIST( );
 657:Middlewares/Third_Party/LoRaWAN/Mac/Region/Region.c ****         CN779_APPLY_CF_LIST( );
 658:Middlewares/Third_Party/LoRaWAN/Mac/Region/Region.c ****         EU433_APPLY_CF_LIST( );
 659:Middlewares/Third_Party/LoRaWAN/Mac/Region/Region.c ****         EU868_APPLY_CF_LIST( );
 660:Middlewares/Third_Party/LoRaWAN/Mac/Region/Region.c ****         KR920_APPLY_CF_LIST( );
 661:Middlewares/Third_Party/LoRaWAN/Mac/Region/Region.c ****         IN865_APPLY_CF_LIST( );
 662:Middlewares/Third_Party/LoRaWAN/Mac/Region/Region.c ****         US915_APPLY_CF_LIST( );
 663:Middlewares/Third_Party/LoRaWAN/Mac/Region/Region.c ****         RU864_APPLY_CF_LIST( );
 664:Middlewares/Third_Party/LoRaWAN/Mac/Region/Region.c ****         default:
 665:Middlewares/Third_Party/LoRaWAN/Mac/Region/Region.c ****         {
 666:Middlewares/Third_Party/LoRaWAN/Mac/Region/Region.c ****             break;
 667:Middlewares/Third_Party/LoRaWAN/Mac/Region/Region.c ****         }
 668:Middlewares/Third_Party/LoRaWAN/Mac/Region/Region.c ****     }
 669:Middlewares/Third_Party/LoRaWAN/Mac/Region/Region.c **** }
 348              		.loc 1 669 1 is_stmt 0 view .LVU83
 349 000e 08BD     		pop	{r3, pc}
 350              	.LVL36:
 351              	.L29:
 654:Middlewares/Third_Party/LoRaWAN/Mac/Region/Region.c ****         AU915_APPLY_CF_LIST( );
 352              		.loc 1 654 31 is_stmt 1 view .LVU84
 655:Middlewares/Third_Party/LoRaWAN/Mac/Region/Region.c ****         CN470_APPLY_CF_LIST( );
 353              		.loc 1 655 31 view .LVU85
 656:Middlewares/Third_Party/LoRaWAN/Mac/Region/Region.c ****         CN779_APPLY_CF_LIST( );
 354              		.loc 1 656 31 view .LVU86
 657:Middlewares/Third_Party/LoRaWAN/Mac/Region/Region.c ****         EU433_APPLY_CF_LIST( );
 355              		.loc 1 657 31 view .LVU87
 658:Middlewares/Third_Party/LoRaWAN/Mac/Region/Region.c ****         EU868_APPLY_CF_LIST( );
 356              		.loc 1 658 31 view .LVU88
 659:Middlewares/Third_Party/LoRaWAN/Mac/Region/Region.c ****         KR920_APPLY_CF_LIST( );
 357              		.loc 1 659 9 view .LVU89
 358 0010 FFF7FEFF 		bl	RegionEU868ApplyCFList
 359              	.LVL37:
 659:Middlewares/Third_Party/LoRaWAN/Mac/Region/Region.c ****         KR920_APPLY_CF_LIST( );
 360              		.loc 1 659 9 view .LVU90
 361 0014 FBE7     		b	.L28
 362              	.LVL38:
 363              	.L30:
 659:Middlewares/Third_Party/LoRaWAN/Mac/Region/Region.c ****         KR920_APPLY_CF_LIST( );
 364              		.loc 1 659 31 view .LVU91
 660:Middlewares/Third_Party/LoRaWAN/Mac/Region/Region.c ****         IN865_APPLY_CF_LIST( );
ARM GAS  /tmp/cc1L9RAu.s 			page 20


 365              		.loc 1 660 31 view .LVU92
 661:Middlewares/Third_Party/LoRaWAN/Mac/Region/Region.c ****         US915_APPLY_CF_LIST( );
 366              		.loc 1 661 31 view .LVU93
 662:Middlewares/Third_Party/LoRaWAN/Mac/Region/Region.c ****         RU864_APPLY_CF_LIST( );
 367              		.loc 1 662 9 view .LVU94
 368 0016 FFF7FEFF 		bl	RegionUS915ApplyCFList
 369              	.LVL39:
 662:Middlewares/Third_Party/LoRaWAN/Mac/Region/Region.c ****         RU864_APPLY_CF_LIST( );
 370              		.loc 1 662 9 view .LVU95
 371              		.loc 1 669 1 is_stmt 0 view .LVU96
 372 001a F8E7     		b	.L28
 373              		.cfi_endproc
 374              	.LFE109:
 376              		.section	.text.RegionChanMaskSet,"ax",%progbits
 377              		.align	1
 378              		.global	RegionChanMaskSet
 379              		.syntax unified
 380              		.thumb
 381              		.thumb_func
 382              		.fpu softvfp
 384              	RegionChanMaskSet:
 385              	.LVL40:
 386              	.LFB110:
 670:Middlewares/Third_Party/LoRaWAN/Mac/Region/Region.c **** 
 671:Middlewares/Third_Party/LoRaWAN/Mac/Region/Region.c **** bool RegionChanMaskSet( LoRaMacRegion_t region, ChanMaskSetParams_t* chanMaskSet )
 672:Middlewares/Third_Party/LoRaWAN/Mac/Region/Region.c **** {
 387              		.loc 1 672 1 is_stmt 1 view -0
 388              		.cfi_startproc
 389              		@ args = 0, pretend = 0, frame = 0
 390              		@ frame_needed = 0, uses_anonymous_args = 0
 391              		.loc 1 672 1 is_stmt 0 view .LVU98
 392 0000 08B5     		push	{r3, lr}
 393              	.LCFI8:
 394              		.cfi_def_cfa_offset 8
 395              		.cfi_offset 3, -8
 396              		.cfi_offset 14, -4
 397 0002 0346     		mov	r3, r0
 398 0004 0846     		mov	r0, r1
 399              	.LVL41:
 673:Middlewares/Third_Party/LoRaWAN/Mac/Region/Region.c ****     switch( region )
 400              		.loc 1 673 5 is_stmt 1 view .LVU99
 401 0006 052B     		cmp	r3, #5
 402 0008 03D0     		beq	.L34
 403 000a 082B     		cmp	r3, #8
 404 000c 04D0     		beq	.L35
 405 000e 0020     		movs	r0, #0
 406              	.LVL42:
 407              	.L36:
 674:Middlewares/Third_Party/LoRaWAN/Mac/Region/Region.c ****     {
 675:Middlewares/Third_Party/LoRaWAN/Mac/Region/Region.c ****         AS923_CHAN_MASK_SET( );
 676:Middlewares/Third_Party/LoRaWAN/Mac/Region/Region.c ****         AU915_CHAN_MASK_SET( );
 677:Middlewares/Third_Party/LoRaWAN/Mac/Region/Region.c ****         CN470_CHAN_MASK_SET( );
 678:Middlewares/Third_Party/LoRaWAN/Mac/Region/Region.c ****         CN779_CHAN_MASK_SET( );
 679:Middlewares/Third_Party/LoRaWAN/Mac/Region/Region.c ****         EU433_CHAN_MASK_SET( );
 680:Middlewares/Third_Party/LoRaWAN/Mac/Region/Region.c ****         EU868_CHAN_MASK_SET( );
 681:Middlewares/Third_Party/LoRaWAN/Mac/Region/Region.c ****         KR920_CHAN_MASK_SET( );
 682:Middlewares/Third_Party/LoRaWAN/Mac/Region/Region.c ****         IN865_CHAN_MASK_SET( );
ARM GAS  /tmp/cc1L9RAu.s 			page 21


 683:Middlewares/Third_Party/LoRaWAN/Mac/Region/Region.c ****         US915_CHAN_MASK_SET( );
 684:Middlewares/Third_Party/LoRaWAN/Mac/Region/Region.c ****         RU864_CHAN_MASK_SET( );
 685:Middlewares/Third_Party/LoRaWAN/Mac/Region/Region.c ****         default:
 686:Middlewares/Third_Party/LoRaWAN/Mac/Region/Region.c ****         {
 687:Middlewares/Third_Party/LoRaWAN/Mac/Region/Region.c ****             return false;
 688:Middlewares/Third_Party/LoRaWAN/Mac/Region/Region.c ****         }
 689:Middlewares/Third_Party/LoRaWAN/Mac/Region/Region.c ****     }
 690:Middlewares/Third_Party/LoRaWAN/Mac/Region/Region.c **** }
 408              		.loc 1 690 1 is_stmt 0 view .LVU100
 409 0010 08BD     		pop	{r3, pc}
 410              	.LVL43:
 411              	.L34:
 675:Middlewares/Third_Party/LoRaWAN/Mac/Region/Region.c ****         AU915_CHAN_MASK_SET( );
 412              		.loc 1 675 31 is_stmt 1 view .LVU101
 676:Middlewares/Third_Party/LoRaWAN/Mac/Region/Region.c ****         CN470_CHAN_MASK_SET( );
 413              		.loc 1 676 31 view .LVU102
 677:Middlewares/Third_Party/LoRaWAN/Mac/Region/Region.c ****         CN779_CHAN_MASK_SET( );
 414              		.loc 1 677 31 view .LVU103
 678:Middlewares/Third_Party/LoRaWAN/Mac/Region/Region.c ****         EU433_CHAN_MASK_SET( );
 415              		.loc 1 678 31 view .LVU104
 679:Middlewares/Third_Party/LoRaWAN/Mac/Region/Region.c ****         EU868_CHAN_MASK_SET( );
 416              		.loc 1 679 31 view .LVU105
 680:Middlewares/Third_Party/LoRaWAN/Mac/Region/Region.c ****         KR920_CHAN_MASK_SET( );
 417              		.loc 1 680 9 view .LVU106
 418 0012 FFF7FEFF 		bl	RegionEU868ChanMaskSet
 419              	.LVL44:
 680:Middlewares/Third_Party/LoRaWAN/Mac/Region/Region.c ****         KR920_CHAN_MASK_SET( );
 420              		.loc 1 680 9 is_stmt 0 view .LVU107
 421 0016 FBE7     		b	.L36
 422              	.LVL45:
 423              	.L35:
 680:Middlewares/Third_Party/LoRaWAN/Mac/Region/Region.c ****         KR920_CHAN_MASK_SET( );
 424              		.loc 1 680 31 is_stmt 1 view .LVU108
 681:Middlewares/Third_Party/LoRaWAN/Mac/Region/Region.c ****         IN865_CHAN_MASK_SET( );
 425              		.loc 1 681 31 view .LVU109
 682:Middlewares/Third_Party/LoRaWAN/Mac/Region/Region.c ****         US915_CHAN_MASK_SET( );
 426              		.loc 1 682 31 view .LVU110
 683:Middlewares/Third_Party/LoRaWAN/Mac/Region/Region.c ****         RU864_CHAN_MASK_SET( );
 427              		.loc 1 683 9 view .LVU111
 428 0018 FFF7FEFF 		bl	RegionUS915ChanMaskSet
 429              	.LVL46:
 683:Middlewares/Third_Party/LoRaWAN/Mac/Region/Region.c ****         RU864_CHAN_MASK_SET( );
 430              		.loc 1 683 9 is_stmt 0 view .LVU112
 431 001c F8E7     		b	.L36
 432              		.cfi_endproc
 433              	.LFE110:
 435              		.section	.text.RegionComputeRxWindowParameters,"ax",%progbits
 436              		.align	1
 437              		.global	RegionComputeRxWindowParameters
 438              		.syntax unified
 439              		.thumb
 440              		.thumb_func
 441              		.fpu softvfp
 443              	RegionComputeRxWindowParameters:
 444              	.LVL47:
 445              	.LFB111:
 691:Middlewares/Third_Party/LoRaWAN/Mac/Region/Region.c **** 
ARM GAS  /tmp/cc1L9RAu.s 			page 22


 692:Middlewares/Third_Party/LoRaWAN/Mac/Region/Region.c **** void RegionComputeRxWindowParameters( LoRaMacRegion_t region, int8_t datarate, uint8_t minRxSymbols
 693:Middlewares/Third_Party/LoRaWAN/Mac/Region/Region.c **** {
 446              		.loc 1 693 1 is_stmt 1 view -0
 447              		.cfi_startproc
 448              		@ args = 4, pretend = 0, frame = 0
 449              		@ frame_needed = 0, uses_anonymous_args = 0
 450              		.loc 1 693 1 is_stmt 0 view .LVU114
 451 0000 08B5     		push	{r3, lr}
 452              	.LCFI9:
 453              		.cfi_def_cfa_offset 8
 454              		.cfi_offset 3, -8
 455              		.cfi_offset 14, -4
 456 0002 8446     		mov	ip, r0
 457 0004 0846     		mov	r0, r1
 458              	.LVL48:
 459              		.loc 1 693 1 view .LVU115
 460 0006 1146     		mov	r1, r2
 461              	.LVL49:
 462              		.loc 1 693 1 view .LVU116
 463 0008 1A46     		mov	r2, r3
 464              	.LVL50:
 694:Middlewares/Third_Party/LoRaWAN/Mac/Region/Region.c ****     switch( region )
 465              		.loc 1 694 5 is_stmt 1 view .LVU117
 466 000a BCF1050F 		cmp	ip, #5
 467 000e 03D0     		beq	.L39
 468 0010 BCF1080F 		cmp	ip, #8
 469 0014 04D0     		beq	.L40
 470              	.LVL51:
 471              	.L38:
 695:Middlewares/Third_Party/LoRaWAN/Mac/Region/Region.c ****     {
 696:Middlewares/Third_Party/LoRaWAN/Mac/Region/Region.c ****         AS923_COMPUTE_RX_WINDOW_PARAMETERS( );
 697:Middlewares/Third_Party/LoRaWAN/Mac/Region/Region.c ****         AU915_COMPUTE_RX_WINDOW_PARAMETERS( );
 698:Middlewares/Third_Party/LoRaWAN/Mac/Region/Region.c ****         CN470_COMPUTE_RX_WINDOW_PARAMETERS( );
 699:Middlewares/Third_Party/LoRaWAN/Mac/Region/Region.c ****         CN779_COMPUTE_RX_WINDOW_PARAMETERS( );
 700:Middlewares/Third_Party/LoRaWAN/Mac/Region/Region.c ****         EU433_COMPUTE_RX_WINDOW_PARAMETERS( );
 701:Middlewares/Third_Party/LoRaWAN/Mac/Region/Region.c ****         EU868_COMPUTE_RX_WINDOW_PARAMETERS( );
 702:Middlewares/Third_Party/LoRaWAN/Mac/Region/Region.c ****         KR920_COMPUTE_RX_WINDOW_PARAMETERS( );
 703:Middlewares/Third_Party/LoRaWAN/Mac/Region/Region.c ****         IN865_COMPUTE_RX_WINDOW_PARAMETERS( );
 704:Middlewares/Third_Party/LoRaWAN/Mac/Region/Region.c ****         US915_COMPUTE_RX_WINDOW_PARAMETERS( );
 705:Middlewares/Third_Party/LoRaWAN/Mac/Region/Region.c ****         RU864_COMPUTE_RX_WINDOW_PARAMETERS( );
 706:Middlewares/Third_Party/LoRaWAN/Mac/Region/Region.c ****         default:
 707:Middlewares/Third_Party/LoRaWAN/Mac/Region/Region.c ****         {
 708:Middlewares/Third_Party/LoRaWAN/Mac/Region/Region.c ****             break;
 709:Middlewares/Third_Party/LoRaWAN/Mac/Region/Region.c ****         }
 710:Middlewares/Third_Party/LoRaWAN/Mac/Region/Region.c ****     }
 711:Middlewares/Third_Party/LoRaWAN/Mac/Region/Region.c **** }
 472              		.loc 1 711 1 is_stmt 0 view .LVU118
 473 0016 08BD     		pop	{r3, pc}
 474              	.LVL52:
 475              	.L39:
 696:Middlewares/Third_Party/LoRaWAN/Mac/Region/Region.c ****         AU915_COMPUTE_RX_WINDOW_PARAMETERS( );
 476              		.loc 1 696 46 is_stmt 1 view .LVU119
 697:Middlewares/Third_Party/LoRaWAN/Mac/Region/Region.c ****         CN470_COMPUTE_RX_WINDOW_PARAMETERS( );
 477              		.loc 1 697 46 view .LVU120
 698:Middlewares/Third_Party/LoRaWAN/Mac/Region/Region.c ****         CN779_COMPUTE_RX_WINDOW_PARAMETERS( );
 478              		.loc 1 698 46 view .LVU121
 699:Middlewares/Third_Party/LoRaWAN/Mac/Region/Region.c ****         EU433_COMPUTE_RX_WINDOW_PARAMETERS( );
ARM GAS  /tmp/cc1L9RAu.s 			page 23


 479              		.loc 1 699 46 view .LVU122
 700:Middlewares/Third_Party/LoRaWAN/Mac/Region/Region.c ****         EU868_COMPUTE_RX_WINDOW_PARAMETERS( );
 480              		.loc 1 700 46 view .LVU123
 701:Middlewares/Third_Party/LoRaWAN/Mac/Region/Region.c ****         KR920_COMPUTE_RX_WINDOW_PARAMETERS( );
 481              		.loc 1 701 9 view .LVU124
 482 0018 029B     		ldr	r3, [sp, #8]
 483 001a FFF7FEFF 		bl	RegionEU868ComputeRxWindowParameters
 484              	.LVL53:
 701:Middlewares/Third_Party/LoRaWAN/Mac/Region/Region.c ****         KR920_COMPUTE_RX_WINDOW_PARAMETERS( );
 485              		.loc 1 701 9 view .LVU125
 486 001e FAE7     		b	.L38
 487              	.LVL54:
 488              	.L40:
 701:Middlewares/Third_Party/LoRaWAN/Mac/Region/Region.c ****         KR920_COMPUTE_RX_WINDOW_PARAMETERS( );
 489              		.loc 1 701 46 view .LVU126
 702:Middlewares/Third_Party/LoRaWAN/Mac/Region/Region.c ****         IN865_COMPUTE_RX_WINDOW_PARAMETERS( );
 490              		.loc 1 702 46 view .LVU127
 703:Middlewares/Third_Party/LoRaWAN/Mac/Region/Region.c ****         US915_COMPUTE_RX_WINDOW_PARAMETERS( );
 491              		.loc 1 703 46 view .LVU128
 704:Middlewares/Third_Party/LoRaWAN/Mac/Region/Region.c ****         RU864_COMPUTE_RX_WINDOW_PARAMETERS( );
 492              		.loc 1 704 9 view .LVU129
 493 0020 029B     		ldr	r3, [sp, #8]
 494 0022 FFF7FEFF 		bl	RegionUS915ComputeRxWindowParameters
 495              	.LVL55:
 704:Middlewares/Third_Party/LoRaWAN/Mac/Region/Region.c ****         RU864_COMPUTE_RX_WINDOW_PARAMETERS( );
 496              		.loc 1 704 9 view .LVU130
 497              		.loc 1 711 1 is_stmt 0 view .LVU131
 498 0026 F6E7     		b	.L38
 499              		.cfi_endproc
 500              	.LFE111:
 502              		.section	.text.RegionRxConfig,"ax",%progbits
 503              		.align	1
 504              		.global	RegionRxConfig
 505              		.syntax unified
 506              		.thumb
 507              		.thumb_func
 508              		.fpu softvfp
 510              	RegionRxConfig:
 511              	.LVL56:
 512              	.LFB112:
 712:Middlewares/Third_Party/LoRaWAN/Mac/Region/Region.c **** 
 713:Middlewares/Third_Party/LoRaWAN/Mac/Region/Region.c **** bool RegionRxConfig( LoRaMacRegion_t region, RxConfigParams_t* rxConfig, int8_t* datarate )
 714:Middlewares/Third_Party/LoRaWAN/Mac/Region/Region.c **** {
 513              		.loc 1 714 1 is_stmt 1 view -0
 514              		.cfi_startproc
 515              		@ args = 0, pretend = 0, frame = 0
 516              		@ frame_needed = 0, uses_anonymous_args = 0
 517              		.loc 1 714 1 is_stmt 0 view .LVU133
 518 0000 08B5     		push	{r3, lr}
 519              	.LCFI10:
 520              		.cfi_def_cfa_offset 8
 521              		.cfi_offset 3, -8
 522              		.cfi_offset 14, -4
 523 0002 0346     		mov	r3, r0
 524 0004 0846     		mov	r0, r1
 525              	.LVL57:
 526              		.loc 1 714 1 view .LVU134
ARM GAS  /tmp/cc1L9RAu.s 			page 24


 527 0006 1146     		mov	r1, r2
 528              	.LVL58:
 715:Middlewares/Third_Party/LoRaWAN/Mac/Region/Region.c ****     switch( region )
 529              		.loc 1 715 5 is_stmt 1 view .LVU135
 530 0008 052B     		cmp	r3, #5
 531 000a 03D0     		beq	.L44
 532 000c 082B     		cmp	r3, #8
 533 000e 04D0     		beq	.L45
 534 0010 0020     		movs	r0, #0
 535              	.LVL59:
 536              	.L46:
 716:Middlewares/Third_Party/LoRaWAN/Mac/Region/Region.c ****     {
 717:Middlewares/Third_Party/LoRaWAN/Mac/Region/Region.c ****         AS923_RX_CONFIG( );
 718:Middlewares/Third_Party/LoRaWAN/Mac/Region/Region.c ****         AU915_RX_CONFIG( );
 719:Middlewares/Third_Party/LoRaWAN/Mac/Region/Region.c ****         CN470_RX_CONFIG( );
 720:Middlewares/Third_Party/LoRaWAN/Mac/Region/Region.c ****         CN779_RX_CONFIG( );
 721:Middlewares/Third_Party/LoRaWAN/Mac/Region/Region.c ****         EU433_RX_CONFIG( );
 722:Middlewares/Third_Party/LoRaWAN/Mac/Region/Region.c ****         EU868_RX_CONFIG( );
 723:Middlewares/Third_Party/LoRaWAN/Mac/Region/Region.c ****         KR920_RX_CONFIG( );
 724:Middlewares/Third_Party/LoRaWAN/Mac/Region/Region.c ****         IN865_RX_CONFIG( );
 725:Middlewares/Third_Party/LoRaWAN/Mac/Region/Region.c ****         US915_RX_CONFIG( );
 726:Middlewares/Third_Party/LoRaWAN/Mac/Region/Region.c ****         RU864_RX_CONFIG( );
 727:Middlewares/Third_Party/LoRaWAN/Mac/Region/Region.c ****         default:
 728:Middlewares/Third_Party/LoRaWAN/Mac/Region/Region.c ****         {
 729:Middlewares/Third_Party/LoRaWAN/Mac/Region/Region.c ****             return false;
 730:Middlewares/Third_Party/LoRaWAN/Mac/Region/Region.c ****         }
 731:Middlewares/Third_Party/LoRaWAN/Mac/Region/Region.c ****     }
 732:Middlewares/Third_Party/LoRaWAN/Mac/Region/Region.c **** }
 537              		.loc 1 732 1 is_stmt 0 view .LVU136
 538 0012 08BD     		pop	{r3, pc}
 539              	.LVL60:
 540              	.L44:
 717:Middlewares/Third_Party/LoRaWAN/Mac/Region/Region.c ****         AU915_RX_CONFIG( );
 541              		.loc 1 717 27 is_stmt 1 view .LVU137
 718:Middlewares/Third_Party/LoRaWAN/Mac/Region/Region.c ****         CN470_RX_CONFIG( );
 542              		.loc 1 718 27 view .LVU138
 719:Middlewares/Third_Party/LoRaWAN/Mac/Region/Region.c ****         CN779_RX_CONFIG( );
 543              		.loc 1 719 27 view .LVU139
 720:Middlewares/Third_Party/LoRaWAN/Mac/Region/Region.c ****         EU433_RX_CONFIG( );
 544              		.loc 1 720 27 view .LVU140
 721:Middlewares/Third_Party/LoRaWAN/Mac/Region/Region.c ****         EU868_RX_CONFIG( );
 545              		.loc 1 721 27 view .LVU141
 722:Middlewares/Third_Party/LoRaWAN/Mac/Region/Region.c ****         KR920_RX_CONFIG( );
 546              		.loc 1 722 9 view .LVU142
 547 0014 FFF7FEFF 		bl	RegionEU868RxConfig
 548              	.LVL61:
 722:Middlewares/Third_Party/LoRaWAN/Mac/Region/Region.c ****         KR920_RX_CONFIG( );
 549              		.loc 1 722 9 is_stmt 0 view .LVU143
 550 0018 FBE7     		b	.L46
 551              	.LVL62:
 552              	.L45:
 722:Middlewares/Third_Party/LoRaWAN/Mac/Region/Region.c ****         KR920_RX_CONFIG( );
 553              		.loc 1 722 27 is_stmt 1 view .LVU144
 723:Middlewares/Third_Party/LoRaWAN/Mac/Region/Region.c ****         IN865_RX_CONFIG( );
 554              		.loc 1 723 27 view .LVU145
 724:Middlewares/Third_Party/LoRaWAN/Mac/Region/Region.c ****         US915_RX_CONFIG( );
 555              		.loc 1 724 27 view .LVU146
ARM GAS  /tmp/cc1L9RAu.s 			page 25


 725:Middlewares/Third_Party/LoRaWAN/Mac/Region/Region.c ****         RU864_RX_CONFIG( );
 556              		.loc 1 725 9 view .LVU147
 557 001a FFF7FEFF 		bl	RegionUS915RxConfig
 558              	.LVL63:
 725:Middlewares/Third_Party/LoRaWAN/Mac/Region/Region.c ****         RU864_RX_CONFIG( );
 559              		.loc 1 725 9 is_stmt 0 view .LVU148
 560 001e F8E7     		b	.L46
 561              		.cfi_endproc
 562              	.LFE112:
 564              		.section	.text.RegionTxConfig,"ax",%progbits
 565              		.align	1
 566              		.global	RegionTxConfig
 567              		.syntax unified
 568              		.thumb
 569              		.thumb_func
 570              		.fpu softvfp
 572              	RegionTxConfig:
 573              	.LVL64:
 574              	.LFB113:
 733:Middlewares/Third_Party/LoRaWAN/Mac/Region/Region.c **** 
 734:Middlewares/Third_Party/LoRaWAN/Mac/Region/Region.c **** bool RegionTxConfig( LoRaMacRegion_t region, TxConfigParams_t* txConfig, int8_t* txPower, TimerTime
 735:Middlewares/Third_Party/LoRaWAN/Mac/Region/Region.c **** {
 575              		.loc 1 735 1 is_stmt 1 view -0
 576              		.cfi_startproc
 577              		@ args = 0, pretend = 0, frame = 0
 578              		@ frame_needed = 0, uses_anonymous_args = 0
 579              		.loc 1 735 1 is_stmt 0 view .LVU150
 580 0000 08B5     		push	{r3, lr}
 581              	.LCFI11:
 582              		.cfi_def_cfa_offset 8
 583              		.cfi_offset 3, -8
 584              		.cfi_offset 14, -4
 585 0002 8446     		mov	ip, r0
 586 0004 0846     		mov	r0, r1
 587              	.LVL65:
 588              		.loc 1 735 1 view .LVU151
 589 0006 1146     		mov	r1, r2
 590              	.LVL66:
 591              		.loc 1 735 1 view .LVU152
 592 0008 1A46     		mov	r2, r3
 593              	.LVL67:
 736:Middlewares/Third_Party/LoRaWAN/Mac/Region/Region.c ****     switch( region )
 594              		.loc 1 736 5 is_stmt 1 view .LVU153
 595 000a BCF1050F 		cmp	ip, #5
 596 000e 04D0     		beq	.L49
 597 0010 BCF1080F 		cmp	ip, #8
 598 0014 04D0     		beq	.L50
 599 0016 0020     		movs	r0, #0
 600              	.LVL68:
 601              	.L51:
 737:Middlewares/Third_Party/LoRaWAN/Mac/Region/Region.c ****     {
 738:Middlewares/Third_Party/LoRaWAN/Mac/Region/Region.c ****         AS923_TX_CONFIG( );
 739:Middlewares/Third_Party/LoRaWAN/Mac/Region/Region.c ****         AU915_TX_CONFIG( );
 740:Middlewares/Third_Party/LoRaWAN/Mac/Region/Region.c ****         CN470_TX_CONFIG( );
 741:Middlewares/Third_Party/LoRaWAN/Mac/Region/Region.c ****         CN779_TX_CONFIG( );
 742:Middlewares/Third_Party/LoRaWAN/Mac/Region/Region.c ****         EU433_TX_CONFIG( );
 743:Middlewares/Third_Party/LoRaWAN/Mac/Region/Region.c ****         EU868_TX_CONFIG( );
ARM GAS  /tmp/cc1L9RAu.s 			page 26


 744:Middlewares/Third_Party/LoRaWAN/Mac/Region/Region.c ****         KR920_TX_CONFIG( );
 745:Middlewares/Third_Party/LoRaWAN/Mac/Region/Region.c ****         IN865_TX_CONFIG( );
 746:Middlewares/Third_Party/LoRaWAN/Mac/Region/Region.c ****         US915_TX_CONFIG( );
 747:Middlewares/Third_Party/LoRaWAN/Mac/Region/Region.c ****         RU864_TX_CONFIG( );
 748:Middlewares/Third_Party/LoRaWAN/Mac/Region/Region.c ****         default:
 749:Middlewares/Third_Party/LoRaWAN/Mac/Region/Region.c ****         {
 750:Middlewares/Third_Party/LoRaWAN/Mac/Region/Region.c ****             return false;
 751:Middlewares/Third_Party/LoRaWAN/Mac/Region/Region.c ****         }
 752:Middlewares/Third_Party/LoRaWAN/Mac/Region/Region.c ****     }
 753:Middlewares/Third_Party/LoRaWAN/Mac/Region/Region.c **** }
 602              		.loc 1 753 1 is_stmt 0 view .LVU154
 603 0018 08BD     		pop	{r3, pc}
 604              	.LVL69:
 605              	.L49:
 738:Middlewares/Third_Party/LoRaWAN/Mac/Region/Region.c ****         AU915_TX_CONFIG( );
 606              		.loc 1 738 27 is_stmt 1 view .LVU155
 739:Middlewares/Third_Party/LoRaWAN/Mac/Region/Region.c ****         CN470_TX_CONFIG( );
 607              		.loc 1 739 27 view .LVU156
 740:Middlewares/Third_Party/LoRaWAN/Mac/Region/Region.c ****         CN779_TX_CONFIG( );
 608              		.loc 1 740 27 view .LVU157
 741:Middlewares/Third_Party/LoRaWAN/Mac/Region/Region.c ****         EU433_TX_CONFIG( );
 609              		.loc 1 741 27 view .LVU158
 742:Middlewares/Third_Party/LoRaWAN/Mac/Region/Region.c ****         EU868_TX_CONFIG( );
 610              		.loc 1 742 27 view .LVU159
 743:Middlewares/Third_Party/LoRaWAN/Mac/Region/Region.c ****         KR920_TX_CONFIG( );
 611              		.loc 1 743 9 view .LVU160
 612 001a FFF7FEFF 		bl	RegionEU868TxConfig
 613              	.LVL70:
 743:Middlewares/Third_Party/LoRaWAN/Mac/Region/Region.c ****         KR920_TX_CONFIG( );
 614              		.loc 1 743 9 is_stmt 0 view .LVU161
 615 001e FBE7     		b	.L51
 616              	.LVL71:
 617              	.L50:
 743:Middlewares/Third_Party/LoRaWAN/Mac/Region/Region.c ****         KR920_TX_CONFIG( );
 618              		.loc 1 743 27 is_stmt 1 view .LVU162
 744:Middlewares/Third_Party/LoRaWAN/Mac/Region/Region.c ****         IN865_TX_CONFIG( );
 619              		.loc 1 744 27 view .LVU163
 745:Middlewares/Third_Party/LoRaWAN/Mac/Region/Region.c ****         US915_TX_CONFIG( );
 620              		.loc 1 745 27 view .LVU164
 746:Middlewares/Third_Party/LoRaWAN/Mac/Region/Region.c ****         RU864_TX_CONFIG( );
 621              		.loc 1 746 9 view .LVU165
 622 0020 FFF7FEFF 		bl	RegionUS915TxConfig
 623              	.LVL72:
 746:Middlewares/Third_Party/LoRaWAN/Mac/Region/Region.c ****         RU864_TX_CONFIG( );
 624              		.loc 1 746 9 is_stmt 0 view .LVU166
 625 0024 F8E7     		b	.L51
 626              		.cfi_endproc
 627              	.LFE113:
 629              		.section	.text.RegionLinkAdrReq,"ax",%progbits
 630              		.align	1
 631              		.global	RegionLinkAdrReq
 632              		.syntax unified
 633              		.thumb
 634              		.thumb_func
 635              		.fpu softvfp
 637              	RegionLinkAdrReq:
 638              	.LVL73:
ARM GAS  /tmp/cc1L9RAu.s 			page 27


 639              	.LFB114:
 754:Middlewares/Third_Party/LoRaWAN/Mac/Region/Region.c **** 
 755:Middlewares/Third_Party/LoRaWAN/Mac/Region/Region.c **** uint8_t RegionLinkAdrReq( LoRaMacRegion_t region, LinkAdrReqParams_t* linkAdrReq, int8_t* drOut, in
 756:Middlewares/Third_Party/LoRaWAN/Mac/Region/Region.c **** {
 640              		.loc 1 756 1 is_stmt 1 view -0
 641              		.cfi_startproc
 642              		@ args = 8, pretend = 0, frame = 0
 643              		@ frame_needed = 0, uses_anonymous_args = 0
 644              		.loc 1 756 1 is_stmt 0 view .LVU168
 645 0000 00B5     		push	{lr}
 646              	.LCFI12:
 647              		.cfi_def_cfa_offset 4
 648              		.cfi_offset 14, -4
 649 0002 83B0     		sub	sp, sp, #12
 650              	.LCFI13:
 651              		.cfi_def_cfa_offset 16
 652 0004 8446     		mov	ip, r0
 653 0006 0846     		mov	r0, r1
 654              	.LVL74:
 655              		.loc 1 756 1 view .LVU169
 656 0008 1146     		mov	r1, r2
 657              	.LVL75:
 658              		.loc 1 756 1 view .LVU170
 659 000a 1A46     		mov	r2, r3
 660              	.LVL76:
 757:Middlewares/Third_Party/LoRaWAN/Mac/Region/Region.c ****     switch( region )
 661              		.loc 1 757 5 is_stmt 1 view .LVU171
 662 000c BCF1050F 		cmp	ip, #5
 663 0010 06D0     		beq	.L54
 664 0012 BCF1080F 		cmp	ip, #8
 665 0016 09D0     		beq	.L55
 666 0018 0020     		movs	r0, #0
 667              	.LVL77:
 668              	.L56:
 758:Middlewares/Third_Party/LoRaWAN/Mac/Region/Region.c ****     {
 759:Middlewares/Third_Party/LoRaWAN/Mac/Region/Region.c ****         AS923_LINK_ADR_REQ( );
 760:Middlewares/Third_Party/LoRaWAN/Mac/Region/Region.c ****         AU915_LINK_ADR_REQ( );
 761:Middlewares/Third_Party/LoRaWAN/Mac/Region/Region.c ****         CN470_LINK_ADR_REQ( );
 762:Middlewares/Third_Party/LoRaWAN/Mac/Region/Region.c ****         CN779_LINK_ADR_REQ( );
 763:Middlewares/Third_Party/LoRaWAN/Mac/Region/Region.c ****         EU433_LINK_ADR_REQ( );
 764:Middlewares/Third_Party/LoRaWAN/Mac/Region/Region.c ****         EU868_LINK_ADR_REQ( );
 765:Middlewares/Third_Party/LoRaWAN/Mac/Region/Region.c ****         KR920_LINK_ADR_REQ( );
 766:Middlewares/Third_Party/LoRaWAN/Mac/Region/Region.c ****         IN865_LINK_ADR_REQ( );
 767:Middlewares/Third_Party/LoRaWAN/Mac/Region/Region.c ****         US915_LINK_ADR_REQ( );
 768:Middlewares/Third_Party/LoRaWAN/Mac/Region/Region.c ****         RU864_LINK_ADR_REQ( );
 769:Middlewares/Third_Party/LoRaWAN/Mac/Region/Region.c ****         default:
 770:Middlewares/Third_Party/LoRaWAN/Mac/Region/Region.c ****         {
 771:Middlewares/Third_Party/LoRaWAN/Mac/Region/Region.c ****             return 0;
 772:Middlewares/Third_Party/LoRaWAN/Mac/Region/Region.c ****         }
 773:Middlewares/Third_Party/LoRaWAN/Mac/Region/Region.c ****     }
 774:Middlewares/Third_Party/LoRaWAN/Mac/Region/Region.c **** }
 669              		.loc 1 774 1 is_stmt 0 view .LVU172
 670 001a 03B0     		add	sp, sp, #12
 671              	.LCFI14:
 672              		.cfi_remember_state
 673              		.cfi_def_cfa_offset 4
 674              		@ sp needed
ARM GAS  /tmp/cc1L9RAu.s 			page 28


 675 001c 5DF804FB 		ldr	pc, [sp], #4
 676              	.LVL78:
 677              	.L54:
 678              	.LCFI15:
 679              		.cfi_restore_state
 759:Middlewares/Third_Party/LoRaWAN/Mac/Region/Region.c ****         AU915_LINK_ADR_REQ( );
 680              		.loc 1 759 30 is_stmt 1 view .LVU173
 760:Middlewares/Third_Party/LoRaWAN/Mac/Region/Region.c ****         CN470_LINK_ADR_REQ( );
 681              		.loc 1 760 30 view .LVU174
 761:Middlewares/Third_Party/LoRaWAN/Mac/Region/Region.c ****         CN779_LINK_ADR_REQ( );
 682              		.loc 1 761 30 view .LVU175
 762:Middlewares/Third_Party/LoRaWAN/Mac/Region/Region.c ****         EU433_LINK_ADR_REQ( );
 683              		.loc 1 762 30 view .LVU176
 763:Middlewares/Third_Party/LoRaWAN/Mac/Region/Region.c ****         EU868_LINK_ADR_REQ( );
 684              		.loc 1 763 30 view .LVU177
 764:Middlewares/Third_Party/LoRaWAN/Mac/Region/Region.c ****         KR920_LINK_ADR_REQ( );
 685              		.loc 1 764 9 view .LVU178
 686 0020 059B     		ldr	r3, [sp, #20]
 687 0022 0093     		str	r3, [sp]
 688 0024 049B     		ldr	r3, [sp, #16]
 689 0026 FFF7FEFF 		bl	RegionEU868LinkAdrReq
 690              	.LVL79:
 764:Middlewares/Third_Party/LoRaWAN/Mac/Region/Region.c ****         KR920_LINK_ADR_REQ( );
 691              		.loc 1 764 9 is_stmt 0 view .LVU179
 692 002a F6E7     		b	.L56
 693              	.LVL80:
 694              	.L55:
 764:Middlewares/Third_Party/LoRaWAN/Mac/Region/Region.c ****         KR920_LINK_ADR_REQ( );
 695              		.loc 1 764 30 is_stmt 1 view .LVU180
 765:Middlewares/Third_Party/LoRaWAN/Mac/Region/Region.c ****         IN865_LINK_ADR_REQ( );
 696              		.loc 1 765 30 view .LVU181
 766:Middlewares/Third_Party/LoRaWAN/Mac/Region/Region.c ****         US915_LINK_ADR_REQ( );
 697              		.loc 1 766 30 view .LVU182
 767:Middlewares/Third_Party/LoRaWAN/Mac/Region/Region.c ****         RU864_LINK_ADR_REQ( );
 698              		.loc 1 767 9 view .LVU183
 699 002c 059B     		ldr	r3, [sp, #20]
 700 002e 0093     		str	r3, [sp]
 701 0030 049B     		ldr	r3, [sp, #16]
 702 0032 FFF7FEFF 		bl	RegionUS915LinkAdrReq
 703              	.LVL81:
 767:Middlewares/Third_Party/LoRaWAN/Mac/Region/Region.c ****         RU864_LINK_ADR_REQ( );
 704              		.loc 1 767 9 is_stmt 0 view .LVU184
 705 0036 F0E7     		b	.L56
 706              		.cfi_endproc
 707              	.LFE114:
 709              		.section	.text.RegionRxParamSetupReq,"ax",%progbits
 710              		.align	1
 711              		.global	RegionRxParamSetupReq
 712              		.syntax unified
 713              		.thumb
 714              		.thumb_func
 715              		.fpu softvfp
 717              	RegionRxParamSetupReq:
 718              	.LVL82:
 719              	.LFB115:
 775:Middlewares/Third_Party/LoRaWAN/Mac/Region/Region.c **** 
 776:Middlewares/Third_Party/LoRaWAN/Mac/Region/Region.c **** uint8_t RegionRxParamSetupReq( LoRaMacRegion_t region, RxParamSetupReqParams_t* rxParamSetupReq )
ARM GAS  /tmp/cc1L9RAu.s 			page 29


 777:Middlewares/Third_Party/LoRaWAN/Mac/Region/Region.c **** {
 720              		.loc 1 777 1 is_stmt 1 view -0
 721              		.cfi_startproc
 722              		@ args = 0, pretend = 0, frame = 0
 723              		@ frame_needed = 0, uses_anonymous_args = 0
 724              		.loc 1 777 1 is_stmt 0 view .LVU186
 725 0000 08B5     		push	{r3, lr}
 726              	.LCFI16:
 727              		.cfi_def_cfa_offset 8
 728              		.cfi_offset 3, -8
 729              		.cfi_offset 14, -4
 730 0002 0346     		mov	r3, r0
 731 0004 0846     		mov	r0, r1
 732              	.LVL83:
 778:Middlewares/Third_Party/LoRaWAN/Mac/Region/Region.c ****     switch( region )
 733              		.loc 1 778 5 is_stmt 1 view .LVU187
 734 0006 052B     		cmp	r3, #5
 735 0008 03D0     		beq	.L59
 736 000a 082B     		cmp	r3, #8
 737 000c 04D0     		beq	.L60
 738 000e 0020     		movs	r0, #0
 739              	.LVL84:
 740              	.L61:
 779:Middlewares/Third_Party/LoRaWAN/Mac/Region/Region.c ****     {
 780:Middlewares/Third_Party/LoRaWAN/Mac/Region/Region.c ****         AS923_RX_PARAM_SETUP_REQ( );
 781:Middlewares/Third_Party/LoRaWAN/Mac/Region/Region.c ****         AU915_RX_PARAM_SETUP_REQ( );
 782:Middlewares/Third_Party/LoRaWAN/Mac/Region/Region.c ****         CN470_RX_PARAM_SETUP_REQ( );
 783:Middlewares/Third_Party/LoRaWAN/Mac/Region/Region.c ****         CN779_RX_PARAM_SETUP_REQ( );
 784:Middlewares/Third_Party/LoRaWAN/Mac/Region/Region.c ****         EU433_RX_PARAM_SETUP_REQ( );
 785:Middlewares/Third_Party/LoRaWAN/Mac/Region/Region.c ****         EU868_RX_PARAM_SETUP_REQ( );
 786:Middlewares/Third_Party/LoRaWAN/Mac/Region/Region.c ****         KR920_RX_PARAM_SETUP_REQ( );
 787:Middlewares/Third_Party/LoRaWAN/Mac/Region/Region.c ****         IN865_RX_PARAM_SETUP_REQ( );
 788:Middlewares/Third_Party/LoRaWAN/Mac/Region/Region.c ****         US915_RX_PARAM_SETUP_REQ( );
 789:Middlewares/Third_Party/LoRaWAN/Mac/Region/Region.c ****         RU864_RX_PARAM_SETUP_REQ( );
 790:Middlewares/Third_Party/LoRaWAN/Mac/Region/Region.c ****         default:
 791:Middlewares/Third_Party/LoRaWAN/Mac/Region/Region.c ****         {
 792:Middlewares/Third_Party/LoRaWAN/Mac/Region/Region.c ****             return 0;
 793:Middlewares/Third_Party/LoRaWAN/Mac/Region/Region.c ****         }
 794:Middlewares/Third_Party/LoRaWAN/Mac/Region/Region.c ****     }
 795:Middlewares/Third_Party/LoRaWAN/Mac/Region/Region.c **** }
 741              		.loc 1 795 1 is_stmt 0 view .LVU188
 742 0010 08BD     		pop	{r3, pc}
 743              	.LVL85:
 744              	.L59:
 780:Middlewares/Third_Party/LoRaWAN/Mac/Region/Region.c ****         AU915_RX_PARAM_SETUP_REQ( );
 745              		.loc 1 780 36 is_stmt 1 view .LVU189
 781:Middlewares/Third_Party/LoRaWAN/Mac/Region/Region.c ****         CN470_RX_PARAM_SETUP_REQ( );
 746              		.loc 1 781 36 view .LVU190
 782:Middlewares/Third_Party/LoRaWAN/Mac/Region/Region.c ****         CN779_RX_PARAM_SETUP_REQ( );
 747              		.loc 1 782 36 view .LVU191
 783:Middlewares/Third_Party/LoRaWAN/Mac/Region/Region.c ****         EU433_RX_PARAM_SETUP_REQ( );
 748              		.loc 1 783 36 view .LVU192
 784:Middlewares/Third_Party/LoRaWAN/Mac/Region/Region.c ****         EU868_RX_PARAM_SETUP_REQ( );
 749              		.loc 1 784 36 view .LVU193
 785:Middlewares/Third_Party/LoRaWAN/Mac/Region/Region.c ****         KR920_RX_PARAM_SETUP_REQ( );
 750              		.loc 1 785 9 view .LVU194
 751 0012 FFF7FEFF 		bl	RegionEU868RxParamSetupReq
ARM GAS  /tmp/cc1L9RAu.s 			page 30


 752              	.LVL86:
 785:Middlewares/Third_Party/LoRaWAN/Mac/Region/Region.c ****         KR920_RX_PARAM_SETUP_REQ( );
 753              		.loc 1 785 9 is_stmt 0 view .LVU195
 754 0016 FBE7     		b	.L61
 755              	.LVL87:
 756              	.L60:
 785:Middlewares/Third_Party/LoRaWAN/Mac/Region/Region.c ****         KR920_RX_PARAM_SETUP_REQ( );
 757              		.loc 1 785 36 is_stmt 1 view .LVU196
 786:Middlewares/Third_Party/LoRaWAN/Mac/Region/Region.c ****         IN865_RX_PARAM_SETUP_REQ( );
 758              		.loc 1 786 36 view .LVU197
 787:Middlewares/Third_Party/LoRaWAN/Mac/Region/Region.c ****         US915_RX_PARAM_SETUP_REQ( );
 759              		.loc 1 787 36 view .LVU198
 788:Middlewares/Third_Party/LoRaWAN/Mac/Region/Region.c ****         RU864_RX_PARAM_SETUP_REQ( );
 760              		.loc 1 788 9 view .LVU199
 761 0018 FFF7FEFF 		bl	RegionUS915RxParamSetupReq
 762              	.LVL88:
 788:Middlewares/Third_Party/LoRaWAN/Mac/Region/Region.c ****         RU864_RX_PARAM_SETUP_REQ( );
 763              		.loc 1 788 9 is_stmt 0 view .LVU200
 764 001c F8E7     		b	.L61
 765              		.cfi_endproc
 766              	.LFE115:
 768              		.section	.text.RegionNewChannelReq,"ax",%progbits
 769              		.align	1
 770              		.global	RegionNewChannelReq
 771              		.syntax unified
 772              		.thumb
 773              		.thumb_func
 774              		.fpu softvfp
 776              	RegionNewChannelReq:
 777              	.LVL89:
 778              	.LFB116:
 796:Middlewares/Third_Party/LoRaWAN/Mac/Region/Region.c **** 
 797:Middlewares/Third_Party/LoRaWAN/Mac/Region/Region.c **** int8_t RegionNewChannelReq( LoRaMacRegion_t region, NewChannelReqParams_t* newChannelReq )
 798:Middlewares/Third_Party/LoRaWAN/Mac/Region/Region.c **** {
 779              		.loc 1 798 1 is_stmt 1 view -0
 780              		.cfi_startproc
 781              		@ args = 0, pretend = 0, frame = 0
 782              		@ frame_needed = 0, uses_anonymous_args = 0
 783              		.loc 1 798 1 is_stmt 0 view .LVU202
 784 0000 08B5     		push	{r3, lr}
 785              	.LCFI17:
 786              		.cfi_def_cfa_offset 8
 787              		.cfi_offset 3, -8
 788              		.cfi_offset 14, -4
 789 0002 0346     		mov	r3, r0
 790 0004 0846     		mov	r0, r1
 791              	.LVL90:
 799:Middlewares/Third_Party/LoRaWAN/Mac/Region/Region.c ****     switch( region )
 792              		.loc 1 799 5 is_stmt 1 view .LVU203
 793 0006 052B     		cmp	r3, #5
 794 0008 03D0     		beq	.L64
 795 000a 082B     		cmp	r3, #8
 796 000c 04D0     		beq	.L65
 797 000e 0020     		movs	r0, #0
 798              	.LVL91:
 799              	.L66:
 800:Middlewares/Third_Party/LoRaWAN/Mac/Region/Region.c ****     {
ARM GAS  /tmp/cc1L9RAu.s 			page 31


 801:Middlewares/Third_Party/LoRaWAN/Mac/Region/Region.c ****         AS923_NEW_CHANNEL_REQ( );
 802:Middlewares/Third_Party/LoRaWAN/Mac/Region/Region.c ****         AU915_NEW_CHANNEL_REQ( );
 803:Middlewares/Third_Party/LoRaWAN/Mac/Region/Region.c ****         CN470_NEW_CHANNEL_REQ( );
 804:Middlewares/Third_Party/LoRaWAN/Mac/Region/Region.c ****         CN779_NEW_CHANNEL_REQ( );
 805:Middlewares/Third_Party/LoRaWAN/Mac/Region/Region.c ****         EU433_NEW_CHANNEL_REQ( );
 806:Middlewares/Third_Party/LoRaWAN/Mac/Region/Region.c ****         EU868_NEW_CHANNEL_REQ( );
 807:Middlewares/Third_Party/LoRaWAN/Mac/Region/Region.c ****         KR920_NEW_CHANNEL_REQ( );
 808:Middlewares/Third_Party/LoRaWAN/Mac/Region/Region.c ****         IN865_NEW_CHANNEL_REQ( );
 809:Middlewares/Third_Party/LoRaWAN/Mac/Region/Region.c ****         US915_NEW_CHANNEL_REQ( );
 810:Middlewares/Third_Party/LoRaWAN/Mac/Region/Region.c ****         RU864_NEW_CHANNEL_REQ( );
 811:Middlewares/Third_Party/LoRaWAN/Mac/Region/Region.c ****         default:
 812:Middlewares/Third_Party/LoRaWAN/Mac/Region/Region.c ****         {
 813:Middlewares/Third_Party/LoRaWAN/Mac/Region/Region.c ****             return 0;
 814:Middlewares/Third_Party/LoRaWAN/Mac/Region/Region.c ****         }
 815:Middlewares/Third_Party/LoRaWAN/Mac/Region/Region.c ****     }
 816:Middlewares/Third_Party/LoRaWAN/Mac/Region/Region.c **** }
 800              		.loc 1 816 1 is_stmt 0 view .LVU204
 801 0010 08BD     		pop	{r3, pc}
 802              	.LVL92:
 803              	.L64:
 801:Middlewares/Third_Party/LoRaWAN/Mac/Region/Region.c ****         AU915_NEW_CHANNEL_REQ( );
 804              		.loc 1 801 33 is_stmt 1 view .LVU205
 802:Middlewares/Third_Party/LoRaWAN/Mac/Region/Region.c ****         CN470_NEW_CHANNEL_REQ( );
 805              		.loc 1 802 33 view .LVU206
 803:Middlewares/Third_Party/LoRaWAN/Mac/Region/Region.c ****         CN779_NEW_CHANNEL_REQ( );
 806              		.loc 1 803 33 view .LVU207
 804:Middlewares/Third_Party/LoRaWAN/Mac/Region/Region.c ****         EU433_NEW_CHANNEL_REQ( );
 807              		.loc 1 804 33 view .LVU208
 805:Middlewares/Third_Party/LoRaWAN/Mac/Region/Region.c ****         EU868_NEW_CHANNEL_REQ( );
 808              		.loc 1 805 33 view .LVU209
 806:Middlewares/Third_Party/LoRaWAN/Mac/Region/Region.c ****         KR920_NEW_CHANNEL_REQ( );
 809              		.loc 1 806 9 view .LVU210
 810 0012 FFF7FEFF 		bl	RegionEU868NewChannelReq
 811              	.LVL93:
 806:Middlewares/Third_Party/LoRaWAN/Mac/Region/Region.c ****         KR920_NEW_CHANNEL_REQ( );
 812              		.loc 1 806 9 is_stmt 0 view .LVU211
 813 0016 FBE7     		b	.L66
 814              	.LVL94:
 815              	.L65:
 806:Middlewares/Third_Party/LoRaWAN/Mac/Region/Region.c ****         KR920_NEW_CHANNEL_REQ( );
 816              		.loc 1 806 33 is_stmt 1 view .LVU212
 807:Middlewares/Third_Party/LoRaWAN/Mac/Region/Region.c ****         IN865_NEW_CHANNEL_REQ( );
 817              		.loc 1 807 33 view .LVU213
 808:Middlewares/Third_Party/LoRaWAN/Mac/Region/Region.c ****         US915_NEW_CHANNEL_REQ( );
 818              		.loc 1 808 33 view .LVU214
 809:Middlewares/Third_Party/LoRaWAN/Mac/Region/Region.c ****         RU864_NEW_CHANNEL_REQ( );
 819              		.loc 1 809 9 view .LVU215
 820 0018 FFF7FEFF 		bl	RegionUS915NewChannelReq
 821              	.LVL95:
 809:Middlewares/Third_Party/LoRaWAN/Mac/Region/Region.c ****         RU864_NEW_CHANNEL_REQ( );
 822              		.loc 1 809 9 is_stmt 0 view .LVU216
 823 001c F8E7     		b	.L66
 824              		.cfi_endproc
 825              	.LFE116:
 827              		.section	.text.RegionTxParamSetupReq,"ax",%progbits
 828              		.align	1
 829              		.global	RegionTxParamSetupReq
ARM GAS  /tmp/cc1L9RAu.s 			page 32


 830              		.syntax unified
 831              		.thumb
 832              		.thumb_func
 833              		.fpu softvfp
 835              	RegionTxParamSetupReq:
 836              	.LVL96:
 837              	.LFB117:
 817:Middlewares/Third_Party/LoRaWAN/Mac/Region/Region.c **** 
 818:Middlewares/Third_Party/LoRaWAN/Mac/Region/Region.c **** int8_t RegionTxParamSetupReq( LoRaMacRegion_t region, TxParamSetupReqParams_t* txParamSetupReq )
 819:Middlewares/Third_Party/LoRaWAN/Mac/Region/Region.c **** {
 838              		.loc 1 819 1 is_stmt 1 view -0
 839              		.cfi_startproc
 840              		@ args = 0, pretend = 0, frame = 0
 841              		@ frame_needed = 0, uses_anonymous_args = 0
 842              		.loc 1 819 1 is_stmt 0 view .LVU218
 843 0000 08B5     		push	{r3, lr}
 844              	.LCFI18:
 845              		.cfi_def_cfa_offset 8
 846              		.cfi_offset 3, -8
 847              		.cfi_offset 14, -4
 848 0002 0346     		mov	r3, r0
 849 0004 0846     		mov	r0, r1
 850              	.LVL97:
 820:Middlewares/Third_Party/LoRaWAN/Mac/Region/Region.c ****     switch( region )
 851              		.loc 1 820 5 is_stmt 1 view .LVU219
 852 0006 052B     		cmp	r3, #5
 853 0008 03D0     		beq	.L69
 854 000a 082B     		cmp	r3, #8
 855 000c 04D0     		beq	.L70
 856 000e 0020     		movs	r0, #0
 857              	.LVL98:
 858              	.L71:
 821:Middlewares/Third_Party/LoRaWAN/Mac/Region/Region.c ****     {
 822:Middlewares/Third_Party/LoRaWAN/Mac/Region/Region.c ****         AS923_TX_PARAM_SETUP_REQ( );
 823:Middlewares/Third_Party/LoRaWAN/Mac/Region/Region.c ****         AU915_TX_PARAM_SETUP_REQ( );
 824:Middlewares/Third_Party/LoRaWAN/Mac/Region/Region.c ****         CN470_TX_PARAM_SETUP_REQ( );
 825:Middlewares/Third_Party/LoRaWAN/Mac/Region/Region.c ****         CN779_TX_PARAM_SETUP_REQ( );
 826:Middlewares/Third_Party/LoRaWAN/Mac/Region/Region.c ****         EU433_TX_PARAM_SETUP_REQ( );
 827:Middlewares/Third_Party/LoRaWAN/Mac/Region/Region.c ****         EU868_TX_PARAM_SETUP_REQ( );
 828:Middlewares/Third_Party/LoRaWAN/Mac/Region/Region.c ****         KR920_TX_PARAM_SETUP_REQ( );
 829:Middlewares/Third_Party/LoRaWAN/Mac/Region/Region.c ****         IN865_TX_PARAM_SETUP_REQ( );
 830:Middlewares/Third_Party/LoRaWAN/Mac/Region/Region.c ****         US915_TX_PARAM_SETUP_REQ( );
 831:Middlewares/Third_Party/LoRaWAN/Mac/Region/Region.c ****         RU864_TX_PARAM_SETUP_REQ( );
 832:Middlewares/Third_Party/LoRaWAN/Mac/Region/Region.c ****         default:
 833:Middlewares/Third_Party/LoRaWAN/Mac/Region/Region.c ****         {
 834:Middlewares/Third_Party/LoRaWAN/Mac/Region/Region.c ****             return 0;
 835:Middlewares/Third_Party/LoRaWAN/Mac/Region/Region.c ****         }
 836:Middlewares/Third_Party/LoRaWAN/Mac/Region/Region.c ****     }
 837:Middlewares/Third_Party/LoRaWAN/Mac/Region/Region.c **** }
 859              		.loc 1 837 1 is_stmt 0 view .LVU220
 860 0010 08BD     		pop	{r3, pc}
 861              	.LVL99:
 862              	.L69:
 822:Middlewares/Third_Party/LoRaWAN/Mac/Region/Region.c ****         AU915_TX_PARAM_SETUP_REQ( );
 863              		.loc 1 822 36 is_stmt 1 view .LVU221
 823:Middlewares/Third_Party/LoRaWAN/Mac/Region/Region.c ****         CN470_TX_PARAM_SETUP_REQ( );
 864              		.loc 1 823 36 view .LVU222
ARM GAS  /tmp/cc1L9RAu.s 			page 33


 824:Middlewares/Third_Party/LoRaWAN/Mac/Region/Region.c ****         CN779_TX_PARAM_SETUP_REQ( );
 865              		.loc 1 824 36 view .LVU223
 825:Middlewares/Third_Party/LoRaWAN/Mac/Region/Region.c ****         EU433_TX_PARAM_SETUP_REQ( );
 866              		.loc 1 825 36 view .LVU224
 826:Middlewares/Third_Party/LoRaWAN/Mac/Region/Region.c ****         EU868_TX_PARAM_SETUP_REQ( );
 867              		.loc 1 826 36 view .LVU225
 827:Middlewares/Third_Party/LoRaWAN/Mac/Region/Region.c ****         KR920_TX_PARAM_SETUP_REQ( );
 868              		.loc 1 827 9 view .LVU226
 869 0012 FFF7FEFF 		bl	RegionEU868TxParamSetupReq
 870              	.LVL100:
 827:Middlewares/Third_Party/LoRaWAN/Mac/Region/Region.c ****         KR920_TX_PARAM_SETUP_REQ( );
 871              		.loc 1 827 9 is_stmt 0 view .LVU227
 872 0016 FBE7     		b	.L71
 873              	.LVL101:
 874              	.L70:
 827:Middlewares/Third_Party/LoRaWAN/Mac/Region/Region.c ****         KR920_TX_PARAM_SETUP_REQ( );
 875              		.loc 1 827 36 is_stmt 1 view .LVU228
 828:Middlewares/Third_Party/LoRaWAN/Mac/Region/Region.c ****         IN865_TX_PARAM_SETUP_REQ( );
 876              		.loc 1 828 36 view .LVU229
 829:Middlewares/Third_Party/LoRaWAN/Mac/Region/Region.c ****         US915_TX_PARAM_SETUP_REQ( );
 877              		.loc 1 829 36 view .LVU230
 830:Middlewares/Third_Party/LoRaWAN/Mac/Region/Region.c ****         RU864_TX_PARAM_SETUP_REQ( );
 878              		.loc 1 830 9 view .LVU231
 879 0018 FFF7FEFF 		bl	RegionUS915TxParamSetupReq
 880              	.LVL102:
 830:Middlewares/Third_Party/LoRaWAN/Mac/Region/Region.c ****         RU864_TX_PARAM_SETUP_REQ( );
 881              		.loc 1 830 9 is_stmt 0 view .LVU232
 882 001c F8E7     		b	.L71
 883              		.cfi_endproc
 884              	.LFE117:
 886              		.section	.text.RegionDlChannelReq,"ax",%progbits
 887              		.align	1
 888              		.global	RegionDlChannelReq
 889              		.syntax unified
 890              		.thumb
 891              		.thumb_func
 892              		.fpu softvfp
 894              	RegionDlChannelReq:
 895              	.LVL103:
 896              	.LFB118:
 838:Middlewares/Third_Party/LoRaWAN/Mac/Region/Region.c **** 
 839:Middlewares/Third_Party/LoRaWAN/Mac/Region/Region.c **** int8_t RegionDlChannelReq( LoRaMacRegion_t region, DlChannelReqParams_t* dlChannelReq )
 840:Middlewares/Third_Party/LoRaWAN/Mac/Region/Region.c **** {
 897              		.loc 1 840 1 is_stmt 1 view -0
 898              		.cfi_startproc
 899              		@ args = 0, pretend = 0, frame = 0
 900              		@ frame_needed = 0, uses_anonymous_args = 0
 901              		.loc 1 840 1 is_stmt 0 view .LVU234
 902 0000 08B5     		push	{r3, lr}
 903              	.LCFI19:
 904              		.cfi_def_cfa_offset 8
 905              		.cfi_offset 3, -8
 906              		.cfi_offset 14, -4
 907 0002 0346     		mov	r3, r0
 908 0004 0846     		mov	r0, r1
 909              	.LVL104:
 841:Middlewares/Third_Party/LoRaWAN/Mac/Region/Region.c ****     switch( region )
ARM GAS  /tmp/cc1L9RAu.s 			page 34


 910              		.loc 1 841 5 is_stmt 1 view .LVU235
 911 0006 052B     		cmp	r3, #5
 912 0008 03D0     		beq	.L74
 913 000a 082B     		cmp	r3, #8
 914 000c 04D0     		beq	.L75
 915 000e 0020     		movs	r0, #0
 916              	.LVL105:
 917              	.L76:
 842:Middlewares/Third_Party/LoRaWAN/Mac/Region/Region.c ****     {
 843:Middlewares/Third_Party/LoRaWAN/Mac/Region/Region.c ****         AS923_DL_CHANNEL_REQ( );
 844:Middlewares/Third_Party/LoRaWAN/Mac/Region/Region.c ****         AU915_DL_CHANNEL_REQ( );
 845:Middlewares/Third_Party/LoRaWAN/Mac/Region/Region.c ****         CN470_DL_CHANNEL_REQ( );
 846:Middlewares/Third_Party/LoRaWAN/Mac/Region/Region.c ****         CN779_DL_CHANNEL_REQ( );
 847:Middlewares/Third_Party/LoRaWAN/Mac/Region/Region.c ****         EU433_DL_CHANNEL_REQ( );
 848:Middlewares/Third_Party/LoRaWAN/Mac/Region/Region.c ****         EU868_DL_CHANNEL_REQ( );
 849:Middlewares/Third_Party/LoRaWAN/Mac/Region/Region.c ****         KR920_DL_CHANNEL_REQ( );
 850:Middlewares/Third_Party/LoRaWAN/Mac/Region/Region.c ****         IN865_DL_CHANNEL_REQ( );
 851:Middlewares/Third_Party/LoRaWAN/Mac/Region/Region.c ****         US915_DL_CHANNEL_REQ( );
 852:Middlewares/Third_Party/LoRaWAN/Mac/Region/Region.c ****         RU864_DL_CHANNEL_REQ( );
 853:Middlewares/Third_Party/LoRaWAN/Mac/Region/Region.c ****         default:
 854:Middlewares/Third_Party/LoRaWAN/Mac/Region/Region.c ****         {
 855:Middlewares/Third_Party/LoRaWAN/Mac/Region/Region.c ****             return 0;
 856:Middlewares/Third_Party/LoRaWAN/Mac/Region/Region.c ****         }
 857:Middlewares/Third_Party/LoRaWAN/Mac/Region/Region.c ****     }
 858:Middlewares/Third_Party/LoRaWAN/Mac/Region/Region.c **** }
 918              		.loc 1 858 1 is_stmt 0 view .LVU236
 919 0010 08BD     		pop	{r3, pc}
 920              	.LVL106:
 921              	.L74:
 843:Middlewares/Third_Party/LoRaWAN/Mac/Region/Region.c ****         AU915_DL_CHANNEL_REQ( );
 922              		.loc 1 843 32 is_stmt 1 view .LVU237
 844:Middlewares/Third_Party/LoRaWAN/Mac/Region/Region.c ****         CN470_DL_CHANNEL_REQ( );
 923              		.loc 1 844 32 view .LVU238
 845:Middlewares/Third_Party/LoRaWAN/Mac/Region/Region.c ****         CN779_DL_CHANNEL_REQ( );
 924              		.loc 1 845 32 view .LVU239
 846:Middlewares/Third_Party/LoRaWAN/Mac/Region/Region.c ****         EU433_DL_CHANNEL_REQ( );
 925              		.loc 1 846 32 view .LVU240
 847:Middlewares/Third_Party/LoRaWAN/Mac/Region/Region.c ****         EU868_DL_CHANNEL_REQ( );
 926              		.loc 1 847 32 view .LVU241
 848:Middlewares/Third_Party/LoRaWAN/Mac/Region/Region.c ****         KR920_DL_CHANNEL_REQ( );
 927              		.loc 1 848 9 view .LVU242
 928 0012 FFF7FEFF 		bl	RegionEU868DlChannelReq
 929              	.LVL107:
 848:Middlewares/Third_Party/LoRaWAN/Mac/Region/Region.c ****         KR920_DL_CHANNEL_REQ( );
 930              		.loc 1 848 9 is_stmt 0 view .LVU243
 931 0016 FBE7     		b	.L76
 932              	.LVL108:
 933              	.L75:
 848:Middlewares/Third_Party/LoRaWAN/Mac/Region/Region.c ****         KR920_DL_CHANNEL_REQ( );
 934              		.loc 1 848 32 is_stmt 1 view .LVU244
 849:Middlewares/Third_Party/LoRaWAN/Mac/Region/Region.c ****         IN865_DL_CHANNEL_REQ( );
 935              		.loc 1 849 32 view .LVU245
 850:Middlewares/Third_Party/LoRaWAN/Mac/Region/Region.c ****         US915_DL_CHANNEL_REQ( );
 936              		.loc 1 850 32 view .LVU246
 851:Middlewares/Third_Party/LoRaWAN/Mac/Region/Region.c ****         RU864_DL_CHANNEL_REQ( );
 937              		.loc 1 851 9 view .LVU247
 938 0018 FFF7FEFF 		bl	RegionUS915DlChannelReq
ARM GAS  /tmp/cc1L9RAu.s 			page 35


 939              	.LVL109:
 851:Middlewares/Third_Party/LoRaWAN/Mac/Region/Region.c ****         RU864_DL_CHANNEL_REQ( );
 940              		.loc 1 851 9 is_stmt 0 view .LVU248
 941 001c F8E7     		b	.L76
 942              		.cfi_endproc
 943              	.LFE118:
 945              		.section	.text.RegionAlternateDr,"ax",%progbits
 946              		.align	1
 947              		.global	RegionAlternateDr
 948              		.syntax unified
 949              		.thumb
 950              		.thumb_func
 951              		.fpu softvfp
 953              	RegionAlternateDr:
 954              	.LVL110:
 955              	.LFB119:
 859:Middlewares/Third_Party/LoRaWAN/Mac/Region/Region.c **** 
 860:Middlewares/Third_Party/LoRaWAN/Mac/Region/Region.c **** int8_t RegionAlternateDr( LoRaMacRegion_t region, int8_t currentDr, AlternateDrType_t type )
 861:Middlewares/Third_Party/LoRaWAN/Mac/Region/Region.c **** {
 956              		.loc 1 861 1 is_stmt 1 view -0
 957              		.cfi_startproc
 958              		@ args = 0, pretend = 0, frame = 0
 959              		@ frame_needed = 0, uses_anonymous_args = 0
 960              		.loc 1 861 1 is_stmt 0 view .LVU250
 961 0000 08B5     		push	{r3, lr}
 962              	.LCFI20:
 963              		.cfi_def_cfa_offset 8
 964              		.cfi_offset 3, -8
 965              		.cfi_offset 14, -4
 966 0002 0346     		mov	r3, r0
 967 0004 0846     		mov	r0, r1
 968              	.LVL111:
 969              		.loc 1 861 1 view .LVU251
 970 0006 1146     		mov	r1, r2
 971              	.LVL112:
 862:Middlewares/Third_Party/LoRaWAN/Mac/Region/Region.c ****     switch( region )
 972              		.loc 1 862 5 is_stmt 1 view .LVU252
 973 0008 052B     		cmp	r3, #5
 974 000a 03D0     		beq	.L79
 975 000c 082B     		cmp	r3, #8
 976 000e 04D0     		beq	.L80
 977 0010 0020     		movs	r0, #0
 978              	.LVL113:
 979              	.L81:
 863:Middlewares/Third_Party/LoRaWAN/Mac/Region/Region.c ****     {
 864:Middlewares/Third_Party/LoRaWAN/Mac/Region/Region.c ****         AS923_ALTERNATE_DR( );
 865:Middlewares/Third_Party/LoRaWAN/Mac/Region/Region.c ****         AU915_ALTERNATE_DR( );
 866:Middlewares/Third_Party/LoRaWAN/Mac/Region/Region.c ****         CN470_ALTERNATE_DR( );
 867:Middlewares/Third_Party/LoRaWAN/Mac/Region/Region.c ****         CN779_ALTERNATE_DR( );
 868:Middlewares/Third_Party/LoRaWAN/Mac/Region/Region.c ****         EU433_ALTERNATE_DR( );
 869:Middlewares/Third_Party/LoRaWAN/Mac/Region/Region.c ****         EU868_ALTERNATE_DR( );
 870:Middlewares/Third_Party/LoRaWAN/Mac/Region/Region.c ****         KR920_ALTERNATE_DR( );
 871:Middlewares/Third_Party/LoRaWAN/Mac/Region/Region.c ****         IN865_ALTERNATE_DR( );
 872:Middlewares/Third_Party/LoRaWAN/Mac/Region/Region.c ****         US915_ALTERNATE_DR( );
 873:Middlewares/Third_Party/LoRaWAN/Mac/Region/Region.c ****         RU864_ALTERNATE_DR( );
 874:Middlewares/Third_Party/LoRaWAN/Mac/Region/Region.c ****         default:
 875:Middlewares/Third_Party/LoRaWAN/Mac/Region/Region.c ****         {
ARM GAS  /tmp/cc1L9RAu.s 			page 36


 876:Middlewares/Third_Party/LoRaWAN/Mac/Region/Region.c ****             return 0;
 877:Middlewares/Third_Party/LoRaWAN/Mac/Region/Region.c ****         }
 878:Middlewares/Third_Party/LoRaWAN/Mac/Region/Region.c ****     }
 879:Middlewares/Third_Party/LoRaWAN/Mac/Region/Region.c **** }
 980              		.loc 1 879 1 is_stmt 0 view .LVU253
 981 0012 08BD     		pop	{r3, pc}
 982              	.LVL114:
 983              	.L79:
 864:Middlewares/Third_Party/LoRaWAN/Mac/Region/Region.c ****         AU915_ALTERNATE_DR( );
 984              		.loc 1 864 30 is_stmt 1 view .LVU254
 865:Middlewares/Third_Party/LoRaWAN/Mac/Region/Region.c ****         CN470_ALTERNATE_DR( );
 985              		.loc 1 865 30 view .LVU255
 866:Middlewares/Third_Party/LoRaWAN/Mac/Region/Region.c ****         CN779_ALTERNATE_DR( );
 986              		.loc 1 866 30 view .LVU256
 867:Middlewares/Third_Party/LoRaWAN/Mac/Region/Region.c ****         EU433_ALTERNATE_DR( );
 987              		.loc 1 867 30 view .LVU257
 868:Middlewares/Third_Party/LoRaWAN/Mac/Region/Region.c ****         EU868_ALTERNATE_DR( );
 988              		.loc 1 868 30 view .LVU258
 869:Middlewares/Third_Party/LoRaWAN/Mac/Region/Region.c ****         KR920_ALTERNATE_DR( );
 989              		.loc 1 869 9 view .LVU259
 990 0014 FFF7FEFF 		bl	RegionEU868AlternateDr
 991              	.LVL115:
 869:Middlewares/Third_Party/LoRaWAN/Mac/Region/Region.c ****         KR920_ALTERNATE_DR( );
 992              		.loc 1 869 9 is_stmt 0 view .LVU260
 993 0018 FBE7     		b	.L81
 994              	.LVL116:
 995              	.L80:
 869:Middlewares/Third_Party/LoRaWAN/Mac/Region/Region.c ****         KR920_ALTERNATE_DR( );
 996              		.loc 1 869 30 is_stmt 1 view .LVU261
 870:Middlewares/Third_Party/LoRaWAN/Mac/Region/Region.c ****         IN865_ALTERNATE_DR( );
 997              		.loc 1 870 30 view .LVU262
 871:Middlewares/Third_Party/LoRaWAN/Mac/Region/Region.c ****         US915_ALTERNATE_DR( );
 998              		.loc 1 871 30 view .LVU263
 872:Middlewares/Third_Party/LoRaWAN/Mac/Region/Region.c ****         RU864_ALTERNATE_DR( );
 999              		.loc 1 872 9 view .LVU264
 1000 001a FFF7FEFF 		bl	RegionUS915AlternateDr
 1001              	.LVL117:
 872:Middlewares/Third_Party/LoRaWAN/Mac/Region/Region.c ****         RU864_ALTERNATE_DR( );
 1002              		.loc 1 872 9 is_stmt 0 view .LVU265
 1003 001e F8E7     		b	.L81
 1004              		.cfi_endproc
 1005              	.LFE119:
 1007              		.section	.text.RegionNextChannel,"ax",%progbits
 1008              		.align	1
 1009              		.global	RegionNextChannel
 1010              		.syntax unified
 1011              		.thumb
 1012              		.thumb_func
 1013              		.fpu softvfp
 1015              	RegionNextChannel:
 1016              	.LVL118:
 1017              	.LFB120:
 880:Middlewares/Third_Party/LoRaWAN/Mac/Region/Region.c **** 
 881:Middlewares/Third_Party/LoRaWAN/Mac/Region/Region.c **** LoRaMacStatus_t RegionNextChannel( LoRaMacRegion_t region, NextChanParams_t* nextChanParams, uint8_
 882:Middlewares/Third_Party/LoRaWAN/Mac/Region/Region.c **** {
 1018              		.loc 1 882 1 is_stmt 1 view -0
 1019              		.cfi_startproc
ARM GAS  /tmp/cc1L9RAu.s 			page 37


 1020              		@ args = 4, pretend = 0, frame = 0
 1021              		@ frame_needed = 0, uses_anonymous_args = 0
 1022              		.loc 1 882 1 is_stmt 0 view .LVU267
 1023 0000 08B5     		push	{r3, lr}
 1024              	.LCFI21:
 1025              		.cfi_def_cfa_offset 8
 1026              		.cfi_offset 3, -8
 1027              		.cfi_offset 14, -4
 1028 0002 8446     		mov	ip, r0
 1029 0004 0846     		mov	r0, r1
 1030              	.LVL119:
 1031              		.loc 1 882 1 view .LVU268
 1032 0006 1146     		mov	r1, r2
 1033              	.LVL120:
 1034              		.loc 1 882 1 view .LVU269
 1035 0008 1A46     		mov	r2, r3
 1036              	.LVL121:
 883:Middlewares/Third_Party/LoRaWAN/Mac/Region/Region.c ****     switch( region )
 1037              		.loc 1 883 5 is_stmt 1 view .LVU270
 1038 000a BCF1050F 		cmp	ip, #5
 1039 000e 04D0     		beq	.L84
 1040 0010 BCF1080F 		cmp	ip, #8
 1041 0014 05D0     		beq	.L85
 1042 0016 0920     		movs	r0, #9
 1043              	.LVL122:
 1044              	.L86:
 884:Middlewares/Third_Party/LoRaWAN/Mac/Region/Region.c ****     {
 885:Middlewares/Third_Party/LoRaWAN/Mac/Region/Region.c ****         AS923_NEXT_CHANNEL( );
 886:Middlewares/Third_Party/LoRaWAN/Mac/Region/Region.c ****         AU915_NEXT_CHANNEL( );
 887:Middlewares/Third_Party/LoRaWAN/Mac/Region/Region.c ****         CN470_NEXT_CHANNEL( );
 888:Middlewares/Third_Party/LoRaWAN/Mac/Region/Region.c ****         CN779_NEXT_CHANNEL( );
 889:Middlewares/Third_Party/LoRaWAN/Mac/Region/Region.c ****         EU433_NEXT_CHANNEL( );
 890:Middlewares/Third_Party/LoRaWAN/Mac/Region/Region.c ****         EU868_NEXT_CHANNEL( );
 891:Middlewares/Third_Party/LoRaWAN/Mac/Region/Region.c ****         KR920_NEXT_CHANNEL( );
 892:Middlewares/Third_Party/LoRaWAN/Mac/Region/Region.c ****         IN865_NEXT_CHANNEL( );
 893:Middlewares/Third_Party/LoRaWAN/Mac/Region/Region.c ****         US915_NEXT_CHANNEL( );
 894:Middlewares/Third_Party/LoRaWAN/Mac/Region/Region.c ****         RU864_NEXT_CHANNEL( );
 895:Middlewares/Third_Party/LoRaWAN/Mac/Region/Region.c ****         default:
 896:Middlewares/Third_Party/LoRaWAN/Mac/Region/Region.c ****         {
 897:Middlewares/Third_Party/LoRaWAN/Mac/Region/Region.c ****             return LORAMAC_STATUS_REGION_NOT_SUPPORTED;
 898:Middlewares/Third_Party/LoRaWAN/Mac/Region/Region.c ****         }
 899:Middlewares/Third_Party/LoRaWAN/Mac/Region/Region.c ****     }
 900:Middlewares/Third_Party/LoRaWAN/Mac/Region/Region.c **** }
 1045              		.loc 1 900 1 is_stmt 0 view .LVU271
 1046 0018 08BD     		pop	{r3, pc}
 1047              	.LVL123:
 1048              	.L84:
 885:Middlewares/Third_Party/LoRaWAN/Mac/Region/Region.c ****         AU915_NEXT_CHANNEL( );
 1049              		.loc 1 885 30 is_stmt 1 view .LVU272
 886:Middlewares/Third_Party/LoRaWAN/Mac/Region/Region.c ****         CN470_NEXT_CHANNEL( );
 1050              		.loc 1 886 30 view .LVU273
 887:Middlewares/Third_Party/LoRaWAN/Mac/Region/Region.c ****         CN779_NEXT_CHANNEL( );
 1051              		.loc 1 887 30 view .LVU274
 888:Middlewares/Third_Party/LoRaWAN/Mac/Region/Region.c ****         EU433_NEXT_CHANNEL( );
 1052              		.loc 1 888 30 view .LVU275
 889:Middlewares/Third_Party/LoRaWAN/Mac/Region/Region.c ****         EU868_NEXT_CHANNEL( );
 1053              		.loc 1 889 30 view .LVU276
ARM GAS  /tmp/cc1L9RAu.s 			page 38


 890:Middlewares/Third_Party/LoRaWAN/Mac/Region/Region.c ****         KR920_NEXT_CHANNEL( );
 1054              		.loc 1 890 9 view .LVU277
 1055 001a 029B     		ldr	r3, [sp, #8]
 1056 001c FFF7FEFF 		bl	RegionEU868NextChannel
 1057              	.LVL124:
 890:Middlewares/Third_Party/LoRaWAN/Mac/Region/Region.c ****         KR920_NEXT_CHANNEL( );
 1058              		.loc 1 890 9 is_stmt 0 view .LVU278
 1059 0020 FAE7     		b	.L86
 1060              	.LVL125:
 1061              	.L85:
 890:Middlewares/Third_Party/LoRaWAN/Mac/Region/Region.c ****         KR920_NEXT_CHANNEL( );
 1062              		.loc 1 890 30 is_stmt 1 view .LVU279
 891:Middlewares/Third_Party/LoRaWAN/Mac/Region/Region.c ****         IN865_NEXT_CHANNEL( );
 1063              		.loc 1 891 30 view .LVU280
 892:Middlewares/Third_Party/LoRaWAN/Mac/Region/Region.c ****         US915_NEXT_CHANNEL( );
 1064              		.loc 1 892 30 view .LVU281
 893:Middlewares/Third_Party/LoRaWAN/Mac/Region/Region.c ****         RU864_NEXT_CHANNEL( );
 1065              		.loc 1 893 9 view .LVU282
 1066 0022 029B     		ldr	r3, [sp, #8]
 1067 0024 FFF7FEFF 		bl	RegionUS915NextChannel
 1068              	.LVL126:
 893:Middlewares/Third_Party/LoRaWAN/Mac/Region/Region.c ****         RU864_NEXT_CHANNEL( );
 1069              		.loc 1 893 9 is_stmt 0 view .LVU283
 1070 0028 F6E7     		b	.L86
 1071              		.cfi_endproc
 1072              	.LFE120:
 1074              		.section	.text.RegionChannelAdd,"ax",%progbits
 1075              		.align	1
 1076              		.global	RegionChannelAdd
 1077              		.syntax unified
 1078              		.thumb
 1079              		.thumb_func
 1080              		.fpu softvfp
 1082              	RegionChannelAdd:
 1083              	.LVL127:
 1084              	.LFB121:
 901:Middlewares/Third_Party/LoRaWAN/Mac/Region/Region.c **** 
 902:Middlewares/Third_Party/LoRaWAN/Mac/Region/Region.c **** LoRaMacStatus_t RegionChannelAdd( LoRaMacRegion_t region, ChannelAddParams_t* channelAdd )
 903:Middlewares/Third_Party/LoRaWAN/Mac/Region/Region.c **** {
 1085              		.loc 1 903 1 is_stmt 1 view -0
 1086              		.cfi_startproc
 1087              		@ args = 0, pretend = 0, frame = 0
 1088              		@ frame_needed = 0, uses_anonymous_args = 0
 1089              		.loc 1 903 1 is_stmt 0 view .LVU285
 1090 0000 08B5     		push	{r3, lr}
 1091              	.LCFI22:
 1092              		.cfi_def_cfa_offset 8
 1093              		.cfi_offset 3, -8
 1094              		.cfi_offset 14, -4
 1095 0002 0346     		mov	r3, r0
 1096 0004 0846     		mov	r0, r1
 1097              	.LVL128:
 904:Middlewares/Third_Party/LoRaWAN/Mac/Region/Region.c ****     switch( region )
 1098              		.loc 1 904 5 is_stmt 1 view .LVU286
 1099 0006 052B     		cmp	r3, #5
 1100 0008 03D0     		beq	.L89
 1101 000a 082B     		cmp	r3, #8
ARM GAS  /tmp/cc1L9RAu.s 			page 39


 1102 000c 04D0     		beq	.L90
 1103 000e 0320     		movs	r0, #3
 1104              	.LVL129:
 1105              	.L91:
 905:Middlewares/Third_Party/LoRaWAN/Mac/Region/Region.c ****     {
 906:Middlewares/Third_Party/LoRaWAN/Mac/Region/Region.c ****         AS923_CHANNEL_ADD( );
 907:Middlewares/Third_Party/LoRaWAN/Mac/Region/Region.c ****         AU915_CHANNEL_ADD( );
 908:Middlewares/Third_Party/LoRaWAN/Mac/Region/Region.c ****         CN470_CHANNEL_ADD( );
 909:Middlewares/Third_Party/LoRaWAN/Mac/Region/Region.c ****         CN779_CHANNEL_ADD( );
 910:Middlewares/Third_Party/LoRaWAN/Mac/Region/Region.c ****         EU433_CHANNEL_ADD( );
 911:Middlewares/Third_Party/LoRaWAN/Mac/Region/Region.c ****         EU868_CHANNEL_ADD( );
 912:Middlewares/Third_Party/LoRaWAN/Mac/Region/Region.c ****         KR920_CHANNEL_ADD( );
 913:Middlewares/Third_Party/LoRaWAN/Mac/Region/Region.c ****         IN865_CHANNEL_ADD( );
 914:Middlewares/Third_Party/LoRaWAN/Mac/Region/Region.c ****         US915_CHANNEL_ADD( );
 915:Middlewares/Third_Party/LoRaWAN/Mac/Region/Region.c ****         RU864_CHANNEL_ADD( );
 916:Middlewares/Third_Party/LoRaWAN/Mac/Region/Region.c ****         default:
 917:Middlewares/Third_Party/LoRaWAN/Mac/Region/Region.c ****         {
 918:Middlewares/Third_Party/LoRaWAN/Mac/Region/Region.c ****             return LORAMAC_STATUS_PARAMETER_INVALID;
 919:Middlewares/Third_Party/LoRaWAN/Mac/Region/Region.c ****         }
 920:Middlewares/Third_Party/LoRaWAN/Mac/Region/Region.c ****     }
 921:Middlewares/Third_Party/LoRaWAN/Mac/Region/Region.c **** }
 1106              		.loc 1 921 1 is_stmt 0 view .LVU287
 1107 0010 08BD     		pop	{r3, pc}
 1108              	.LVL130:
 1109              	.L89:
 906:Middlewares/Third_Party/LoRaWAN/Mac/Region/Region.c ****         AU915_CHANNEL_ADD( );
 1110              		.loc 1 906 29 is_stmt 1 view .LVU288
 907:Middlewares/Third_Party/LoRaWAN/Mac/Region/Region.c ****         CN470_CHANNEL_ADD( );
 1111              		.loc 1 907 29 view .LVU289
 908:Middlewares/Third_Party/LoRaWAN/Mac/Region/Region.c ****         CN779_CHANNEL_ADD( );
 1112              		.loc 1 908 29 view .LVU290
 909:Middlewares/Third_Party/LoRaWAN/Mac/Region/Region.c ****         EU433_CHANNEL_ADD( );
 1113              		.loc 1 909 29 view .LVU291
 910:Middlewares/Third_Party/LoRaWAN/Mac/Region/Region.c ****         EU868_CHANNEL_ADD( );
 1114              		.loc 1 910 29 view .LVU292
 911:Middlewares/Third_Party/LoRaWAN/Mac/Region/Region.c ****         KR920_CHANNEL_ADD( );
 1115              		.loc 1 911 9 view .LVU293
 1116 0012 FFF7FEFF 		bl	RegionEU868ChannelAdd
 1117              	.LVL131:
 911:Middlewares/Third_Party/LoRaWAN/Mac/Region/Region.c ****         KR920_CHANNEL_ADD( );
 1118              		.loc 1 911 9 is_stmt 0 view .LVU294
 1119 0016 FBE7     		b	.L91
 1120              	.LVL132:
 1121              	.L90:
 911:Middlewares/Third_Party/LoRaWAN/Mac/Region/Region.c ****         KR920_CHANNEL_ADD( );
 1122              		.loc 1 911 29 is_stmt 1 view .LVU295
 912:Middlewares/Third_Party/LoRaWAN/Mac/Region/Region.c ****         IN865_CHANNEL_ADD( );
 1123              		.loc 1 912 29 view .LVU296
 913:Middlewares/Third_Party/LoRaWAN/Mac/Region/Region.c ****         US915_CHANNEL_ADD( );
 1124              		.loc 1 913 29 view .LVU297
 914:Middlewares/Third_Party/LoRaWAN/Mac/Region/Region.c ****         RU864_CHANNEL_ADD( );
 1125              		.loc 1 914 9 view .LVU298
 1126 0018 FFF7FEFF 		bl	RegionUS915ChannelAdd
 1127              	.LVL133:
 914:Middlewares/Third_Party/LoRaWAN/Mac/Region/Region.c ****         RU864_CHANNEL_ADD( );
 1128              		.loc 1 914 9 is_stmt 0 view .LVU299
 1129 001c F8E7     		b	.L91
ARM GAS  /tmp/cc1L9RAu.s 			page 40


 1130              		.cfi_endproc
 1131              	.LFE121:
 1133              		.section	.text.RegionChannelsRemove,"ax",%progbits
 1134              		.align	1
 1135              		.global	RegionChannelsRemove
 1136              		.syntax unified
 1137              		.thumb
 1138              		.thumb_func
 1139              		.fpu softvfp
 1141              	RegionChannelsRemove:
 1142              	.LVL134:
 1143              	.LFB122:
 922:Middlewares/Third_Party/LoRaWAN/Mac/Region/Region.c **** 
 923:Middlewares/Third_Party/LoRaWAN/Mac/Region/Region.c **** bool RegionChannelsRemove( LoRaMacRegion_t region, ChannelRemoveParams_t* channelRemove )
 924:Middlewares/Third_Party/LoRaWAN/Mac/Region/Region.c **** {
 1144              		.loc 1 924 1 is_stmt 1 view -0
 1145              		.cfi_startproc
 1146              		@ args = 0, pretend = 0, frame = 0
 1147              		@ frame_needed = 0, uses_anonymous_args = 0
 1148              		.loc 1 924 1 is_stmt 0 view .LVU301
 1149 0000 08B5     		push	{r3, lr}
 1150              	.LCFI23:
 1151              		.cfi_def_cfa_offset 8
 1152              		.cfi_offset 3, -8
 1153              		.cfi_offset 14, -4
 1154 0002 0346     		mov	r3, r0
 1155 0004 0846     		mov	r0, r1
 1156              	.LVL135:
 925:Middlewares/Third_Party/LoRaWAN/Mac/Region/Region.c ****     switch( region )
 1157              		.loc 1 925 5 is_stmt 1 view .LVU302
 1158 0006 052B     		cmp	r3, #5
 1159 0008 03D0     		beq	.L94
 1160 000a 082B     		cmp	r3, #8
 1161 000c 04D0     		beq	.L95
 1162 000e 0020     		movs	r0, #0
 1163              	.LVL136:
 1164              	.L96:
 926:Middlewares/Third_Party/LoRaWAN/Mac/Region/Region.c ****     {
 927:Middlewares/Third_Party/LoRaWAN/Mac/Region/Region.c ****         AS923_CHANNEL_REMOVE( );
 928:Middlewares/Third_Party/LoRaWAN/Mac/Region/Region.c ****         AU915_CHANNEL_REMOVE( );
 929:Middlewares/Third_Party/LoRaWAN/Mac/Region/Region.c ****         CN470_CHANNEL_REMOVE( );
 930:Middlewares/Third_Party/LoRaWAN/Mac/Region/Region.c ****         CN779_CHANNEL_REMOVE( );
 931:Middlewares/Third_Party/LoRaWAN/Mac/Region/Region.c ****         EU433_CHANNEL_REMOVE( );
 932:Middlewares/Third_Party/LoRaWAN/Mac/Region/Region.c ****         EU868_CHANNEL_REMOVE( );
 933:Middlewares/Third_Party/LoRaWAN/Mac/Region/Region.c ****         KR920_CHANNEL_REMOVE( );
 934:Middlewares/Third_Party/LoRaWAN/Mac/Region/Region.c ****         IN865_CHANNEL_REMOVE( );
 935:Middlewares/Third_Party/LoRaWAN/Mac/Region/Region.c ****         US915_CHANNEL_REMOVE( );
 936:Middlewares/Third_Party/LoRaWAN/Mac/Region/Region.c ****         RU864_CHANNEL_REMOVE( );
 937:Middlewares/Third_Party/LoRaWAN/Mac/Region/Region.c ****         default:
 938:Middlewares/Third_Party/LoRaWAN/Mac/Region/Region.c ****         {
 939:Middlewares/Third_Party/LoRaWAN/Mac/Region/Region.c ****             return false;
 940:Middlewares/Third_Party/LoRaWAN/Mac/Region/Region.c ****         }
 941:Middlewares/Third_Party/LoRaWAN/Mac/Region/Region.c ****     }
 942:Middlewares/Third_Party/LoRaWAN/Mac/Region/Region.c **** }
 1165              		.loc 1 942 1 is_stmt 0 view .LVU303
 1166 0010 08BD     		pop	{r3, pc}
 1167              	.LVL137:
ARM GAS  /tmp/cc1L9RAu.s 			page 41


 1168              	.L94:
 927:Middlewares/Third_Party/LoRaWAN/Mac/Region/Region.c ****         AU915_CHANNEL_REMOVE( );
 1169              		.loc 1 927 32 is_stmt 1 view .LVU304
 928:Middlewares/Third_Party/LoRaWAN/Mac/Region/Region.c ****         CN470_CHANNEL_REMOVE( );
 1170              		.loc 1 928 32 view .LVU305
 929:Middlewares/Third_Party/LoRaWAN/Mac/Region/Region.c ****         CN779_CHANNEL_REMOVE( );
 1171              		.loc 1 929 32 view .LVU306
 930:Middlewares/Third_Party/LoRaWAN/Mac/Region/Region.c ****         EU433_CHANNEL_REMOVE( );
 1172              		.loc 1 930 32 view .LVU307
 931:Middlewares/Third_Party/LoRaWAN/Mac/Region/Region.c ****         EU868_CHANNEL_REMOVE( );
 1173              		.loc 1 931 32 view .LVU308
 932:Middlewares/Third_Party/LoRaWAN/Mac/Region/Region.c ****         KR920_CHANNEL_REMOVE( );
 1174              		.loc 1 932 9 view .LVU309
 1175 0012 FFF7FEFF 		bl	RegionEU868ChannelsRemove
 1176              	.LVL138:
 932:Middlewares/Third_Party/LoRaWAN/Mac/Region/Region.c ****         KR920_CHANNEL_REMOVE( );
 1177              		.loc 1 932 9 is_stmt 0 view .LVU310
 1178 0016 FBE7     		b	.L96
 1179              	.LVL139:
 1180              	.L95:
 932:Middlewares/Third_Party/LoRaWAN/Mac/Region/Region.c ****         KR920_CHANNEL_REMOVE( );
 1181              		.loc 1 932 32 is_stmt 1 view .LVU311
 933:Middlewares/Third_Party/LoRaWAN/Mac/Region/Region.c ****         IN865_CHANNEL_REMOVE( );
 1182              		.loc 1 933 32 view .LVU312
 934:Middlewares/Third_Party/LoRaWAN/Mac/Region/Region.c ****         US915_CHANNEL_REMOVE( );
 1183              		.loc 1 934 32 view .LVU313
 935:Middlewares/Third_Party/LoRaWAN/Mac/Region/Region.c ****         RU864_CHANNEL_REMOVE( );
 1184              		.loc 1 935 9 view .LVU314
 1185 0018 FFF7FEFF 		bl	RegionUS915ChannelsRemove
 1186              	.LVL140:
 935:Middlewares/Third_Party/LoRaWAN/Mac/Region/Region.c ****         RU864_CHANNEL_REMOVE( );
 1187              		.loc 1 935 9 is_stmt 0 view .LVU315
 1188 001c F8E7     		b	.L96
 1189              		.cfi_endproc
 1190              	.LFE122:
 1192              		.section	.text.RegionSetContinuousWave,"ax",%progbits
 1193              		.align	1
 1194              		.global	RegionSetContinuousWave
 1195              		.syntax unified
 1196              		.thumb
 1197              		.thumb_func
 1198              		.fpu softvfp
 1200              	RegionSetContinuousWave:
 1201              	.LVL141:
 1202              	.LFB123:
 943:Middlewares/Third_Party/LoRaWAN/Mac/Region/Region.c **** 
 944:Middlewares/Third_Party/LoRaWAN/Mac/Region/Region.c **** void RegionSetContinuousWave( LoRaMacRegion_t region, ContinuousWaveParams_t* continuousWave )
 945:Middlewares/Third_Party/LoRaWAN/Mac/Region/Region.c **** {
 1203              		.loc 1 945 1 is_stmt 1 view -0
 1204              		.cfi_startproc
 1205              		@ args = 0, pretend = 0, frame = 0
 1206              		@ frame_needed = 0, uses_anonymous_args = 0
 1207              		.loc 1 945 1 is_stmt 0 view .LVU317
 1208 0000 08B5     		push	{r3, lr}
 1209              	.LCFI24:
 1210              		.cfi_def_cfa_offset 8
 1211              		.cfi_offset 3, -8
ARM GAS  /tmp/cc1L9RAu.s 			page 42


 1212              		.cfi_offset 14, -4
 1213 0002 0346     		mov	r3, r0
 1214 0004 0846     		mov	r0, r1
 1215              	.LVL142:
 946:Middlewares/Third_Party/LoRaWAN/Mac/Region/Region.c ****     switch( region )
 1216              		.loc 1 946 5 is_stmt 1 view .LVU318
 1217 0006 052B     		cmp	r3, #5
 1218 0008 02D0     		beq	.L99
 1219 000a 082B     		cmp	r3, #8
 1220 000c 03D0     		beq	.L100
 1221              	.LVL143:
 1222              	.L98:
 947:Middlewares/Third_Party/LoRaWAN/Mac/Region/Region.c ****     {
 948:Middlewares/Third_Party/LoRaWAN/Mac/Region/Region.c ****         AS923_SET_CONTINUOUS_WAVE( );
 949:Middlewares/Third_Party/LoRaWAN/Mac/Region/Region.c ****         AU915_SET_CONTINUOUS_WAVE( );
 950:Middlewares/Third_Party/LoRaWAN/Mac/Region/Region.c ****         CN470_SET_CONTINUOUS_WAVE( );
 951:Middlewares/Third_Party/LoRaWAN/Mac/Region/Region.c ****         CN779_SET_CONTINUOUS_WAVE( );
 952:Middlewares/Third_Party/LoRaWAN/Mac/Region/Region.c ****         EU433_SET_CONTINUOUS_WAVE( );
 953:Middlewares/Third_Party/LoRaWAN/Mac/Region/Region.c ****         EU868_SET_CONTINUOUS_WAVE( );
 954:Middlewares/Third_Party/LoRaWAN/Mac/Region/Region.c ****         KR920_SET_CONTINUOUS_WAVE( );
 955:Middlewares/Third_Party/LoRaWAN/Mac/Region/Region.c ****         IN865_SET_CONTINUOUS_WAVE( );
 956:Middlewares/Third_Party/LoRaWAN/Mac/Region/Region.c ****         US915_SET_CONTINUOUS_WAVE( );
 957:Middlewares/Third_Party/LoRaWAN/Mac/Region/Region.c ****         RU864_SET_CONTINUOUS_WAVE( );
 958:Middlewares/Third_Party/LoRaWAN/Mac/Region/Region.c ****         default:
 959:Middlewares/Third_Party/LoRaWAN/Mac/Region/Region.c ****         {
 960:Middlewares/Third_Party/LoRaWAN/Mac/Region/Region.c ****             break;
 961:Middlewares/Third_Party/LoRaWAN/Mac/Region/Region.c ****         }
 962:Middlewares/Third_Party/LoRaWAN/Mac/Region/Region.c ****     }
 963:Middlewares/Third_Party/LoRaWAN/Mac/Region/Region.c **** }
 1223              		.loc 1 963 1 is_stmt 0 view .LVU319
 1224 000e 08BD     		pop	{r3, pc}
 1225              	.LVL144:
 1226              	.L99:
 948:Middlewares/Third_Party/LoRaWAN/Mac/Region/Region.c ****         AU915_SET_CONTINUOUS_WAVE( );
 1227              		.loc 1 948 37 is_stmt 1 view .LVU320
 949:Middlewares/Third_Party/LoRaWAN/Mac/Region/Region.c ****         CN470_SET_CONTINUOUS_WAVE( );
 1228              		.loc 1 949 37 view .LVU321
 950:Middlewares/Third_Party/LoRaWAN/Mac/Region/Region.c ****         CN779_SET_CONTINUOUS_WAVE( );
 1229              		.loc 1 950 37 view .LVU322
 951:Middlewares/Third_Party/LoRaWAN/Mac/Region/Region.c ****         EU433_SET_CONTINUOUS_WAVE( );
 1230              		.loc 1 951 37 view .LVU323
 952:Middlewares/Third_Party/LoRaWAN/Mac/Region/Region.c ****         EU868_SET_CONTINUOUS_WAVE( );
 1231              		.loc 1 952 37 view .LVU324
 953:Middlewares/Third_Party/LoRaWAN/Mac/Region/Region.c ****         KR920_SET_CONTINUOUS_WAVE( );
 1232              		.loc 1 953 9 view .LVU325
 1233 0010 FFF7FEFF 		bl	RegionEU868SetContinuousWave
 1234              	.LVL145:
 953:Middlewares/Third_Party/LoRaWAN/Mac/Region/Region.c ****         KR920_SET_CONTINUOUS_WAVE( );
 1235              		.loc 1 953 9 view .LVU326
 1236 0014 FBE7     		b	.L98
 1237              	.LVL146:
 1238              	.L100:
 953:Middlewares/Third_Party/LoRaWAN/Mac/Region/Region.c ****         KR920_SET_CONTINUOUS_WAVE( );
 1239              		.loc 1 953 37 view .LVU327
 954:Middlewares/Third_Party/LoRaWAN/Mac/Region/Region.c ****         IN865_SET_CONTINUOUS_WAVE( );
 1240              		.loc 1 954 37 view .LVU328
 955:Middlewares/Third_Party/LoRaWAN/Mac/Region/Region.c ****         US915_SET_CONTINUOUS_WAVE( );
ARM GAS  /tmp/cc1L9RAu.s 			page 43


 1241              		.loc 1 955 37 view .LVU329
 956:Middlewares/Third_Party/LoRaWAN/Mac/Region/Region.c ****         RU864_SET_CONTINUOUS_WAVE( );
 1242              		.loc 1 956 9 view .LVU330
 1243 0016 FFF7FEFF 		bl	RegionUS915SetContinuousWave
 1244              	.LVL147:
 956:Middlewares/Third_Party/LoRaWAN/Mac/Region/Region.c ****         RU864_SET_CONTINUOUS_WAVE( );
 1245              		.loc 1 956 9 view .LVU331
 1246              		.loc 1 963 1 is_stmt 0 view .LVU332
 1247 001a F8E7     		b	.L98
 1248              		.cfi_endproc
 1249              	.LFE123:
 1251              		.section	.text.RegionApplyDrOffset,"ax",%progbits
 1252              		.align	1
 1253              		.global	RegionApplyDrOffset
 1254              		.syntax unified
 1255              		.thumb
 1256              		.thumb_func
 1257              		.fpu softvfp
 1259              	RegionApplyDrOffset:
 1260              	.LVL148:
 1261              	.LFB124:
 964:Middlewares/Third_Party/LoRaWAN/Mac/Region/Region.c **** 
 965:Middlewares/Third_Party/LoRaWAN/Mac/Region/Region.c **** uint8_t RegionApplyDrOffset( LoRaMacRegion_t region, uint8_t downlinkDwellTime, int8_t dr, int8_t d
 966:Middlewares/Third_Party/LoRaWAN/Mac/Region/Region.c **** {
 1262              		.loc 1 966 1 is_stmt 1 view -0
 1263              		.cfi_startproc
 1264              		@ args = 0, pretend = 0, frame = 0
 1265              		@ frame_needed = 0, uses_anonymous_args = 0
 1266              		.loc 1 966 1 is_stmt 0 view .LVU334
 1267 0000 08B5     		push	{r3, lr}
 1268              	.LCFI25:
 1269              		.cfi_def_cfa_offset 8
 1270              		.cfi_offset 3, -8
 1271              		.cfi_offset 14, -4
 1272 0002 8446     		mov	ip, r0
 1273 0004 0846     		mov	r0, r1
 1274              	.LVL149:
 1275              		.loc 1 966 1 view .LVU335
 1276 0006 1146     		mov	r1, r2
 1277              	.LVL150:
 1278              		.loc 1 966 1 view .LVU336
 1279 0008 1A46     		mov	r2, r3
 1280              	.LVL151:
 967:Middlewares/Third_Party/LoRaWAN/Mac/Region/Region.c ****     switch( region )
 1281              		.loc 1 967 5 is_stmt 1 view .LVU337
 1282 000a BCF1050F 		cmp	ip, #5
 1283 000e 04D0     		beq	.L104
 1284 0010 BCF1080F 		cmp	ip, #8
 1285 0014 04D0     		beq	.L105
 968:Middlewares/Third_Party/LoRaWAN/Mac/Region/Region.c ****     {
 969:Middlewares/Third_Party/LoRaWAN/Mac/Region/Region.c ****         AS923_APPLY_DR_OFFSET( );
 970:Middlewares/Third_Party/LoRaWAN/Mac/Region/Region.c ****         AU915_APPLY_DR_OFFSET( );
 971:Middlewares/Third_Party/LoRaWAN/Mac/Region/Region.c ****         CN470_APPLY_DR_OFFSET( );
 972:Middlewares/Third_Party/LoRaWAN/Mac/Region/Region.c ****         CN779_APPLY_DR_OFFSET( );
 973:Middlewares/Third_Party/LoRaWAN/Mac/Region/Region.c ****         EU433_APPLY_DR_OFFSET( );
 974:Middlewares/Third_Party/LoRaWAN/Mac/Region/Region.c ****         EU868_APPLY_DR_OFFSET( );
 975:Middlewares/Third_Party/LoRaWAN/Mac/Region/Region.c ****         KR920_APPLY_DR_OFFSET( );
ARM GAS  /tmp/cc1L9RAu.s 			page 44


 976:Middlewares/Third_Party/LoRaWAN/Mac/Region/Region.c ****         IN865_APPLY_DR_OFFSET( );
 977:Middlewares/Third_Party/LoRaWAN/Mac/Region/Region.c ****         US915_APPLY_DR_OFFSET( );
 1286              		.loc 1 977 33 view .LVU338
 978:Middlewares/Third_Party/LoRaWAN/Mac/Region/Region.c ****         RU864_APPLY_DR_OFFSET( );
 1287              		.loc 1 978 33 view .LVU339
 979:Middlewares/Third_Party/LoRaWAN/Mac/Region/Region.c ****         default:
 980:Middlewares/Third_Party/LoRaWAN/Mac/Region/Region.c ****         {
 981:Middlewares/Third_Party/LoRaWAN/Mac/Region/Region.c ****             return dr;
 1288              		.loc 1 981 13 view .LVU340
 1289              		.loc 1 981 20 is_stmt 0 view .LVU341
 1290 0016 C8B2     		uxtb	r0, r1
 1291 0018 01E0     		b	.L107
 1292              	.L104:
 969:Middlewares/Third_Party/LoRaWAN/Mac/Region/Region.c ****         AU915_APPLY_DR_OFFSET( );
 1293              		.loc 1 969 33 is_stmt 1 view .LVU342
 970:Middlewares/Third_Party/LoRaWAN/Mac/Region/Region.c ****         CN470_APPLY_DR_OFFSET( );
 1294              		.loc 1 970 33 view .LVU343
 971:Middlewares/Third_Party/LoRaWAN/Mac/Region/Region.c ****         CN779_APPLY_DR_OFFSET( );
 1295              		.loc 1 971 33 view .LVU344
 972:Middlewares/Third_Party/LoRaWAN/Mac/Region/Region.c ****         EU433_APPLY_DR_OFFSET( );
 1296              		.loc 1 972 33 view .LVU345
 973:Middlewares/Third_Party/LoRaWAN/Mac/Region/Region.c ****         EU868_APPLY_DR_OFFSET( );
 1297              		.loc 1 973 33 view .LVU346
 974:Middlewares/Third_Party/LoRaWAN/Mac/Region/Region.c ****         KR920_APPLY_DR_OFFSET( );
 1298              		.loc 1 974 9 view .LVU347
 1299 001a FFF7FEFF 		bl	RegionEU868ApplyDrOffset
 1300              	.LVL152:
 1301              	.L107:
 982:Middlewares/Third_Party/LoRaWAN/Mac/Region/Region.c ****         }
 983:Middlewares/Third_Party/LoRaWAN/Mac/Region/Region.c ****     }
 984:Middlewares/Third_Party/LoRaWAN/Mac/Region/Region.c **** }
 1302              		.loc 1 984 1 is_stmt 0 view .LVU348
 1303 001e 08BD     		pop	{r3, pc}
 1304              	.LVL153:
 1305              	.L105:
 974:Middlewares/Third_Party/LoRaWAN/Mac/Region/Region.c ****         KR920_APPLY_DR_OFFSET( );
 1306              		.loc 1 974 33 is_stmt 1 view .LVU349
 975:Middlewares/Third_Party/LoRaWAN/Mac/Region/Region.c ****         IN865_APPLY_DR_OFFSET( );
 1307              		.loc 1 975 33 view .LVU350
 976:Middlewares/Third_Party/LoRaWAN/Mac/Region/Region.c ****         US915_APPLY_DR_OFFSET( );
 1308              		.loc 1 976 33 view .LVU351
 977:Middlewares/Third_Party/LoRaWAN/Mac/Region/Region.c ****         RU864_APPLY_DR_OFFSET( );
 1309              		.loc 1 977 9 view .LVU352
 1310 0020 FFF7FEFF 		bl	RegionUS915ApplyDrOffset
 1311              	.LVL154:
 977:Middlewares/Third_Party/LoRaWAN/Mac/Region/Region.c ****         RU864_APPLY_DR_OFFSET( );
 1312              		.loc 1 977 9 is_stmt 0 view .LVU353
 1313 0024 FBE7     		b	.L107
 1314              		.cfi_endproc
 1315              	.LFE124:
 1317              		.section	.text.RegionRxBeaconSetup,"ax",%progbits
 1318              		.align	1
 1319              		.global	RegionRxBeaconSetup
 1320              		.syntax unified
 1321              		.thumb
 1322              		.thumb_func
 1323              		.fpu softvfp
ARM GAS  /tmp/cc1L9RAu.s 			page 45


 1325              	RegionRxBeaconSetup:
 1326              	.LVL155:
 1327              	.LFB125:
 985:Middlewares/Third_Party/LoRaWAN/Mac/Region/Region.c **** 
 986:Middlewares/Third_Party/LoRaWAN/Mac/Region/Region.c **** void RegionRxBeaconSetup( LoRaMacRegion_t region, RxBeaconSetup_t* rxBeaconSetup, uint8_t* outDr )
 987:Middlewares/Third_Party/LoRaWAN/Mac/Region/Region.c **** {
 1328              		.loc 1 987 1 is_stmt 1 view -0
 1329              		.cfi_startproc
 1330              		@ args = 0, pretend = 0, frame = 0
 1331              		@ frame_needed = 0, uses_anonymous_args = 0
 1332              		.loc 1 987 1 is_stmt 0 view .LVU355
 1333 0000 08B5     		push	{r3, lr}
 1334              	.LCFI26:
 1335              		.cfi_def_cfa_offset 8
 1336              		.cfi_offset 3, -8
 1337              		.cfi_offset 14, -4
 1338 0002 0346     		mov	r3, r0
 1339 0004 0846     		mov	r0, r1
 1340              	.LVL156:
 1341              		.loc 1 987 1 view .LVU356
 1342 0006 1146     		mov	r1, r2
 1343              	.LVL157:
 988:Middlewares/Third_Party/LoRaWAN/Mac/Region/Region.c ****     switch( region )
 1344              		.loc 1 988 5 is_stmt 1 view .LVU357
 1345 0008 052B     		cmp	r3, #5
 1346 000a 02D0     		beq	.L111
 1347 000c 082B     		cmp	r3, #8
 1348 000e 03D0     		beq	.L112
 1349              	.LVL158:
 1350              	.L110:
 989:Middlewares/Third_Party/LoRaWAN/Mac/Region/Region.c ****     {
 990:Middlewares/Third_Party/LoRaWAN/Mac/Region/Region.c ****         AS923_RX_BEACON_SETUP( );
 991:Middlewares/Third_Party/LoRaWAN/Mac/Region/Region.c ****         AU915_RX_BEACON_SETUP( );
 992:Middlewares/Third_Party/LoRaWAN/Mac/Region/Region.c ****         CN470_RX_BEACON_SETUP( );
 993:Middlewares/Third_Party/LoRaWAN/Mac/Region/Region.c ****         CN779_RX_BEACON_SETUP( );
 994:Middlewares/Third_Party/LoRaWAN/Mac/Region/Region.c ****         EU433_RX_BEACON_SETUP( );
 995:Middlewares/Third_Party/LoRaWAN/Mac/Region/Region.c ****         EU868_RX_BEACON_SETUP( );
 996:Middlewares/Third_Party/LoRaWAN/Mac/Region/Region.c ****         KR920_RX_BEACON_SETUP( );
 997:Middlewares/Third_Party/LoRaWAN/Mac/Region/Region.c ****         IN865_RX_BEACON_SETUP( );
 998:Middlewares/Third_Party/LoRaWAN/Mac/Region/Region.c ****         US915_RX_BEACON_SETUP( );
 999:Middlewares/Third_Party/LoRaWAN/Mac/Region/Region.c ****         RU864_RX_BEACON_SETUP( );
1000:Middlewares/Third_Party/LoRaWAN/Mac/Region/Region.c ****         default:
1001:Middlewares/Third_Party/LoRaWAN/Mac/Region/Region.c ****         {
1002:Middlewares/Third_Party/LoRaWAN/Mac/Region/Region.c ****             break;
1003:Middlewares/Third_Party/LoRaWAN/Mac/Region/Region.c ****         }
1004:Middlewares/Third_Party/LoRaWAN/Mac/Region/Region.c ****     }
1005:Middlewares/Third_Party/LoRaWAN/Mac/Region/Region.c **** }
 1351              		.loc 1 1005 1 is_stmt 0 view .LVU358
 1352 0010 08BD     		pop	{r3, pc}
 1353              	.LVL159:
 1354              	.L111:
 990:Middlewares/Third_Party/LoRaWAN/Mac/Region/Region.c ****         AU915_RX_BEACON_SETUP( );
 1355              		.loc 1 990 33 is_stmt 1 view .LVU359
 991:Middlewares/Third_Party/LoRaWAN/Mac/Region/Region.c ****         CN470_RX_BEACON_SETUP( );
 1356              		.loc 1 991 33 view .LVU360
 992:Middlewares/Third_Party/LoRaWAN/Mac/Region/Region.c ****         CN779_RX_BEACON_SETUP( );
 1357              		.loc 1 992 33 view .LVU361
ARM GAS  /tmp/cc1L9RAu.s 			page 46


 993:Middlewares/Third_Party/LoRaWAN/Mac/Region/Region.c ****         EU433_RX_BEACON_SETUP( );
 1358              		.loc 1 993 33 view .LVU362
 994:Middlewares/Third_Party/LoRaWAN/Mac/Region/Region.c ****         EU868_RX_BEACON_SETUP( );
 1359              		.loc 1 994 33 view .LVU363
 995:Middlewares/Third_Party/LoRaWAN/Mac/Region/Region.c ****         KR920_RX_BEACON_SETUP( );
 1360              		.loc 1 995 9 view .LVU364
 1361 0012 FFF7FEFF 		bl	RegionEU868RxBeaconSetup
 1362              	.LVL160:
 995:Middlewares/Third_Party/LoRaWAN/Mac/Region/Region.c ****         KR920_RX_BEACON_SETUP( );
 1363              		.loc 1 995 9 view .LVU365
 1364 0016 FBE7     		b	.L110
 1365              	.LVL161:
 1366              	.L112:
 995:Middlewares/Third_Party/LoRaWAN/Mac/Region/Region.c ****         KR920_RX_BEACON_SETUP( );
 1367              		.loc 1 995 33 view .LVU366
 996:Middlewares/Third_Party/LoRaWAN/Mac/Region/Region.c ****         IN865_RX_BEACON_SETUP( );
 1368              		.loc 1 996 33 view .LVU367
 997:Middlewares/Third_Party/LoRaWAN/Mac/Region/Region.c ****         US915_RX_BEACON_SETUP( );
 1369              		.loc 1 997 33 view .LVU368
 998:Middlewares/Third_Party/LoRaWAN/Mac/Region/Region.c ****         RU864_RX_BEACON_SETUP( );
 1370              		.loc 1 998 9 view .LVU369
 1371 0018 FFF7FEFF 		bl	RegionUS915RxBeaconSetup
 1372              	.LVL162:
 998:Middlewares/Third_Party/LoRaWAN/Mac/Region/Region.c ****         RU864_RX_BEACON_SETUP( );
 1373              		.loc 1 998 9 view .LVU370
 1374              		.loc 1 1005 1 is_stmt 0 view .LVU371
 1375 001c F8E7     		b	.L110
 1376              		.cfi_endproc
 1377              	.LFE125:
 1379              		.section	.text.RegionGetVersion,"ax",%progbits
 1380              		.align	1
 1381              		.global	RegionGetVersion
 1382              		.syntax unified
 1383              		.thumb
 1384              		.thumb_func
 1385              		.fpu softvfp
 1387              	RegionGetVersion:
 1388              	.LFB126:
1006:Middlewares/Third_Party/LoRaWAN/Mac/Region/Region.c **** 
1007:Middlewares/Third_Party/LoRaWAN/Mac/Region/Region.c **** Version_t RegionGetVersion( void )
1008:Middlewares/Third_Party/LoRaWAN/Mac/Region/Region.c **** {
 1389              		.loc 1 1008 1 is_stmt 1 view -0
 1390              		.cfi_startproc
 1391              		@ args = 0, pretend = 0, frame = 0
 1392              		@ frame_needed = 0, uses_anonymous_args = 0
 1393              		@ link register save eliminated.
1009:Middlewares/Third_Party/LoRaWAN/Mac/Region/Region.c ****     Version_t version;
 1394              		.loc 1 1009 5 view .LVU373
1010:Middlewares/Third_Party/LoRaWAN/Mac/Region/Region.c **** 
1011:Middlewares/Third_Party/LoRaWAN/Mac/Region/Region.c ****     version.Value = REGION_VERSION;
 1395              		.loc 1 1011 5 view .LVU374
1012:Middlewares/Third_Party/LoRaWAN/Mac/Region/Region.c **** 
1013:Middlewares/Third_Party/LoRaWAN/Mac/Region/Region.c ****     return version;
 1396              		.loc 1 1013 5 view .LVU375
1014:Middlewares/Third_Party/LoRaWAN/Mac/Region/Region.c **** }
 1397              		.loc 1 1014 1 is_stmt 0 view .LVU376
 1398 0000 0048     		ldr	r0, .L116
ARM GAS  /tmp/cc1L9RAu.s 			page 47


 1399 0002 7047     		bx	lr
 1400              	.L117:
 1401              		.align	2
 1402              	.L116:
 1403 0004 00030001 		.word	16777984
 1404              		.cfi_endproc
 1405              	.LFE126:
 1407              		.text
 1408              	.Letext0:
 1409              		.file 2 "/home/eatkinso/Downloads/gcc-arm-none-eabi-10.3-2021.07/gcc-arm-none-eabi-10.3-2021.07/ar
 1410              		.file 3 "/home/eatkinso/Downloads/gcc-arm-none-eabi-10.3-2021.07/gcc-arm-none-eabi-10.3-2021.07/ar
 1411              		.file 4 "Utilities/timer/stm32_timer.h"
 1412              		.file 5 "Utilities/misc/stm32_systime.h"
 1413              		.file 6 "Middlewares/Third_Party/LoRaWAN/Mac/LoRaMacTypes.h"
 1414              		.file 7 "Middlewares/Third_Party/LoRaWAN/Utilities/utilities.h"
 1415              		.file 8 "Middlewares/Third_Party/LoRaWAN/Mac/LoRaMac.h"
 1416              		.file 9 "Middlewares/Third_Party/LoRaWAN/Mac/Region/Region.h"
 1417              		.file 10 "Middlewares/Third_Party/LoRaWAN/Mac/Region/RegionEU868.h"
 1418              		.file 11 "Middlewares/Third_Party/LoRaWAN/Mac/Region/RegionUS915.h"
ARM GAS  /tmp/cc1L9RAu.s 			page 48

