ARM GAS  /tmp/cczpAp4p.s 			page 1


   1              		.cpu cortex-m4
   2              		.eabi_attribute 20, 1
   3              		.eabi_attribute 21, 1
   4              		.eabi_attribute 23, 3
   5              		.eabi_attribute 24, 1
   6              		.eabi_attribute 25, 1
   7              		.eabi_attribute 26, 1
   8              		.eabi_attribute 30, 1
   9              		.eabi_attribute 34, 1
  10              		.eabi_attribute 18, 4
  11              		.file	"RegionUS915.c"
  12              		.text
  13              	.Ltext0:
  14              		.cfi_sections	.debug_frame
  15              		.section	.text.VerifyRfFreq,"ax",%progbits
  16              		.align	1
  17              		.arch armv7e-m
  18              		.syntax unified
  19              		.thumb
  20              		.thumb_func
  21              		.fpu softvfp
  23              	VerifyRfFreq:
  24              	.LVL0:
  25              	.LFB105:
  26              		.file 1 "Middlewares/Third_Party/LoRaWAN/Mac/Region/RegionUS915.c"
   1:Middlewares/Third_Party/LoRaWAN/Mac/Region/RegionUS915.c **** /*!
   2:Middlewares/Third_Party/LoRaWAN/Mac/Region/RegionUS915.c ****  * \file      RegionUS915.c
   3:Middlewares/Third_Party/LoRaWAN/Mac/Region/RegionUS915.c ****  *
   4:Middlewares/Third_Party/LoRaWAN/Mac/Region/RegionUS915.c ****  * \brief     Region implementation for US915
   5:Middlewares/Third_Party/LoRaWAN/Mac/Region/RegionUS915.c ****  *
   6:Middlewares/Third_Party/LoRaWAN/Mac/Region/RegionUS915.c ****  * \copyright Revised BSD License, see section \ref LICENSE.
   7:Middlewares/Third_Party/LoRaWAN/Mac/Region/RegionUS915.c ****  *
   8:Middlewares/Third_Party/LoRaWAN/Mac/Region/RegionUS915.c ****  * \code
   9:Middlewares/Third_Party/LoRaWAN/Mac/Region/RegionUS915.c ****  *                ______                              _
  10:Middlewares/Third_Party/LoRaWAN/Mac/Region/RegionUS915.c ****  *               / _____)             _              | |
  11:Middlewares/Third_Party/LoRaWAN/Mac/Region/RegionUS915.c ****  *              ( (____  _____ ____ _| |_ _____  ____| |__
  12:Middlewares/Third_Party/LoRaWAN/Mac/Region/RegionUS915.c ****  *               \____ \| ___ |    (_   _) ___ |/ ___)  _ \
  13:Middlewares/Third_Party/LoRaWAN/Mac/Region/RegionUS915.c ****  *               _____) ) ____| | | || |_| ____( (___| | | |
  14:Middlewares/Third_Party/LoRaWAN/Mac/Region/RegionUS915.c ****  *              (______/|_____)_|_|_| \__)_____)\____)_| |_|
  15:Middlewares/Third_Party/LoRaWAN/Mac/Region/RegionUS915.c ****  *              (C)2013-2017 Semtech
  16:Middlewares/Third_Party/LoRaWAN/Mac/Region/RegionUS915.c ****  *
  17:Middlewares/Third_Party/LoRaWAN/Mac/Region/RegionUS915.c ****  *               ___ _____ _   ___ _  _____ ___  ___  ___ ___
  18:Middlewares/Third_Party/LoRaWAN/Mac/Region/RegionUS915.c ****  *              / __|_   _/_\ / __| |/ / __/ _ \| _ \/ __| __|
  19:Middlewares/Third_Party/LoRaWAN/Mac/Region/RegionUS915.c ****  *              \__ \ | |/ _ \ (__| ' <| _| (_) |   / (__| _|
  20:Middlewares/Third_Party/LoRaWAN/Mac/Region/RegionUS915.c ****  *              |___/ |_/_/ \_\___|_|\_\_| \___/|_|_\\___|___|
  21:Middlewares/Third_Party/LoRaWAN/Mac/Region/RegionUS915.c ****  *              embedded.connectivity.solutions===============
  22:Middlewares/Third_Party/LoRaWAN/Mac/Region/RegionUS915.c ****  *
  23:Middlewares/Third_Party/LoRaWAN/Mac/Region/RegionUS915.c ****  * \endcode
  24:Middlewares/Third_Party/LoRaWAN/Mac/Region/RegionUS915.c ****  *
  25:Middlewares/Third_Party/LoRaWAN/Mac/Region/RegionUS915.c ****  * \author    Miguel Luis ( Semtech )
  26:Middlewares/Third_Party/LoRaWAN/Mac/Region/RegionUS915.c ****  *
  27:Middlewares/Third_Party/LoRaWAN/Mac/Region/RegionUS915.c ****  * \author    Gregory Cristian ( Semtech )
  28:Middlewares/Third_Party/LoRaWAN/Mac/Region/RegionUS915.c ****  *
  29:Middlewares/Third_Party/LoRaWAN/Mac/Region/RegionUS915.c ****  * \author    Daniel Jaeckle ( STACKFORCE )
  30:Middlewares/Third_Party/LoRaWAN/Mac/Region/RegionUS915.c **** */
  31:Middlewares/Third_Party/LoRaWAN/Mac/Region/RegionUS915.c **** /**
  32:Middlewares/Third_Party/LoRaWAN/Mac/Region/RegionUS915.c ****   ******************************************************************************
ARM GAS  /tmp/cczpAp4p.s 			page 2


  33:Middlewares/Third_Party/LoRaWAN/Mac/Region/RegionUS915.c ****   *
  34:Middlewares/Third_Party/LoRaWAN/Mac/Region/RegionUS915.c ****   *          Portions COPYRIGHT 2020 STMicroelectronics
  35:Middlewares/Third_Party/LoRaWAN/Mac/Region/RegionUS915.c ****   *
  36:Middlewares/Third_Party/LoRaWAN/Mac/Region/RegionUS915.c ****   * @file    RegionUS915.c
  37:Middlewares/Third_Party/LoRaWAN/Mac/Region/RegionUS915.c ****   * @author  MCD Application Team
  38:Middlewares/Third_Party/LoRaWAN/Mac/Region/RegionUS915.c ****   * @brief   Region implementation for US915
  39:Middlewares/Third_Party/LoRaWAN/Mac/Region/RegionUS915.c ****   ******************************************************************************
  40:Middlewares/Third_Party/LoRaWAN/Mac/Region/RegionUS915.c ****   */
  41:Middlewares/Third_Party/LoRaWAN/Mac/Region/RegionUS915.c **** #include "radio.h"
  42:Middlewares/Third_Party/LoRaWAN/Mac/Region/RegionUS915.c **** #include "RegionCommon.h"
  43:Middlewares/Third_Party/LoRaWAN/Mac/Region/RegionUS915.c **** #include "RegionUS915.h"
  44:Middlewares/Third_Party/LoRaWAN/Mac/Region/RegionUS915.c **** #include "RegionBaseUS.h"
  45:Middlewares/Third_Party/LoRaWAN/Mac/Region/RegionUS915.c **** #include "lorawan_conf.h"  /* REGION_* */
  46:Middlewares/Third_Party/LoRaWAN/Mac/Region/RegionUS915.c **** 
  47:Middlewares/Third_Party/LoRaWAN/Mac/Region/RegionUS915.c **** // Definitions
  48:Middlewares/Third_Party/LoRaWAN/Mac/Region/RegionUS915.c **** #define CHANNELS_MASK_SIZE              6
  49:Middlewares/Third_Party/LoRaWAN/Mac/Region/RegionUS915.c **** 
  50:Middlewares/Third_Party/LoRaWAN/Mac/Region/RegionUS915.c **** // A mask to select only valid 500KHz channels
  51:Middlewares/Third_Party/LoRaWAN/Mac/Region/RegionUS915.c **** #define CHANNELS_MASK_500KHZ_MASK       0x00FF
  52:Middlewares/Third_Party/LoRaWAN/Mac/Region/RegionUS915.c **** 
  53:Middlewares/Third_Party/LoRaWAN/Mac/Region/RegionUS915.c **** #if defined( REGION_US915 )
  54:Middlewares/Third_Party/LoRaWAN/Mac/Region/RegionUS915.c **** /*
  55:Middlewares/Third_Party/LoRaWAN/Mac/Region/RegionUS915.c ****  * Non-volatile module context.
  56:Middlewares/Third_Party/LoRaWAN/Mac/Region/RegionUS915.c ****  */
  57:Middlewares/Third_Party/LoRaWAN/Mac/Region/RegionUS915.c **** static RegionNvmDataGroup1_t* RegionNvmGroup1;
  58:Middlewares/Third_Party/LoRaWAN/Mac/Region/RegionUS915.c **** static RegionNvmDataGroup2_t* RegionNvmGroup2;
  59:Middlewares/Third_Party/LoRaWAN/Mac/Region/RegionUS915.c **** 
  60:Middlewares/Third_Party/LoRaWAN/Mac/Region/RegionUS915.c **** static int8_t LimitTxPower( int8_t txPower, int8_t maxBandTxPower, int8_t datarate, uint16_t* chann
  61:Middlewares/Third_Party/LoRaWAN/Mac/Region/RegionUS915.c **** {
  62:Middlewares/Third_Party/LoRaWAN/Mac/Region/RegionUS915.c ****     int8_t txPowerResult = txPower;
  63:Middlewares/Third_Party/LoRaWAN/Mac/Region/RegionUS915.c **** 
  64:Middlewares/Third_Party/LoRaWAN/Mac/Region/RegionUS915.c ****     // Limit tx power to the band max
  65:Middlewares/Third_Party/LoRaWAN/Mac/Region/RegionUS915.c ****     txPowerResult =  RegionCommonLimitTxPower( txPower, maxBandTxPower );
  66:Middlewares/Third_Party/LoRaWAN/Mac/Region/RegionUS915.c **** 
  67:Middlewares/Third_Party/LoRaWAN/Mac/Region/RegionUS915.c ****     if( datarate == DR_4 )
  68:Middlewares/Third_Party/LoRaWAN/Mac/Region/RegionUS915.c ****     {// Limit tx power to max 26dBm
  69:Middlewares/Third_Party/LoRaWAN/Mac/Region/RegionUS915.c ****         txPowerResult = MAX( txPower, TX_POWER_2 );
  70:Middlewares/Third_Party/LoRaWAN/Mac/Region/RegionUS915.c ****     }
  71:Middlewares/Third_Party/LoRaWAN/Mac/Region/RegionUS915.c ****     else
  72:Middlewares/Third_Party/LoRaWAN/Mac/Region/RegionUS915.c ****     {
  73:Middlewares/Third_Party/LoRaWAN/Mac/Region/RegionUS915.c ****         if( RegionCommonCountChannels( channelsMask, 0, 4 ) < 50 )
  74:Middlewares/Third_Party/LoRaWAN/Mac/Region/RegionUS915.c ****         {// Limit tx power to max 21dBm
  75:Middlewares/Third_Party/LoRaWAN/Mac/Region/RegionUS915.c ****             txPowerResult = MAX( txPower, TX_POWER_5 );
  76:Middlewares/Third_Party/LoRaWAN/Mac/Region/RegionUS915.c ****         }
  77:Middlewares/Third_Party/LoRaWAN/Mac/Region/RegionUS915.c ****     }
  78:Middlewares/Third_Party/LoRaWAN/Mac/Region/RegionUS915.c ****     return txPowerResult;
  79:Middlewares/Third_Party/LoRaWAN/Mac/Region/RegionUS915.c **** }
  80:Middlewares/Third_Party/LoRaWAN/Mac/Region/RegionUS915.c **** 
  81:Middlewares/Third_Party/LoRaWAN/Mac/Region/RegionUS915.c **** static bool VerifyRfFreq( uint32_t freq )
  82:Middlewares/Third_Party/LoRaWAN/Mac/Region/RegionUS915.c **** {
  27              		.loc 1 82 1 view -0
  28              		.cfi_startproc
  29              		@ args = 0, pretend = 0, frame = 0
  30              		@ frame_needed = 0, uses_anonymous_args = 0
  31              		.loc 1 82 1 is_stmt 0 view .LVU1
  32 0000 10B5     		push	{r4, lr}
  33              	.LCFI0:
ARM GAS  /tmp/cczpAp4p.s 			page 3


  34              		.cfi_def_cfa_offset 8
  35              		.cfi_offset 4, -8
  36              		.cfi_offset 14, -4
  37 0002 0446     		mov	r4, r0
  83:Middlewares/Third_Party/LoRaWAN/Mac/Region/RegionUS915.c ****     // Check radio driver support
  84:Middlewares/Third_Party/LoRaWAN/Mac/Region/RegionUS915.c ****     if( Radio.CheckRfFrequency( freq ) == false )
  38              		.loc 1 84 5 is_stmt 1 view .LVU2
  39              		.loc 1 84 14 is_stmt 0 view .LVU3
  40 0004 104B     		ldr	r3, .L7
  41 0006 1B6A     		ldr	r3, [r3, #32]
  42              		.loc 1 84 9 view .LVU4
  43 0008 9847     		blx	r3
  44              	.LVL1:
  45              		.loc 1 84 7 view .LVU5
  46 000a C8B1     		cbz	r0, .L2
  85:Middlewares/Third_Party/LoRaWAN/Mac/Region/RegionUS915.c ****     {
  86:Middlewares/Third_Party/LoRaWAN/Mac/Region/RegionUS915.c ****         return false;
  87:Middlewares/Third_Party/LoRaWAN/Mac/Region/RegionUS915.c ****     }
  88:Middlewares/Third_Party/LoRaWAN/Mac/Region/RegionUS915.c **** 
  89:Middlewares/Third_Party/LoRaWAN/Mac/Region/RegionUS915.c ****     // Rx frequencies
  90:Middlewares/Third_Party/LoRaWAN/Mac/Region/RegionUS915.c ****     if( ( freq < US915_FIRST_RX1_CHANNEL ) ||
  47              		.loc 1 90 5 is_stmt 1 view .LVU6
  48              		.loc 1 90 44 is_stmt 0 view .LVU7
  49 000c 0F4B     		ldr	r3, .L7+4
  50 000e 2344     		add	r3, r3, r4
  51              		.loc 1 90 7 view .LVU8
  52 0010 0F4A     		ldr	r2, .L7+8
  53 0012 9342     		cmp	r3, r2
  54 0014 13D8     		bhi	.L3
  91:Middlewares/Third_Party/LoRaWAN/Mac/Region/RegionUS915.c ****         ( freq > US915_LAST_RX1_CHANNEL ) ||
  92:Middlewares/Third_Party/LoRaWAN/Mac/Region/RegionUS915.c ****         ( ( ( freq - ( uint32_t ) US915_FIRST_RX1_CHANNEL ) % ( uint32_t ) US915_STEPWIDTH_RX1_CHAN
  55              		.loc 1 92 61 view .LVU9
  56 0016 02F1DF42 		add	r2, r2, #1870659584
  57 001a 02F5C812 		add	r2, r2, #1638400
  58 001e 02F24572 		addw	r2, r2, #1861
  59 0022 A2FB0312 		umull	r1, r2, r2, r3
  60 0026 920C     		lsrs	r2, r2, #18
  61 0028 0A49     		ldr	r1, .L7+12
  62 002a 01FB1232 		mls	r2, r1, r2, r3
  91:Middlewares/Third_Party/LoRaWAN/Mac/Region/RegionUS915.c ****         ( freq > US915_LAST_RX1_CHANNEL ) ||
  63              		.loc 1 91 43 view .LVU10
  64 002e 42B9     		cbnz	r2, .L4
  93:Middlewares/Third_Party/LoRaWAN/Mac/Region/RegionUS915.c ****     {
  94:Middlewares/Third_Party/LoRaWAN/Mac/Region/RegionUS915.c ****         return false;
  95:Middlewares/Third_Party/LoRaWAN/Mac/Region/RegionUS915.c ****     }
  96:Middlewares/Third_Party/LoRaWAN/Mac/Region/RegionUS915.c **** 
  97:Middlewares/Third_Party/LoRaWAN/Mac/Region/RegionUS915.c ****     // Test for frequency range - take RX and TX frequencies into account
  98:Middlewares/Third_Party/LoRaWAN/Mac/Region/RegionUS915.c ****     if( ( freq < 902300000 ) ||  ( freq > 927500000 ) )
  65              		.loc 1 98 5 is_stmt 1 view .LVU11
  66              		.loc 1 98 30 is_stmt 0 view .LVU12
  67 0030 094B     		ldr	r3, .L7+16
  68 0032 2344     		add	r3, r3, r4
  69              		.loc 1 98 7 view .LVU13
  70 0034 094A     		ldr	r2, .L7+20
  71 0036 9342     		cmp	r3, r2
  72 0038 02D9     		bls	.L2
  99:Middlewares/Third_Party/LoRaWAN/Mac/Region/RegionUS915.c ****     {
ARM GAS  /tmp/cczpAp4p.s 			page 4


 100:Middlewares/Third_Party/LoRaWAN/Mac/Region/RegionUS915.c ****         return false;
  73              		.loc 1 100 16 view .LVU14
  74 003a 0020     		movs	r0, #0
  75 003c 00E0     		b	.L2
  76              	.L3:
  94:Middlewares/Third_Party/LoRaWAN/Mac/Region/RegionUS915.c ****     }
  77              		.loc 1 94 16 view .LVU15
  78 003e 0020     		movs	r0, #0
  79              	.L2:
 101:Middlewares/Third_Party/LoRaWAN/Mac/Region/RegionUS915.c ****     }
 102:Middlewares/Third_Party/LoRaWAN/Mac/Region/RegionUS915.c ****     return true;
 103:Middlewares/Third_Party/LoRaWAN/Mac/Region/RegionUS915.c **** }
  80              		.loc 1 103 1 view .LVU16
  81 0040 10BD     		pop	{r4, pc}
  82              	.LVL2:
  83              	.L4:
  94:Middlewares/Third_Party/LoRaWAN/Mac/Region/RegionUS915.c ****     }
  84              		.loc 1 94 16 view .LVU17
  85 0042 0020     		movs	r0, #0
  86 0044 FCE7     		b	.L2
  87              	.L8:
  88 0046 00BF     		.align	2
  89              	.L7:
  90 0048 00000000 		.word	Radio
  91 004c 608FF7C8 		.word	-923300000
  92 0050 40164000 		.word	4200000
  93 0054 C0270900 		.word	600000
  94 0058 A0FE37CA 		.word	-902300000
  95 005c 80858001 		.word	25200000
  96              		.cfi_endproc
  97              	.LFE105:
  99              		.section	.text.GetTimeOnAir,"ax",%progbits
 100              		.align	1
 101              		.syntax unified
 102              		.thumb
 103              		.thumb_func
 104              		.fpu softvfp
 106              	GetTimeOnAir:
 107              	.LVL3:
 108              	.LFB106:
 104:Middlewares/Third_Party/LoRaWAN/Mac/Region/RegionUS915.c **** 
 105:Middlewares/Third_Party/LoRaWAN/Mac/Region/RegionUS915.c **** static TimerTime_t GetTimeOnAir( int8_t datarate, uint16_t pktLen )
 106:Middlewares/Third_Party/LoRaWAN/Mac/Region/RegionUS915.c **** {
 109              		.loc 1 106 1 is_stmt 1 view -0
 110              		.cfi_startproc
 111              		@ args = 0, pretend = 0, frame = 0
 112              		@ frame_needed = 0, uses_anonymous_args = 0
 113              		.loc 1 106 1 is_stmt 0 view .LVU19
 114 0000 70B5     		push	{r4, r5, r6, lr}
 115              	.LCFI1:
 116              		.cfi_def_cfa_offset 16
 117              		.cfi_offset 4, -16
 118              		.cfi_offset 5, -12
 119              		.cfi_offset 6, -8
 120              		.cfi_offset 14, -4
 121 0002 84B0     		sub	sp, sp, #16
 122              	.LCFI2:
ARM GAS  /tmp/cczpAp4p.s 			page 5


 123              		.cfi_def_cfa_offset 32
 124 0004 0C46     		mov	r4, r1
 107:Middlewares/Third_Party/LoRaWAN/Mac/Region/RegionUS915.c ****     int8_t phyDr = DataratesUS915[datarate];
 125              		.loc 1 107 5 is_stmt 1 view .LVU20
 126              		.loc 1 107 12 is_stmt 0 view .LVU21
 127 0006 0A4B     		ldr	r3, .L11
 128 0008 1E56     		ldrsb	r6, [r3, r0]
 129              	.LVL4:
 108:Middlewares/Third_Party/LoRaWAN/Mac/Region/RegionUS915.c ****     uint32_t bandwidth = RegionCommonGetBandwidth( datarate, BandwidthsUS915 );
 130              		.loc 1 108 5 is_stmt 1 view .LVU22
 131              		.loc 1 108 26 is_stmt 0 view .LVU23
 132 000a 0A49     		ldr	r1, .L11+4
 133              	.LVL5:
 134              		.loc 1 108 26 view .LVU24
 135 000c FFF7FEFF 		bl	RegionCommonGetBandwidth
 136              	.LVL6:
 137              		.loc 1 108 26 view .LVU25
 138 0010 0146     		mov	r1, r0
 139              	.LVL7:
 109:Middlewares/Third_Party/LoRaWAN/Mac/Region/RegionUS915.c **** 
 110:Middlewares/Third_Party/LoRaWAN/Mac/Region/RegionUS915.c ****     return Radio.TimeOnAir( MODEM_LORA, bandwidth, phyDr, 1, 8, false, pktLen, true );
 140              		.loc 1 110 5 is_stmt 1 view .LVU26
 141              		.loc 1 110 17 is_stmt 0 view .LVU27
 142 0012 094B     		ldr	r3, .L11+8
 143 0014 5D6A     		ldr	r5, [r3, #36]
 144              		.loc 1 110 12 view .LVU28
 145 0016 0120     		movs	r0, #1
 146              	.LVL8:
 147              		.loc 1 110 12 view .LVU29
 148 0018 0390     		str	r0, [sp, #12]
 149 001a E4B2     		uxtb	r4, r4
 150 001c 0294     		str	r4, [sp, #8]
 151 001e 0022     		movs	r2, #0
 152 0020 0192     		str	r2, [sp, #4]
 153 0022 0822     		movs	r2, #8
 154 0024 0092     		str	r2, [sp]
 155 0026 0346     		mov	r3, r0
 156 0028 3246     		mov	r2, r6
 157 002a A847     		blx	r5
 158              	.LVL9:
 111:Middlewares/Third_Party/LoRaWAN/Mac/Region/RegionUS915.c **** }
 159              		.loc 1 111 1 view .LVU30
 160 002c 04B0     		add	sp, sp, #16
 161              	.LCFI3:
 162              		.cfi_def_cfa_offset 16
 163              		@ sp needed
 164 002e 70BD     		pop	{r4, r5, r6, pc}
 165              	.LVL10:
 166              	.L12:
 167              		.loc 1 111 1 view .LVU31
 168              		.align	2
 169              	.L11:
 170 0030 00000000 		.word	.LANCHOR0
 171 0034 00000000 		.word	.LANCHOR1
 172 0038 00000000 		.word	Radio
 173              		.cfi_endproc
 174              	.LFE106:
ARM GAS  /tmp/cczpAp4p.s 			page 6


 176              		.section	.text.LimitTxPower,"ax",%progbits
 177              		.align	1
 178              		.syntax unified
 179              		.thumb
 180              		.thumb_func
 181              		.fpu softvfp
 183              	LimitTxPower:
 184              	.LVL11:
 185              	.LFB104:
  61:Middlewares/Third_Party/LoRaWAN/Mac/Region/RegionUS915.c ****     int8_t txPowerResult = txPower;
 186              		.loc 1 61 1 is_stmt 1 view -0
 187              		.cfi_startproc
 188              		@ args = 0, pretend = 0, frame = 0
 189              		@ frame_needed = 0, uses_anonymous_args = 0
  61:Middlewares/Third_Party/LoRaWAN/Mac/Region/RegionUS915.c ****     int8_t txPowerResult = txPower;
 190              		.loc 1 61 1 is_stmt 0 view .LVU33
 191 0000 F8B5     		push	{r3, r4, r5, r6, r7, lr}
 192              	.LCFI4:
 193              		.cfi_def_cfa_offset 24
 194              		.cfi_offset 3, -24
 195              		.cfi_offset 4, -20
 196              		.cfi_offset 5, -16
 197              		.cfi_offset 6, -12
 198              		.cfi_offset 7, -8
 199              		.cfi_offset 14, -4
 200 0002 0646     		mov	r6, r0
 201 0004 1546     		mov	r5, r2
 202 0006 1F46     		mov	r7, r3
  62:Middlewares/Third_Party/LoRaWAN/Mac/Region/RegionUS915.c **** 
 203              		.loc 1 62 5 is_stmt 1 view .LVU34
 204              	.LVL12:
  65:Middlewares/Third_Party/LoRaWAN/Mac/Region/RegionUS915.c **** 
 205              		.loc 1 65 5 view .LVU35
  65:Middlewares/Third_Party/LoRaWAN/Mac/Region/RegionUS915.c **** 
 206              		.loc 1 65 22 is_stmt 0 view .LVU36
 207 0008 FFF7FEFF 		bl	RegionCommonLimitTxPower
 208              	.LVL13:
  67:Middlewares/Third_Party/LoRaWAN/Mac/Region/RegionUS915.c ****     {// Limit tx power to max 26dBm
 209              		.loc 1 67 5 is_stmt 1 view .LVU37
  67:Middlewares/Third_Party/LoRaWAN/Mac/Region/RegionUS915.c ****     {// Limit tx power to max 26dBm
 210              		.loc 1 67 7 is_stmt 0 view .LVU38
 211 000c 042D     		cmp	r5, #4
 212 000e 05D1     		bne	.L14
  69:Middlewares/Third_Party/LoRaWAN/Mac/Region/RegionUS915.c ****     }
 213              		.loc 1 69 9 is_stmt 1 view .LVU39
  69:Middlewares/Third_Party/LoRaWAN/Mac/Region/RegionUS915.c ****     }
 214              		.loc 1 69 23 is_stmt 0 view .LVU40
 215 0010 3446     		mov	r4, r6
 216 0012 022E     		cmp	r6, #2
 217 0014 B8BF     		it	lt
 218 0016 0224     		movlt	r4, #2
 219              	.LVL14:
 220              	.L15:
  78:Middlewares/Third_Party/LoRaWAN/Mac/Region/RegionUS915.c **** }
 221              		.loc 1 78 5 is_stmt 1 view .LVU41
  79:Middlewares/Third_Party/LoRaWAN/Mac/Region/RegionUS915.c **** 
 222              		.loc 1 79 1 is_stmt 0 view .LVU42
ARM GAS  /tmp/cczpAp4p.s 			page 7


 223 0018 2046     		mov	r0, r4
 224 001a F8BD     		pop	{r3, r4, r5, r6, r7, pc}
 225              	.LVL15:
 226              	.L14:
  79:Middlewares/Third_Party/LoRaWAN/Mac/Region/RegionUS915.c **** 
 227              		.loc 1 79 1 view .LVU43
 228 001c 0446     		mov	r4, r0
  73:Middlewares/Third_Party/LoRaWAN/Mac/Region/RegionUS915.c ****         {// Limit tx power to max 21dBm
 229              		.loc 1 73 9 is_stmt 1 view .LVU44
  73:Middlewares/Third_Party/LoRaWAN/Mac/Region/RegionUS915.c ****         {// Limit tx power to max 21dBm
 230              		.loc 1 73 13 is_stmt 0 view .LVU45
 231 001e 0422     		movs	r2, #4
 232 0020 0021     		movs	r1, #0
 233 0022 3846     		mov	r0, r7
 234              	.LVL16:
  73:Middlewares/Third_Party/LoRaWAN/Mac/Region/RegionUS915.c ****         {// Limit tx power to max 21dBm
 235              		.loc 1 73 13 view .LVU46
 236 0024 FFF7FEFF 		bl	RegionCommonCountChannels
 237              	.LVL17:
  73:Middlewares/Third_Party/LoRaWAN/Mac/Region/RegionUS915.c ****         {// Limit tx power to max 21dBm
 238              		.loc 1 73 11 view .LVU47
 239 0028 3128     		cmp	r0, #49
 240 002a F5D8     		bhi	.L15
  75:Middlewares/Third_Party/LoRaWAN/Mac/Region/RegionUS915.c ****         }
 241              		.loc 1 75 13 is_stmt 1 view .LVU48
  75:Middlewares/Third_Party/LoRaWAN/Mac/Region/RegionUS915.c ****         }
 242              		.loc 1 75 27 is_stmt 0 view .LVU49
 243 002c 3446     		mov	r4, r6
 244 002e 052E     		cmp	r6, #5
 245 0030 B8BF     		it	lt
 246 0032 0524     		movlt	r4, #5
 247              	.LVL18:
  75:Middlewares/Third_Party/LoRaWAN/Mac/Region/RegionUS915.c ****         }
 248              		.loc 1 75 27 view .LVU50
 249 0034 F0E7     		b	.L15
 250              		.cfi_endproc
 251              	.LFE104:
 253              		.section	.text.RegionUS915GetPhyParam,"ax",%progbits
 254              		.align	1
 255              		.global	RegionUS915GetPhyParam
 256              		.syntax unified
 257              		.thumb
 258              		.thumb_func
 259              		.fpu softvfp
 261              	RegionUS915GetPhyParam:
 262              	.LVL19:
 263              	.LFB107:
 112:Middlewares/Third_Party/LoRaWAN/Mac/Region/RegionUS915.c **** #endif /* REGION_US915 */
 113:Middlewares/Third_Party/LoRaWAN/Mac/Region/RegionUS915.c **** 
 114:Middlewares/Third_Party/LoRaWAN/Mac/Region/RegionUS915.c **** PhyParam_t RegionUS915GetPhyParam( GetPhyParams_t* getPhy )
 115:Middlewares/Third_Party/LoRaWAN/Mac/Region/RegionUS915.c **** {
 264              		.loc 1 115 1 is_stmt 1 view -0
 265              		.cfi_startproc
 266              		@ args = 0, pretend = 0, frame = 24
 267              		@ frame_needed = 0, uses_anonymous_args = 0
 268              		.loc 1 115 1 is_stmt 0 view .LVU52
 269 0000 00B5     		push	{lr}
ARM GAS  /tmp/cczpAp4p.s 			page 8


 270              	.LCFI5:
 271              		.cfi_def_cfa_offset 4
 272              		.cfi_offset 14, -4
 273 0002 87B0     		sub	sp, sp, #28
 274              	.LCFI6:
 275              		.cfi_def_cfa_offset 32
 116:Middlewares/Third_Party/LoRaWAN/Mac/Region/RegionUS915.c ****     PhyParam_t phyParam = { 0 };
 276              		.loc 1 116 5 is_stmt 1 view .LVU53
 277              		.loc 1 116 16 is_stmt 0 view .LVU54
 278 0004 0023     		movs	r3, #0
 279 0006 0493     		str	r3, [sp, #16]
 117:Middlewares/Third_Party/LoRaWAN/Mac/Region/RegionUS915.c **** 
 118:Middlewares/Third_Party/LoRaWAN/Mac/Region/RegionUS915.c **** #if defined( REGION_US915 )
 119:Middlewares/Third_Party/LoRaWAN/Mac/Region/RegionUS915.c ****     switch( getPhy->Attribute )
 280              		.loc 1 119 5 is_stmt 1 view .LVU55
 281              		.loc 1 119 19 is_stmt 0 view .LVU56
 282 0008 0378     		ldrb	r3, [r0]	@ zero_extendqisi2
 283              		.loc 1 119 5 view .LVU57
 284 000a 013B     		subs	r3, r3, #1
 285 000c 382B     		cmp	r3, #56
 286 000e 20D8     		bhi	.L18
 287 0010 DFE803F0 		tbb	[pc, r3]
 288              	.L20:
 289 0014 1D       		.byte	(.L49-.L20)/2
 290 0015 1F       		.byte	(.L18-.L20)/2
 291 0016 1F       		.byte	(.L18-.L20)/2
 292 0017 1F       		.byte	(.L18-.L20)/2
 293 0018 1F       		.byte	(.L18-.L20)/2
 294 0019 1F       		.byte	(.L18-.L20)/2
 295 001a 1F       		.byte	(.L18-.L20)/2
 296 001b 1F       		.byte	(.L18-.L20)/2
 297 001c 1F       		.byte	(.L18-.L20)/2
 298 001d 1F       		.byte	(.L18-.L20)/2
 299 001e 3C       		.byte	(.L48-.L20)/2
 300 001f 3F       		.byte	(.L47-.L20)/2
 301 0020 42       		.byte	(.L46-.L20)/2
 302 0021 48       		.byte	(.L45-.L20)/2
 303 0022 1F       		.byte	(.L18-.L20)/2
 304 0023 4E       		.byte	(.L44-.L20)/2
 305 0024 52       		.byte	(.L43-.L20)/2
 306 0025 56       		.byte	(.L42-.L20)/2
 307 0026 5A       		.byte	(.L41-.L20)/2
 308 0027 5E       		.byte	(.L40-.L20)/2
 309 0028 62       		.byte	(.L39-.L20)/2
 310 0029 66       		.byte	(.L38-.L20)/2
 311 002a 1F       		.byte	(.L18-.L20)/2
 312 002b 6F       		.byte	(.L37-.L20)/2
 313 002c 72       		.byte	(.L36-.L20)/2
 314 002d 75       		.byte	(.L35-.L20)/2
 315 002e 7B       		.byte	(.L34-.L20)/2
 316 002f 81       		.byte	(.L33-.L20)/2
 317 0030 84       		.byte	(.L32-.L20)/2
 318 0031 1F       		.byte	(.L18-.L20)/2
 319 0032 1F       		.byte	(.L18-.L20)/2
 320 0033 88       		.byte	(.L31-.L20)/2
 321 0034 8B       		.byte	(.L30-.L20)/2
 322 0035 24       		.byte	(.L29-.L20)/2
ARM GAS  /tmp/cczpAp4p.s 			page 9


 323 0036 1F       		.byte	(.L18-.L20)/2
 324 0037 1F       		.byte	(.L18-.L20)/2
 325 0038 1F       		.byte	(.L18-.L20)/2
 326 0039 1F       		.byte	(.L18-.L20)/2
 327 003a 1F       		.byte	(.L18-.L20)/2
 328 003b 1F       		.byte	(.L18-.L20)/2
 329 003c 1F       		.byte	(.L18-.L20)/2
 330 003d 1F       		.byte	(.L18-.L20)/2
 331 003e 1F       		.byte	(.L18-.L20)/2
 332 003f 1F       		.byte	(.L18-.L20)/2
 333 0040 1F       		.byte	(.L18-.L20)/2
 334 0041 1F       		.byte	(.L18-.L20)/2
 335 0042 1F       		.byte	(.L18-.L20)/2
 336 0043 8E       		.byte	(.L28-.L20)/2
 337 0044 95       		.byte	(.L27-.L20)/2
 338 0045 9F       		.byte	(.L26-.L20)/2
 339 0046 A2       		.byte	(.L25-.L20)/2
 340 0047 1F       		.byte	(.L18-.L20)/2
 341 0048 A5       		.byte	(.L24-.L20)/2
 342 0049 AC       		.byte	(.L23-.L20)/2
 343 004a AF       		.byte	(.L22-.L20)/2
 344 004b B2       		.byte	(.L21-.L20)/2
 345 004c B8       		.byte	(.L19-.L20)/2
 346 004d 00       		.p2align 1
 347              	.L49:
 120:Middlewares/Third_Party/LoRaWAN/Mac/Region/RegionUS915.c ****     {
 121:Middlewares/Third_Party/LoRaWAN/Mac/Region/RegionUS915.c ****         case PHY_MIN_RX_DR:
 122:Middlewares/Third_Party/LoRaWAN/Mac/Region/RegionUS915.c ****         {
 123:Middlewares/Third_Party/LoRaWAN/Mac/Region/RegionUS915.c ****             phyParam.Value = US915_RX_MIN_DATARATE;
 348              		.loc 1 123 13 is_stmt 1 view .LVU58
 349              		.loc 1 123 28 is_stmt 0 view .LVU59
 350 004e 0823     		movs	r3, #8
 351 0050 0493     		str	r3, [sp, #16]
 124:Middlewares/Third_Party/LoRaWAN/Mac/Region/RegionUS915.c ****             break;
 352              		.loc 1 124 13 is_stmt 1 view .LVU60
 353              	.LVL20:
 354              	.L18:
 125:Middlewares/Third_Party/LoRaWAN/Mac/Region/RegionUS915.c ****         }
 126:Middlewares/Third_Party/LoRaWAN/Mac/Region/RegionUS915.c ****         case PHY_MIN_TX_DR:
 127:Middlewares/Third_Party/LoRaWAN/Mac/Region/RegionUS915.c ****         {
 128:Middlewares/Third_Party/LoRaWAN/Mac/Region/RegionUS915.c ****             phyParam.Value = US915_TX_MIN_DATARATE;
 129:Middlewares/Third_Party/LoRaWAN/Mac/Region/RegionUS915.c ****             break;
 130:Middlewares/Third_Party/LoRaWAN/Mac/Region/RegionUS915.c ****         }
 131:Middlewares/Third_Party/LoRaWAN/Mac/Region/RegionUS915.c ****         case PHY_DEF_TX_DR:
 132:Middlewares/Third_Party/LoRaWAN/Mac/Region/RegionUS915.c ****         {
 133:Middlewares/Third_Party/LoRaWAN/Mac/Region/RegionUS915.c ****             phyParam.Value = US915_DEFAULT_DATARATE;
 134:Middlewares/Third_Party/LoRaWAN/Mac/Region/RegionUS915.c ****             break;
 135:Middlewares/Third_Party/LoRaWAN/Mac/Region/RegionUS915.c ****         }
 136:Middlewares/Third_Party/LoRaWAN/Mac/Region/RegionUS915.c ****         case PHY_NEXT_LOWER_TX_DR:
 137:Middlewares/Third_Party/LoRaWAN/Mac/Region/RegionUS915.c ****         {
 138:Middlewares/Third_Party/LoRaWAN/Mac/Region/RegionUS915.c ****             RegionCommonGetNextLowerTxDrParams_t nextLowerTxDrParams =
 139:Middlewares/Third_Party/LoRaWAN/Mac/Region/RegionUS915.c ****             {
 140:Middlewares/Third_Party/LoRaWAN/Mac/Region/RegionUS915.c ****                 .CurrentDr = getPhy->Datarate,
 141:Middlewares/Third_Party/LoRaWAN/Mac/Region/RegionUS915.c ****                 .MaxDr = ( int8_t )US915_TX_MAX_DATARATE,
 142:Middlewares/Third_Party/LoRaWAN/Mac/Region/RegionUS915.c ****                 .MinDr = ( int8_t )US915_TX_MIN_DATARATE,
 143:Middlewares/Third_Party/LoRaWAN/Mac/Region/RegionUS915.c ****                 .NbChannels = US915_MAX_NB_CHANNELS,
 144:Middlewares/Third_Party/LoRaWAN/Mac/Region/RegionUS915.c ****                 .ChannelsMask = RegionNvmGroup2->ChannelsMask,
ARM GAS  /tmp/cczpAp4p.s 			page 10


 145:Middlewares/Third_Party/LoRaWAN/Mac/Region/RegionUS915.c ****                 .Channels = RegionNvmGroup2->Channels,
 146:Middlewares/Third_Party/LoRaWAN/Mac/Region/RegionUS915.c ****             };
 147:Middlewares/Third_Party/LoRaWAN/Mac/Region/RegionUS915.c ****             phyParam.Value = RegionCommonGetNextLowerTxDr( &nextLowerTxDrParams );
 148:Middlewares/Third_Party/LoRaWAN/Mac/Region/RegionUS915.c ****             break;
 149:Middlewares/Third_Party/LoRaWAN/Mac/Region/RegionUS915.c ****         }
 150:Middlewares/Third_Party/LoRaWAN/Mac/Region/RegionUS915.c ****         case PHY_MAX_TX_POWER:
 151:Middlewares/Third_Party/LoRaWAN/Mac/Region/RegionUS915.c ****         {
 152:Middlewares/Third_Party/LoRaWAN/Mac/Region/RegionUS915.c ****             phyParam.Value = US915_MAX_TX_POWER;
 153:Middlewares/Third_Party/LoRaWAN/Mac/Region/RegionUS915.c ****             break;
 154:Middlewares/Third_Party/LoRaWAN/Mac/Region/RegionUS915.c ****         }
 155:Middlewares/Third_Party/LoRaWAN/Mac/Region/RegionUS915.c ****         case PHY_DEF_TX_POWER:
 156:Middlewares/Third_Party/LoRaWAN/Mac/Region/RegionUS915.c ****         {
 157:Middlewares/Third_Party/LoRaWAN/Mac/Region/RegionUS915.c ****             phyParam.Value = US915_DEFAULT_TX_POWER;
 158:Middlewares/Third_Party/LoRaWAN/Mac/Region/RegionUS915.c ****             break;
 159:Middlewares/Third_Party/LoRaWAN/Mac/Region/RegionUS915.c ****         }
 160:Middlewares/Third_Party/LoRaWAN/Mac/Region/RegionUS915.c ****         case PHY_DEF_ADR_ACK_LIMIT:
 161:Middlewares/Third_Party/LoRaWAN/Mac/Region/RegionUS915.c ****         {
 162:Middlewares/Third_Party/LoRaWAN/Mac/Region/RegionUS915.c ****             phyParam.Value = REGION_COMMON_DEFAULT_ADR_ACK_LIMIT;
 163:Middlewares/Third_Party/LoRaWAN/Mac/Region/RegionUS915.c ****             break;
 164:Middlewares/Third_Party/LoRaWAN/Mac/Region/RegionUS915.c ****         }
 165:Middlewares/Third_Party/LoRaWAN/Mac/Region/RegionUS915.c ****         case PHY_DEF_ADR_ACK_DELAY:
 166:Middlewares/Third_Party/LoRaWAN/Mac/Region/RegionUS915.c ****         {
 167:Middlewares/Third_Party/LoRaWAN/Mac/Region/RegionUS915.c ****             phyParam.Value = REGION_COMMON_DEFAULT_ADR_ACK_DELAY;
 168:Middlewares/Third_Party/LoRaWAN/Mac/Region/RegionUS915.c ****             break;
 169:Middlewares/Third_Party/LoRaWAN/Mac/Region/RegionUS915.c ****         }
 170:Middlewares/Third_Party/LoRaWAN/Mac/Region/RegionUS915.c ****         case PHY_MAX_PAYLOAD:
 171:Middlewares/Third_Party/LoRaWAN/Mac/Region/RegionUS915.c ****         {
 172:Middlewares/Third_Party/LoRaWAN/Mac/Region/RegionUS915.c ****             phyParam.Value = MaxPayloadOfDatarateUS915[getPhy->Datarate];
 173:Middlewares/Third_Party/LoRaWAN/Mac/Region/RegionUS915.c ****             break;
 174:Middlewares/Third_Party/LoRaWAN/Mac/Region/RegionUS915.c ****         }
 175:Middlewares/Third_Party/LoRaWAN/Mac/Region/RegionUS915.c ****         /* ST_WORKAROUND_BEGIN: Keep repeater feature */
 176:Middlewares/Third_Party/LoRaWAN/Mac/Region/RegionUS915.c ****         case PHY_MAX_PAYLOAD_REPEATER:
 177:Middlewares/Third_Party/LoRaWAN/Mac/Region/RegionUS915.c ****         {
 178:Middlewares/Third_Party/LoRaWAN/Mac/Region/RegionUS915.c ****             phyParam.Value = MaxPayloadOfDatarateRepeaterUS915[getPhy->Datarate];
 179:Middlewares/Third_Party/LoRaWAN/Mac/Region/RegionUS915.c ****             break;
 180:Middlewares/Third_Party/LoRaWAN/Mac/Region/RegionUS915.c ****         }
 181:Middlewares/Third_Party/LoRaWAN/Mac/Region/RegionUS915.c ****         /* ST_WORKAROUND_END */
 182:Middlewares/Third_Party/LoRaWAN/Mac/Region/RegionUS915.c ****         case PHY_DUTY_CYCLE:
 183:Middlewares/Third_Party/LoRaWAN/Mac/Region/RegionUS915.c ****         {
 184:Middlewares/Third_Party/LoRaWAN/Mac/Region/RegionUS915.c ****             phyParam.Value = US915_DUTY_CYCLE_ENABLED;
 185:Middlewares/Third_Party/LoRaWAN/Mac/Region/RegionUS915.c ****             break;
 186:Middlewares/Third_Party/LoRaWAN/Mac/Region/RegionUS915.c ****         }
 187:Middlewares/Third_Party/LoRaWAN/Mac/Region/RegionUS915.c ****         case PHY_MAX_RX_WINDOW:
 188:Middlewares/Third_Party/LoRaWAN/Mac/Region/RegionUS915.c ****         {
 189:Middlewares/Third_Party/LoRaWAN/Mac/Region/RegionUS915.c ****             phyParam.Value = US915_MAX_RX_WINDOW;
 190:Middlewares/Third_Party/LoRaWAN/Mac/Region/RegionUS915.c ****             break;
 191:Middlewares/Third_Party/LoRaWAN/Mac/Region/RegionUS915.c ****         }
 192:Middlewares/Third_Party/LoRaWAN/Mac/Region/RegionUS915.c ****         case PHY_RECEIVE_DELAY1:
 193:Middlewares/Third_Party/LoRaWAN/Mac/Region/RegionUS915.c ****         {
 194:Middlewares/Third_Party/LoRaWAN/Mac/Region/RegionUS915.c ****             phyParam.Value = REGION_COMMON_DEFAULT_RECEIVE_DELAY1;
 195:Middlewares/Third_Party/LoRaWAN/Mac/Region/RegionUS915.c ****             break;
 196:Middlewares/Third_Party/LoRaWAN/Mac/Region/RegionUS915.c ****         }
 197:Middlewares/Third_Party/LoRaWAN/Mac/Region/RegionUS915.c ****         case PHY_RECEIVE_DELAY2:
 198:Middlewares/Third_Party/LoRaWAN/Mac/Region/RegionUS915.c ****         {
 199:Middlewares/Third_Party/LoRaWAN/Mac/Region/RegionUS915.c ****             phyParam.Value = REGION_COMMON_DEFAULT_RECEIVE_DELAY2;
 200:Middlewares/Third_Party/LoRaWAN/Mac/Region/RegionUS915.c ****             break;
 201:Middlewares/Third_Party/LoRaWAN/Mac/Region/RegionUS915.c ****         }
ARM GAS  /tmp/cczpAp4p.s 			page 11


 202:Middlewares/Third_Party/LoRaWAN/Mac/Region/RegionUS915.c ****         case PHY_JOIN_ACCEPT_DELAY1:
 203:Middlewares/Third_Party/LoRaWAN/Mac/Region/RegionUS915.c ****         {
 204:Middlewares/Third_Party/LoRaWAN/Mac/Region/RegionUS915.c ****             phyParam.Value = REGION_COMMON_DEFAULT_JOIN_ACCEPT_DELAY1;
 205:Middlewares/Third_Party/LoRaWAN/Mac/Region/RegionUS915.c ****             break;
 206:Middlewares/Third_Party/LoRaWAN/Mac/Region/RegionUS915.c ****         }
 207:Middlewares/Third_Party/LoRaWAN/Mac/Region/RegionUS915.c ****         case PHY_JOIN_ACCEPT_DELAY2:
 208:Middlewares/Third_Party/LoRaWAN/Mac/Region/RegionUS915.c ****         {
 209:Middlewares/Third_Party/LoRaWAN/Mac/Region/RegionUS915.c ****             phyParam.Value = REGION_COMMON_DEFAULT_JOIN_ACCEPT_DELAY2;
 210:Middlewares/Third_Party/LoRaWAN/Mac/Region/RegionUS915.c ****             break;
 211:Middlewares/Third_Party/LoRaWAN/Mac/Region/RegionUS915.c ****         }
 212:Middlewares/Third_Party/LoRaWAN/Mac/Region/RegionUS915.c ****         case PHY_MAX_FCNT_GAP:
 213:Middlewares/Third_Party/LoRaWAN/Mac/Region/RegionUS915.c ****         {
 214:Middlewares/Third_Party/LoRaWAN/Mac/Region/RegionUS915.c ****             phyParam.Value = REGION_COMMON_DEFAULT_MAX_FCNT_GAP;
 215:Middlewares/Third_Party/LoRaWAN/Mac/Region/RegionUS915.c ****             break;
 216:Middlewares/Third_Party/LoRaWAN/Mac/Region/RegionUS915.c ****         }
 217:Middlewares/Third_Party/LoRaWAN/Mac/Region/RegionUS915.c ****         case PHY_ACK_TIMEOUT:
 218:Middlewares/Third_Party/LoRaWAN/Mac/Region/RegionUS915.c ****         {
 219:Middlewares/Third_Party/LoRaWAN/Mac/Region/RegionUS915.c ****             phyParam.Value = ( REGION_COMMON_DEFAULT_ACK_TIMEOUT + randr( -REGION_COMMON_DEFAULT_AC
 220:Middlewares/Third_Party/LoRaWAN/Mac/Region/RegionUS915.c ****             break;
 221:Middlewares/Third_Party/LoRaWAN/Mac/Region/RegionUS915.c ****         }
 222:Middlewares/Third_Party/LoRaWAN/Mac/Region/RegionUS915.c ****         case PHY_DEF_DR1_OFFSET:
 223:Middlewares/Third_Party/LoRaWAN/Mac/Region/RegionUS915.c ****         {
 224:Middlewares/Third_Party/LoRaWAN/Mac/Region/RegionUS915.c ****             phyParam.Value = REGION_COMMON_DEFAULT_RX1_DR_OFFSET;
 225:Middlewares/Third_Party/LoRaWAN/Mac/Region/RegionUS915.c ****             break;
 226:Middlewares/Third_Party/LoRaWAN/Mac/Region/RegionUS915.c ****         }
 227:Middlewares/Third_Party/LoRaWAN/Mac/Region/RegionUS915.c ****         case PHY_DEF_RX2_FREQUENCY:
 228:Middlewares/Third_Party/LoRaWAN/Mac/Region/RegionUS915.c ****         {
 229:Middlewares/Third_Party/LoRaWAN/Mac/Region/RegionUS915.c ****             phyParam.Value = US915_RX_WND_2_FREQ;
 230:Middlewares/Third_Party/LoRaWAN/Mac/Region/RegionUS915.c ****             break;
 231:Middlewares/Third_Party/LoRaWAN/Mac/Region/RegionUS915.c ****         }
 232:Middlewares/Third_Party/LoRaWAN/Mac/Region/RegionUS915.c ****         case PHY_DEF_RX2_DR:
 233:Middlewares/Third_Party/LoRaWAN/Mac/Region/RegionUS915.c ****         {
 234:Middlewares/Third_Party/LoRaWAN/Mac/Region/RegionUS915.c ****             phyParam.Value = US915_RX_WND_2_DR;
 235:Middlewares/Third_Party/LoRaWAN/Mac/Region/RegionUS915.c ****             break;
 236:Middlewares/Third_Party/LoRaWAN/Mac/Region/RegionUS915.c ****         }
 237:Middlewares/Third_Party/LoRaWAN/Mac/Region/RegionUS915.c ****         case PHY_CHANNELS_MASK:
 238:Middlewares/Third_Party/LoRaWAN/Mac/Region/RegionUS915.c ****         {
 239:Middlewares/Third_Party/LoRaWAN/Mac/Region/RegionUS915.c ****             phyParam.ChannelsMask = RegionNvmGroup2->ChannelsMask;
 240:Middlewares/Third_Party/LoRaWAN/Mac/Region/RegionUS915.c ****             break;
 241:Middlewares/Third_Party/LoRaWAN/Mac/Region/RegionUS915.c ****         }
 242:Middlewares/Third_Party/LoRaWAN/Mac/Region/RegionUS915.c ****         case PHY_CHANNELS_DEFAULT_MASK:
 243:Middlewares/Third_Party/LoRaWAN/Mac/Region/RegionUS915.c ****         {
 244:Middlewares/Third_Party/LoRaWAN/Mac/Region/RegionUS915.c ****             phyParam.ChannelsMask = RegionNvmGroup2->ChannelsDefaultMask;
 245:Middlewares/Third_Party/LoRaWAN/Mac/Region/RegionUS915.c ****             break;
 246:Middlewares/Third_Party/LoRaWAN/Mac/Region/RegionUS915.c ****         }
 247:Middlewares/Third_Party/LoRaWAN/Mac/Region/RegionUS915.c ****         case PHY_MAX_NB_CHANNELS:
 248:Middlewares/Third_Party/LoRaWAN/Mac/Region/RegionUS915.c ****         {
 249:Middlewares/Third_Party/LoRaWAN/Mac/Region/RegionUS915.c ****             phyParam.Value = US915_MAX_NB_CHANNELS;
 250:Middlewares/Third_Party/LoRaWAN/Mac/Region/RegionUS915.c ****             break;
 251:Middlewares/Third_Party/LoRaWAN/Mac/Region/RegionUS915.c ****         }
 252:Middlewares/Third_Party/LoRaWAN/Mac/Region/RegionUS915.c ****         case PHY_CHANNELS:
 253:Middlewares/Third_Party/LoRaWAN/Mac/Region/RegionUS915.c ****         {
 254:Middlewares/Third_Party/LoRaWAN/Mac/Region/RegionUS915.c ****             phyParam.Channels = RegionNvmGroup2->Channels;
 255:Middlewares/Third_Party/LoRaWAN/Mac/Region/RegionUS915.c ****             break;
 256:Middlewares/Third_Party/LoRaWAN/Mac/Region/RegionUS915.c ****         }
 257:Middlewares/Third_Party/LoRaWAN/Mac/Region/RegionUS915.c ****         case PHY_DEF_UPLINK_DWELL_TIME:
 258:Middlewares/Third_Party/LoRaWAN/Mac/Region/RegionUS915.c ****         {
ARM GAS  /tmp/cczpAp4p.s 			page 12


 259:Middlewares/Third_Party/LoRaWAN/Mac/Region/RegionUS915.c ****             phyParam.Value = US915_DEFAULT_UPLINK_DWELL_TIME;
 260:Middlewares/Third_Party/LoRaWAN/Mac/Region/RegionUS915.c ****             break;
 261:Middlewares/Third_Party/LoRaWAN/Mac/Region/RegionUS915.c ****         }
 262:Middlewares/Third_Party/LoRaWAN/Mac/Region/RegionUS915.c ****         case PHY_DEF_DOWNLINK_DWELL_TIME:
 263:Middlewares/Third_Party/LoRaWAN/Mac/Region/RegionUS915.c ****         {
 264:Middlewares/Third_Party/LoRaWAN/Mac/Region/RegionUS915.c ****             phyParam.Value = REGION_COMMON_DEFAULT_DOWNLINK_DWELL_TIME;
 265:Middlewares/Third_Party/LoRaWAN/Mac/Region/RegionUS915.c ****             break;
 266:Middlewares/Third_Party/LoRaWAN/Mac/Region/RegionUS915.c ****         }
 267:Middlewares/Third_Party/LoRaWAN/Mac/Region/RegionUS915.c ****         case PHY_DEF_MAX_EIRP:
 268:Middlewares/Third_Party/LoRaWAN/Mac/Region/RegionUS915.c ****         {
 269:Middlewares/Third_Party/LoRaWAN/Mac/Region/RegionUS915.c ****             phyParam.fValue = US915_DEFAULT_MAX_ERP + 2.15f;
 270:Middlewares/Third_Party/LoRaWAN/Mac/Region/RegionUS915.c ****             break;
 271:Middlewares/Third_Party/LoRaWAN/Mac/Region/RegionUS915.c ****         }
 272:Middlewares/Third_Party/LoRaWAN/Mac/Region/RegionUS915.c ****         case PHY_DEF_ANTENNA_GAIN:
 273:Middlewares/Third_Party/LoRaWAN/Mac/Region/RegionUS915.c ****         {
 274:Middlewares/Third_Party/LoRaWAN/Mac/Region/RegionUS915.c ****             phyParam.fValue = 0;
 275:Middlewares/Third_Party/LoRaWAN/Mac/Region/RegionUS915.c ****             break;
 276:Middlewares/Third_Party/LoRaWAN/Mac/Region/RegionUS915.c ****         }
 277:Middlewares/Third_Party/LoRaWAN/Mac/Region/RegionUS915.c ****         case PHY_BEACON_CHANNEL_FREQ:
 278:Middlewares/Third_Party/LoRaWAN/Mac/Region/RegionUS915.c ****         {
 279:Middlewares/Third_Party/LoRaWAN/Mac/Region/RegionUS915.c ****             phyParam.Value = RegionBaseUSCalcDownlinkFrequency( getPhy->Channel,
 280:Middlewares/Third_Party/LoRaWAN/Mac/Region/RegionUS915.c ****                                                                 US915_BEACON_CHANNEL_FREQ,
 281:Middlewares/Third_Party/LoRaWAN/Mac/Region/RegionUS915.c ****                                                                 US915_BEACON_CHANNEL_STEPWIDTH );
 282:Middlewares/Third_Party/LoRaWAN/Mac/Region/RegionUS915.c ****             break;
 283:Middlewares/Third_Party/LoRaWAN/Mac/Region/RegionUS915.c ****         }
 284:Middlewares/Third_Party/LoRaWAN/Mac/Region/RegionUS915.c ****         case PHY_BEACON_FORMAT:
 285:Middlewares/Third_Party/LoRaWAN/Mac/Region/RegionUS915.c ****         {
 286:Middlewares/Third_Party/LoRaWAN/Mac/Region/RegionUS915.c ****             phyParam.BeaconFormat.BeaconSize = US915_BEACON_SIZE;
 287:Middlewares/Third_Party/LoRaWAN/Mac/Region/RegionUS915.c ****             phyParam.BeaconFormat.Rfu1Size = US915_RFU1_SIZE;
 288:Middlewares/Third_Party/LoRaWAN/Mac/Region/RegionUS915.c ****             phyParam.BeaconFormat.Rfu2Size = US915_RFU2_SIZE;
 289:Middlewares/Third_Party/LoRaWAN/Mac/Region/RegionUS915.c ****             break;
 290:Middlewares/Third_Party/LoRaWAN/Mac/Region/RegionUS915.c ****         }
 291:Middlewares/Third_Party/LoRaWAN/Mac/Region/RegionUS915.c ****         case PHY_BEACON_CHANNEL_DR:
 292:Middlewares/Third_Party/LoRaWAN/Mac/Region/RegionUS915.c ****         {
 293:Middlewares/Third_Party/LoRaWAN/Mac/Region/RegionUS915.c ****             phyParam.Value = US915_BEACON_CHANNEL_DR;
 294:Middlewares/Third_Party/LoRaWAN/Mac/Region/RegionUS915.c ****             break;
 295:Middlewares/Third_Party/LoRaWAN/Mac/Region/RegionUS915.c ****         }
 296:Middlewares/Third_Party/LoRaWAN/Mac/Region/RegionUS915.c ****         case PHY_BEACON_NB_CHANNELS:
 297:Middlewares/Third_Party/LoRaWAN/Mac/Region/RegionUS915.c ****         {
 298:Middlewares/Third_Party/LoRaWAN/Mac/Region/RegionUS915.c ****             phyParam.Value = US915_BEACON_NB_CHANNELS;
 299:Middlewares/Third_Party/LoRaWAN/Mac/Region/RegionUS915.c ****             break;
 300:Middlewares/Third_Party/LoRaWAN/Mac/Region/RegionUS915.c ****         }
 301:Middlewares/Third_Party/LoRaWAN/Mac/Region/RegionUS915.c ****         case PHY_PING_SLOT_CHANNEL_FREQ:
 302:Middlewares/Third_Party/LoRaWAN/Mac/Region/RegionUS915.c ****         {
 303:Middlewares/Third_Party/LoRaWAN/Mac/Region/RegionUS915.c ****             phyParam.Value = RegionBaseUSCalcDownlinkFrequency( getPhy->Channel,
 304:Middlewares/Third_Party/LoRaWAN/Mac/Region/RegionUS915.c ****                                                                 US915_PING_SLOT_CHANNEL_FREQ,
 305:Middlewares/Third_Party/LoRaWAN/Mac/Region/RegionUS915.c ****                                                                 US915_BEACON_CHANNEL_STEPWIDTH );
 306:Middlewares/Third_Party/LoRaWAN/Mac/Region/RegionUS915.c ****             break;
 307:Middlewares/Third_Party/LoRaWAN/Mac/Region/RegionUS915.c ****         }
 308:Middlewares/Third_Party/LoRaWAN/Mac/Region/RegionUS915.c ****         case PHY_PING_SLOT_CHANNEL_DR:
 309:Middlewares/Third_Party/LoRaWAN/Mac/Region/RegionUS915.c ****         {
 310:Middlewares/Third_Party/LoRaWAN/Mac/Region/RegionUS915.c ****             phyParam.Value = US915_PING_SLOT_CHANNEL_DR;
 311:Middlewares/Third_Party/LoRaWAN/Mac/Region/RegionUS915.c ****             break;
 312:Middlewares/Third_Party/LoRaWAN/Mac/Region/RegionUS915.c ****         }
 313:Middlewares/Third_Party/LoRaWAN/Mac/Region/RegionUS915.c ****         case PHY_PING_SLOT_NB_CHANNELS:
 314:Middlewares/Third_Party/LoRaWAN/Mac/Region/RegionUS915.c ****         {
 315:Middlewares/Third_Party/LoRaWAN/Mac/Region/RegionUS915.c ****             phyParam.Value = US915_BEACON_NB_CHANNELS;
ARM GAS  /tmp/cczpAp4p.s 			page 13


 316:Middlewares/Third_Party/LoRaWAN/Mac/Region/RegionUS915.c ****             break;
 317:Middlewares/Third_Party/LoRaWAN/Mac/Region/RegionUS915.c ****         }
 318:Middlewares/Third_Party/LoRaWAN/Mac/Region/RegionUS915.c ****         case PHY_SF_FROM_DR:
 319:Middlewares/Third_Party/LoRaWAN/Mac/Region/RegionUS915.c ****         {
 320:Middlewares/Third_Party/LoRaWAN/Mac/Region/RegionUS915.c ****             phyParam.Value = DataratesUS915[getPhy->Datarate];
 321:Middlewares/Third_Party/LoRaWAN/Mac/Region/RegionUS915.c ****             break;
 322:Middlewares/Third_Party/LoRaWAN/Mac/Region/RegionUS915.c ****         }
 323:Middlewares/Third_Party/LoRaWAN/Mac/Region/RegionUS915.c ****         case PHY_BW_FROM_DR:
 324:Middlewares/Third_Party/LoRaWAN/Mac/Region/RegionUS915.c ****         {
 325:Middlewares/Third_Party/LoRaWAN/Mac/Region/RegionUS915.c ****             phyParam.Value = RegionCommonGetBandwidth( getPhy->Datarate, BandwidthsUS915 );
 326:Middlewares/Third_Party/LoRaWAN/Mac/Region/RegionUS915.c ****             break;
 327:Middlewares/Third_Party/LoRaWAN/Mac/Region/RegionUS915.c ****         }
 328:Middlewares/Third_Party/LoRaWAN/Mac/Region/RegionUS915.c ****         default:
 329:Middlewares/Third_Party/LoRaWAN/Mac/Region/RegionUS915.c ****         {
 330:Middlewares/Third_Party/LoRaWAN/Mac/Region/RegionUS915.c ****             break;
 331:Middlewares/Third_Party/LoRaWAN/Mac/Region/RegionUS915.c ****         }
 332:Middlewares/Third_Party/LoRaWAN/Mac/Region/RegionUS915.c ****     }
 333:Middlewares/Third_Party/LoRaWAN/Mac/Region/RegionUS915.c **** 
 334:Middlewares/Third_Party/LoRaWAN/Mac/Region/RegionUS915.c **** #endif /* REGION_US915 */
 335:Middlewares/Third_Party/LoRaWAN/Mac/Region/RegionUS915.c ****     return phyParam;
 355              		.loc 1 335 5 view .LVU61
 356              		.loc 1 335 12 is_stmt 0 view .LVU62
 357 0052 0498     		ldr	r0, [sp, #16]
 358 0054 0590     		str	r0, [sp, #20]
 336:Middlewares/Third_Party/LoRaWAN/Mac/Region/RegionUS915.c **** }
 359              		.loc 1 336 1 view .LVU63
 360 0056 07B0     		add	sp, sp, #28
 361              	.LCFI7:
 362              		.cfi_remember_state
 363              		.cfi_def_cfa_offset 4
 364              		@ sp needed
 365 0058 5DF804FB 		ldr	pc, [sp], #4
 366              	.LVL21:
 367              	.L29:
 368              	.LCFI8:
 369              		.cfi_restore_state
 370              	.LBB2:
 138:Middlewares/Third_Party/LoRaWAN/Mac/Region/RegionUS915.c ****             {
 371              		.loc 1 138 13 is_stmt 1 view .LVU64
 140:Middlewares/Third_Party/LoRaWAN/Mac/Region/RegionUS915.c ****                 .MaxDr = ( int8_t )US915_TX_MAX_DATARATE,
 372              		.loc 1 140 36 is_stmt 0 view .LVU65
 373 005c 90F90130 		ldrsb	r3, [r0, #1]
 138:Middlewares/Third_Party/LoRaWAN/Mac/Region/RegionUS915.c ****             {
 374              		.loc 1 138 50 view .LVU66
 375 0060 8DF80430 		strb	r3, [sp, #4]
 376 0064 0423     		movs	r3, #4
 377 0066 8DF80530 		strb	r3, [sp, #5]
 378 006a 0023     		movs	r3, #0
 379 006c 8DF80630 		strb	r3, [sp, #6]
 380 0070 4823     		movs	r3, #72
 381 0072 8DF80730 		strb	r3, [sp, #7]
 144:Middlewares/Third_Party/LoRaWAN/Mac/Region/RegionUS915.c ****                 .Channels = RegionNvmGroup2->Channels,
 382              		.loc 1 144 48 view .LVU67
 383 0076 474B     		ldr	r3, .L51
 384 0078 1B68     		ldr	r3, [r3]
 144:Middlewares/Third_Party/LoRaWAN/Mac/Region/RegionUS915.c ****                 .Channels = RegionNvmGroup2->Channels,
 385              		.loc 1 144 33 view .LVU68
ARM GAS  /tmp/cczpAp4p.s 			page 14


 386 007a 03F55872 		add	r2, r3, #864
 138:Middlewares/Third_Party/LoRaWAN/Mac/Region/RegionUS915.c ****             {
 387              		.loc 1 138 50 view .LVU69
 388 007e 0292     		str	r2, [sp, #8]
 389 0080 0393     		str	r3, [sp, #12]
 147:Middlewares/Third_Party/LoRaWAN/Mac/Region/RegionUS915.c ****             break;
 390              		.loc 1 147 13 is_stmt 1 view .LVU70
 147:Middlewares/Third_Party/LoRaWAN/Mac/Region/RegionUS915.c ****             break;
 391              		.loc 1 147 30 is_stmt 0 view .LVU71
 392 0082 01A8     		add	r0, sp, #4
 393              	.LVL22:
 147:Middlewares/Third_Party/LoRaWAN/Mac/Region/RegionUS915.c ****             break;
 394              		.loc 1 147 30 view .LVU72
 395 0084 FFF7FEFF 		bl	RegionCommonGetNextLowerTxDr
 396              	.LVL23:
 147:Middlewares/Third_Party/LoRaWAN/Mac/Region/RegionUS915.c ****             break;
 397              		.loc 1 147 28 view .LVU73
 398 0088 0490     		str	r0, [sp, #16]
 148:Middlewares/Third_Party/LoRaWAN/Mac/Region/RegionUS915.c ****         }
 399              		.loc 1 148 13 is_stmt 1 view .LVU74
 400 008a E2E7     		b	.L18
 401              	.LVL24:
 402              	.L48:
 148:Middlewares/Third_Party/LoRaWAN/Mac/Region/RegionUS915.c ****         }
 403              		.loc 1 148 13 is_stmt 0 view .LVU75
 404              	.LBE2:
 162:Middlewares/Third_Party/LoRaWAN/Mac/Region/RegionUS915.c ****             break;
 405              		.loc 1 162 13 is_stmt 1 view .LVU76
 162:Middlewares/Third_Party/LoRaWAN/Mac/Region/RegionUS915.c ****             break;
 406              		.loc 1 162 28 is_stmt 0 view .LVU77
 407 008c 4023     		movs	r3, #64
 408 008e 0493     		str	r3, [sp, #16]
 163:Middlewares/Third_Party/LoRaWAN/Mac/Region/RegionUS915.c ****         }
 409              		.loc 1 163 13 is_stmt 1 view .LVU78
 410 0090 DFE7     		b	.L18
 411              	.L47:
 167:Middlewares/Third_Party/LoRaWAN/Mac/Region/RegionUS915.c ****             break;
 412              		.loc 1 167 13 view .LVU79
 167:Middlewares/Third_Party/LoRaWAN/Mac/Region/RegionUS915.c ****             break;
 413              		.loc 1 167 28 is_stmt 0 view .LVU80
 414 0092 2023     		movs	r3, #32
 415 0094 0493     		str	r3, [sp, #16]
 168:Middlewares/Third_Party/LoRaWAN/Mac/Region/RegionUS915.c ****         }
 416              		.loc 1 168 13 is_stmt 1 view .LVU81
 417 0096 DCE7     		b	.L18
 418              	.L46:
 172:Middlewares/Third_Party/LoRaWAN/Mac/Region/RegionUS915.c ****             break;
 419              		.loc 1 172 13 view .LVU82
 172:Middlewares/Third_Party/LoRaWAN/Mac/Region/RegionUS915.c ****             break;
 420              		.loc 1 172 62 is_stmt 0 view .LVU83
 421 0098 90F90130 		ldrsb	r3, [r0, #1]
 172:Middlewares/Third_Party/LoRaWAN/Mac/Region/RegionUS915.c ****             break;
 422              		.loc 1 172 55 view .LVU84
 423 009c 3E4A     		ldr	r2, .L51+4
 424 009e D35C     		ldrb	r3, [r2, r3]	@ zero_extendqisi2
 172:Middlewares/Third_Party/LoRaWAN/Mac/Region/RegionUS915.c ****             break;
 425              		.loc 1 172 28 view .LVU85
ARM GAS  /tmp/cczpAp4p.s 			page 15


 426 00a0 0493     		str	r3, [sp, #16]
 173:Middlewares/Third_Party/LoRaWAN/Mac/Region/RegionUS915.c ****         }
 427              		.loc 1 173 13 is_stmt 1 view .LVU86
 428 00a2 D6E7     		b	.L18
 429              	.L45:
 178:Middlewares/Third_Party/LoRaWAN/Mac/Region/RegionUS915.c ****             break;
 430              		.loc 1 178 13 view .LVU87
 178:Middlewares/Third_Party/LoRaWAN/Mac/Region/RegionUS915.c ****             break;
 431              		.loc 1 178 70 is_stmt 0 view .LVU88
 432 00a4 90F90130 		ldrsb	r3, [r0, #1]
 178:Middlewares/Third_Party/LoRaWAN/Mac/Region/RegionUS915.c ****             break;
 433              		.loc 1 178 63 view .LVU89
 434 00a8 3C4A     		ldr	r2, .L51+8
 435 00aa D35C     		ldrb	r3, [r2, r3]	@ zero_extendqisi2
 178:Middlewares/Third_Party/LoRaWAN/Mac/Region/RegionUS915.c ****             break;
 436              		.loc 1 178 28 view .LVU90
 437 00ac 0493     		str	r3, [sp, #16]
 179:Middlewares/Third_Party/LoRaWAN/Mac/Region/RegionUS915.c ****         }
 438              		.loc 1 179 13 is_stmt 1 view .LVU91
 439 00ae D0E7     		b	.L18
 440              	.L44:
 189:Middlewares/Third_Party/LoRaWAN/Mac/Region/RegionUS915.c ****             break;
 441              		.loc 1 189 13 view .LVU92
 189:Middlewares/Third_Party/LoRaWAN/Mac/Region/RegionUS915.c ****             break;
 442              		.loc 1 189 28 is_stmt 0 view .LVU93
 443 00b0 40F6B833 		movw	r3, #3000
 444 00b4 0493     		str	r3, [sp, #16]
 190:Middlewares/Third_Party/LoRaWAN/Mac/Region/RegionUS915.c ****         }
 445              		.loc 1 190 13 is_stmt 1 view .LVU94
 446 00b6 CCE7     		b	.L18
 447              	.L43:
 194:Middlewares/Third_Party/LoRaWAN/Mac/Region/RegionUS915.c ****             break;
 448              		.loc 1 194 13 view .LVU95
 194:Middlewares/Third_Party/LoRaWAN/Mac/Region/RegionUS915.c ****             break;
 449              		.loc 1 194 28 is_stmt 0 view .LVU96
 450 00b8 4FF47A73 		mov	r3, #1000
 451 00bc 0493     		str	r3, [sp, #16]
 195:Middlewares/Third_Party/LoRaWAN/Mac/Region/RegionUS915.c ****         }
 452              		.loc 1 195 13 is_stmt 1 view .LVU97
 453 00be C8E7     		b	.L18
 454              	.L42:
 199:Middlewares/Third_Party/LoRaWAN/Mac/Region/RegionUS915.c ****             break;
 455              		.loc 1 199 13 view .LVU98
 199:Middlewares/Third_Party/LoRaWAN/Mac/Region/RegionUS915.c ****             break;
 456              		.loc 1 199 28 is_stmt 0 view .LVU99
 457 00c0 4FF4FA63 		mov	r3, #2000
 458 00c4 0493     		str	r3, [sp, #16]
 200:Middlewares/Third_Party/LoRaWAN/Mac/Region/RegionUS915.c ****         }
 459              		.loc 1 200 13 is_stmt 1 view .LVU100
 460 00c6 C4E7     		b	.L18
 461              	.L41:
 204:Middlewares/Third_Party/LoRaWAN/Mac/Region/RegionUS915.c ****             break;
 462              		.loc 1 204 13 view .LVU101
 204:Middlewares/Third_Party/LoRaWAN/Mac/Region/RegionUS915.c ****             break;
 463              		.loc 1 204 28 is_stmt 0 view .LVU102
 464 00c8 41F28833 		movw	r3, #5000
 465 00cc 0493     		str	r3, [sp, #16]
ARM GAS  /tmp/cczpAp4p.s 			page 16


 205:Middlewares/Third_Party/LoRaWAN/Mac/Region/RegionUS915.c ****         }
 466              		.loc 1 205 13 is_stmt 1 view .LVU103
 467 00ce C0E7     		b	.L18
 468              	.L40:
 209:Middlewares/Third_Party/LoRaWAN/Mac/Region/RegionUS915.c ****             break;
 469              		.loc 1 209 13 view .LVU104
 209:Middlewares/Third_Party/LoRaWAN/Mac/Region/RegionUS915.c ****             break;
 470              		.loc 1 209 28 is_stmt 0 view .LVU105
 471 00d0 41F27073 		movw	r3, #6000
 472 00d4 0493     		str	r3, [sp, #16]
 210:Middlewares/Third_Party/LoRaWAN/Mac/Region/RegionUS915.c ****         }
 473              		.loc 1 210 13 is_stmt 1 view .LVU106
 474 00d6 BCE7     		b	.L18
 475              	.L39:
 214:Middlewares/Third_Party/LoRaWAN/Mac/Region/RegionUS915.c ****             break;
 476              		.loc 1 214 13 view .LVU107
 214:Middlewares/Third_Party/LoRaWAN/Mac/Region/RegionUS915.c ****             break;
 477              		.loc 1 214 28 is_stmt 0 view .LVU108
 478 00d8 4FF48043 		mov	r3, #16384
 479 00dc 0493     		str	r3, [sp, #16]
 215:Middlewares/Third_Party/LoRaWAN/Mac/Region/RegionUS915.c ****         }
 480              		.loc 1 215 13 is_stmt 1 view .LVU109
 481 00de B8E7     		b	.L18
 482              	.L38:
 219:Middlewares/Third_Party/LoRaWAN/Mac/Region/RegionUS915.c ****             break;
 483              		.loc 1 219 13 view .LVU110
 219:Middlewares/Third_Party/LoRaWAN/Mac/Region/RegionUS915.c ****             break;
 484              		.loc 1 219 68 is_stmt 0 view .LVU111
 485 00e0 4FF47A71 		mov	r1, #1000
 486 00e4 2E48     		ldr	r0, .L51+12
 487              	.LVL25:
 219:Middlewares/Third_Party/LoRaWAN/Mac/Region/RegionUS915.c ****             break;
 488              		.loc 1 219 68 view .LVU112
 489 00e6 FFF7FEFF 		bl	randr
 490              	.LVL26:
 219:Middlewares/Third_Party/LoRaWAN/Mac/Region/RegionUS915.c ****             break;
 491              		.loc 1 219 66 view .LVU113
 492 00ea 00F5FA60 		add	r0, r0, #2000
 219:Middlewares/Third_Party/LoRaWAN/Mac/Region/RegionUS915.c ****             break;
 493              		.loc 1 219 28 view .LVU114
 494 00ee 0490     		str	r0, [sp, #16]
 220:Middlewares/Third_Party/LoRaWAN/Mac/Region/RegionUS915.c ****         }
 495              		.loc 1 220 13 is_stmt 1 view .LVU115
 496 00f0 AFE7     		b	.L18
 497              	.LVL27:
 498              	.L37:
 229:Middlewares/Third_Party/LoRaWAN/Mac/Region/RegionUS915.c ****             break;
 499              		.loc 1 229 13 view .LVU116
 229:Middlewares/Third_Party/LoRaWAN/Mac/Region/RegionUS915.c ****             break;
 500              		.loc 1 229 28 is_stmt 0 view .LVU117
 501 00f2 2C4B     		ldr	r3, .L51+16
 502 00f4 0493     		str	r3, [sp, #16]
 230:Middlewares/Third_Party/LoRaWAN/Mac/Region/RegionUS915.c ****         }
 503              		.loc 1 230 13 is_stmt 1 view .LVU118
 504 00f6 ACE7     		b	.L18
 505              	.L36:
 234:Middlewares/Third_Party/LoRaWAN/Mac/Region/RegionUS915.c ****             break;
ARM GAS  /tmp/cczpAp4p.s 			page 17


 506              		.loc 1 234 13 view .LVU119
 234:Middlewares/Third_Party/LoRaWAN/Mac/Region/RegionUS915.c ****             break;
 507              		.loc 1 234 28 is_stmt 0 view .LVU120
 508 00f8 0823     		movs	r3, #8
 509 00fa 0493     		str	r3, [sp, #16]
 235:Middlewares/Third_Party/LoRaWAN/Mac/Region/RegionUS915.c ****         }
 510              		.loc 1 235 13 is_stmt 1 view .LVU121
 511 00fc A9E7     		b	.L18
 512              	.L35:
 239:Middlewares/Third_Party/LoRaWAN/Mac/Region/RegionUS915.c ****             break;
 513              		.loc 1 239 13 view .LVU122
 239:Middlewares/Third_Party/LoRaWAN/Mac/Region/RegionUS915.c ****             break;
 514              		.loc 1 239 52 is_stmt 0 view .LVU123
 515 00fe 254B     		ldr	r3, .L51
 516 0100 1B68     		ldr	r3, [r3]
 239:Middlewares/Third_Party/LoRaWAN/Mac/Region/RegionUS915.c ****             break;
 517              		.loc 1 239 37 view .LVU124
 518 0102 03F55873 		add	r3, r3, #864
 239:Middlewares/Third_Party/LoRaWAN/Mac/Region/RegionUS915.c ****             break;
 519              		.loc 1 239 35 view .LVU125
 520 0106 0493     		str	r3, [sp, #16]
 240:Middlewares/Third_Party/LoRaWAN/Mac/Region/RegionUS915.c ****         }
 521              		.loc 1 240 13 is_stmt 1 view .LVU126
 522 0108 A3E7     		b	.L18
 523              	.L34:
 244:Middlewares/Third_Party/LoRaWAN/Mac/Region/RegionUS915.c ****             break;
 524              		.loc 1 244 13 view .LVU127
 244:Middlewares/Third_Party/LoRaWAN/Mac/Region/RegionUS915.c ****             break;
 525              		.loc 1 244 52 is_stmt 0 view .LVU128
 526 010a 224B     		ldr	r3, .L51
 527 010c 1B68     		ldr	r3, [r3]
 244:Middlewares/Third_Party/LoRaWAN/Mac/Region/RegionUS915.c ****             break;
 528              		.loc 1 244 37 view .LVU129
 529 010e 03F55B73 		add	r3, r3, #876
 244:Middlewares/Third_Party/LoRaWAN/Mac/Region/RegionUS915.c ****             break;
 530              		.loc 1 244 35 view .LVU130
 531 0112 0493     		str	r3, [sp, #16]
 245:Middlewares/Third_Party/LoRaWAN/Mac/Region/RegionUS915.c ****         }
 532              		.loc 1 245 13 is_stmt 1 view .LVU131
 533 0114 9DE7     		b	.L18
 534              	.L33:
 249:Middlewares/Third_Party/LoRaWAN/Mac/Region/RegionUS915.c ****             break;
 535              		.loc 1 249 13 view .LVU132
 249:Middlewares/Third_Party/LoRaWAN/Mac/Region/RegionUS915.c ****             break;
 536              		.loc 1 249 28 is_stmt 0 view .LVU133
 537 0116 4823     		movs	r3, #72
 538 0118 0493     		str	r3, [sp, #16]
 250:Middlewares/Third_Party/LoRaWAN/Mac/Region/RegionUS915.c ****         }
 539              		.loc 1 250 13 is_stmt 1 view .LVU134
 540 011a 9AE7     		b	.L18
 541              	.L32:
 254:Middlewares/Third_Party/LoRaWAN/Mac/Region/RegionUS915.c ****             break;
 542              		.loc 1 254 13 view .LVU135
 254:Middlewares/Third_Party/LoRaWAN/Mac/Region/RegionUS915.c ****             break;
 543              		.loc 1 254 48 is_stmt 0 view .LVU136
 544 011c 1D4B     		ldr	r3, .L51
 545 011e 1B68     		ldr	r3, [r3]
ARM GAS  /tmp/cczpAp4p.s 			page 18


 254:Middlewares/Third_Party/LoRaWAN/Mac/Region/RegionUS915.c ****             break;
 546              		.loc 1 254 31 view .LVU137
 547 0120 0493     		str	r3, [sp, #16]
 255:Middlewares/Third_Party/LoRaWAN/Mac/Region/RegionUS915.c ****         }
 548              		.loc 1 255 13 is_stmt 1 view .LVU138
 549 0122 96E7     		b	.L18
 550              	.L31:
 269:Middlewares/Third_Party/LoRaWAN/Mac/Region/RegionUS915.c ****             break;
 551              		.loc 1 269 13 view .LVU139
 269:Middlewares/Third_Party/LoRaWAN/Mac/Region/RegionUS915.c ****             break;
 552              		.loc 1 269 29 is_stmt 0 view .LVU140
 553 0124 204B     		ldr	r3, .L51+20
 554 0126 0493     		str	r3, [sp, #16]	@ float
 270:Middlewares/Third_Party/LoRaWAN/Mac/Region/RegionUS915.c ****         }
 555              		.loc 1 270 13 is_stmt 1 view .LVU141
 556 0128 93E7     		b	.L18
 557              	.L30:
 274:Middlewares/Third_Party/LoRaWAN/Mac/Region/RegionUS915.c ****             break;
 558              		.loc 1 274 13 view .LVU142
 274:Middlewares/Third_Party/LoRaWAN/Mac/Region/RegionUS915.c ****             break;
 559              		.loc 1 274 29 is_stmt 0 view .LVU143
 560 012a 0023     		movs	r3, #0
 561 012c 0493     		str	r3, [sp, #16]	@ float
 275:Middlewares/Third_Party/LoRaWAN/Mac/Region/RegionUS915.c ****         }
 562              		.loc 1 275 13 is_stmt 1 view .LVU144
 563 012e 90E7     		b	.L18
 564              	.L28:
 279:Middlewares/Third_Party/LoRaWAN/Mac/Region/RegionUS915.c ****                                                                 US915_BEACON_CHANNEL_FREQ,
 565              		.loc 1 279 13 view .LVU145
 279:Middlewares/Third_Party/LoRaWAN/Mac/Region/RegionUS915.c ****                                                                 US915_BEACON_CHANNEL_FREQ,
 566              		.loc 1 279 30 is_stmt 0 view .LVU146
 567 0130 1E4A     		ldr	r2, .L51+24
 568 0132 1C49     		ldr	r1, .L51+16
 569 0134 0079     		ldrb	r0, [r0, #4]	@ zero_extendqisi2
 570              	.LVL28:
 279:Middlewares/Third_Party/LoRaWAN/Mac/Region/RegionUS915.c ****                                                                 US915_BEACON_CHANNEL_FREQ,
 571              		.loc 1 279 30 view .LVU147
 572 0136 FFF7FEFF 		bl	RegionBaseUSCalcDownlinkFrequency
 573              	.LVL29:
 279:Middlewares/Third_Party/LoRaWAN/Mac/Region/RegionUS915.c ****                                                                 US915_BEACON_CHANNEL_FREQ,
 574              		.loc 1 279 28 view .LVU148
 575 013a 0490     		str	r0, [sp, #16]
 282:Middlewares/Third_Party/LoRaWAN/Mac/Region/RegionUS915.c ****         }
 576              		.loc 1 282 13 is_stmt 1 view .LVU149
 577 013c 89E7     		b	.L18
 578              	.LVL30:
 579              	.L27:
 286:Middlewares/Third_Party/LoRaWAN/Mac/Region/RegionUS915.c ****             phyParam.BeaconFormat.Rfu1Size = US915_RFU1_SIZE;
 580              		.loc 1 286 13 view .LVU150
 286:Middlewares/Third_Party/LoRaWAN/Mac/Region/RegionUS915.c ****             phyParam.BeaconFormat.Rfu1Size = US915_RFU1_SIZE;
 581              		.loc 1 286 46 is_stmt 0 view .LVU151
 582 013e 1723     		movs	r3, #23
 583 0140 8DF81030 		strb	r3, [sp, #16]
 287:Middlewares/Third_Party/LoRaWAN/Mac/Region/RegionUS915.c ****             phyParam.BeaconFormat.Rfu2Size = US915_RFU2_SIZE;
 584              		.loc 1 287 13 is_stmt 1 view .LVU152
 287:Middlewares/Third_Party/LoRaWAN/Mac/Region/RegionUS915.c ****             phyParam.BeaconFormat.Rfu2Size = US915_RFU2_SIZE;
 585              		.loc 1 287 44 is_stmt 0 view .LVU153
ARM GAS  /tmp/cczpAp4p.s 			page 19


 586 0144 0523     		movs	r3, #5
 587 0146 8DF81130 		strb	r3, [sp, #17]
 288:Middlewares/Third_Party/LoRaWAN/Mac/Region/RegionUS915.c ****             break;
 588              		.loc 1 288 13 is_stmt 1 view .LVU154
 288:Middlewares/Third_Party/LoRaWAN/Mac/Region/RegionUS915.c ****             break;
 589              		.loc 1 288 44 is_stmt 0 view .LVU155
 590 014a 0323     		movs	r3, #3
 591 014c 8DF81230 		strb	r3, [sp, #18]
 289:Middlewares/Third_Party/LoRaWAN/Mac/Region/RegionUS915.c ****         }
 592              		.loc 1 289 13 is_stmt 1 view .LVU156
 593 0150 7FE7     		b	.L18
 594              	.L26:
 293:Middlewares/Third_Party/LoRaWAN/Mac/Region/RegionUS915.c ****             break;
 595              		.loc 1 293 13 view .LVU157
 293:Middlewares/Third_Party/LoRaWAN/Mac/Region/RegionUS915.c ****             break;
 596              		.loc 1 293 28 is_stmt 0 view .LVU158
 597 0152 0823     		movs	r3, #8
 598 0154 0493     		str	r3, [sp, #16]
 294:Middlewares/Third_Party/LoRaWAN/Mac/Region/RegionUS915.c ****         }
 599              		.loc 1 294 13 is_stmt 1 view .LVU159
 600 0156 7CE7     		b	.L18
 601              	.L25:
 298:Middlewares/Third_Party/LoRaWAN/Mac/Region/RegionUS915.c ****             break;
 602              		.loc 1 298 13 view .LVU160
 298:Middlewares/Third_Party/LoRaWAN/Mac/Region/RegionUS915.c ****             break;
 603              		.loc 1 298 28 is_stmt 0 view .LVU161
 604 0158 0823     		movs	r3, #8
 605 015a 0493     		str	r3, [sp, #16]
 299:Middlewares/Third_Party/LoRaWAN/Mac/Region/RegionUS915.c ****         }
 606              		.loc 1 299 13 is_stmt 1 view .LVU162
 607 015c 79E7     		b	.L18
 608              	.L24:
 303:Middlewares/Third_Party/LoRaWAN/Mac/Region/RegionUS915.c ****                                                                 US915_PING_SLOT_CHANNEL_FREQ,
 609              		.loc 1 303 13 view .LVU163
 303:Middlewares/Third_Party/LoRaWAN/Mac/Region/RegionUS915.c ****                                                                 US915_PING_SLOT_CHANNEL_FREQ,
 610              		.loc 1 303 30 is_stmt 0 view .LVU164
 611 015e 134A     		ldr	r2, .L51+24
 612 0160 1049     		ldr	r1, .L51+16
 613 0162 0079     		ldrb	r0, [r0, #4]	@ zero_extendqisi2
 614              	.LVL31:
 303:Middlewares/Third_Party/LoRaWAN/Mac/Region/RegionUS915.c ****                                                                 US915_PING_SLOT_CHANNEL_FREQ,
 615              		.loc 1 303 30 view .LVU165
 616 0164 FFF7FEFF 		bl	RegionBaseUSCalcDownlinkFrequency
 617              	.LVL32:
 303:Middlewares/Third_Party/LoRaWAN/Mac/Region/RegionUS915.c ****                                                                 US915_PING_SLOT_CHANNEL_FREQ,
 618              		.loc 1 303 28 view .LVU166
 619 0168 0490     		str	r0, [sp, #16]
 306:Middlewares/Third_Party/LoRaWAN/Mac/Region/RegionUS915.c ****         }
 620              		.loc 1 306 13 is_stmt 1 view .LVU167
 621 016a 72E7     		b	.L18
 622              	.LVL33:
 623              	.L23:
 310:Middlewares/Third_Party/LoRaWAN/Mac/Region/RegionUS915.c ****             break;
 624              		.loc 1 310 13 view .LVU168
 310:Middlewares/Third_Party/LoRaWAN/Mac/Region/RegionUS915.c ****             break;
 625              		.loc 1 310 28 is_stmt 0 view .LVU169
 626 016c 0823     		movs	r3, #8
ARM GAS  /tmp/cczpAp4p.s 			page 20


 627 016e 0493     		str	r3, [sp, #16]
 311:Middlewares/Third_Party/LoRaWAN/Mac/Region/RegionUS915.c ****         }
 628              		.loc 1 311 13 is_stmt 1 view .LVU170
 629 0170 6FE7     		b	.L18
 630              	.L22:
 315:Middlewares/Third_Party/LoRaWAN/Mac/Region/RegionUS915.c ****             break;
 631              		.loc 1 315 13 view .LVU171
 315:Middlewares/Third_Party/LoRaWAN/Mac/Region/RegionUS915.c ****             break;
 632              		.loc 1 315 28 is_stmt 0 view .LVU172
 633 0172 0823     		movs	r3, #8
 634 0174 0493     		str	r3, [sp, #16]
 316:Middlewares/Third_Party/LoRaWAN/Mac/Region/RegionUS915.c ****         }
 635              		.loc 1 316 13 is_stmt 1 view .LVU173
 636 0176 6CE7     		b	.L18
 637              	.L21:
 320:Middlewares/Third_Party/LoRaWAN/Mac/Region/RegionUS915.c ****             break;
 638              		.loc 1 320 13 view .LVU174
 320:Middlewares/Third_Party/LoRaWAN/Mac/Region/RegionUS915.c ****             break;
 639              		.loc 1 320 51 is_stmt 0 view .LVU175
 640 0178 90F90130 		ldrsb	r3, [r0, #1]
 320:Middlewares/Third_Party/LoRaWAN/Mac/Region/RegionUS915.c ****             break;
 641              		.loc 1 320 44 view .LVU176
 642 017c 0C4A     		ldr	r2, .L51+28
 643 017e D35C     		ldrb	r3, [r2, r3]	@ zero_extendqisi2
 320:Middlewares/Third_Party/LoRaWAN/Mac/Region/RegionUS915.c ****             break;
 644              		.loc 1 320 28 view .LVU177
 645 0180 0493     		str	r3, [sp, #16]
 321:Middlewares/Third_Party/LoRaWAN/Mac/Region/RegionUS915.c ****         }
 646              		.loc 1 321 13 is_stmt 1 view .LVU178
 647 0182 66E7     		b	.L18
 648              	.L19:
 325:Middlewares/Third_Party/LoRaWAN/Mac/Region/RegionUS915.c ****             break;
 649              		.loc 1 325 13 view .LVU179
 325:Middlewares/Third_Party/LoRaWAN/Mac/Region/RegionUS915.c ****             break;
 650              		.loc 1 325 30 is_stmt 0 view .LVU180
 651 0184 0B49     		ldr	r1, .L51+32
 652 0186 90F90100 		ldrsb	r0, [r0, #1]
 653              	.LVL34:
 325:Middlewares/Third_Party/LoRaWAN/Mac/Region/RegionUS915.c ****             break;
 654              		.loc 1 325 30 view .LVU181
 655 018a FFF7FEFF 		bl	RegionCommonGetBandwidth
 656              	.LVL35:
 325:Middlewares/Third_Party/LoRaWAN/Mac/Region/RegionUS915.c ****             break;
 657              		.loc 1 325 28 view .LVU182
 658 018e 0490     		str	r0, [sp, #16]
 326:Middlewares/Third_Party/LoRaWAN/Mac/Region/RegionUS915.c ****         }
 659              		.loc 1 326 13 is_stmt 1 view .LVU183
 660 0190 5FE7     		b	.L18
 661              	.L52:
 662 0192 00BF     		.align	2
 663              	.L51:
 664 0194 00000000 		.word	.LANCHOR2
 665 0198 00000000 		.word	.LANCHOR3
 666 019c 00000000 		.word	.LANCHOR4
 667 01a0 18FCFFFF 		.word	-1000
 668 01a4 A0700837 		.word	923300000
 669 01a8 9A990042 		.word	1107335578
ARM GAS  /tmp/cczpAp4p.s 			page 21


 670 01ac C0270900 		.word	600000
 671 01b0 00000000 		.word	.LANCHOR0
 672 01b4 00000000 		.word	.LANCHOR1
 673              		.cfi_endproc
 674              	.LFE107:
 676              		.section	.text.RegionUS915SetBandTxDone,"ax",%progbits
 677              		.align	1
 678              		.global	RegionUS915SetBandTxDone
 679              		.syntax unified
 680              		.thumb
 681              		.thumb_func
 682              		.fpu softvfp
 684              	RegionUS915SetBandTxDone:
 685              	.LVL36:
 686              	.LFB108:
 337:Middlewares/Third_Party/LoRaWAN/Mac/Region/RegionUS915.c **** 
 338:Middlewares/Third_Party/LoRaWAN/Mac/Region/RegionUS915.c **** void RegionUS915SetBandTxDone( SetBandTxDoneParams_t* txDone )
 339:Middlewares/Third_Party/LoRaWAN/Mac/Region/RegionUS915.c **** {
 687              		.loc 1 339 1 view -0
 688              		.cfi_startproc
 689              		@ args = 0, pretend = 0, frame = 0
 690              		@ frame_needed = 0, uses_anonymous_args = 0
 691              		.loc 1 339 1 is_stmt 0 view .LVU185
 692 0000 10B5     		push	{r4, lr}
 693              	.LCFI9:
 694              		.cfi_def_cfa_offset 8
 695              		.cfi_offset 4, -8
 696              		.cfi_offset 14, -4
 697 0002 82B0     		sub	sp, sp, #8
 698              	.LCFI10:
 699              		.cfi_def_cfa_offset 16
 340:Middlewares/Third_Party/LoRaWAN/Mac/Region/RegionUS915.c **** #if defined( REGION_US915 )
 341:Middlewares/Third_Party/LoRaWAN/Mac/Region/RegionUS915.c ****     RegionCommonSetBandTxDone( &RegionNvmGroup1->Bands[RegionNvmGroup2->Channels[txDone->Channel].B
 700              		.loc 1 341 5 is_stmt 1 view .LVU186
 701              		.loc 1 341 48 is_stmt 0 view .LVU187
 702 0004 0B4B     		ldr	r3, .L55
 703 0006 1C68     		ldr	r4, [r3]
 704              		.loc 1 341 71 view .LVU188
 705 0008 0B4B     		ldr	r3, .L55+4
 706 000a 1A68     		ldr	r2, [r3]
 707              		.loc 1 341 88 view .LVU189
 708 000c 0378     		ldrb	r3, [r0]	@ zero_extendqisi2
 709              		.loc 1 341 98 view .LVU190
 710 000e 03EB4303 		add	r3, r3, r3, lsl #1
 711 0012 02EB8303 		add	r3, r2, r3, lsl #2
 712 0016 5B7A     		ldrb	r3, [r3, #9]	@ zero_extendqisi2
 713              		.loc 1 341 5 view .LVU191
 714 0018 03EB430C 		add	ip, r3, r3, lsl #1
 715 001c 0369     		ldr	r3, [r0, #16]
 716 001e 0093     		str	r3, [sp]
 717 0020 C368     		ldr	r3, [r0, #12]
 718 0022 4278     		ldrb	r2, [r0, #1]	@ zero_extendqisi2
 719 0024 8168     		ldr	r1, [r0, #8]
 720 0026 04EBCC00 		add	r0, r4, ip, lsl #3
 721              	.LVL37:
 722              		.loc 1 341 5 view .LVU192
 723 002a FFF7FEFF 		bl	RegionCommonSetBandTxDone
ARM GAS  /tmp/cczpAp4p.s 			page 22


 724              	.LVL38:
 342:Middlewares/Third_Party/LoRaWAN/Mac/Region/RegionUS915.c ****                                txDone->LastTxAirTime, txDone->Joined, txDone->ElapsedTimeSinceStart
 343:Middlewares/Third_Party/LoRaWAN/Mac/Region/RegionUS915.c **** #endif /* REGION_US915 */
 344:Middlewares/Third_Party/LoRaWAN/Mac/Region/RegionUS915.c **** }
 725              		.loc 1 344 1 view .LVU193
 726 002e 02B0     		add	sp, sp, #8
 727              	.LCFI11:
 728              		.cfi_def_cfa_offset 8
 729              		@ sp needed
 730 0030 10BD     		pop	{r4, pc}
 731              	.L56:
 732 0032 00BF     		.align	2
 733              	.L55:
 734 0034 00000000 		.word	.LANCHOR5
 735 0038 00000000 		.word	.LANCHOR2
 736              		.cfi_endproc
 737              	.LFE108:
 739              		.section	.text.RegionUS915InitDefaults,"ax",%progbits
 740              		.align	1
 741              		.global	RegionUS915InitDefaults
 742              		.syntax unified
 743              		.thumb
 744              		.thumb_func
 745              		.fpu softvfp
 747              	RegionUS915InitDefaults:
 748              	.LVL39:
 749              	.LFB109:
 345:Middlewares/Third_Party/LoRaWAN/Mac/Region/RegionUS915.c **** 
 346:Middlewares/Third_Party/LoRaWAN/Mac/Region/RegionUS915.c **** void RegionUS915InitDefaults( InitDefaultsParams_t* params )
 347:Middlewares/Third_Party/LoRaWAN/Mac/Region/RegionUS915.c **** {
 750              		.loc 1 347 1 is_stmt 1 view -0
 751              		.cfi_startproc
 752              		@ args = 0, pretend = 0, frame = 24
 753              		@ frame_needed = 0, uses_anonymous_args = 0
 754              		.loc 1 347 1 is_stmt 0 view .LVU195
 755 0000 10B5     		push	{r4, lr}
 756              	.LCFI12:
 757              		.cfi_def_cfa_offset 8
 758              		.cfi_offset 4, -8
 759              		.cfi_offset 14, -4
 760 0002 86B0     		sub	sp, sp, #24
 761              	.LCFI13:
 762              		.cfi_def_cfa_offset 32
 348:Middlewares/Third_Party/LoRaWAN/Mac/Region/RegionUS915.c **** #if defined( REGION_US915 )
 349:Middlewares/Third_Party/LoRaWAN/Mac/Region/RegionUS915.c ****     Band_t bands[US915_MAX_NB_BANDS] =
 763              		.loc 1 349 5 is_stmt 1 view .LVU196
 764              		.loc 1 349 12 is_stmt 0 view .LVU197
 765 0004 0123     		movs	r3, #1
 766 0006 ADF80030 		strh	r3, [sp]	@ movhi
 767 000a 0023     		movs	r3, #0
 768 000c 8DF80230 		strb	r3, [sp, #2]
 769 0010 0193     		str	r3, [sp, #4]
 770 0012 0293     		str	r3, [sp, #8]
 771 0014 0393     		str	r3, [sp, #12]
 772 0016 0493     		str	r3, [sp, #16]
 773 0018 8DF81430 		strb	r3, [sp, #20]
 350:Middlewares/Third_Party/LoRaWAN/Mac/Region/RegionUS915.c ****     {
ARM GAS  /tmp/cczpAp4p.s 			page 23


 351:Middlewares/Third_Party/LoRaWAN/Mac/Region/RegionUS915.c ****        US915_BAND0
 352:Middlewares/Third_Party/LoRaWAN/Mac/Region/RegionUS915.c ****     };
 353:Middlewares/Third_Party/LoRaWAN/Mac/Region/RegionUS915.c **** 
 354:Middlewares/Third_Party/LoRaWAN/Mac/Region/RegionUS915.c ****     switch( params->Type )
 774              		.loc 1 354 5 is_stmt 1 view .LVU198
 775              		.loc 1 354 19 is_stmt 0 view .LVU199
 776 001c 047A     		ldrb	r4, [r0, #8]	@ zero_extendqisi2
 777              		.loc 1 354 5 view .LVU200
 778 001e 7CB1     		cbz	r4, .L58
 779 0020 013C     		subs	r4, r4, #1
 780 0022 E4B2     		uxtb	r4, r4
 781 0024 012C     		cmp	r4, #1
 782 0026 00F28280 		bhi	.L57
 355:Middlewares/Third_Party/LoRaWAN/Mac/Region/RegionUS915.c ****     {
 356:Middlewares/Third_Party/LoRaWAN/Mac/Region/RegionUS915.c ****         case INIT_TYPE_DEFAULTS:
 357:Middlewares/Third_Party/LoRaWAN/Mac/Region/RegionUS915.c ****         {
 358:Middlewares/Third_Party/LoRaWAN/Mac/Region/RegionUS915.c ****             if( ( params->NvmGroup1 == NULL ) || ( params->NvmGroup2 == NULL ) )
 359:Middlewares/Third_Party/LoRaWAN/Mac/Region/RegionUS915.c ****             {
 360:Middlewares/Third_Party/LoRaWAN/Mac/Region/RegionUS915.c ****                 return;
 361:Middlewares/Third_Party/LoRaWAN/Mac/Region/RegionUS915.c ****             }
 362:Middlewares/Third_Party/LoRaWAN/Mac/Region/RegionUS915.c **** 
 363:Middlewares/Third_Party/LoRaWAN/Mac/Region/RegionUS915.c ****             RegionNvmGroup1 = (RegionNvmDataGroup1_t*) params->NvmGroup1;
 364:Middlewares/Third_Party/LoRaWAN/Mac/Region/RegionUS915.c ****             RegionNvmGroup2 = (RegionNvmDataGroup2_t*) params->NvmGroup2;
 365:Middlewares/Third_Party/LoRaWAN/Mac/Region/RegionUS915.c **** 
 366:Middlewares/Third_Party/LoRaWAN/Mac/Region/RegionUS915.c ****             // Initialize 8 bit channel groups index
 367:Middlewares/Third_Party/LoRaWAN/Mac/Region/RegionUS915.c ****             RegionNvmGroup1->JoinChannelGroupsCurrentIndex = 0;
 368:Middlewares/Third_Party/LoRaWAN/Mac/Region/RegionUS915.c **** 
 369:Middlewares/Third_Party/LoRaWAN/Mac/Region/RegionUS915.c ****             // Initialize the join trials counter
 370:Middlewares/Third_Party/LoRaWAN/Mac/Region/RegionUS915.c ****             RegionNvmGroup1->JoinTrialsCounter = 0;
 371:Middlewares/Third_Party/LoRaWAN/Mac/Region/RegionUS915.c **** 
 372:Middlewares/Third_Party/LoRaWAN/Mac/Region/RegionUS915.c ****             // Default bands
 373:Middlewares/Third_Party/LoRaWAN/Mac/Region/RegionUS915.c ****             memcpy1( ( uint8_t* )RegionNvmGroup1->Bands, ( uint8_t* )bands, sizeof( Band_t ) * US91
 374:Middlewares/Third_Party/LoRaWAN/Mac/Region/RegionUS915.c **** 
 375:Middlewares/Third_Party/LoRaWAN/Mac/Region/RegionUS915.c ****             // Default channels
 376:Middlewares/Third_Party/LoRaWAN/Mac/Region/RegionUS915.c ****             for( uint8_t i = 0; i < US915_MAX_NB_CHANNELS - 8; i++ )
 377:Middlewares/Third_Party/LoRaWAN/Mac/Region/RegionUS915.c ****             {
 378:Middlewares/Third_Party/LoRaWAN/Mac/Region/RegionUS915.c ****                 // 125 kHz channels
 379:Middlewares/Third_Party/LoRaWAN/Mac/Region/RegionUS915.c ****                 RegionNvmGroup2->Channels[i].Frequency = 902300000 + i * 200000;
 380:Middlewares/Third_Party/LoRaWAN/Mac/Region/RegionUS915.c ****                 RegionNvmGroup2->Channels[i].DrRange.Value = ( DR_3 << 4 ) | DR_0;
 381:Middlewares/Third_Party/LoRaWAN/Mac/Region/RegionUS915.c ****                 RegionNvmGroup2->Channels[i].Band = 0;
 382:Middlewares/Third_Party/LoRaWAN/Mac/Region/RegionUS915.c ****             }
 383:Middlewares/Third_Party/LoRaWAN/Mac/Region/RegionUS915.c ****             for( uint8_t i = US915_MAX_NB_CHANNELS - 8; i < US915_MAX_NB_CHANNELS; i++ )
 384:Middlewares/Third_Party/LoRaWAN/Mac/Region/RegionUS915.c ****             {
 385:Middlewares/Third_Party/LoRaWAN/Mac/Region/RegionUS915.c ****                 // 500 kHz channels
 386:Middlewares/Third_Party/LoRaWAN/Mac/Region/RegionUS915.c ****                 RegionNvmGroup2->Channels[i].Frequency = 903000000 + ( i - ( US915_MAX_NB_CHANNELS 
 387:Middlewares/Third_Party/LoRaWAN/Mac/Region/RegionUS915.c ****                 RegionNvmGroup2->Channels[i].DrRange.Value = ( DR_4 << 4 ) | DR_4;
 388:Middlewares/Third_Party/LoRaWAN/Mac/Region/RegionUS915.c ****                 RegionNvmGroup2->Channels[i].Band = 0;
 389:Middlewares/Third_Party/LoRaWAN/Mac/Region/RegionUS915.c ****             }
 390:Middlewares/Third_Party/LoRaWAN/Mac/Region/RegionUS915.c **** 
 391:Middlewares/Third_Party/LoRaWAN/Mac/Region/RegionUS915.c ****             // Default ChannelsMask
 392:Middlewares/Third_Party/LoRaWAN/Mac/Region/RegionUS915.c ****             /* ST_WORKAROUND_BEGIN: Hybrid mode */
 393:Middlewares/Third_Party/LoRaWAN/Mac/Region/RegionUS915.c **** #if ( HYBRID_ENABLED == 1 )
 394:Middlewares/Third_Party/LoRaWAN/Mac/Region/RegionUS915.c ****             RegionNvmGroup2->ChannelsDefaultMask[0] = 0x00FF;
 395:Middlewares/Third_Party/LoRaWAN/Mac/Region/RegionUS915.c ****             RegionNvmGroup2->ChannelsDefaultMask[1] = 0x0000;
 396:Middlewares/Third_Party/LoRaWAN/Mac/Region/RegionUS915.c ****             RegionNvmGroup2->ChannelsDefaultMask[2] = 0x0000;
 397:Middlewares/Third_Party/LoRaWAN/Mac/Region/RegionUS915.c ****             RegionNvmGroup2->ChannelsDefaultMask[3] = 0x0000;
 398:Middlewares/Third_Party/LoRaWAN/Mac/Region/RegionUS915.c ****             RegionNvmGroup2->ChannelsDefaultMask[4] = 0x0001;
ARM GAS  /tmp/cczpAp4p.s 			page 24


 399:Middlewares/Third_Party/LoRaWAN/Mac/Region/RegionUS915.c ****             RegionNvmGroup2->ChannelsDefaultMask[5] = 0x0000;
 400:Middlewares/Third_Party/LoRaWAN/Mac/Region/RegionUS915.c **** #else
 401:Middlewares/Third_Party/LoRaWAN/Mac/Region/RegionUS915.c ****             RegionNvmGroup2->ChannelsDefaultMask[0] = 0xFFFF;
 402:Middlewares/Third_Party/LoRaWAN/Mac/Region/RegionUS915.c ****             RegionNvmGroup2->ChannelsDefaultMask[1] = 0xFFFF;
 403:Middlewares/Third_Party/LoRaWAN/Mac/Region/RegionUS915.c ****             RegionNvmGroup2->ChannelsDefaultMask[2] = 0xFFFF;
 404:Middlewares/Third_Party/LoRaWAN/Mac/Region/RegionUS915.c ****             RegionNvmGroup2->ChannelsDefaultMask[3] = 0xFFFF;
 405:Middlewares/Third_Party/LoRaWAN/Mac/Region/RegionUS915.c ****             RegionNvmGroup2->ChannelsDefaultMask[4] = 0x00FF;
 406:Middlewares/Third_Party/LoRaWAN/Mac/Region/RegionUS915.c ****             RegionNvmGroup2->ChannelsDefaultMask[5] = 0x0000;
 407:Middlewares/Third_Party/LoRaWAN/Mac/Region/RegionUS915.c **** #endif /* HYBRID_ENABLED == 1 */
 408:Middlewares/Third_Party/LoRaWAN/Mac/Region/RegionUS915.c ****             /* ST_WORKAROUND_END */
 409:Middlewares/Third_Party/LoRaWAN/Mac/Region/RegionUS915.c **** 
 410:Middlewares/Third_Party/LoRaWAN/Mac/Region/RegionUS915.c ****             // Copy channels default mask
 411:Middlewares/Third_Party/LoRaWAN/Mac/Region/RegionUS915.c ****             RegionCommonChanMaskCopy( RegionNvmGroup2->ChannelsMask, RegionNvmGroup2->ChannelsDefau
 412:Middlewares/Third_Party/LoRaWAN/Mac/Region/RegionUS915.c **** 
 413:Middlewares/Third_Party/LoRaWAN/Mac/Region/RegionUS915.c ****             // Copy into channels mask remaining
 414:Middlewares/Third_Party/LoRaWAN/Mac/Region/RegionUS915.c ****             RegionCommonChanMaskCopy( RegionNvmGroup1->ChannelsMaskRemaining, RegionNvmGroup2->Chan
 415:Middlewares/Third_Party/LoRaWAN/Mac/Region/RegionUS915.c ****             break;
 416:Middlewares/Third_Party/LoRaWAN/Mac/Region/RegionUS915.c ****         }
 417:Middlewares/Third_Party/LoRaWAN/Mac/Region/RegionUS915.c ****         case INIT_TYPE_RESET_TO_DEFAULT_CHANNELS:
 418:Middlewares/Third_Party/LoRaWAN/Mac/Region/RegionUS915.c ****         {
 419:Middlewares/Third_Party/LoRaWAN/Mac/Region/RegionUS915.c ****             // Intentional fallthrough
 420:Middlewares/Third_Party/LoRaWAN/Mac/Region/RegionUS915.c ****         }
 783              		.loc 1 420 9 is_stmt 1 view .LVU201
 421:Middlewares/Third_Party/LoRaWAN/Mac/Region/RegionUS915.c ****         case INIT_TYPE_ACTIVATE_DEFAULT_CHANNELS:
 422:Middlewares/Third_Party/LoRaWAN/Mac/Region/RegionUS915.c ****         {
 423:Middlewares/Third_Party/LoRaWAN/Mac/Region/RegionUS915.c ****             // Copy channels default mask
 424:Middlewares/Third_Party/LoRaWAN/Mac/Region/RegionUS915.c ****             RegionCommonChanMaskCopy( RegionNvmGroup2->ChannelsMask, RegionNvmGroup2->ChannelsDefau
 784              		.loc 1 424 13 view .LVU202
 785              		.loc 1 424 54 is_stmt 0 view .LVU203
 786 002a 424B     		ldr	r3, .L73
 787 002c 1868     		ldr	r0, [r3]
 788              	.LVL40:
 789              		.loc 1 424 13 view .LVU204
 790 002e 0622     		movs	r2, #6
 791 0030 00F55B71 		add	r1, r0, #876
 792 0034 00F55870 		add	r0, r0, #864
 793 0038 FFF7FEFF 		bl	RegionCommonChanMaskCopy
 794              	.LVL41:
 425:Middlewares/Third_Party/LoRaWAN/Mac/Region/RegionUS915.c **** 
 426:Middlewares/Third_Party/LoRaWAN/Mac/Region/RegionUS915.c ****             for( uint8_t i = 0; i < CHANNELS_MASK_SIZE; i++ )
 795              		.loc 1 426 13 is_stmt 1 view .LVU205
 796              	.LBB3:
 797              		.loc 1 426 18 view .LVU206
 798              		.loc 1 426 26 is_stmt 0 view .LVU207
 799 003c 0023     		movs	r3, #0
 800              		.loc 1 426 13 view .LVU208
 801 003e 74E0     		b	.L68
 802              	.LVL42:
 803              	.L58:
 804              		.loc 1 426 13 view .LVU209
 805              	.LBE3:
 358:Middlewares/Third_Party/LoRaWAN/Mac/Region/RegionUS915.c ****             {
 806              		.loc 1 358 13 is_stmt 1 view .LVU210
 358:Middlewares/Third_Party/LoRaWAN/Mac/Region/RegionUS915.c ****             {
 807              		.loc 1 358 25 is_stmt 0 view .LVU211
 808 0040 0368     		ldr	r3, [r0]
 358:Middlewares/Third_Party/LoRaWAN/Mac/Region/RegionUS915.c ****             {
ARM GAS  /tmp/cczpAp4p.s 			page 25


 809              		.loc 1 358 15 view .LVU212
 810 0042 002B     		cmp	r3, #0
 811 0044 73D0     		beq	.L57
 358:Middlewares/Third_Party/LoRaWAN/Mac/Region/RegionUS915.c ****             {
 812              		.loc 1 358 58 discriminator 1 view .LVU213
 813 0046 4268     		ldr	r2, [r0, #4]
 358:Middlewares/Third_Party/LoRaWAN/Mac/Region/RegionUS915.c ****             {
 814              		.loc 1 358 47 discriminator 1 view .LVU214
 815 0048 002A     		cmp	r2, #0
 816 004a 70D0     		beq	.L57
 363:Middlewares/Third_Party/LoRaWAN/Mac/Region/RegionUS915.c ****             RegionNvmGroup2 = (RegionNvmDataGroup2_t*) params->NvmGroup2;
 817              		.loc 1 363 13 is_stmt 1 view .LVU215
 363:Middlewares/Third_Party/LoRaWAN/Mac/Region/RegionUS915.c ****             RegionNvmGroup2 = (RegionNvmDataGroup2_t*) params->NvmGroup2;
 818              		.loc 1 363 29 is_stmt 0 view .LVU216
 819 004c 3A49     		ldr	r1, .L73+4
 820 004e 0B60     		str	r3, [r1]
 364:Middlewares/Third_Party/LoRaWAN/Mac/Region/RegionUS915.c **** 
 821              		.loc 1 364 13 is_stmt 1 view .LVU217
 364:Middlewares/Third_Party/LoRaWAN/Mac/Region/RegionUS915.c **** 
 822              		.loc 1 364 29 is_stmt 0 view .LVU218
 823 0050 3849     		ldr	r1, .L73
 824 0052 0A60     		str	r2, [r1]
 367:Middlewares/Third_Party/LoRaWAN/Mac/Region/RegionUS915.c **** 
 825              		.loc 1 367 13 is_stmt 1 view .LVU219
 367:Middlewares/Third_Party/LoRaWAN/Mac/Region/RegionUS915.c **** 
 826              		.loc 1 367 60 is_stmt 0 view .LVU220
 827 0054 0022     		movs	r2, #0
 828 0056 83F89C20 		strb	r2, [r3, #156]
 370:Middlewares/Third_Party/LoRaWAN/Mac/Region/RegionUS915.c **** 
 829              		.loc 1 370 13 is_stmt 1 view .LVU221
 370:Middlewares/Third_Party/LoRaWAN/Mac/Region/RegionUS915.c **** 
 830              		.loc 1 370 48 is_stmt 0 view .LVU222
 831 005a 83F89D20 		strb	r2, [r3, #157]
 373:Middlewares/Third_Party/LoRaWAN/Mac/Region/RegionUS915.c **** 
 832              		.loc 1 373 13 is_stmt 1 view .LVU223
 833 005e 1822     		movs	r2, #24
 834 0060 6946     		mov	r1, sp
 835 0062 1846     		mov	r0, r3
 836              	.LVL43:
 373:Middlewares/Third_Party/LoRaWAN/Mac/Region/RegionUS915.c **** 
 837              		.loc 1 373 13 is_stmt 0 view .LVU224
 838 0064 FFF7FEFF 		bl	memcpy1
 839              	.LVL44:
 376:Middlewares/Third_Party/LoRaWAN/Mac/Region/RegionUS915.c ****             {
 840              		.loc 1 376 13 is_stmt 1 view .LVU225
 841              	.LBB4:
 376:Middlewares/Third_Party/LoRaWAN/Mac/Region/RegionUS915.c ****             {
 842              		.loc 1 376 18 view .LVU226
 376:Middlewares/Third_Party/LoRaWAN/Mac/Region/RegionUS915.c ****             {
 843              		.loc 1 376 13 is_stmt 0 view .LVU227
 844 0068 11E0     		b	.L64
 845              	.LVL45:
 846              	.L65:
 379:Middlewares/Third_Party/LoRaWAN/Mac/Region/RegionUS915.c ****                 RegionNvmGroup2->Channels[i].DrRange.Value = ( DR_3 << 4 ) | DR_0;
 847              		.loc 1 379 17 is_stmt 1 discriminator 3 view .LVU228
 379:Middlewares/Third_Party/LoRaWAN/Mac/Region/RegionUS915.c ****                 RegionNvmGroup2->Channels[i].DrRange.Value = ( DR_3 << 4 ) | DR_0;
 848              		.loc 1 379 32 is_stmt 0 discriminator 3 view .LVU229
ARM GAS  /tmp/cczpAp4p.s 			page 26


 849 006a 324B     		ldr	r3, .L73
 850 006c 1B68     		ldr	r3, [r3]
 379:Middlewares/Third_Party/LoRaWAN/Mac/Region/RegionUS915.c ****                 RegionNvmGroup2->Channels[i].DrRange.Value = ( DR_3 << 4 ) | DR_0;
 851              		.loc 1 379 68 discriminator 3 view .LVU230
 852 006e 3349     		ldr	r1, .L73+8
 853 0070 334A     		ldr	r2, .L73+12
 854 0072 01FB0422 		mla	r2, r1, r4, r2
 379:Middlewares/Third_Party/LoRaWAN/Mac/Region/RegionUS915.c ****                 RegionNvmGroup2->Channels[i].DrRange.Value = ( DR_3 << 4 ) | DR_0;
 855              		.loc 1 379 56 discriminator 3 view .LVU231
 856 0076 04EB4401 		add	r1, r4, r4, lsl #1
 857 007a 03EB8100 		add	r0, r3, r1, lsl #2
 858 007e 43F82120 		str	r2, [r3, r1, lsl #2]
 380:Middlewares/Third_Party/LoRaWAN/Mac/Region/RegionUS915.c ****                 RegionNvmGroup2->Channels[i].Band = 0;
 859              		.loc 1 380 17 is_stmt 1 discriminator 3 view .LVU232
 380:Middlewares/Third_Party/LoRaWAN/Mac/Region/RegionUS915.c ****                 RegionNvmGroup2->Channels[i].Band = 0;
 860              		.loc 1 380 60 is_stmt 0 discriminator 3 view .LVU233
 861 0082 3022     		movs	r2, #48
 862 0084 0272     		strb	r2, [r0, #8]
 381:Middlewares/Third_Party/LoRaWAN/Mac/Region/RegionUS915.c ****             }
 863              		.loc 1 381 17 is_stmt 1 discriminator 3 view .LVU234
 381:Middlewares/Third_Party/LoRaWAN/Mac/Region/RegionUS915.c ****             }
 864              		.loc 1 381 51 is_stmt 0 discriminator 3 view .LVU235
 865 0086 0022     		movs	r2, #0
 866 0088 4272     		strb	r2, [r0, #9]
 376:Middlewares/Third_Party/LoRaWAN/Mac/Region/RegionUS915.c ****             {
 867              		.loc 1 376 64 is_stmt 1 discriminator 3 view .LVU236
 376:Middlewares/Third_Party/LoRaWAN/Mac/Region/RegionUS915.c ****             {
 868              		.loc 1 376 65 is_stmt 0 discriminator 3 view .LVU237
 869 008a 0134     		adds	r4, r4, #1
 870              	.LVL46:
 376:Middlewares/Third_Party/LoRaWAN/Mac/Region/RegionUS915.c ****             {
 871              		.loc 1 376 65 discriminator 3 view .LVU238
 872 008c E4B2     		uxtb	r4, r4
 873              	.LVL47:
 874              	.L64:
 376:Middlewares/Third_Party/LoRaWAN/Mac/Region/RegionUS915.c ****             {
 875              		.loc 1 376 33 is_stmt 1 discriminator 1 view .LVU239
 376:Middlewares/Third_Party/LoRaWAN/Mac/Region/RegionUS915.c ****             {
 876              		.loc 1 376 13 is_stmt 0 discriminator 1 view .LVU240
 877 008e 3F2C     		cmp	r4, #63
 878 0090 EBD9     		bls	.L65
 879              	.LBE4:
 880              	.LBB5:
 383:Middlewares/Third_Party/LoRaWAN/Mac/Region/RegionUS915.c ****             {
 881              		.loc 1 383 26 view .LVU241
 882 0092 4023     		movs	r3, #64
 883              	.LVL48:
 884              	.L66:
 383:Middlewares/Third_Party/LoRaWAN/Mac/Region/RegionUS915.c ****             {
 885              		.loc 1 383 57 is_stmt 1 discriminator 1 view .LVU242
 383:Middlewares/Third_Party/LoRaWAN/Mac/Region/RegionUS915.c ****             {
 886              		.loc 1 383 13 is_stmt 0 discriminator 1 view .LVU243
 887 0094 472B     		cmp	r3, #71
 888 0096 14D8     		bhi	.L72
 386:Middlewares/Third_Party/LoRaWAN/Mac/Region/RegionUS915.c ****                 RegionNvmGroup2->Channels[i].DrRange.Value = ( DR_4 << 4 ) | DR_4;
 889              		.loc 1 386 17 is_stmt 1 discriminator 3 view .LVU244
 386:Middlewares/Third_Party/LoRaWAN/Mac/Region/RegionUS915.c ****                 RegionNvmGroup2->Channels[i].DrRange.Value = ( DR_4 << 4 ) | DR_4;
ARM GAS  /tmp/cczpAp4p.s 			page 27


 890              		.loc 1 386 74 is_stmt 0 discriminator 3 view .LVU245
 891 0098 A3F14000 		sub	r0, r3, #64
 386:Middlewares/Third_Party/LoRaWAN/Mac/Region/RegionUS915.c ****                 RegionNvmGroup2->Channels[i].DrRange.Value = ( DR_4 << 4 ) | DR_4;
 892              		.loc 1 386 32 discriminator 3 view .LVU246
 893 009c 254A     		ldr	r2, .L73
 894 009e 1268     		ldr	r2, [r2]
 386:Middlewares/Third_Party/LoRaWAN/Mac/Region/RegionUS915.c ****                 RegionNvmGroup2->Channels[i].DrRange.Value = ( DR_4 << 4 ) | DR_4;
 895              		.loc 1 386 68 discriminator 3 view .LVU247
 896 00a0 284C     		ldr	r4, .L73+16
 897 00a2 2949     		ldr	r1, .L73+20
 898 00a4 04FB0011 		mla	r1, r4, r0, r1
 386:Middlewares/Third_Party/LoRaWAN/Mac/Region/RegionUS915.c ****                 RegionNvmGroup2->Channels[i].DrRange.Value = ( DR_4 << 4 ) | DR_4;
 899              		.loc 1 386 56 discriminator 3 view .LVU248
 900 00a8 03EB4300 		add	r0, r3, r3, lsl #1
 901 00ac 02EB8004 		add	r4, r2, r0, lsl #2
 902 00b0 42F82010 		str	r1, [r2, r0, lsl #2]
 387:Middlewares/Third_Party/LoRaWAN/Mac/Region/RegionUS915.c ****                 RegionNvmGroup2->Channels[i].Band = 0;
 903              		.loc 1 387 17 is_stmt 1 discriminator 3 view .LVU249
 387:Middlewares/Third_Party/LoRaWAN/Mac/Region/RegionUS915.c ****                 RegionNvmGroup2->Channels[i].Band = 0;
 904              		.loc 1 387 60 is_stmt 0 discriminator 3 view .LVU250
 905 00b4 4421     		movs	r1, #68
 906 00b6 2172     		strb	r1, [r4, #8]
 388:Middlewares/Third_Party/LoRaWAN/Mac/Region/RegionUS915.c ****             }
 907              		.loc 1 388 17 is_stmt 1 discriminator 3 view .LVU251
 388:Middlewares/Third_Party/LoRaWAN/Mac/Region/RegionUS915.c ****             }
 908              		.loc 1 388 51 is_stmt 0 discriminator 3 view .LVU252
 909 00b8 0021     		movs	r1, #0
 910 00ba 6172     		strb	r1, [r4, #9]
 383:Middlewares/Third_Party/LoRaWAN/Mac/Region/RegionUS915.c ****             {
 911              		.loc 1 383 84 is_stmt 1 discriminator 3 view .LVU253
 383:Middlewares/Third_Party/LoRaWAN/Mac/Region/RegionUS915.c ****             {
 912              		.loc 1 383 85 is_stmt 0 discriminator 3 view .LVU254
 913 00bc 0133     		adds	r3, r3, #1
 914              	.LVL49:
 383:Middlewares/Third_Party/LoRaWAN/Mac/Region/RegionUS915.c ****             {
 915              		.loc 1 383 85 discriminator 3 view .LVU255
 916 00be DBB2     		uxtb	r3, r3
 917              	.LVL50:
 383:Middlewares/Third_Party/LoRaWAN/Mac/Region/RegionUS915.c ****             {
 918              		.loc 1 383 85 discriminator 3 view .LVU256
 919 00c0 E8E7     		b	.L66
 920              	.L72:
 383:Middlewares/Third_Party/LoRaWAN/Mac/Region/RegionUS915.c ****             {
 921              		.loc 1 383 85 discriminator 3 view .LVU257
 922              	.LBE5:
 401:Middlewares/Third_Party/LoRaWAN/Mac/Region/RegionUS915.c ****             RegionNvmGroup2->ChannelsDefaultMask[1] = 0xFFFF;
 923              		.loc 1 401 13 is_stmt 1 view .LVU258
 401:Middlewares/Third_Party/LoRaWAN/Mac/Region/RegionUS915.c ****             RegionNvmGroup2->ChannelsDefaultMask[1] = 0xFFFF;
 924              		.loc 1 401 28 is_stmt 0 view .LVU259
 925 00c2 1C4C     		ldr	r4, .L73
 926 00c4 2068     		ldr	r0, [r4]
 401:Middlewares/Third_Party/LoRaWAN/Mac/Region/RegionUS915.c ****             RegionNvmGroup2->ChannelsDefaultMask[1] = 0xFFFF;
 927              		.loc 1 401 53 view .LVU260
 928 00c6 4FF6FF73 		movw	r3, #65535
 929              	.LVL51:
 401:Middlewares/Third_Party/LoRaWAN/Mac/Region/RegionUS915.c ****             RegionNvmGroup2->ChannelsDefaultMask[1] = 0xFFFF;
 930              		.loc 1 401 53 view .LVU261
ARM GAS  /tmp/cczpAp4p.s 			page 28


 931 00ca A0F86C33 		strh	r3, [r0, #876]	@ movhi
 402:Middlewares/Third_Party/LoRaWAN/Mac/Region/RegionUS915.c ****             RegionNvmGroup2->ChannelsDefaultMask[2] = 0xFFFF;
 932              		.loc 1 402 13 is_stmt 1 view .LVU262
 402:Middlewares/Third_Party/LoRaWAN/Mac/Region/RegionUS915.c ****             RegionNvmGroup2->ChannelsDefaultMask[2] = 0xFFFF;
 933              		.loc 1 402 53 is_stmt 0 view .LVU263
 934 00ce A0F86E33 		strh	r3, [r0, #878]	@ movhi
 403:Middlewares/Third_Party/LoRaWAN/Mac/Region/RegionUS915.c ****             RegionNvmGroup2->ChannelsDefaultMask[3] = 0xFFFF;
 935              		.loc 1 403 13 is_stmt 1 view .LVU264
 403:Middlewares/Third_Party/LoRaWAN/Mac/Region/RegionUS915.c ****             RegionNvmGroup2->ChannelsDefaultMask[3] = 0xFFFF;
 936              		.loc 1 403 53 is_stmt 0 view .LVU265
 937 00d2 A0F87033 		strh	r3, [r0, #880]	@ movhi
 404:Middlewares/Third_Party/LoRaWAN/Mac/Region/RegionUS915.c ****             RegionNvmGroup2->ChannelsDefaultMask[4] = 0x00FF;
 938              		.loc 1 404 13 is_stmt 1 view .LVU266
 404:Middlewares/Third_Party/LoRaWAN/Mac/Region/RegionUS915.c ****             RegionNvmGroup2->ChannelsDefaultMask[4] = 0x00FF;
 939              		.loc 1 404 53 is_stmt 0 view .LVU267
 940 00d6 A0F87233 		strh	r3, [r0, #882]	@ movhi
 405:Middlewares/Third_Party/LoRaWAN/Mac/Region/RegionUS915.c ****             RegionNvmGroup2->ChannelsDefaultMask[5] = 0x0000;
 941              		.loc 1 405 13 is_stmt 1 view .LVU268
 405:Middlewares/Third_Party/LoRaWAN/Mac/Region/RegionUS915.c ****             RegionNvmGroup2->ChannelsDefaultMask[5] = 0x0000;
 942              		.loc 1 405 53 is_stmt 0 view .LVU269
 943 00da FF23     		movs	r3, #255
 944 00dc A0F87433 		strh	r3, [r0, #884]	@ movhi
 406:Middlewares/Third_Party/LoRaWAN/Mac/Region/RegionUS915.c **** #endif /* HYBRID_ENABLED == 1 */
 945              		.loc 1 406 13 is_stmt 1 view .LVU270
 406:Middlewares/Third_Party/LoRaWAN/Mac/Region/RegionUS915.c **** #endif /* HYBRID_ENABLED == 1 */
 946              		.loc 1 406 53 is_stmt 0 view .LVU271
 947 00e0 0023     		movs	r3, #0
 948 00e2 A0F87633 		strh	r3, [r0, #886]	@ movhi
 411:Middlewares/Third_Party/LoRaWAN/Mac/Region/RegionUS915.c **** 
 949              		.loc 1 411 13 is_stmt 1 view .LVU272
 950 00e6 0622     		movs	r2, #6
 951 00e8 00F55B71 		add	r1, r0, #876
 952 00ec 00F55870 		add	r0, r0, #864
 953 00f0 FFF7FEFF 		bl	RegionCommonChanMaskCopy
 954              	.LVL52:
 414:Middlewares/Third_Party/LoRaWAN/Mac/Region/RegionUS915.c ****             break;
 955              		.loc 1 414 13 view .LVU273
 414:Middlewares/Third_Party/LoRaWAN/Mac/Region/RegionUS915.c ****             break;
 956              		.loc 1 414 54 is_stmt 0 view .LVU274
 957 00f4 104B     		ldr	r3, .L73+4
 958 00f6 1868     		ldr	r0, [r3]
 414:Middlewares/Third_Party/LoRaWAN/Mac/Region/RegionUS915.c ****             break;
 959              		.loc 1 414 94 view .LVU275
 960 00f8 2168     		ldr	r1, [r4]
 414:Middlewares/Third_Party/LoRaWAN/Mac/Region/RegionUS915.c ****             break;
 961              		.loc 1 414 13 view .LVU276
 962 00fa 0622     		movs	r2, #6
 963 00fc 01F55871 		add	r1, r1, #864
 964 0100 9030     		adds	r0, r0, #144
 965 0102 FFF7FEFF 		bl	RegionCommonChanMaskCopy
 966              	.LVL53:
 415:Middlewares/Third_Party/LoRaWAN/Mac/Region/RegionUS915.c ****         }
 967              		.loc 1 415 13 is_stmt 1 view .LVU277
 968 0106 12E0     		b	.L57
 969              	.LVL54:
 970              	.L69:
 971              	.LBB6:
ARM GAS  /tmp/cczpAp4p.s 			page 29


 427:Middlewares/Third_Party/LoRaWAN/Mac/Region/RegionUS915.c ****             { // Copy-And the channels mask
 428:Middlewares/Third_Party/LoRaWAN/Mac/Region/RegionUS915.c ****                 RegionNvmGroup1->ChannelsMaskRemaining[i] &= RegionNvmGroup2->ChannelsMask[i];
 972              		.loc 1 428 17 discriminator 3 view .LVU278
 973              		.loc 1 428 59 is_stmt 0 discriminator 3 view .LVU279
 974 0108 0B4A     		ldr	r2, .L73+4
 975 010a 1168     		ldr	r1, [r2]
 976              		.loc 1 428 77 discriminator 3 view .LVU280
 977 010c 094A     		ldr	r2, .L73
 978 010e 1268     		ldr	r2, [r2]
 979              		.loc 1 428 91 discriminator 3 view .LVU281
 980 0110 03F5D870 		add	r0, r3, #432
 981 0114 32F81020 		ldrh	r2, [r2, r0, lsl #1]
 982              		.loc 1 428 59 discriminator 3 view .LVU282
 983 0118 03F14800 		add	r0, r3, #72
 984 011c 31F81040 		ldrh	r4, [r1, r0, lsl #1]
 985 0120 2240     		ands	r2, r2, r4
 986 0122 21F81020 		strh	r2, [r1, r0, lsl #1]	@ movhi
 426:Middlewares/Third_Party/LoRaWAN/Mac/Region/RegionUS915.c ****             { // Copy-And the channels mask
 987              		.loc 1 426 57 is_stmt 1 discriminator 3 view .LVU283
 426:Middlewares/Third_Party/LoRaWAN/Mac/Region/RegionUS915.c ****             { // Copy-And the channels mask
 988              		.loc 1 426 58 is_stmt 0 discriminator 3 view .LVU284
 989 0126 0133     		adds	r3, r3, #1
 990              	.LVL55:
 426:Middlewares/Third_Party/LoRaWAN/Mac/Region/RegionUS915.c ****             { // Copy-And the channels mask
 991              		.loc 1 426 58 discriminator 3 view .LVU285
 992 0128 DBB2     		uxtb	r3, r3
 993              	.LVL56:
 994              	.L68:
 426:Middlewares/Third_Party/LoRaWAN/Mac/Region/RegionUS915.c ****             { // Copy-And the channels mask
 995              		.loc 1 426 33 is_stmt 1 discriminator 1 view .LVU286
 426:Middlewares/Third_Party/LoRaWAN/Mac/Region/RegionUS915.c ****             { // Copy-And the channels mask
 996              		.loc 1 426 13 is_stmt 0 discriminator 1 view .LVU287
 997 012a 052B     		cmp	r3, #5
 998 012c ECD9     		bls	.L69
 999              	.LVL57:
 1000              	.L57:
 426:Middlewares/Third_Party/LoRaWAN/Mac/Region/RegionUS915.c ****             { // Copy-And the channels mask
 1001              		.loc 1 426 13 discriminator 1 view .LVU288
 1002              	.LBE6:
 429:Middlewares/Third_Party/LoRaWAN/Mac/Region/RegionUS915.c ****             }
 430:Middlewares/Third_Party/LoRaWAN/Mac/Region/RegionUS915.c ****             break;
 431:Middlewares/Third_Party/LoRaWAN/Mac/Region/RegionUS915.c ****         }
 432:Middlewares/Third_Party/LoRaWAN/Mac/Region/RegionUS915.c ****         default:
 433:Middlewares/Third_Party/LoRaWAN/Mac/Region/RegionUS915.c ****         {
 434:Middlewares/Third_Party/LoRaWAN/Mac/Region/RegionUS915.c ****             break;
 435:Middlewares/Third_Party/LoRaWAN/Mac/Region/RegionUS915.c ****         }
 436:Middlewares/Third_Party/LoRaWAN/Mac/Region/RegionUS915.c ****     }
 437:Middlewares/Third_Party/LoRaWAN/Mac/Region/RegionUS915.c **** #endif /* REGION_US915 */
 438:Middlewares/Third_Party/LoRaWAN/Mac/Region/RegionUS915.c **** }
 1003              		.loc 1 438 1 view .LVU289
 1004 012e 06B0     		add	sp, sp, #24
 1005              	.LCFI14:
 1006              		.cfi_def_cfa_offset 8
 1007              		@ sp needed
 1008 0130 10BD     		pop	{r4, pc}
 1009              	.L74:
 1010 0132 00BF     		.align	2
ARM GAS  /tmp/cczpAp4p.s 			page 30


 1011              	.L73:
 1012 0134 00000000 		.word	.LANCHOR2
 1013 0138 00000000 		.word	.LANCHOR5
 1014 013c 400D0300 		.word	200000
 1015 0140 6001C835 		.word	902300000
 1016 0144 006A1800 		.word	1600000
 1017 0148 C0AFD235 		.word	903000000
 1018              		.cfi_endproc
 1019              	.LFE109:
 1021              		.section	.text.RegionUS915Verify,"ax",%progbits
 1022              		.align	1
 1023              		.global	RegionUS915Verify
 1024              		.syntax unified
 1025              		.thumb
 1026              		.thumb_func
 1027              		.fpu softvfp
 1029              	RegionUS915Verify:
 1030              	.LVL58:
 1031              	.LFB110:
 439:Middlewares/Third_Party/LoRaWAN/Mac/Region/RegionUS915.c **** 
 440:Middlewares/Third_Party/LoRaWAN/Mac/Region/RegionUS915.c **** bool RegionUS915Verify( VerifyParams_t* verify, PhyAttribute_t phyAttribute )
 441:Middlewares/Third_Party/LoRaWAN/Mac/Region/RegionUS915.c **** {
 1032              		.loc 1 441 1 is_stmt 1 view -0
 1033              		.cfi_startproc
 1034              		@ args = 0, pretend = 0, frame = 0
 1035              		@ frame_needed = 0, uses_anonymous_args = 0
 1036              		.loc 1 441 1 is_stmt 0 view .LVU291
 1037 0000 08B5     		push	{r3, lr}
 1038              	.LCFI15:
 1039              		.cfi_def_cfa_offset 8
 1040              		.cfi_offset 3, -8
 1041              		.cfi_offset 14, -4
 442:Middlewares/Third_Party/LoRaWAN/Mac/Region/RegionUS915.c **** #if defined( REGION_US915 )
 443:Middlewares/Third_Party/LoRaWAN/Mac/Region/RegionUS915.c ****     switch( phyAttribute )
 1042              		.loc 1 443 5 is_stmt 1 view .LVU292
 1043 0002 0A29     		cmp	r1, #10
 1044 0004 29D8     		bhi	.L82
 1045 0006 DFE801F0 		tbb	[pc, r1]
 1046              	.L78:
 1047 000a 06       		.byte	(.L81-.L78)/2
 1048 000b 28       		.byte	(.L82-.L78)/2
 1049 000c 28       		.byte	(.L82-.L78)/2
 1050 000d 28       		.byte	(.L82-.L78)/2
 1051 000e 28       		.byte	(.L82-.L78)/2
 1052 000f 0A       		.byte	(.L80-.L78)/2
 1053 0010 0A       		.byte	(.L80-.L78)/2
 1054 0011 14       		.byte	(.L79-.L78)/2
 1055 0012 28       		.byte	(.L82-.L78)/2
 1056 0013 1E       		.byte	(.L77-.L78)/2
 1057 0014 1E       		.byte	(.L77-.L78)/2
 1058 0015 00       		.p2align 1
 1059              	.L81:
 444:Middlewares/Third_Party/LoRaWAN/Mac/Region/RegionUS915.c ****     {
 445:Middlewares/Third_Party/LoRaWAN/Mac/Region/RegionUS915.c ****         case PHY_FREQUENCY:
 446:Middlewares/Third_Party/LoRaWAN/Mac/Region/RegionUS915.c ****         {
 447:Middlewares/Third_Party/LoRaWAN/Mac/Region/RegionUS915.c ****             return VerifyRfFreq( verify->Frequency );
 1060              		.loc 1 447 13 view .LVU293
ARM GAS  /tmp/cczpAp4p.s 			page 31


 1061              		.loc 1 447 20 is_stmt 0 view .LVU294
 1062 0016 0068     		ldr	r0, [r0]
 1063              	.LVL59:
 1064              		.loc 1 447 20 view .LVU295
 1065 0018 FFF7FEFF 		bl	VerifyRfFreq
 1066              	.LVL60:
 1067              		.loc 1 447 20 view .LVU296
 1068 001c 1EE0     		b	.L76
 1069              	.LVL61:
 1070              	.L80:
 448:Middlewares/Third_Party/LoRaWAN/Mac/Region/RegionUS915.c ****         }
 449:Middlewares/Third_Party/LoRaWAN/Mac/Region/RegionUS915.c ****         case PHY_TX_DR:
 450:Middlewares/Third_Party/LoRaWAN/Mac/Region/RegionUS915.c ****         case PHY_DEF_TX_DR:
 451:Middlewares/Third_Party/LoRaWAN/Mac/Region/RegionUS915.c ****         {
 452:Middlewares/Third_Party/LoRaWAN/Mac/Region/RegionUS915.c ****             return RegionCommonValueInRange( verify->DatarateParams.Datarate, US915_TX_MIN_DATARATE
 1071              		.loc 1 452 13 is_stmt 1 view .LVU297
 1072              		.loc 1 452 20 is_stmt 0 view .LVU298
 1073 001e 0422     		movs	r2, #4
 1074 0020 0021     		movs	r1, #0
 1075              	.LVL62:
 1076              		.loc 1 452 20 view .LVU299
 1077 0022 90F90000 		ldrsb	r0, [r0]
 1078              	.LVL63:
 1079              		.loc 1 452 20 view .LVU300
 1080 0026 FFF7FEFF 		bl	RegionCommonValueInRange
 1081              	.LVL64:
 1082 002a 0038     		subs	r0, r0, #0
 1083 002c 18BF     		it	ne
 1084 002e 0120     		movne	r0, #1
 1085 0030 14E0     		b	.L76
 1086              	.LVL65:
 1087              	.L79:
 453:Middlewares/Third_Party/LoRaWAN/Mac/Region/RegionUS915.c ****         }
 454:Middlewares/Third_Party/LoRaWAN/Mac/Region/RegionUS915.c ****         case PHY_RX_DR:
 455:Middlewares/Third_Party/LoRaWAN/Mac/Region/RegionUS915.c ****         {
 456:Middlewares/Third_Party/LoRaWAN/Mac/Region/RegionUS915.c ****             return RegionCommonValueInRange( verify->DatarateParams.Datarate, US915_RX_MIN_DATARATE
 1088              		.loc 1 456 13 is_stmt 1 view .LVU301
 1089              		.loc 1 456 20 is_stmt 0 view .LVU302
 1090 0032 0D22     		movs	r2, #13
 1091 0034 0821     		movs	r1, #8
 1092              	.LVL66:
 1093              		.loc 1 456 20 view .LVU303
 1094 0036 90F90000 		ldrsb	r0, [r0]
 1095              	.LVL67:
 1096              		.loc 1 456 20 view .LVU304
 1097 003a FFF7FEFF 		bl	RegionCommonValueInRange
 1098              	.LVL68:
 1099 003e 0038     		subs	r0, r0, #0
 1100 0040 18BF     		it	ne
 1101 0042 0120     		movne	r0, #1
 1102 0044 0AE0     		b	.L76
 1103              	.LVL69:
 1104              	.L77:
 457:Middlewares/Third_Party/LoRaWAN/Mac/Region/RegionUS915.c ****         }
 458:Middlewares/Third_Party/LoRaWAN/Mac/Region/RegionUS915.c ****         case PHY_DEF_TX_POWER:
 459:Middlewares/Third_Party/LoRaWAN/Mac/Region/RegionUS915.c ****         case PHY_TX_POWER:
 460:Middlewares/Third_Party/LoRaWAN/Mac/Region/RegionUS915.c ****         {
ARM GAS  /tmp/cczpAp4p.s 			page 32


 461:Middlewares/Third_Party/LoRaWAN/Mac/Region/RegionUS915.c ****             // Remark: switched min and max!
 462:Middlewares/Third_Party/LoRaWAN/Mac/Region/RegionUS915.c ****             return RegionCommonValueInRange( verify->TxPower, US915_MAX_TX_POWER, US915_MIN_TX_POWE
 1105              		.loc 1 462 13 is_stmt 1 view .LVU305
 1106              		.loc 1 462 20 is_stmt 0 view .LVU306
 1107 0046 0E22     		movs	r2, #14
 1108 0048 0021     		movs	r1, #0
 1109              	.LVL70:
 1110              		.loc 1 462 20 view .LVU307
 1111 004a 90F90000 		ldrsb	r0, [r0]
 1112              	.LVL71:
 1113              		.loc 1 462 20 view .LVU308
 1114 004e FFF7FEFF 		bl	RegionCommonValueInRange
 1115              	.LVL72:
 1116 0052 0038     		subs	r0, r0, #0
 1117 0054 18BF     		it	ne
 1118 0056 0120     		movne	r0, #1
 1119 0058 00E0     		b	.L76
 1120              	.LVL73:
 1121              	.L82:
 443:Middlewares/Third_Party/LoRaWAN/Mac/Region/RegionUS915.c ****     {
 1122              		.loc 1 443 5 view .LVU309
 1123 005a 0020     		movs	r0, #0
 1124              	.LVL74:
 1125              	.L76:
 463:Middlewares/Third_Party/LoRaWAN/Mac/Region/RegionUS915.c ****         }
 464:Middlewares/Third_Party/LoRaWAN/Mac/Region/RegionUS915.c ****         case PHY_DUTY_CYCLE:
 465:Middlewares/Third_Party/LoRaWAN/Mac/Region/RegionUS915.c ****         {
 466:Middlewares/Third_Party/LoRaWAN/Mac/Region/RegionUS915.c ****             return US915_DUTY_CYCLE_ENABLED;
 467:Middlewares/Third_Party/LoRaWAN/Mac/Region/RegionUS915.c ****         }
 468:Middlewares/Third_Party/LoRaWAN/Mac/Region/RegionUS915.c ****         default:
 469:Middlewares/Third_Party/LoRaWAN/Mac/Region/RegionUS915.c ****             return false;
 470:Middlewares/Third_Party/LoRaWAN/Mac/Region/RegionUS915.c ****     }
 471:Middlewares/Third_Party/LoRaWAN/Mac/Region/RegionUS915.c **** #else
 472:Middlewares/Third_Party/LoRaWAN/Mac/Region/RegionUS915.c ****     return false;
 473:Middlewares/Third_Party/LoRaWAN/Mac/Region/RegionUS915.c **** #endif /* REGION_US915 */
 474:Middlewares/Third_Party/LoRaWAN/Mac/Region/RegionUS915.c **** }
 1126              		.loc 1 474 1 view .LVU310
 1127 005c 08BD     		pop	{r3, pc}
 1128              		.cfi_endproc
 1129              	.LFE110:
 1131              		.section	.text.RegionUS915ApplyCFList,"ax",%progbits
 1132              		.align	1
 1133              		.global	RegionUS915ApplyCFList
 1134              		.syntax unified
 1135              		.thumb
 1136              		.thumb_func
 1137              		.fpu softvfp
 1139              	RegionUS915ApplyCFList:
 1140              	.LVL75:
 1141              	.LFB111:
 475:Middlewares/Third_Party/LoRaWAN/Mac/Region/RegionUS915.c **** 
 476:Middlewares/Third_Party/LoRaWAN/Mac/Region/RegionUS915.c **** void RegionUS915ApplyCFList( ApplyCFListParams_t* applyCFList )
 477:Middlewares/Third_Party/LoRaWAN/Mac/Region/RegionUS915.c **** {
 1142              		.loc 1 477 1 is_stmt 1 view -0
 1143              		.cfi_startproc
 1144              		@ args = 0, pretend = 0, frame = 0
 1145              		@ frame_needed = 0, uses_anonymous_args = 0
ARM GAS  /tmp/cczpAp4p.s 			page 33


 478:Middlewares/Third_Party/LoRaWAN/Mac/Region/RegionUS915.c **** #if defined( REGION_US915 )
 479:Middlewares/Third_Party/LoRaWAN/Mac/Region/RegionUS915.c ****     // Size of the optional CF list must be 16 byte
 480:Middlewares/Third_Party/LoRaWAN/Mac/Region/RegionUS915.c ****     if( applyCFList->Size != 16 )
 1146              		.loc 1 480 5 view .LVU312
 1147              		.loc 1 480 20 is_stmt 0 view .LVU313
 1148 0000 0379     		ldrb	r3, [r0, #4]	@ zero_extendqisi2
 1149              		.loc 1 480 7 view .LVU314
 1150 0002 102B     		cmp	r3, #16
 1151 0004 38D1     		bne	.L90
 481:Middlewares/Third_Party/LoRaWAN/Mac/Region/RegionUS915.c ****     {
 482:Middlewares/Third_Party/LoRaWAN/Mac/Region/RegionUS915.c ****         return;
 483:Middlewares/Third_Party/LoRaWAN/Mac/Region/RegionUS915.c ****     }
 484:Middlewares/Third_Party/LoRaWAN/Mac/Region/RegionUS915.c **** 
 485:Middlewares/Third_Party/LoRaWAN/Mac/Region/RegionUS915.c ****     // Last byte CFListType must be 0x01 to indicate the CFList contains a series of ChMask fields
 486:Middlewares/Third_Party/LoRaWAN/Mac/Region/RegionUS915.c ****     if( applyCFList->Payload[15] != 0x01 )
 1152              		.loc 1 486 5 is_stmt 1 view .LVU315
 1153              		.loc 1 486 20 is_stmt 0 view .LVU316
 1154 0006 0368     		ldr	r3, [r0]
 1155              		.loc 1 486 29 view .LVU317
 1156 0008 DB7B     		ldrb	r3, [r3, #15]	@ zero_extendqisi2
 1157              		.loc 1 486 7 view .LVU318
 1158 000a 012B     		cmp	r3, #1
 1159 000c 34D1     		bne	.L90
 1160              	.LBB7:
 487:Middlewares/Third_Party/LoRaWAN/Mac/Region/RegionUS915.c ****     {
 488:Middlewares/Third_Party/LoRaWAN/Mac/Region/RegionUS915.c ****         return;
 489:Middlewares/Third_Party/LoRaWAN/Mac/Region/RegionUS915.c ****     }
 490:Middlewares/Third_Party/LoRaWAN/Mac/Region/RegionUS915.c **** 
 491:Middlewares/Third_Party/LoRaWAN/Mac/Region/RegionUS915.c ****     // ChMask0 - ChMask4 must be set (every ChMask has 16 bit)
 492:Middlewares/Third_Party/LoRaWAN/Mac/Region/RegionUS915.c ****     for( uint8_t chMaskItr = 0, cntPayload = 0; chMaskItr <= 4; chMaskItr++, cntPayload+=2 )
 1161              		.loc 1 492 33 view .LVU319
 1162 000e 0022     		movs	r2, #0
 1163              		.loc 1 492 18 view .LVU320
 1164 0010 1346     		mov	r3, r2
 1165              	.LVL76:
 1166              		.loc 1 492 49 is_stmt 1 view .LVU321
 1167              		.loc 1 492 5 is_stmt 0 view .LVU322
 1168 0012 042A     		cmp	r2, #4
 1169 0014 2FD8     		bhi	.L94
 1170              	.LBE7:
 477:Middlewares/Third_Party/LoRaWAN/Mac/Region/RegionUS915.c **** #if defined( REGION_US915 )
 1171              		.loc 1 477 1 view .LVU323
 1172 0016 30B5     		push	{r4, r5, lr}
 1173              	.LCFI16:
 1174              		.cfi_def_cfa_offset 12
 1175              		.cfi_offset 4, -12
 1176              		.cfi_offset 5, -8
 1177              		.cfi_offset 14, -4
 1178 0018 12E0     		b	.L88
 1179              	.LVL77:
 1180              	.L87:
 1181              	.LBB8:
 493:Middlewares/Third_Party/LoRaWAN/Mac/Region/RegionUS915.c ****     {
 494:Middlewares/Third_Party/LoRaWAN/Mac/Region/RegionUS915.c ****         RegionNvmGroup2->ChannelsMask[chMaskItr] = (uint16_t) (0x00FF & applyCFList->Payload[cntPay
 495:Middlewares/Third_Party/LoRaWAN/Mac/Region/RegionUS915.c ****         RegionNvmGroup2->ChannelsMask[chMaskItr] |= (uint16_t) (applyCFList->Payload[cntPayload+1] 
 496:Middlewares/Third_Party/LoRaWAN/Mac/Region/RegionUS915.c ****         if( chMaskItr == 4 )
 497:Middlewares/Third_Party/LoRaWAN/Mac/Region/RegionUS915.c ****         {
ARM GAS  /tmp/cczpAp4p.s 			page 34


 498:Middlewares/Third_Party/LoRaWAN/Mac/Region/RegionUS915.c ****             RegionNvmGroup2->ChannelsMask[chMaskItr] = RegionNvmGroup2->ChannelsMask[chMaskItr] & C
 499:Middlewares/Third_Party/LoRaWAN/Mac/Region/RegionUS915.c ****         }
 500:Middlewares/Third_Party/LoRaWAN/Mac/Region/RegionUS915.c ****         // Set the channel mask to the remaining
 501:Middlewares/Third_Party/LoRaWAN/Mac/Region/RegionUS915.c ****         RegionNvmGroup1->ChannelsMaskRemaining[chMaskItr] &= RegionNvmGroup2->ChannelsMask[chMaskIt
 1182              		.loc 1 501 9 is_stmt 1 discriminator 2 view .LVU324
 1183              		.loc 1 501 59 is_stmt 0 discriminator 2 view .LVU325
 1184 001a 184D     		ldr	r5, .L96
 1185 001c 2D68     		ldr	r5, [r5]
 1186              		.loc 1 501 91 discriminator 2 view .LVU326
 1187 001e 01F5D87C 		add	ip, r1, #432
 1188 0022 34F81C40 		ldrh	r4, [r4, ip, lsl #1]
 1189              		.loc 1 501 59 discriminator 2 view .LVU327
 1190 0026 4831     		adds	r1, r1, #72
 1191 0028 35F811C0 		ldrh	ip, [r5, r1, lsl #1]
 1192 002c 04EA0C04 		and	r4, r4, ip
 1193 0030 25F81140 		strh	r4, [r5, r1, lsl #1]	@ movhi
 492:Middlewares/Third_Party/LoRaWAN/Mac/Region/RegionUS915.c ****     {
 1194              		.loc 1 492 65 is_stmt 1 discriminator 2 view .LVU328
 492:Middlewares/Third_Party/LoRaWAN/Mac/Region/RegionUS915.c ****     {
 1195              		.loc 1 492 74 is_stmt 0 discriminator 2 view .LVU329
 1196 0034 0133     		adds	r3, r3, #1
 1197 0036 DBB2     		uxtb	r3, r3
 1198              	.LVL78:
 492:Middlewares/Third_Party/LoRaWAN/Mac/Region/RegionUS915.c ****     {
 1199              		.loc 1 492 88 discriminator 2 view .LVU330
 1200 0038 0232     		adds	r2, r2, #2
 1201              	.LVL79:
 492:Middlewares/Third_Party/LoRaWAN/Mac/Region/RegionUS915.c ****     {
 1202              		.loc 1 492 88 discriminator 2 view .LVU331
 1203 003a D2B2     		uxtb	r2, r2
 1204              	.LVL80:
 492:Middlewares/Third_Party/LoRaWAN/Mac/Region/RegionUS915.c ****     {
 1205              		.loc 1 492 49 is_stmt 1 discriminator 2 view .LVU332
 492:Middlewares/Third_Party/LoRaWAN/Mac/Region/RegionUS915.c ****     {
 1206              		.loc 1 492 5 is_stmt 0 discriminator 2 view .LVU333
 1207 003c 042B     		cmp	r3, #4
 1208 003e 19D8     		bhi	.L95
 1209              	.LVL81:
 1210              	.L88:
 494:Middlewares/Third_Party/LoRaWAN/Mac/Region/RegionUS915.c ****         RegionNvmGroup2->ChannelsMask[chMaskItr] |= (uint16_t) (applyCFList->Payload[cntPayload+1] 
 1211              		.loc 1 494 9 is_stmt 1 view .LVU334
 494:Middlewares/Third_Party/LoRaWAN/Mac/Region/RegionUS915.c ****         RegionNvmGroup2->ChannelsMask[chMaskItr] |= (uint16_t) (applyCFList->Payload[cntPayload+1] 
 1212              		.loc 1 494 84 is_stmt 0 view .LVU335
 1213 0040 0568     		ldr	r5, [r0]
 494:Middlewares/Third_Party/LoRaWAN/Mac/Region/RegionUS915.c ****         RegionNvmGroup2->ChannelsMask[chMaskItr] |= (uint16_t) (applyCFList->Payload[cntPayload+1] 
 1214              		.loc 1 494 24 view .LVU336
 1215 0042 0F49     		ldr	r1, .L96+4
 1216 0044 0C68     		ldr	r4, [r1]
 494:Middlewares/Third_Party/LoRaWAN/Mac/Region/RegionUS915.c ****         RegionNvmGroup2->ChannelsMask[chMaskItr] |= (uint16_t) (applyCFList->Payload[cntPayload+1] 
 1217              		.loc 1 494 38 view .LVU337
 1218 0046 1946     		mov	r1, r3
 494:Middlewares/Third_Party/LoRaWAN/Mac/Region/RegionUS915.c ****         RegionNvmGroup2->ChannelsMask[chMaskItr] |= (uint16_t) (applyCFList->Payload[cntPayload+1] 
 1219              		.loc 1 494 52 view .LVU338
 1220 0048 15F802C0 		ldrb	ip, [r5, r2]	@ zero_extendqisi2
 494:Middlewares/Third_Party/LoRaWAN/Mac/Region/RegionUS915.c ****         RegionNvmGroup2->ChannelsMask[chMaskItr] |= (uint16_t) (applyCFList->Payload[cntPayload+1] 
 1221              		.loc 1 494 50 view .LVU339
 1222 004c 03F5D875 		add	r5, r3, #432
ARM GAS  /tmp/cczpAp4p.s 			page 35


 1223 0050 24F815C0 		strh	ip, [r4, r5, lsl #1]	@ movhi
 495:Middlewares/Third_Party/LoRaWAN/Mac/Region/RegionUS915.c ****         if( chMaskItr == 4 )
 1224              		.loc 1 495 9 is_stmt 1 view .LVU340
 495:Middlewares/Third_Party/LoRaWAN/Mac/Region/RegionUS915.c ****         if( chMaskItr == 4 )
 1225              		.loc 1 495 85 is_stmt 0 view .LVU341
 1226 0054 D0F800E0 		ldr	lr, [r0]
 1227 0058 9644     		add	lr, lr, r2
 1228 005a 9EF801E0 		ldrb	lr, [lr, #1]	@ zero_extendqisi2
 495:Middlewares/Third_Party/LoRaWAN/Mac/Region/RegionUS915.c ****         if( chMaskItr == 4 )
 1229              		.loc 1 495 50 view .LVU342
 1230 005e 4CEA0E2C 		orr	ip, ip, lr, lsl #8
 1231 0062 24F815C0 		strh	ip, [r4, r5, lsl #1]	@ movhi
 496:Middlewares/Third_Party/LoRaWAN/Mac/Region/RegionUS915.c ****         {
 1232              		.loc 1 496 9 is_stmt 1 view .LVU343
 496:Middlewares/Third_Party/LoRaWAN/Mac/Region/RegionUS915.c ****         {
 1233              		.loc 1 496 11 is_stmt 0 view .LVU344
 1234 0066 042B     		cmp	r3, #4
 1235 0068 D7D1     		bne	.L87
 498:Middlewares/Third_Party/LoRaWAN/Mac/Region/RegionUS915.c ****         }
 1236              		.loc 1 498 13 is_stmt 1 view .LVU345
 498:Middlewares/Third_Party/LoRaWAN/Mac/Region/RegionUS915.c ****         }
 1237              		.loc 1 498 97 is_stmt 0 view .LVU346
 1238 006a 5FFA8CFC 		uxtb	ip, ip
 498:Middlewares/Third_Party/LoRaWAN/Mac/Region/RegionUS915.c ****         }
 1239              		.loc 1 498 54 view .LVU347
 1240 006e 24F815C0 		strh	ip, [r4, r5, lsl #1]	@ movhi
 1241 0072 D2E7     		b	.L87
 1242              	.LVL82:
 1243              	.L95:
 498:Middlewares/Third_Party/LoRaWAN/Mac/Region/RegionUS915.c ****         }
 1244              		.loc 1 498 54 view .LVU348
 1245              	.LBE8:
 502:Middlewares/Third_Party/LoRaWAN/Mac/Region/RegionUS915.c ****     }
 503:Middlewares/Third_Party/LoRaWAN/Mac/Region/RegionUS915.c **** #endif /* REGION_US915 */
 504:Middlewares/Third_Party/LoRaWAN/Mac/Region/RegionUS915.c **** }
 1246              		.loc 1 504 1 view .LVU349
 1247 0074 30BD     		pop	{r4, r5, pc}
 1248              	.LVL83:
 1249              	.L94:
 1250              	.LCFI17:
 1251              		.cfi_def_cfa_offset 0
 1252              		.cfi_restore 4
 1253              		.cfi_restore 5
 1254              		.cfi_restore 14
 1255              		.loc 1 504 1 view .LVU350
 1256 0076 7047     		bx	lr
 1257              	.LVL84:
 1258              	.L90:
 1259              		.loc 1 504 1 view .LVU351
 1260 0078 7047     		bx	lr
 1261              	.L97:
 1262 007a 00BF     		.align	2
 1263              	.L96:
 1264 007c 00000000 		.word	.LANCHOR5
 1265 0080 00000000 		.word	.LANCHOR2
 1266              		.cfi_endproc
 1267              	.LFE111:
ARM GAS  /tmp/cczpAp4p.s 			page 36


 1269              		.section	.text.RegionUS915ChanMaskSet,"ax",%progbits
 1270              		.align	1
 1271              		.global	RegionUS915ChanMaskSet
 1272              		.syntax unified
 1273              		.thumb
 1274              		.thumb_func
 1275              		.fpu softvfp
 1277              	RegionUS915ChanMaskSet:
 1278              	.LVL85:
 1279              	.LFB112:
 505:Middlewares/Third_Party/LoRaWAN/Mac/Region/RegionUS915.c **** 
 506:Middlewares/Third_Party/LoRaWAN/Mac/Region/RegionUS915.c **** bool RegionUS915ChanMaskSet( ChanMaskSetParams_t* chanMaskSet )
 507:Middlewares/Third_Party/LoRaWAN/Mac/Region/RegionUS915.c **** {
 1280              		.loc 1 507 1 is_stmt 1 view -0
 1281              		.cfi_startproc
 1282              		@ args = 0, pretend = 0, frame = 0
 1283              		@ frame_needed = 0, uses_anonymous_args = 0
 1284              		.loc 1 507 1 is_stmt 0 view .LVU353
 1285 0000 70B5     		push	{r4, r5, r6, lr}
 1286              	.LCFI18:
 1287              		.cfi_def_cfa_offset 16
 1288              		.cfi_offset 4, -16
 1289              		.cfi_offset 5, -12
 1290              		.cfi_offset 6, -8
 1291              		.cfi_offset 14, -4
 1292 0002 0546     		mov	r5, r0
 508:Middlewares/Third_Party/LoRaWAN/Mac/Region/RegionUS915.c **** #if defined( REGION_US915 )
 509:Middlewares/Third_Party/LoRaWAN/Mac/Region/RegionUS915.c ****     uint8_t nbChannels = RegionCommonCountChannels( chanMaskSet->ChannelsMaskIn, 0, 4 );
 1293              		.loc 1 509 5 is_stmt 1 view .LVU354
 1294              		.loc 1 509 26 is_stmt 0 view .LVU355
 1295 0004 0422     		movs	r2, #4
 1296 0006 0021     		movs	r1, #0
 1297 0008 0068     		ldr	r0, [r0]
 1298              	.LVL86:
 1299              		.loc 1 509 26 view .LVU356
 1300 000a FFF7FEFF 		bl	RegionCommonCountChannels
 1301              	.LVL87:
 510:Middlewares/Third_Party/LoRaWAN/Mac/Region/RegionUS915.c **** 
 511:Middlewares/Third_Party/LoRaWAN/Mac/Region/RegionUS915.c ****     // Check the number of active channels
 512:Middlewares/Third_Party/LoRaWAN/Mac/Region/RegionUS915.c ****     if( ( nbChannels < 2 ) &&
 1302              		.loc 1 512 5 is_stmt 1 view .LVU357
 1303              		.loc 1 512 7 is_stmt 0 view .LVU358
 1304 000e 0128     		cmp	r0, #1
 1305 0010 33D0     		beq	.L104
 513:Middlewares/Third_Party/LoRaWAN/Mac/Region/RegionUS915.c ****         ( nbChannels > 0 ) )
 514:Middlewares/Third_Party/LoRaWAN/Mac/Region/RegionUS915.c ****     {
 515:Middlewares/Third_Party/LoRaWAN/Mac/Region/RegionUS915.c ****         return false;
 516:Middlewares/Third_Party/LoRaWAN/Mac/Region/RegionUS915.c ****     }
 517:Middlewares/Third_Party/LoRaWAN/Mac/Region/RegionUS915.c **** 
 518:Middlewares/Third_Party/LoRaWAN/Mac/Region/RegionUS915.c ****     switch( chanMaskSet->ChannelsMaskType )
 1306              		.loc 1 518 5 is_stmt 1 view .LVU359
 1307              		.loc 1 518 24 is_stmt 0 view .LVU360
 1308 0012 2C79     		ldrb	r4, [r5, #4]	@ zero_extendqisi2
 1309              		.loc 1 518 5 view .LVU361
 1310 0014 1CB1     		cbz	r4, .L100
 1311 0016 012C     		cmp	r4, #1
 1312 0018 25D0     		beq	.L101
ARM GAS  /tmp/cczpAp4p.s 			page 37


 1313 001a 0020     		movs	r0, #0
 1314              	.LVL88:
 1315              	.L99:
 519:Middlewares/Third_Party/LoRaWAN/Mac/Region/RegionUS915.c ****     {
 520:Middlewares/Third_Party/LoRaWAN/Mac/Region/RegionUS915.c ****         case CHANNELS_MASK:
 521:Middlewares/Third_Party/LoRaWAN/Mac/Region/RegionUS915.c ****         {
 522:Middlewares/Third_Party/LoRaWAN/Mac/Region/RegionUS915.c ****             RegionCommonChanMaskCopy( RegionNvmGroup2->ChannelsMask, chanMaskSet->ChannelsMaskIn, C
 523:Middlewares/Third_Party/LoRaWAN/Mac/Region/RegionUS915.c **** 
 524:Middlewares/Third_Party/LoRaWAN/Mac/Region/RegionUS915.c ****             RegionNvmGroup2->ChannelsDefaultMask[4] = RegionNvmGroup2->ChannelsDefaultMask[4] & CHA
 525:Middlewares/Third_Party/LoRaWAN/Mac/Region/RegionUS915.c ****             RegionNvmGroup2->ChannelsDefaultMask[5] = 0x0000;
 526:Middlewares/Third_Party/LoRaWAN/Mac/Region/RegionUS915.c **** 
 527:Middlewares/Third_Party/LoRaWAN/Mac/Region/RegionUS915.c ****             for( uint8_t i = 0; i < CHANNELS_MASK_SIZE; i++ )
 528:Middlewares/Third_Party/LoRaWAN/Mac/Region/RegionUS915.c ****             { // Copy-And the channels mask
 529:Middlewares/Third_Party/LoRaWAN/Mac/Region/RegionUS915.c ****                 RegionNvmGroup1->ChannelsMaskRemaining[i] &= RegionNvmGroup2->ChannelsMask[i];
 530:Middlewares/Third_Party/LoRaWAN/Mac/Region/RegionUS915.c ****             }
 531:Middlewares/Third_Party/LoRaWAN/Mac/Region/RegionUS915.c ****             break;
 532:Middlewares/Third_Party/LoRaWAN/Mac/Region/RegionUS915.c ****         }
 533:Middlewares/Third_Party/LoRaWAN/Mac/Region/RegionUS915.c ****         case CHANNELS_DEFAULT_MASK:
 534:Middlewares/Third_Party/LoRaWAN/Mac/Region/RegionUS915.c ****         {
 535:Middlewares/Third_Party/LoRaWAN/Mac/Region/RegionUS915.c ****             RegionCommonChanMaskCopy( RegionNvmGroup2->ChannelsDefaultMask, chanMaskSet->ChannelsMa
 536:Middlewares/Third_Party/LoRaWAN/Mac/Region/RegionUS915.c ****             break;
 537:Middlewares/Third_Party/LoRaWAN/Mac/Region/RegionUS915.c ****         }
 538:Middlewares/Third_Party/LoRaWAN/Mac/Region/RegionUS915.c ****         default:
 539:Middlewares/Third_Party/LoRaWAN/Mac/Region/RegionUS915.c ****             return false;
 540:Middlewares/Third_Party/LoRaWAN/Mac/Region/RegionUS915.c ****     }
 541:Middlewares/Third_Party/LoRaWAN/Mac/Region/RegionUS915.c ****     return true;
 542:Middlewares/Third_Party/LoRaWAN/Mac/Region/RegionUS915.c **** #else
 543:Middlewares/Third_Party/LoRaWAN/Mac/Region/RegionUS915.c ****     return false;
 544:Middlewares/Third_Party/LoRaWAN/Mac/Region/RegionUS915.c **** #endif /* REGION_US915 */
 545:Middlewares/Third_Party/LoRaWAN/Mac/Region/RegionUS915.c **** }
 1316              		.loc 1 545 1 view .LVU362
 1317 001c 70BD     		pop	{r4, r5, r6, pc}
 1318              	.LVL89:
 1319              	.L100:
 522:Middlewares/Third_Party/LoRaWAN/Mac/Region/RegionUS915.c **** 
 1320              		.loc 1 522 13 is_stmt 1 view .LVU363
 522:Middlewares/Third_Party/LoRaWAN/Mac/Region/RegionUS915.c **** 
 1321              		.loc 1 522 54 is_stmt 0 view .LVU364
 1322 001e 184E     		ldr	r6, .L106
 1323 0020 3068     		ldr	r0, [r6]
 1324              	.LVL90:
 522:Middlewares/Third_Party/LoRaWAN/Mac/Region/RegionUS915.c **** 
 1325              		.loc 1 522 13 view .LVU365
 1326 0022 0622     		movs	r2, #6
 1327 0024 2968     		ldr	r1, [r5]
 1328 0026 00F55870 		add	r0, r0, #864
 1329 002a FFF7FEFF 		bl	RegionCommonChanMaskCopy
 1330              	.LVL91:
 524:Middlewares/Third_Party/LoRaWAN/Mac/Region/RegionUS915.c ****             RegionNvmGroup2->ChannelsDefaultMask[5] = 0x0000;
 1331              		.loc 1 524 13 is_stmt 1 view .LVU366
 524:Middlewares/Third_Party/LoRaWAN/Mac/Region/RegionUS915.c ****             RegionNvmGroup2->ChannelsDefaultMask[5] = 0x0000;
 1332              		.loc 1 524 70 is_stmt 0 view .LVU367
 1333 002e 3568     		ldr	r5, [r6]
 1334              	.LVL92:
 524:Middlewares/Third_Party/LoRaWAN/Mac/Region/RegionUS915.c ****             RegionNvmGroup2->ChannelsDefaultMask[5] = 0x0000;
 1335              		.loc 1 524 95 view .LVU368
 1336 0030 95F87433 		ldrb	r3, [r5, #884]	@ zero_extendqisi2
ARM GAS  /tmp/cczpAp4p.s 			page 38


 524:Middlewares/Third_Party/LoRaWAN/Mac/Region/RegionUS915.c ****             RegionNvmGroup2->ChannelsDefaultMask[5] = 0x0000;
 1337              		.loc 1 524 53 view .LVU369
 1338 0034 A5F87433 		strh	r3, [r5, #884]	@ movhi
 525:Middlewares/Third_Party/LoRaWAN/Mac/Region/RegionUS915.c **** 
 1339              		.loc 1 525 13 is_stmt 1 view .LVU370
 525:Middlewares/Third_Party/LoRaWAN/Mac/Region/RegionUS915.c **** 
 1340              		.loc 1 525 53 is_stmt 0 view .LVU371
 1341 0038 0023     		movs	r3, #0
 1342 003a A5F87633 		strh	r3, [r5, #886]	@ movhi
 527:Middlewares/Third_Party/LoRaWAN/Mac/Region/RegionUS915.c ****             { // Copy-And the channels mask
 1343              		.loc 1 527 13 is_stmt 1 view .LVU372
 1344              	.LBB9:
 527:Middlewares/Third_Party/LoRaWAN/Mac/Region/RegionUS915.c ****             { // Copy-And the channels mask
 1345              		.loc 1 527 18 view .LVU373
 1346              	.LVL93:
 527:Middlewares/Third_Party/LoRaWAN/Mac/Region/RegionUS915.c ****             { // Copy-And the channels mask
 1347              		.loc 1 527 13 is_stmt 0 view .LVU374
 1348 003e 0EE0     		b	.L102
 1349              	.LVL94:
 1350              	.L103:
 529:Middlewares/Third_Party/LoRaWAN/Mac/Region/RegionUS915.c ****             }
 1351              		.loc 1 529 17 is_stmt 1 discriminator 3 view .LVU375
 529:Middlewares/Third_Party/LoRaWAN/Mac/Region/RegionUS915.c ****             }
 1352              		.loc 1 529 59 is_stmt 0 discriminator 3 view .LVU376
 1353 0040 104B     		ldr	r3, .L106+4
 1354 0042 1A68     		ldr	r2, [r3]
 529:Middlewares/Third_Party/LoRaWAN/Mac/Region/RegionUS915.c ****             }
 1355              		.loc 1 529 91 discriminator 3 view .LVU377
 1356 0044 04F5D873 		add	r3, r4, #432
 1357 0048 35F81330 		ldrh	r3, [r5, r3, lsl #1]
 529:Middlewares/Third_Party/LoRaWAN/Mac/Region/RegionUS915.c ****             }
 1358              		.loc 1 529 59 discriminator 3 view .LVU378
 1359 004c 04F14801 		add	r1, r4, #72
 1360 0050 32F81100 		ldrh	r0, [r2, r1, lsl #1]
 1361 0054 0340     		ands	r3, r3, r0
 1362 0056 22F81130 		strh	r3, [r2, r1, lsl #1]	@ movhi
 527:Middlewares/Third_Party/LoRaWAN/Mac/Region/RegionUS915.c ****             { // Copy-And the channels mask
 1363              		.loc 1 527 57 is_stmt 1 discriminator 3 view .LVU379
 527:Middlewares/Third_Party/LoRaWAN/Mac/Region/RegionUS915.c ****             { // Copy-And the channels mask
 1364              		.loc 1 527 58 is_stmt 0 discriminator 3 view .LVU380
 1365 005a 0134     		adds	r4, r4, #1
 1366              	.LVL95:
 527:Middlewares/Third_Party/LoRaWAN/Mac/Region/RegionUS915.c ****             { // Copy-And the channels mask
 1367              		.loc 1 527 58 discriminator 3 view .LVU381
 1368 005c E4B2     		uxtb	r4, r4
 1369              	.LVL96:
 1370              	.L102:
 527:Middlewares/Third_Party/LoRaWAN/Mac/Region/RegionUS915.c ****             { // Copy-And the channels mask
 1371              		.loc 1 527 33 is_stmt 1 discriminator 1 view .LVU382
 527:Middlewares/Third_Party/LoRaWAN/Mac/Region/RegionUS915.c ****             { // Copy-And the channels mask
 1372              		.loc 1 527 13 is_stmt 0 discriminator 1 view .LVU383
 1373 005e 052C     		cmp	r4, #5
 1374 0060 EED9     		bls	.L103
 1375              	.LBE9:
 541:Middlewares/Third_Party/LoRaWAN/Mac/Region/RegionUS915.c **** #else
 1376              		.loc 1 541 12 view .LVU384
 1377 0062 0120     		movs	r0, #1
ARM GAS  /tmp/cczpAp4p.s 			page 39


 1378 0064 DAE7     		b	.L99
 1379              	.LVL97:
 1380              	.L101:
 535:Middlewares/Third_Party/LoRaWAN/Mac/Region/RegionUS915.c ****             break;
 1381              		.loc 1 535 13 is_stmt 1 view .LVU385
 535:Middlewares/Third_Party/LoRaWAN/Mac/Region/RegionUS915.c ****             break;
 1382              		.loc 1 535 54 is_stmt 0 view .LVU386
 1383 0066 064B     		ldr	r3, .L106
 1384 0068 1868     		ldr	r0, [r3]
 1385              	.LVL98:
 535:Middlewares/Third_Party/LoRaWAN/Mac/Region/RegionUS915.c ****             break;
 1386              		.loc 1 535 13 view .LVU387
 1387 006a 0622     		movs	r2, #6
 1388 006c 2968     		ldr	r1, [r5]
 1389 006e 00F55B70 		add	r0, r0, #876
 1390 0072 FFF7FEFF 		bl	RegionCommonChanMaskCopy
 1391              	.LVL99:
 536:Middlewares/Third_Party/LoRaWAN/Mac/Region/RegionUS915.c ****         }
 1392              		.loc 1 536 13 is_stmt 1 view .LVU388
 541:Middlewares/Third_Party/LoRaWAN/Mac/Region/RegionUS915.c **** #else
 1393              		.loc 1 541 12 is_stmt 0 view .LVU389
 1394 0076 0120     		movs	r0, #1
 536:Middlewares/Third_Party/LoRaWAN/Mac/Region/RegionUS915.c ****         }
 1395              		.loc 1 536 13 view .LVU390
 1396 0078 D0E7     		b	.L99
 1397              	.LVL100:
 1398              	.L104:
 515:Middlewares/Third_Party/LoRaWAN/Mac/Region/RegionUS915.c ****     }
 1399              		.loc 1 515 16 view .LVU391
 1400 007a 0020     		movs	r0, #0
 1401              	.LVL101:
 515:Middlewares/Third_Party/LoRaWAN/Mac/Region/RegionUS915.c ****     }
 1402              		.loc 1 515 16 view .LVU392
 1403 007c CEE7     		b	.L99
 1404              	.L107:
 1405 007e 00BF     		.align	2
 1406              	.L106:
 1407 0080 00000000 		.word	.LANCHOR2
 1408 0084 00000000 		.word	.LANCHOR5
 1409              		.cfi_endproc
 1410              	.LFE112:
 1412              		.section	.text.RegionUS915ComputeRxWindowParameters,"ax",%progbits
 1413              		.align	1
 1414              		.global	RegionUS915ComputeRxWindowParameters
 1415              		.syntax unified
 1416              		.thumb
 1417              		.thumb_func
 1418              		.fpu softvfp
 1420              	RegionUS915ComputeRxWindowParameters:
 1421              	.LVL102:
 1422              	.LFB113:
 546:Middlewares/Third_Party/LoRaWAN/Mac/Region/RegionUS915.c **** 
 547:Middlewares/Third_Party/LoRaWAN/Mac/Region/RegionUS915.c **** void RegionUS915ComputeRxWindowParameters( int8_t datarate, uint8_t minRxSymbols, uint32_t rxError,
 548:Middlewares/Third_Party/LoRaWAN/Mac/Region/RegionUS915.c **** {
 1423              		.loc 1 548 1 is_stmt 1 view -0
 1424              		.cfi_startproc
 1425              		@ args = 0, pretend = 0, frame = 0
ARM GAS  /tmp/cczpAp4p.s 			page 40


 1426              		@ frame_needed = 0, uses_anonymous_args = 0
 1427              		.loc 1 548 1 is_stmt 0 view .LVU394
 1428 0000 F0B5     		push	{r4, r5, r6, r7, lr}
 1429              	.LCFI19:
 1430              		.cfi_def_cfa_offset 20
 1431              		.cfi_offset 4, -20
 1432              		.cfi_offset 5, -16
 1433              		.cfi_offset 6, -12
 1434              		.cfi_offset 7, -8
 1435              		.cfi_offset 14, -4
 1436 0002 83B0     		sub	sp, sp, #12
 1437              	.LCFI20:
 1438              		.cfi_def_cfa_offset 32
 1439 0004 0E46     		mov	r6, r1
 1440 0006 1746     		mov	r7, r2
 1441 0008 1C46     		mov	r4, r3
 549:Middlewares/Third_Party/LoRaWAN/Mac/Region/RegionUS915.c **** #if defined( REGION_US915 )
 550:Middlewares/Third_Party/LoRaWAN/Mac/Region/RegionUS915.c ****     uint32_t tSymbolInUs = 0;
 1442              		.loc 1 550 5 is_stmt 1 view .LVU395
 1443              	.LVL103:
 551:Middlewares/Third_Party/LoRaWAN/Mac/Region/RegionUS915.c **** 
 552:Middlewares/Third_Party/LoRaWAN/Mac/Region/RegionUS915.c ****     // Get the datarate, perform a boundary check
 553:Middlewares/Third_Party/LoRaWAN/Mac/Region/RegionUS915.c ****     rxConfigParams->Datarate = MIN( datarate, US915_RX_MAX_DATARATE );
 1444              		.loc 1 553 5 view .LVU396
 1445              		.loc 1 553 32 is_stmt 0 view .LVU397
 1446 000a 0D28     		cmp	r0, #13
 1447 000c A8BF     		it	ge
 1448 000e 0D20     		movge	r0, #13
 1449              	.LVL104:
 1450              		.loc 1 553 30 view .LVU398
 1451 0010 5870     		strb	r0, [r3, #1]
 554:Middlewares/Third_Party/LoRaWAN/Mac/Region/RegionUS915.c ****     rxConfigParams->Bandwidth = RegionCommonGetBandwidth( rxConfigParams->Datarate, BandwidthsUS915
 1452              		.loc 1 554 5 is_stmt 1 view .LVU399
 1453              		.loc 1 554 33 is_stmt 0 view .LVU400
 1454 0012 0F4D     		ldr	r5, .L110
 1455 0014 2946     		mov	r1, r5
 1456              	.LVL105:
 1457              		.loc 1 554 33 view .LVU401
 1458 0016 FFF7FEFF 		bl	RegionCommonGetBandwidth
 1459              	.LVL106:
 1460              		.loc 1 554 31 view .LVU402
 1461 001a A070     		strb	r0, [r4, #2]
 555:Middlewares/Third_Party/LoRaWAN/Mac/Region/RegionUS915.c **** 
 556:Middlewares/Third_Party/LoRaWAN/Mac/Region/RegionUS915.c ****     tSymbolInUs = RegionCommonComputeSymbolTimeLoRa( DataratesUS915[rxConfigParams->Datarate], Band
 1462              		.loc 1 556 5 is_stmt 1 view .LVU403
 1463              		.loc 1 556 83 is_stmt 0 view .LVU404
 1464 001c 94F90130 		ldrsb	r3, [r4, #1]
 1465              		.loc 1 556 19 view .LVU405
 1466 0020 55F82310 		ldr	r1, [r5, r3, lsl #2]
 1467 0024 0B4A     		ldr	r2, .L110+4
 1468 0026 D05C     		ldrb	r0, [r2, r3]	@ zero_extendqisi2
 1469 0028 FFF7FEFF 		bl	RegionCommonComputeSymbolTimeLoRa
 1470              	.LVL107:
 1471 002c 0546     		mov	r5, r0
 1472              	.LVL108:
 557:Middlewares/Third_Party/LoRaWAN/Mac/Region/RegionUS915.c **** 
 558:Middlewares/Third_Party/LoRaWAN/Mac/Region/RegionUS915.c ****     RegionCommonComputeRxWindowParameters( tSymbolInUs, minRxSymbols, rxError, Radio.GetWakeupTime(
ARM GAS  /tmp/cczpAp4p.s 			page 41


 1473              		.loc 1 558 5 is_stmt 1 view .LVU406
 1474              		.loc 1 558 85 is_stmt 0 view .LVU407
 1475 002e 0A4B     		ldr	r3, .L110+8
 1476 0030 DB6D     		ldr	r3, [r3, #92]
 1477              		.loc 1 558 5 view .LVU408
 1478 0032 9847     		blx	r3
 1479              	.LVL109:
 1480              		.loc 1 558 5 view .LVU409
 1481 0034 0346     		mov	r3, r0
 1482 0036 04F10C02 		add	r2, r4, #12
 1483 003a 0192     		str	r2, [sp, #4]
 1484 003c 0834     		adds	r4, r4, #8
 1485              	.LVL110:
 1486              		.loc 1 558 5 view .LVU410
 1487 003e 0094     		str	r4, [sp]
 1488 0040 3A46     		mov	r2, r7
 1489 0042 3146     		mov	r1, r6
 1490 0044 2846     		mov	r0, r5
 1491 0046 FFF7FEFF 		bl	RegionCommonComputeRxWindowParameters
 1492              	.LVL111:
 559:Middlewares/Third_Party/LoRaWAN/Mac/Region/RegionUS915.c **** #endif /* REGION_US915 */
 560:Middlewares/Third_Party/LoRaWAN/Mac/Region/RegionUS915.c **** }
 1493              		.loc 1 560 1 view .LVU411
 1494 004a 03B0     		add	sp, sp, #12
 1495              	.LCFI21:
 1496              		.cfi_def_cfa_offset 20
 1497              		@ sp needed
 1498 004c F0BD     		pop	{r4, r5, r6, r7, pc}
 1499              	.LVL112:
 1500              	.L111:
 1501              		.loc 1 560 1 view .LVU412
 1502 004e 00BF     		.align	2
 1503              	.L110:
 1504 0050 00000000 		.word	.LANCHOR1
 1505 0054 00000000 		.word	.LANCHOR0
 1506 0058 00000000 		.word	Radio
 1507              		.cfi_endproc
 1508              	.LFE113:
 1510              		.section	.text.RegionUS915RxConfig,"ax",%progbits
 1511              		.align	1
 1512              		.global	RegionUS915RxConfig
 1513              		.syntax unified
 1514              		.thumb
 1515              		.thumb_func
 1516              		.fpu softvfp
 1518              	RegionUS915RxConfig:
 1519              	.LVL113:
 1520              	.LFB114:
 561:Middlewares/Third_Party/LoRaWAN/Mac/Region/RegionUS915.c **** 
 562:Middlewares/Third_Party/LoRaWAN/Mac/Region/RegionUS915.c **** bool RegionUS915RxConfig( RxConfigParams_t* rxConfig, int8_t* datarate )
 563:Middlewares/Third_Party/LoRaWAN/Mac/Region/RegionUS915.c **** {
 1521              		.loc 1 563 1 is_stmt 1 view -0
 1522              		.cfi_startproc
 1523              		@ args = 0, pretend = 0, frame = 0
 1524              		@ frame_needed = 0, uses_anonymous_args = 0
 1525              		.loc 1 563 1 is_stmt 0 view .LVU414
 1526 0000 2DE9F043 		push	{r4, r5, r6, r7, r8, r9, lr}
ARM GAS  /tmp/cczpAp4p.s 			page 42


 1527              	.LCFI22:
 1528              		.cfi_def_cfa_offset 28
 1529              		.cfi_offset 4, -28
 1530              		.cfi_offset 5, -24
 1531              		.cfi_offset 6, -20
 1532              		.cfi_offset 7, -16
 1533              		.cfi_offset 8, -12
 1534              		.cfi_offset 9, -8
 1535              		.cfi_offset 14, -4
 1536 0004 8BB0     		sub	sp, sp, #44
 1537              	.LCFI23:
 1538              		.cfi_def_cfa_offset 72
 1539 0006 0446     		mov	r4, r0
 1540 0008 0D46     		mov	r5, r1
 564:Middlewares/Third_Party/LoRaWAN/Mac/Region/RegionUS915.c **** #if defined( REGION_US915 )
 565:Middlewares/Third_Party/LoRaWAN/Mac/Region/RegionUS915.c ****     int8_t dr = rxConfig->Datarate;
 1541              		.loc 1 565 5 is_stmt 1 view .LVU415
 1542              		.loc 1 565 12 is_stmt 0 view .LVU416
 1543 000a 90F90160 		ldrsb	r6, [r0, #1]
 1544              	.LVL114:
 566:Middlewares/Third_Party/LoRaWAN/Mac/Region/RegionUS915.c ****     uint8_t maxPayload = 0;
 1545              		.loc 1 566 5 is_stmt 1 view .LVU417
 567:Middlewares/Third_Party/LoRaWAN/Mac/Region/RegionUS915.c ****     int8_t phyDr = 0;
 1546              		.loc 1 567 5 view .LVU418
 568:Middlewares/Third_Party/LoRaWAN/Mac/Region/RegionUS915.c ****     uint32_t frequency = rxConfig->Frequency;
 1547              		.loc 1 568 5 view .LVU419
 1548              		.loc 1 568 14 is_stmt 0 view .LVU420
 1549 000e 4768     		ldr	r7, [r0, #4]
 1550              	.LVL115:
 569:Middlewares/Third_Party/LoRaWAN/Mac/Region/RegionUS915.c **** 
 570:Middlewares/Third_Party/LoRaWAN/Mac/Region/RegionUS915.c ****     if( Radio.GetStatus( ) != RF_IDLE )
 1551              		.loc 1 570 5 is_stmt 1 view .LVU421
 1552              		.loc 1 570 14 is_stmt 0 view .LVU422
 1553 0010 224B     		ldr	r3, .L119
 1554 0012 5B68     		ldr	r3, [r3, #4]
 1555              		.loc 1 570 9 view .LVU423
 1556 0014 9847     		blx	r3
 1557              	.LVL116:
 1558              		.loc 1 570 7 view .LVU424
 1559 0016 0028     		cmp	r0, #0
 1560 0018 3DD1     		bne	.L117
 571:Middlewares/Third_Party/LoRaWAN/Mac/Region/RegionUS915.c ****     {
 572:Middlewares/Third_Party/LoRaWAN/Mac/Region/RegionUS915.c ****         return false;
 573:Middlewares/Third_Party/LoRaWAN/Mac/Region/RegionUS915.c ****     }
 574:Middlewares/Third_Party/LoRaWAN/Mac/Region/RegionUS915.c **** 
 575:Middlewares/Third_Party/LoRaWAN/Mac/Region/RegionUS915.c ****     if( rxConfig->RxSlot == RX_SLOT_WIN_1 )
 1561              		.loc 1 575 5 is_stmt 1 view .LVU425
 1562              		.loc 1 575 17 is_stmt 0 view .LVU426
 1563 001a E37C     		ldrb	r3, [r4, #19]	@ zero_extendqisi2
 1564              		.loc 1 575 7 view .LVU427
 1565 001c 33B9     		cbnz	r3, .L114
 576:Middlewares/Third_Party/LoRaWAN/Mac/Region/RegionUS915.c ****     {
 577:Middlewares/Third_Party/LoRaWAN/Mac/Region/RegionUS915.c ****         // Apply window 1 frequency
 578:Middlewares/Third_Party/LoRaWAN/Mac/Region/RegionUS915.c ****         frequency = US915_FIRST_RX1_CHANNEL + ( rxConfig->Channel % 8 ) * US915_STEPWIDTH_RX1_CHANN
 1566              		.loc 1 578 9 is_stmt 1 view .LVU428
 1567              		.loc 1 578 57 is_stmt 0 view .LVU429
 1568 001e 2778     		ldrb	r7, [r4]	@ zero_extendqisi2
ARM GAS  /tmp/cczpAp4p.s 			page 43


 1569              	.LVL117:
 1570              		.loc 1 578 67 view .LVU430
 1571 0020 07F00703 		and	r3, r7, #7
 1572              		.loc 1 578 19 view .LVU431
 1573 0024 1E4A     		ldr	r2, .L119+4
 1574 0026 1F4F     		ldr	r7, .L119+8
 1575 0028 02FB0377 		mla	r7, r2, r3, r7
 1576              	.LVL118:
 1577              	.L114:
 579:Middlewares/Third_Party/LoRaWAN/Mac/Region/RegionUS915.c ****     }
 580:Middlewares/Third_Party/LoRaWAN/Mac/Region/RegionUS915.c **** 
 581:Middlewares/Third_Party/LoRaWAN/Mac/Region/RegionUS915.c ****     // Read the physical datarate from the datarates table
 582:Middlewares/Third_Party/LoRaWAN/Mac/Region/RegionUS915.c ****     phyDr = DataratesUS915[dr];
 1578              		.loc 1 582 5 is_stmt 1 view .LVU432
 1579              		.loc 1 582 11 is_stmt 0 view .LVU433
 1580 002c 1E4B     		ldr	r3, .L119+12
 1581 002e 13F90690 		ldrsb	r9, [r3, r6]
 1582              	.LVL119:
 583:Middlewares/Third_Party/LoRaWAN/Mac/Region/RegionUS915.c **** 
 584:Middlewares/Third_Party/LoRaWAN/Mac/Region/RegionUS915.c ****     Radio.SetChannel( frequency );
 1583              		.loc 1 584 5 is_stmt 1 view .LVU434
 1584              		.loc 1 584 10 is_stmt 0 view .LVU435
 1585 0032 DFF86880 		ldr	r8, .L119
 1586 0036 D8F80C30 		ldr	r3, [r8, #12]
 1587              		.loc 1 584 5 view .LVU436
 1588 003a 3846     		mov	r0, r7
 1589 003c 9847     		blx	r3
 1590              	.LVL120:
 585:Middlewares/Third_Party/LoRaWAN/Mac/Region/RegionUS915.c **** 
 586:Middlewares/Third_Party/LoRaWAN/Mac/Region/RegionUS915.c ****     // Radio configuration
 587:Middlewares/Third_Party/LoRaWAN/Mac/Region/RegionUS915.c ****     Radio.SetRxConfig( MODEM_LORA, rxConfig->Bandwidth, phyDr, 1, 0, 8, rxConfig->WindowTimeout, fa
 1591              		.loc 1 587 5 is_stmt 1 view .LVU437
 1592              		.loc 1 587 10 is_stmt 0 view .LVU438
 1593 003e D8F81880 		ldr	r8, [r8, #24]
 1594              		.loc 1 587 5 view .LVU439
 1595 0042 A37C     		ldrb	r3, [r4, #18]	@ zero_extendqisi2
 1596 0044 0993     		str	r3, [sp, #36]
 1597 0046 0120     		movs	r0, #1
 1598 0048 0890     		str	r0, [sp, #32]
 1599 004a 0022     		movs	r2, #0
 1600 004c 0792     		str	r2, [sp, #28]
 1601 004e 0692     		str	r2, [sp, #24]
 1602 0050 0592     		str	r2, [sp, #20]
 1603 0052 0492     		str	r2, [sp, #16]
 1604 0054 0392     		str	r2, [sp, #12]
 1605 0056 2389     		ldrh	r3, [r4, #8]
 1606 0058 0293     		str	r3, [sp, #8]
 1607 005a 0823     		movs	r3, #8
 1608 005c 0193     		str	r3, [sp, #4]
 1609 005e 0092     		str	r2, [sp]
 1610 0060 0346     		mov	r3, r0
 1611 0062 4A46     		mov	r2, r9
 1612 0064 A178     		ldrb	r1, [r4, #2]	@ zero_extendqisi2
 1613 0066 C047     		blx	r8
 1614              	.LVL121:
 588:Middlewares/Third_Party/LoRaWAN/Mac/Region/RegionUS915.c **** 
 589:Middlewares/Third_Party/LoRaWAN/Mac/Region/RegionUS915.c ****     /* ST_WORKAROUND_BEGIN: Keep repeater feature */
ARM GAS  /tmp/cczpAp4p.s 			page 44


 590:Middlewares/Third_Party/LoRaWAN/Mac/Region/RegionUS915.c ****     if( rxConfig->RepeaterSupport == true )
 1615              		.loc 1 590 5 is_stmt 1 view .LVU440
 1616              		.loc 1 590 17 is_stmt 0 view .LVU441
 1617 0068 637C     		ldrb	r3, [r4, #17]	@ zero_extendqisi2
 1618              		.loc 1 590 7 view .LVU442
 1619 006a 8BB1     		cbz	r3, .L115
 591:Middlewares/Third_Party/LoRaWAN/Mac/Region/RegionUS915.c ****     {
 592:Middlewares/Third_Party/LoRaWAN/Mac/Region/RegionUS915.c ****         maxPayload = MaxPayloadOfDatarateRepeaterUS915[dr];
 1620              		.loc 1 592 9 is_stmt 1 view .LVU443
 1621              		.loc 1 592 20 is_stmt 0 view .LVU444
 1622 006c 0F4B     		ldr	r3, .L119+16
 1623 006e 995D     		ldrb	r1, [r3, r6]	@ zero_extendqisi2
 1624              	.LVL122:
 1625              	.L116:
 593:Middlewares/Third_Party/LoRaWAN/Mac/Region/RegionUS915.c ****     }
 594:Middlewares/Third_Party/LoRaWAN/Mac/Region/RegionUS915.c ****     else
 595:Middlewares/Third_Party/LoRaWAN/Mac/Region/RegionUS915.c ****     {
 596:Middlewares/Third_Party/LoRaWAN/Mac/Region/RegionUS915.c ****         maxPayload = MaxPayloadOfDatarateUS915[dr];
 597:Middlewares/Third_Party/LoRaWAN/Mac/Region/RegionUS915.c ****     }
 598:Middlewares/Third_Party/LoRaWAN/Mac/Region/RegionUS915.c **** 
 599:Middlewares/Third_Party/LoRaWAN/Mac/Region/RegionUS915.c ****     Radio.SetMaxPayloadLength( MODEM_LORA, maxPayload + LORAMAC_FRAME_PAYLOAD_OVERHEAD_SIZE );
 1626              		.loc 1 599 5 is_stmt 1 view .LVU445
 1627              		.loc 1 599 10 is_stmt 0 view .LVU446
 1628 0070 0A4B     		ldr	r3, .L119
 1629 0072 5B6D     		ldr	r3, [r3, #84]
 1630              		.loc 1 599 5 view .LVU447
 1631 0074 0D31     		adds	r1, r1, #13
 1632              	.LVL123:
 1633              		.loc 1 599 5 view .LVU448
 1634 0076 C9B2     		uxtb	r1, r1
 1635 0078 0120     		movs	r0, #1
 1636 007a 9847     		blx	r3
 1637              	.LVL124:
 600:Middlewares/Third_Party/LoRaWAN/Mac/Region/RegionUS915.c ****     /* ST_WORKAROUND_END */
 601:Middlewares/Third_Party/LoRaWAN/Mac/Region/RegionUS915.c **** 
 602:Middlewares/Third_Party/LoRaWAN/Mac/Region/RegionUS915.c ****     /* ST_WORKAROUND_BEGIN: Print Rx config */
 603:Middlewares/Third_Party/LoRaWAN/Mac/Region/RegionUS915.c ****     RegionCommonRxConfigPrint(rxConfig->RxSlot, frequency, dr);
 1638              		.loc 1 603 5 is_stmt 1 view .LVU449
 1639 007c 3246     		mov	r2, r6
 1640 007e 3946     		mov	r1, r7
 1641 0080 E07C     		ldrb	r0, [r4, #19]	@ zero_extendqisi2
 1642 0082 FFF7FEFF 		bl	RegionCommonRxConfigPrint
 1643              	.LVL125:
 604:Middlewares/Third_Party/LoRaWAN/Mac/Region/RegionUS915.c ****     /* ST_WORKAROUND_END */
 605:Middlewares/Third_Party/LoRaWAN/Mac/Region/RegionUS915.c **** 
 606:Middlewares/Third_Party/LoRaWAN/Mac/Region/RegionUS915.c ****     *datarate = (uint8_t) dr;
 1644              		.loc 1 606 5 view .LVU450
 1645              		.loc 1 606 15 is_stmt 0 view .LVU451
 1646 0086 2E70     		strb	r6, [r5]
 607:Middlewares/Third_Party/LoRaWAN/Mac/Region/RegionUS915.c ****     return true;
 1647              		.loc 1 607 5 is_stmt 1 view .LVU452
 1648              		.loc 1 607 12 is_stmt 0 view .LVU453
 1649 0088 0120     		movs	r0, #1
 1650              	.LVL126:
 1651              	.L113:
 608:Middlewares/Third_Party/LoRaWAN/Mac/Region/RegionUS915.c **** #else
 609:Middlewares/Third_Party/LoRaWAN/Mac/Region/RegionUS915.c ****     return false;
ARM GAS  /tmp/cczpAp4p.s 			page 45


 610:Middlewares/Third_Party/LoRaWAN/Mac/Region/RegionUS915.c **** #endif /* REGION_US915 */
 611:Middlewares/Third_Party/LoRaWAN/Mac/Region/RegionUS915.c **** }
 1652              		.loc 1 611 1 view .LVU454
 1653 008a 0BB0     		add	sp, sp, #44
 1654              	.LCFI24:
 1655              		.cfi_remember_state
 1656              		.cfi_def_cfa_offset 28
 1657              		@ sp needed
 1658 008c BDE8F083 		pop	{r4, r5, r6, r7, r8, r9, pc}
 1659              	.LVL127:
 1660              	.L115:
 1661              	.LCFI25:
 1662              		.cfi_restore_state
 596:Middlewares/Third_Party/LoRaWAN/Mac/Region/RegionUS915.c ****     }
 1663              		.loc 1 596 9 is_stmt 1 view .LVU455
 596:Middlewares/Third_Party/LoRaWAN/Mac/Region/RegionUS915.c ****     }
 1664              		.loc 1 596 20 is_stmt 0 view .LVU456
 1665 0090 074B     		ldr	r3, .L119+20
 1666 0092 995D     		ldrb	r1, [r3, r6]	@ zero_extendqisi2
 1667              	.LVL128:
 596:Middlewares/Third_Party/LoRaWAN/Mac/Region/RegionUS915.c ****     }
 1668              		.loc 1 596 20 view .LVU457
 1669 0094 ECE7     		b	.L116
 1670              	.LVL129:
 1671              	.L117:
 572:Middlewares/Third_Party/LoRaWAN/Mac/Region/RegionUS915.c ****     }
 1672              		.loc 1 572 16 view .LVU458
 1673 0096 0020     		movs	r0, #0
 1674 0098 F7E7     		b	.L113
 1675              	.L120:
 1676 009a 00BF     		.align	2
 1677              	.L119:
 1678 009c 00000000 		.word	Radio
 1679 00a0 C0270900 		.word	600000
 1680 00a4 A0700837 		.word	923300000
 1681 00a8 00000000 		.word	.LANCHOR0
 1682 00ac 00000000 		.word	.LANCHOR4
 1683 00b0 00000000 		.word	.LANCHOR3
 1684              		.cfi_endproc
 1685              	.LFE114:
 1687              		.section	.text.RegionUS915TxConfig,"ax",%progbits
 1688              		.align	1
 1689              		.global	RegionUS915TxConfig
 1690              		.syntax unified
 1691              		.thumb
 1692              		.thumb_func
 1693              		.fpu softvfp
 1695              	RegionUS915TxConfig:
 1696              	.LVL130:
 1697              	.LFB115:
 612:Middlewares/Third_Party/LoRaWAN/Mac/Region/RegionUS915.c **** 
 613:Middlewares/Third_Party/LoRaWAN/Mac/Region/RegionUS915.c **** bool RegionUS915TxConfig( TxConfigParams_t* txConfig, int8_t* txPower, TimerTime_t* txTimeOnAir )
 614:Middlewares/Third_Party/LoRaWAN/Mac/Region/RegionUS915.c **** {
 1698              		.loc 1 614 1 is_stmt 1 view -0
 1699              		.cfi_startproc
 1700              		@ args = 0, pretend = 0, frame = 8
 1701              		@ frame_needed = 0, uses_anonymous_args = 0
ARM GAS  /tmp/cczpAp4p.s 			page 46


 1702              		.loc 1 614 1 is_stmt 0 view .LVU460
 1703 0000 2DE9F04F 		push	{r4, r5, r6, r7, r8, r9, r10, fp, lr}
 1704              	.LCFI26:
 1705              		.cfi_def_cfa_offset 36
 1706              		.cfi_offset 4, -36
 1707              		.cfi_offset 5, -32
 1708              		.cfi_offset 6, -28
 1709              		.cfi_offset 7, -24
 1710              		.cfi_offset 8, -20
 1711              		.cfi_offset 9, -16
 1712              		.cfi_offset 10, -12
 1713              		.cfi_offset 11, -8
 1714              		.cfi_offset 14, -4
 1715 0004 8DB0     		sub	sp, sp, #52
 1716              	.LCFI27:
 1717              		.cfi_def_cfa_offset 88
 1718 0006 0446     		mov	r4, r0
 1719 0008 8B46     		mov	fp, r1
 1720 000a 1746     		mov	r7, r2
 615:Middlewares/Third_Party/LoRaWAN/Mac/Region/RegionUS915.c **** #if defined( REGION_US915 )
 616:Middlewares/Third_Party/LoRaWAN/Mac/Region/RegionUS915.c ****     int8_t phyDr = DataratesUS915[txConfig->Datarate];
 1721              		.loc 1 616 5 is_stmt 1 view .LVU461
 1722              		.loc 1 616 43 is_stmt 0 view .LVU462
 1723 000c 90F90120 		ldrsb	r2, [r0, #1]
 1724              	.LVL131:
 1725              		.loc 1 616 12 view .LVU463
 1726 0010 324B     		ldr	r3, .L123
 1727 0012 13F902A0 		ldrsb	r10, [r3, r2]
 1728              	.LVL132:
 617:Middlewares/Third_Party/LoRaWAN/Mac/Region/RegionUS915.c ****     int8_t txPowerLimited = LimitTxPower( txConfig->TxPower, RegionNvmGroup1->Bands[RegionNvmGroup2
 1729              		.loc 1 617 5 is_stmt 1 view .LVU464
 1730              		.loc 1 617 77 is_stmt 0 view .LVU465
 1731 0016 324B     		ldr	r3, .L123+4
 1732 0018 1868     		ldr	r0, [r3]
 1733              	.LVL133:
 1734              		.loc 1 617 100 view .LVU466
 1735 001a DFF8C890 		ldr	r9, .L123+8
 1736 001e D9F80030 		ldr	r3, [r9]
 1737              		.loc 1 617 119 view .LVU467
 1738 0022 2178     		ldrb	r1, [r4]	@ zero_extendqisi2
 1739              	.LVL134:
 1740              		.loc 1 617 129 view .LVU468
 1741 0024 01EB4101 		add	r1, r1, r1, lsl #1
 1742 0028 03EB8101 		add	r1, r3, r1, lsl #2
 1743 002c 497A     		ldrb	r1, [r1, #9]	@ zero_extendqisi2
 1744              		.loc 1 617 29 view .LVU469
 1745 002e 01EB4101 		add	r1, r1, r1, lsl #1
 1746 0032 00EBC101 		add	r1, r0, r1, lsl #3
 1747 0036 03F55873 		add	r3, r3, #864
 1748 003a 91F90210 		ldrsb	r1, [r1, #2]
 1749 003e 94F90200 		ldrsb	r0, [r4, #2]
 1750 0042 FFF7FEFF 		bl	LimitTxPower
 1751              	.LVL135:
 1752 0046 0646     		mov	r6, r0
 1753              	.LVL136:
 618:Middlewares/Third_Party/LoRaWAN/Mac/Region/RegionUS915.c ****     uint32_t bandwidth = RegionCommonGetBandwidth( txConfig->Datarate, BandwidthsUS915 );
 1754              		.loc 1 618 5 is_stmt 1 view .LVU470
ARM GAS  /tmp/cczpAp4p.s 			page 47


 1755              		.loc 1 618 26 is_stmt 0 view .LVU471
 1756 0048 2749     		ldr	r1, .L123+12
 1757 004a 94F90100 		ldrsb	r0, [r4, #1]
 1758 004e FFF7FEFF 		bl	RegionCommonGetBandwidth
 1759              	.LVL137:
 1760 0052 0A90     		str	r0, [sp, #40]
 1761              	.LVL138:
 619:Middlewares/Third_Party/LoRaWAN/Mac/Region/RegionUS915.c ****     int8_t phyTxPower = 0;
 1762              		.loc 1 619 5 is_stmt 1 view .LVU472
 620:Middlewares/Third_Party/LoRaWAN/Mac/Region/RegionUS915.c **** 
 621:Middlewares/Third_Party/LoRaWAN/Mac/Region/RegionUS915.c ****     // Calculate physical TX power
 622:Middlewares/Third_Party/LoRaWAN/Mac/Region/RegionUS915.c ****     phyTxPower = RegionCommonComputeTxPower( txPowerLimited, US915_DEFAULT_MAX_ERP, 0 );
 1763              		.loc 1 622 5 view .LVU473
 1764              		.loc 1 622 18 is_stmt 0 view .LVU474
 1765 0054 0022     		movs	r2, #0
 1766 0056 2549     		ldr	r1, .L123+16
 1767 0058 3046     		mov	r0, r6
 1768              	.LVL139:
 1769              		.loc 1 622 18 view .LVU475
 1770 005a FFF7FEFF 		bl	RegionCommonComputeTxPower
 1771              	.LVL140:
 1772 005e 0B90     		str	r0, [sp, #44]
 1773              	.LVL141:
 623:Middlewares/Third_Party/LoRaWAN/Mac/Region/RegionUS915.c **** 
 624:Middlewares/Third_Party/LoRaWAN/Mac/Region/RegionUS915.c ****     // Setup the radio frequency
 625:Middlewares/Third_Party/LoRaWAN/Mac/Region/RegionUS915.c ****     Radio.SetChannel( RegionNvmGroup2->Channels[txConfig->Channel].Frequency );
 1774              		.loc 1 625 5 is_stmt 1 view .LVU476
 1775              		.loc 1 625 10 is_stmt 0 view .LVU477
 1776 0060 DFF88C80 		ldr	r8, .L123+20
 1777 0064 D8F80C20 		ldr	r2, [r8, #12]
 1778              		.loc 1 625 38 view .LVU478
 1779 0068 D9F80010 		ldr	r1, [r9]
 1780              		.loc 1 625 57 view .LVU479
 1781 006c 2378     		ldrb	r3, [r4]	@ zero_extendqisi2
 1782              		.loc 1 625 5 view .LVU480
 1783 006e 03EB4303 		add	r3, r3, r3, lsl #1
 1784 0072 51F82300 		ldr	r0, [r1, r3, lsl #2]
 1785 0076 9047     		blx	r2
 1786              	.LVL142:
 626:Middlewares/Third_Party/LoRaWAN/Mac/Region/RegionUS915.c **** 
 627:Middlewares/Third_Party/LoRaWAN/Mac/Region/RegionUS915.c ****     Radio.SetTxConfig( MODEM_LORA, phyTxPower, 0, bandwidth, phyDr, 1, 8, false, true, 0, 0, false,
 1787              		.loc 1 627 5 is_stmt 1 view .LVU481
 1788 0078 4FF47A63 		mov	r3, #4000
 1789 007c 0893     		str	r3, [sp, #32]
 1790 007e 0022     		movs	r2, #0
 1791 0080 0792     		str	r2, [sp, #28]
 1792 0082 0692     		str	r2, [sp, #24]
 1793 0084 0592     		str	r2, [sp, #20]
 1794 0086 0125     		movs	r5, #1
 1795 0088 0495     		str	r5, [sp, #16]
 1796 008a 0392     		str	r2, [sp, #12]
 1797 008c 0823     		movs	r3, #8
 1798 008e 0293     		str	r3, [sp, #8]
 1799 0090 0195     		str	r5, [sp, #4]
 1800 0092 CDF800A0 		str	r10, [sp]
 1801 0096 0A9B     		ldr	r3, [sp, #40]
 1802 0098 0B99     		ldr	r1, [sp, #44]
ARM GAS  /tmp/cczpAp4p.s 			page 48


 1803 009a 2846     		mov	r0, r5
 1804 009c D8F81CC0 		ldr	ip, [r8, #28]
 1805 00a0 E047     		blx	ip
 1806              	.LVL143:
 628:Middlewares/Third_Party/LoRaWAN/Mac/Region/RegionUS915.c ****     /* ST_WORKAROUND_BEGIN: Print Tx config */
 629:Middlewares/Third_Party/LoRaWAN/Mac/Region/RegionUS915.c ****     RegionCommonTxConfigPrint(RegionNvmGroup2->Channels[txConfig->Channel].Frequency, txConfig->Dat
 1807              		.loc 1 629 5 view .LVU482
 1808              		.loc 1 629 46 is_stmt 0 view .LVU483
 1809 00a2 D9F80020 		ldr	r2, [r9]
 1810              		.loc 1 629 65 view .LVU484
 1811 00a6 2378     		ldrb	r3, [r4]	@ zero_extendqisi2
 1812              		.loc 1 629 5 view .LVU485
 1813 00a8 03EB4303 		add	r3, r3, r3, lsl #1
 1814 00ac 94F90110 		ldrsb	r1, [r4, #1]
 1815 00b0 52F82300 		ldr	r0, [r2, r3, lsl #2]
 1816 00b4 FFF7FEFF 		bl	RegionCommonTxConfigPrint
 1817              	.LVL144:
 630:Middlewares/Third_Party/LoRaWAN/Mac/Region/RegionUS915.c ****     /* ST_WORKAROUND_END */
 631:Middlewares/Third_Party/LoRaWAN/Mac/Region/RegionUS915.c **** 
 632:Middlewares/Third_Party/LoRaWAN/Mac/Region/RegionUS915.c ****     // Setup maximum payload length of the radio driver
 633:Middlewares/Third_Party/LoRaWAN/Mac/Region/RegionUS915.c ****     Radio.SetMaxPayloadLength( MODEM_LORA, txConfig->PktLen );
 1818              		.loc 1 633 5 is_stmt 1 view .LVU486
 1819              		.loc 1 633 10 is_stmt 0 view .LVU487
 1820 00b8 D8F85430 		ldr	r3, [r8, #84]
 1821              		.loc 1 633 5 view .LVU488
 1822 00bc 217B     		ldrb	r1, [r4, #12]	@ zero_extendqisi2
 1823 00be 2846     		mov	r0, r5
 1824 00c0 9847     		blx	r3
 1825              	.LVL145:
 634:Middlewares/Third_Party/LoRaWAN/Mac/Region/RegionUS915.c **** 
 635:Middlewares/Third_Party/LoRaWAN/Mac/Region/RegionUS915.c ****     // Update time-on-air
 636:Middlewares/Third_Party/LoRaWAN/Mac/Region/RegionUS915.c ****     *txTimeOnAir = GetTimeOnAir( txConfig->Datarate, txConfig->PktLen );
 1826              		.loc 1 636 5 is_stmt 1 view .LVU489
 1827              		.loc 1 636 20 is_stmt 0 view .LVU490
 1828 00c2 A189     		ldrh	r1, [r4, #12]
 1829 00c4 94F90100 		ldrsb	r0, [r4, #1]
 1830 00c8 FFF7FEFF 		bl	GetTimeOnAir
 1831              	.LVL146:
 1832              		.loc 1 636 18 view .LVU491
 1833 00cc 3860     		str	r0, [r7]
 637:Middlewares/Third_Party/LoRaWAN/Mac/Region/RegionUS915.c **** 
 638:Middlewares/Third_Party/LoRaWAN/Mac/Region/RegionUS915.c ****     *txPower = txPowerLimited;
 1834              		.loc 1 638 5 is_stmt 1 view .LVU492
 1835              		.loc 1 638 14 is_stmt 0 view .LVU493
 1836 00ce 8BF80060 		strb	r6, [fp]
 639:Middlewares/Third_Party/LoRaWAN/Mac/Region/RegionUS915.c ****     return true;
 1837              		.loc 1 639 5 is_stmt 1 view .LVU494
 640:Middlewares/Third_Party/LoRaWAN/Mac/Region/RegionUS915.c **** #else
 641:Middlewares/Third_Party/LoRaWAN/Mac/Region/RegionUS915.c ****     return false;
 642:Middlewares/Third_Party/LoRaWAN/Mac/Region/RegionUS915.c **** #endif /* REGION_US915 */
 643:Middlewares/Third_Party/LoRaWAN/Mac/Region/RegionUS915.c **** }
 1838              		.loc 1 643 1 is_stmt 0 view .LVU495
 1839 00d2 2846     		mov	r0, r5
 1840 00d4 0DB0     		add	sp, sp, #52
 1841              	.LCFI28:
 1842              		.cfi_def_cfa_offset 36
 1843              		@ sp needed
ARM GAS  /tmp/cczpAp4p.s 			page 49


 1844 00d6 BDE8F08F 		pop	{r4, r5, r6, r7, r8, r9, r10, fp, pc}
 1845              	.LVL147:
 1846              	.L124:
 1847              		.loc 1 643 1 view .LVU496
 1848 00da 00BF     		.align	2
 1849              	.L123:
 1850 00dc 00000000 		.word	.LANCHOR0
 1851 00e0 00000000 		.word	.LANCHOR5
 1852 00e4 00000000 		.word	.LANCHOR2
 1853 00e8 00000000 		.word	.LANCHOR1
 1854 00ec 0000F041 		.word	1106247680
 1855 00f0 00000000 		.word	Radio
 1856              		.cfi_endproc
 1857              	.LFE115:
 1859              		.section	.text.RegionUS915LinkAdrReq,"ax",%progbits
 1860              		.align	1
 1861              		.global	RegionUS915LinkAdrReq
 1862              		.syntax unified
 1863              		.thumb
 1864              		.thumb_func
 1865              		.fpu softvfp
 1867              	RegionUS915LinkAdrReq:
 1868              	.LVL148:
 1869              	.LFB116:
 644:Middlewares/Third_Party/LoRaWAN/Mac/Region/RegionUS915.c **** 
 645:Middlewares/Third_Party/LoRaWAN/Mac/Region/RegionUS915.c **** uint8_t RegionUS915LinkAdrReq( LinkAdrReqParams_t* linkAdrReq, int8_t* drOut, int8_t* txPowOut, uin
 646:Middlewares/Third_Party/LoRaWAN/Mac/Region/RegionUS915.c **** {
 1870              		.loc 1 646 1 is_stmt 1 view -0
 1871              		.cfi_startproc
 1872              		@ args = 4, pretend = 0, frame = 64
 1873              		@ frame_needed = 0, uses_anonymous_args = 0
 1874              		.loc 1 646 1 is_stmt 0 view .LVU498
 1875 0000 2DE9F043 		push	{r4, r5, r6, r7, r8, r9, lr}
 1876              	.LCFI29:
 1877              		.cfi_def_cfa_offset 28
 1878              		.cfi_offset 4, -28
 1879              		.cfi_offset 5, -24
 1880              		.cfi_offset 6, -20
 1881              		.cfi_offset 7, -16
 1882              		.cfi_offset 8, -12
 1883              		.cfi_offset 9, -8
 1884              		.cfi_offset 14, -4
 1885 0004 91B0     		sub	sp, sp, #68
 1886              	.LCFI30:
 1887              		.cfi_def_cfa_offset 96
 1888 0006 0546     		mov	r5, r0
 1889 0008 8846     		mov	r8, r1
 1890 000a 1746     		mov	r7, r2
 1891 000c 1E46     		mov	r6, r3
 647:Middlewares/Third_Party/LoRaWAN/Mac/Region/RegionUS915.c ****     uint8_t status = 0x07;
 1892              		.loc 1 647 5 is_stmt 1 view .LVU499
 1893              	.LVL149:
 648:Middlewares/Third_Party/LoRaWAN/Mac/Region/RegionUS915.c **** #if defined( REGION_US915 )
 649:Middlewares/Third_Party/LoRaWAN/Mac/Region/RegionUS915.c ****     RegionCommonLinkAdrParams_t linkAdrParams = { 0 };
 1894              		.loc 1 649 5 view .LVU500
 1895              		.loc 1 649 33 is_stmt 0 view .LVU501
 1896 000e 0024     		movs	r4, #0
ARM GAS  /tmp/cczpAp4p.s 			page 50


 1897 0010 0E94     		str	r4, [sp, #56]
 1898 0012 ADF83C40 		strh	r4, [sp, #60]	@ movhi
 650:Middlewares/Third_Party/LoRaWAN/Mac/Region/RegionUS915.c ****     uint8_t nextIndex = 0;
 1899              		.loc 1 650 5 is_stmt 1 view .LVU502
 1900              	.LVL150:
 651:Middlewares/Third_Party/LoRaWAN/Mac/Region/RegionUS915.c ****     uint8_t bytesProcessed = 0;
 1901              		.loc 1 651 5 view .LVU503
 652:Middlewares/Third_Party/LoRaWAN/Mac/Region/RegionUS915.c ****     uint16_t channelsMask[CHANNELS_MASK_SIZE] = { 0, 0, 0, 0, 0, 0 };
 1902              		.loc 1 652 5 view .LVU504
 1903              		.loc 1 652 14 is_stmt 0 view .LVU505
 1904 0016 0B94     		str	r4, [sp, #44]
 1905 0018 0C94     		str	r4, [sp, #48]
 1906 001a 0D94     		str	r4, [sp, #52]
 653:Middlewares/Third_Party/LoRaWAN/Mac/Region/RegionUS915.c ****     GetPhyParams_t getPhy;
 1907              		.loc 1 653 5 is_stmt 1 view .LVU506
 654:Middlewares/Third_Party/LoRaWAN/Mac/Region/RegionUS915.c ****     PhyParam_t phyParam;
 1908              		.loc 1 654 5 view .LVU507
 655:Middlewares/Third_Party/LoRaWAN/Mac/Region/RegionUS915.c ****     RegionCommonLinkAdrReqVerifyParams_t linkAdrVerifyParams;
 1909              		.loc 1 655 5 view .LVU508
 656:Middlewares/Third_Party/LoRaWAN/Mac/Region/RegionUS915.c **** 
 657:Middlewares/Third_Party/LoRaWAN/Mac/Region/RegionUS915.c ****     // Initialize local copy of channels mask
 658:Middlewares/Third_Party/LoRaWAN/Mac/Region/RegionUS915.c ****     RegionCommonChanMaskCopy( channelsMask, RegionNvmGroup2->ChannelsMask, CHANNELS_MASK_SIZE );
 1910              		.loc 1 658 5 view .LVU509
 1911              		.loc 1 658 60 is_stmt 0 view .LVU510
 1912 001c 9C4B     		ldr	r3, .L151
 1913              	.LVL151:
 1914              		.loc 1 658 60 view .LVU511
 1915 001e 1968     		ldr	r1, [r3]
 1916              	.LVL152:
 1917              		.loc 1 658 5 view .LVU512
 1918 0020 0622     		movs	r2, #6
 1919              	.LVL153:
 1920              		.loc 1 658 5 view .LVU513
 1921 0022 01F55871 		add	r1, r1, #864
 1922 0026 0BA8     		add	r0, sp, #44
 1923              	.LVL154:
 1924              		.loc 1 658 5 view .LVU514
 1925 0028 FFF7FEFF 		bl	RegionCommonChanMaskCopy
 1926              	.LVL155:
 659:Middlewares/Third_Party/LoRaWAN/Mac/Region/RegionUS915.c **** 
 660:Middlewares/Third_Party/LoRaWAN/Mac/Region/RegionUS915.c ****     while( bytesProcessed < linkAdrReq->PayloadSize )
 1927              		.loc 1 660 5 is_stmt 1 view .LVU515
 1928              		.loc 1 660 10 is_stmt 0 view .LVU516
 1929 002c 0DE0     		b	.L126
 1930              	.LVL156:
 1931              	.L146:
 661:Middlewares/Third_Party/LoRaWAN/Mac/Region/RegionUS915.c ****     {
 662:Middlewares/Third_Party/LoRaWAN/Mac/Region/RegionUS915.c ****         // Get ADR request parameters
 663:Middlewares/Third_Party/LoRaWAN/Mac/Region/RegionUS915.c ****         nextIndex = RegionCommonParseLinkAdrReq( &( linkAdrReq->Payload[bytesProcessed] ), &linkAdr
 664:Middlewares/Third_Party/LoRaWAN/Mac/Region/RegionUS915.c **** 
 665:Middlewares/Third_Party/LoRaWAN/Mac/Region/RegionUS915.c ****         if( nextIndex == 0 )
 666:Middlewares/Third_Party/LoRaWAN/Mac/Region/RegionUS915.c ****             break; // break loop, since no more request has been found
 667:Middlewares/Third_Party/LoRaWAN/Mac/Region/RegionUS915.c **** 
 668:Middlewares/Third_Party/LoRaWAN/Mac/Region/RegionUS915.c ****         // Update bytes processed
 669:Middlewares/Third_Party/LoRaWAN/Mac/Region/RegionUS915.c ****         bytesProcessed += nextIndex;
 670:Middlewares/Third_Party/LoRaWAN/Mac/Region/RegionUS915.c **** 
 671:Middlewares/Third_Party/LoRaWAN/Mac/Region/RegionUS915.c ****         // Revert status, as we only check the last ADR request for the channel mask KO
ARM GAS  /tmp/cczpAp4p.s 			page 51


 672:Middlewares/Third_Party/LoRaWAN/Mac/Region/RegionUS915.c ****         status = 0x07;
 673:Middlewares/Third_Party/LoRaWAN/Mac/Region/RegionUS915.c **** 
 674:Middlewares/Third_Party/LoRaWAN/Mac/Region/RegionUS915.c ****         if( linkAdrParams.ChMaskCtrl == 6 )
 675:Middlewares/Third_Party/LoRaWAN/Mac/Region/RegionUS915.c ****         {
 676:Middlewares/Third_Party/LoRaWAN/Mac/Region/RegionUS915.c ****             // Enable all 125 kHz channels
 677:Middlewares/Third_Party/LoRaWAN/Mac/Region/RegionUS915.c ****             channelsMask[0] = 0xFFFF;
 1932              		.loc 1 677 13 is_stmt 1 view .LVU517
 1933              		.loc 1 677 29 is_stmt 0 view .LVU518
 1934 002e 4FF6FF73 		movw	r3, #65535
 1935 0032 ADF82C30 		strh	r3, [sp, #44]	@ movhi
 678:Middlewares/Third_Party/LoRaWAN/Mac/Region/RegionUS915.c ****             channelsMask[1] = 0xFFFF;
 1936              		.loc 1 678 13 is_stmt 1 view .LVU519
 1937              		.loc 1 678 29 is_stmt 0 view .LVU520
 1938 0036 ADF82E30 		strh	r3, [sp, #46]	@ movhi
 679:Middlewares/Third_Party/LoRaWAN/Mac/Region/RegionUS915.c ****             channelsMask[2] = 0xFFFF;
 1939              		.loc 1 679 13 is_stmt 1 view .LVU521
 1940              		.loc 1 679 29 is_stmt 0 view .LVU522
 1941 003a ADF83030 		strh	r3, [sp, #48]	@ movhi
 680:Middlewares/Third_Party/LoRaWAN/Mac/Region/RegionUS915.c ****             channelsMask[3] = 0xFFFF;
 1942              		.loc 1 680 13 is_stmt 1 view .LVU523
 1943              		.loc 1 680 29 is_stmt 0 view .LVU524
 1944 003e ADF83230 		strh	r3, [sp, #50]	@ movhi
 681:Middlewares/Third_Party/LoRaWAN/Mac/Region/RegionUS915.c ****             // Apply chMask to channels 64 to 71
 682:Middlewares/Third_Party/LoRaWAN/Mac/Region/RegionUS915.c ****             channelsMask[4] = linkAdrParams.ChMask & CHANNELS_MASK_500KHZ_MASK;
 1945              		.loc 1 682 13 is_stmt 1 view .LVU525
 1946              		.loc 1 682 52 is_stmt 0 view .LVU526
 1947 0042 9DF83C30 		ldrb	r3, [sp, #60]	@ zero_extendqisi2
 1948              		.loc 1 682 29 view .LVU527
 1949 0046 ADF83430 		strh	r3, [sp, #52]	@ movhi
 1950              	.LVL157:
 1951              	.L126:
 660:Middlewares/Third_Party/LoRaWAN/Mac/Region/RegionUS915.c ****     {
 1952              		.loc 1 660 10 is_stmt 1 view .LVU528
 660:Middlewares/Third_Party/LoRaWAN/Mac/Region/RegionUS915.c ****     {
 1953              		.loc 1 660 39 is_stmt 0 view .LVU529
 1954 004a 2B7A     		ldrb	r3, [r5, #8]	@ zero_extendqisi2
 660:Middlewares/Third_Party/LoRaWAN/Mac/Region/RegionUS915.c ****     {
 1955              		.loc 1 660 10 view .LVU530
 1956 004c A342     		cmp	r3, r4
 1957 004e 40F28180 		bls	.L127
 663:Middlewares/Third_Party/LoRaWAN/Mac/Region/RegionUS915.c **** 
 1958              		.loc 1 663 9 is_stmt 1 view .LVU531
 663:Middlewares/Third_Party/LoRaWAN/Mac/Region/RegionUS915.c **** 
 1959              		.loc 1 663 63 is_stmt 0 view .LVU532
 1960 0052 6868     		ldr	r0, [r5, #4]
 663:Middlewares/Third_Party/LoRaWAN/Mac/Region/RegionUS915.c **** 
 1961              		.loc 1 663 21 view .LVU533
 1962 0054 0EA9     		add	r1, sp, #56
 1963 0056 2044     		add	r0, r0, r4
 1964 0058 FFF7FEFF 		bl	RegionCommonParseLinkAdrReq
 1965              	.LVL158:
 665:Middlewares/Third_Party/LoRaWAN/Mac/Region/RegionUS915.c ****             break; // break loop, since no more request has been found
 1966              		.loc 1 665 9 is_stmt 1 view .LVU534
 665:Middlewares/Third_Party/LoRaWAN/Mac/Region/RegionUS915.c ****             break; // break loop, since no more request has been found
 1967              		.loc 1 665 11 is_stmt 0 view .LVU535
 1968 005c 0028     		cmp	r0, #0
 1969 005e 79D0     		beq	.L127
ARM GAS  /tmp/cczpAp4p.s 			page 52


 669:Middlewares/Third_Party/LoRaWAN/Mac/Region/RegionUS915.c **** 
 1970              		.loc 1 669 9 is_stmt 1 view .LVU536
 669:Middlewares/Third_Party/LoRaWAN/Mac/Region/RegionUS915.c **** 
 1971              		.loc 1 669 24 is_stmt 0 view .LVU537
 1972 0060 0444     		add	r4, r4, r0
 1973              	.LVL159:
 669:Middlewares/Third_Party/LoRaWAN/Mac/Region/RegionUS915.c **** 
 1974              		.loc 1 669 24 view .LVU538
 1975 0062 E4B2     		uxtb	r4, r4
 1976              	.LVL160:
 672:Middlewares/Third_Party/LoRaWAN/Mac/Region/RegionUS915.c **** 
 1977              		.loc 1 672 9 is_stmt 1 view .LVU539
 674:Middlewares/Third_Party/LoRaWAN/Mac/Region/RegionUS915.c ****         {
 1978              		.loc 1 674 9 view .LVU540
 674:Middlewares/Third_Party/LoRaWAN/Mac/Region/RegionUS915.c ****         {
 1979              		.loc 1 674 26 is_stmt 0 view .LVU541
 1980 0064 9DF83BC0 		ldrb	ip, [sp, #59]	@ zero_extendqisi2
 674:Middlewares/Third_Party/LoRaWAN/Mac/Region/RegionUS915.c ****         {
 1981              		.loc 1 674 11 view .LVU542
 1982 0068 BCF1060F 		cmp	ip, #6
 1983 006c DFD0     		beq	.L146
 683:Middlewares/Third_Party/LoRaWAN/Mac/Region/RegionUS915.c ****         }
 684:Middlewares/Third_Party/LoRaWAN/Mac/Region/RegionUS915.c ****         else if( linkAdrParams.ChMaskCtrl == 7 )
 1984              		.loc 1 684 14 is_stmt 1 view .LVU543
 1985              		.loc 1 684 16 is_stmt 0 view .LVU544
 1986 006e BCF1070F 		cmp	ip, #7
 1987 0072 0AD0     		beq	.L147
 685:Middlewares/Third_Party/LoRaWAN/Mac/Region/RegionUS915.c ****         {
 686:Middlewares/Third_Party/LoRaWAN/Mac/Region/RegionUS915.c ****             // Disable all 125 kHz channels
 687:Middlewares/Third_Party/LoRaWAN/Mac/Region/RegionUS915.c ****             channelsMask[0] = 0x0000;
 688:Middlewares/Third_Party/LoRaWAN/Mac/Region/RegionUS915.c ****             channelsMask[1] = 0x0000;
 689:Middlewares/Third_Party/LoRaWAN/Mac/Region/RegionUS915.c ****             channelsMask[2] = 0x0000;
 690:Middlewares/Third_Party/LoRaWAN/Mac/Region/RegionUS915.c ****             channelsMask[3] = 0x0000;
 691:Middlewares/Third_Party/LoRaWAN/Mac/Region/RegionUS915.c ****             // Apply chMask to channels 64 to 71
 692:Middlewares/Third_Party/LoRaWAN/Mac/Region/RegionUS915.c ****             channelsMask[4] = linkAdrParams.ChMask & CHANNELS_MASK_500KHZ_MASK;
 693:Middlewares/Third_Party/LoRaWAN/Mac/Region/RegionUS915.c ****         }
 694:Middlewares/Third_Party/LoRaWAN/Mac/Region/RegionUS915.c ****         else if( linkAdrParams.ChMaskCtrl == 5 )
 1988              		.loc 1 694 14 is_stmt 1 view .LVU545
 1989              		.loc 1 694 16 is_stmt 0 view .LVU546
 1990 0074 BCF1050F 		cmp	ip, #5
 1991 0078 68D0     		beq	.L148
 695:Middlewares/Third_Party/LoRaWAN/Mac/Region/RegionUS915.c ****         {
 696:Middlewares/Third_Party/LoRaWAN/Mac/Region/RegionUS915.c ****             // Start value for comparison
 697:Middlewares/Third_Party/LoRaWAN/Mac/Region/RegionUS915.c ****             uint8_t bitMask = 1;
 698:Middlewares/Third_Party/LoRaWAN/Mac/Region/RegionUS915.c **** 
 699:Middlewares/Third_Party/LoRaWAN/Mac/Region/RegionUS915.c ****             // cntChannelMask for channelsMask[0] until channelsMask[3]
 700:Middlewares/Third_Party/LoRaWAN/Mac/Region/RegionUS915.c ****             uint8_t cntChannelMask = 0;
 701:Middlewares/Third_Party/LoRaWAN/Mac/Region/RegionUS915.c **** 
 702:Middlewares/Third_Party/LoRaWAN/Mac/Region/RegionUS915.c ****             // i will be 1, 2, 3, ..., 7
 703:Middlewares/Third_Party/LoRaWAN/Mac/Region/RegionUS915.c ****             for( uint8_t i = 0; i <= 7; i++ )
 704:Middlewares/Third_Party/LoRaWAN/Mac/Region/RegionUS915.c ****             {
 705:Middlewares/Third_Party/LoRaWAN/Mac/Region/RegionUS915.c ****                 // 8 MSBs of ChMask are RFU
 706:Middlewares/Third_Party/LoRaWAN/Mac/Region/RegionUS915.c ****                 // Checking if the ChMask is set, then true
 707:Middlewares/Third_Party/LoRaWAN/Mac/Region/RegionUS915.c ****                 if( ( ( linkAdrParams.ChMask & 0x00FF ) & ( bitMask << i ) ) != 0 )
 708:Middlewares/Third_Party/LoRaWAN/Mac/Region/RegionUS915.c ****                 {
 709:Middlewares/Third_Party/LoRaWAN/Mac/Region/RegionUS915.c ****                     if( ( i % 2 ) == 0 )
 710:Middlewares/Third_Party/LoRaWAN/Mac/Region/RegionUS915.c ****                     {
ARM GAS  /tmp/cczpAp4p.s 			page 53


 711:Middlewares/Third_Party/LoRaWAN/Mac/Region/RegionUS915.c ****                         // Enable a bank of 8 125kHz channels, 8 LSBs
 712:Middlewares/Third_Party/LoRaWAN/Mac/Region/RegionUS915.c ****                         channelsMask[cntChannelMask] |= 0x00FF;
 713:Middlewares/Third_Party/LoRaWAN/Mac/Region/RegionUS915.c ****                         // Enable the corresponding 500kHz channel
 714:Middlewares/Third_Party/LoRaWAN/Mac/Region/RegionUS915.c ****                         channelsMask[4] |= ( bitMask << i );
 715:Middlewares/Third_Party/LoRaWAN/Mac/Region/RegionUS915.c ****                     }
 716:Middlewares/Third_Party/LoRaWAN/Mac/Region/RegionUS915.c ****                     else
 717:Middlewares/Third_Party/LoRaWAN/Mac/Region/RegionUS915.c ****                     {
 718:Middlewares/Third_Party/LoRaWAN/Mac/Region/RegionUS915.c ****                         // Enable a bank of 8 125kHz channels, 8 MSBs
 719:Middlewares/Third_Party/LoRaWAN/Mac/Region/RegionUS915.c ****                         channelsMask[cntChannelMask] |= 0xFF00;
 720:Middlewares/Third_Party/LoRaWAN/Mac/Region/RegionUS915.c ****                         // Enable the corresponding 500kHz channel
 721:Middlewares/Third_Party/LoRaWAN/Mac/Region/RegionUS915.c ****                         channelsMask[4] |= ( bitMask << i );
 722:Middlewares/Third_Party/LoRaWAN/Mac/Region/RegionUS915.c ****                         // cntChannelMask increment for uneven i
 723:Middlewares/Third_Party/LoRaWAN/Mac/Region/RegionUS915.c ****                         cntChannelMask++;
 724:Middlewares/Third_Party/LoRaWAN/Mac/Region/RegionUS915.c ****                     }
 725:Middlewares/Third_Party/LoRaWAN/Mac/Region/RegionUS915.c ****                 }
 726:Middlewares/Third_Party/LoRaWAN/Mac/Region/RegionUS915.c ****                 // ChMask is not set
 727:Middlewares/Third_Party/LoRaWAN/Mac/Region/RegionUS915.c ****                 else
 728:Middlewares/Third_Party/LoRaWAN/Mac/Region/RegionUS915.c ****                 {
 729:Middlewares/Third_Party/LoRaWAN/Mac/Region/RegionUS915.c ****                     if( ( i % 2 ) == 0 )
 730:Middlewares/Third_Party/LoRaWAN/Mac/Region/RegionUS915.c ****                     {
 731:Middlewares/Third_Party/LoRaWAN/Mac/Region/RegionUS915.c ****                         // Disable a bank of 8 125kHz channels, 8 LSBs
 732:Middlewares/Third_Party/LoRaWAN/Mac/Region/RegionUS915.c ****                         channelsMask[cntChannelMask] &= 0xFF00;
 733:Middlewares/Third_Party/LoRaWAN/Mac/Region/RegionUS915.c ****                         // Disable the corresponding 500kHz channel
 734:Middlewares/Third_Party/LoRaWAN/Mac/Region/RegionUS915.c ****                         channelsMask[4] &= ~( bitMask << i );
 735:Middlewares/Third_Party/LoRaWAN/Mac/Region/RegionUS915.c ****                     }
 736:Middlewares/Third_Party/LoRaWAN/Mac/Region/RegionUS915.c ****                     else
 737:Middlewares/Third_Party/LoRaWAN/Mac/Region/RegionUS915.c ****                     {
 738:Middlewares/Third_Party/LoRaWAN/Mac/Region/RegionUS915.c ****                         // Enable a bank of 8 125kHz channels, 8 MSBs
 739:Middlewares/Third_Party/LoRaWAN/Mac/Region/RegionUS915.c ****                         channelsMask[cntChannelMask] &= 0x00FF;
 740:Middlewares/Third_Party/LoRaWAN/Mac/Region/RegionUS915.c ****                         // Disable the corresponding 500kHz channel
 741:Middlewares/Third_Party/LoRaWAN/Mac/Region/RegionUS915.c ****                         channelsMask[4] &= ~( bitMask << i );
 742:Middlewares/Third_Party/LoRaWAN/Mac/Region/RegionUS915.c ****                         // cntChannelMask increment for uneven i
 743:Middlewares/Third_Party/LoRaWAN/Mac/Region/RegionUS915.c ****                         cntChannelMask++;
 744:Middlewares/Third_Party/LoRaWAN/Mac/Region/RegionUS915.c ****                     }
 745:Middlewares/Third_Party/LoRaWAN/Mac/Region/RegionUS915.c ****                 }
 746:Middlewares/Third_Party/LoRaWAN/Mac/Region/RegionUS915.c ****             }
 747:Middlewares/Third_Party/LoRaWAN/Mac/Region/RegionUS915.c ****         }
 748:Middlewares/Third_Party/LoRaWAN/Mac/Region/RegionUS915.c ****         else
 749:Middlewares/Third_Party/LoRaWAN/Mac/Region/RegionUS915.c ****         {
 750:Middlewares/Third_Party/LoRaWAN/Mac/Region/RegionUS915.c ****             channelsMask[linkAdrParams.ChMaskCtrl] = linkAdrParams.ChMask;
 1992              		.loc 1 750 13 is_stmt 1 view .LVU547
 1993              		.loc 1 750 67 is_stmt 0 view .LVU548
 1994 007a BDF83C30 		ldrh	r3, [sp, #60]
 1995              		.loc 1 750 52 view .LVU549
 1996 007e 10AA     		add	r2, sp, #64
 1997 0080 02EB4C0C 		add	ip, r2, ip, lsl #1
 1998 0084 2CF8143C 		strh	r3, [ip, #-20]	@ movhi
 1999 0088 DFE7     		b	.L126
 2000              	.L147:
 687:Middlewares/Third_Party/LoRaWAN/Mac/Region/RegionUS915.c ****             channelsMask[1] = 0x0000;
 2001              		.loc 1 687 13 is_stmt 1 view .LVU550
 687:Middlewares/Third_Party/LoRaWAN/Mac/Region/RegionUS915.c ****             channelsMask[1] = 0x0000;
 2002              		.loc 1 687 29 is_stmt 0 view .LVU551
 2003 008a 0023     		movs	r3, #0
 2004 008c ADF82C30 		strh	r3, [sp, #44]	@ movhi
 688:Middlewares/Third_Party/LoRaWAN/Mac/Region/RegionUS915.c ****             channelsMask[2] = 0x0000;
 2005              		.loc 1 688 13 is_stmt 1 view .LVU552
ARM GAS  /tmp/cczpAp4p.s 			page 54


 688:Middlewares/Third_Party/LoRaWAN/Mac/Region/RegionUS915.c ****             channelsMask[2] = 0x0000;
 2006              		.loc 1 688 29 is_stmt 0 view .LVU553
 2007 0090 ADF82E30 		strh	r3, [sp, #46]	@ movhi
 689:Middlewares/Third_Party/LoRaWAN/Mac/Region/RegionUS915.c ****             channelsMask[3] = 0x0000;
 2008              		.loc 1 689 13 is_stmt 1 view .LVU554
 689:Middlewares/Third_Party/LoRaWAN/Mac/Region/RegionUS915.c ****             channelsMask[3] = 0x0000;
 2009              		.loc 1 689 29 is_stmt 0 view .LVU555
 2010 0094 ADF83030 		strh	r3, [sp, #48]	@ movhi
 690:Middlewares/Third_Party/LoRaWAN/Mac/Region/RegionUS915.c ****             // Apply chMask to channels 64 to 71
 2011              		.loc 1 690 13 is_stmt 1 view .LVU556
 690:Middlewares/Third_Party/LoRaWAN/Mac/Region/RegionUS915.c ****             // Apply chMask to channels 64 to 71
 2012              		.loc 1 690 29 is_stmt 0 view .LVU557
 2013 0098 ADF83230 		strh	r3, [sp, #50]	@ movhi
 692:Middlewares/Third_Party/LoRaWAN/Mac/Region/RegionUS915.c ****         }
 2014              		.loc 1 692 13 is_stmt 1 view .LVU558
 692:Middlewares/Third_Party/LoRaWAN/Mac/Region/RegionUS915.c ****         }
 2015              		.loc 1 692 52 is_stmt 0 view .LVU559
 2016 009c 9DF83C30 		ldrb	r3, [sp, #60]	@ zero_extendqisi2
 692:Middlewares/Third_Party/LoRaWAN/Mac/Region/RegionUS915.c ****         }
 2017              		.loc 1 692 29 view .LVU560
 2018 00a0 ADF83430 		strh	r3, [sp, #52]	@ movhi
 2019 00a4 D1E7     		b	.L126
 2020              	.LVL161:
 2021              	.L134:
 2022              	.LBB10:
 2023              	.LBB11:
 719:Middlewares/Third_Party/LoRaWAN/Mac/Region/RegionUS915.c ****                         // Enable the corresponding 500kHz channel
 2024              		.loc 1 719 25 is_stmt 1 view .LVU561
 719:Middlewares/Third_Party/LoRaWAN/Mac/Region/RegionUS915.c ****                         // Enable the corresponding 500kHz channel
 2025              		.loc 1 719 54 is_stmt 0 view .LVU562
 2026 00a6 10AA     		add	r2, sp, #64
 2027 00a8 02EB4100 		add	r0, r2, r1, lsl #1
 2028 00ac 30F8142C 		ldrh	r2, [r0, #-20]
 2029 00b0 62F0FF02 		orn	r2, r2, #255
 2030 00b4 20F8142C 		strh	r2, [r0, #-20]	@ movhi
 721:Middlewares/Third_Party/LoRaWAN/Mac/Region/RegionUS915.c ****                         // cntChannelMask increment for uneven i
 2031              		.loc 1 721 25 is_stmt 1 view .LVU563
 721:Middlewares/Third_Party/LoRaWAN/Mac/Region/RegionUS915.c ****                         // cntChannelMask increment for uneven i
 2032              		.loc 1 721 41 is_stmt 0 view .LVU564
 2033 00b8 BDF83420 		ldrh	r2, [sp, #52]
 2034 00bc 1343     		orrs	r3, r3, r2
 2035 00be ADF83430 		strh	r3, [sp, #52]	@ movhi
 723:Middlewares/Third_Party/LoRaWAN/Mac/Region/RegionUS915.c ****                     }
 2036              		.loc 1 723 25 is_stmt 1 view .LVU565
 723:Middlewares/Third_Party/LoRaWAN/Mac/Region/RegionUS915.c ****                     }
 2037              		.loc 1 723 39 is_stmt 0 view .LVU566
 2038 00c2 0131     		adds	r1, r1, #1
 2039              	.LVL162:
 723:Middlewares/Third_Party/LoRaWAN/Mac/Region/RegionUS915.c ****                     }
 2040              		.loc 1 723 39 view .LVU567
 2041 00c4 C9B2     		uxtb	r1, r1
 2042              	.LVL163:
 2043              	.L135:
 703:Middlewares/Third_Party/LoRaWAN/Mac/Region/RegionUS915.c ****             {
 2044              		.loc 1 703 41 is_stmt 1 discriminator 2 view .LVU568
 703:Middlewares/Third_Party/LoRaWAN/Mac/Region/RegionUS915.c ****             {
 2045              		.loc 1 703 42 is_stmt 0 discriminator 2 view .LVU569
ARM GAS  /tmp/cczpAp4p.s 			page 55


 2046 00c6 0CF1010C 		add	ip, ip, #1
 2047              	.LVL164:
 703:Middlewares/Third_Party/LoRaWAN/Mac/Region/RegionUS915.c ****             {
 2048              		.loc 1 703 42 discriminator 2 view .LVU570
 2049 00ca 5FFA8CFC 		uxtb	ip, ip
 2050              	.LVL165:
 2051              	.L131:
 703:Middlewares/Third_Party/LoRaWAN/Mac/Region/RegionUS915.c ****             {
 2052              		.loc 1 703 33 is_stmt 1 discriminator 1 view .LVU571
 703:Middlewares/Third_Party/LoRaWAN/Mac/Region/RegionUS915.c ****             {
 2053              		.loc 1 703 13 is_stmt 0 discriminator 1 view .LVU572
 2054 00ce BCF1070F 		cmp	ip, #7
 2055 00d2 BAD8     		bhi	.L126
 707:Middlewares/Third_Party/LoRaWAN/Mac/Region/RegionUS915.c ****                 {
 2056              		.loc 1 707 17 is_stmt 1 view .LVU573
 707:Middlewares/Third_Party/LoRaWAN/Mac/Region/RegionUS915.c ****                 {
 2057              		.loc 1 707 46 is_stmt 0 view .LVU574
 2058 00d4 9DF83C20 		ldrb	r2, [sp, #60]	@ zero_extendqisi2
 707:Middlewares/Third_Party/LoRaWAN/Mac/Region/RegionUS915.c ****                 {
 2059              		.loc 1 707 69 view .LVU575
 2060 00d8 0123     		movs	r3, #1
 2061 00da 03FA0CF3 		lsl	r3, r3, ip
 707:Middlewares/Third_Party/LoRaWAN/Mac/Region/RegionUS915.c ****                 {
 2062              		.loc 1 707 19 view .LVU576
 2063 00de 1A42     		tst	r2, r3
 2064 00e0 11D0     		beq	.L133
 709:Middlewares/Third_Party/LoRaWAN/Mac/Region/RegionUS915.c ****                     {
 2065              		.loc 1 709 21 is_stmt 1 view .LVU577
 709:Middlewares/Third_Party/LoRaWAN/Mac/Region/RegionUS915.c ****                     {
 2066              		.loc 1 709 23 is_stmt 0 view .LVU578
 2067 00e2 1CF0010F 		tst	ip, #1
 2068 00e6 DED1     		bne	.L134
 712:Middlewares/Third_Party/LoRaWAN/Mac/Region/RegionUS915.c ****                         // Enable the corresponding 500kHz channel
 2069              		.loc 1 712 25 is_stmt 1 view .LVU579
 712:Middlewares/Third_Party/LoRaWAN/Mac/Region/RegionUS915.c ****                         // Enable the corresponding 500kHz channel
 2070              		.loc 1 712 54 is_stmt 0 view .LVU580
 2071 00e8 10AA     		add	r2, sp, #64
 2072 00ea 02EB4100 		add	r0, r2, r1, lsl #1
 2073 00ee 30F8142C 		ldrh	r2, [r0, #-20]
 2074 00f2 42F0FF02 		orr	r2, r2, #255
 2075 00f6 20F8142C 		strh	r2, [r0, #-20]	@ movhi
 714:Middlewares/Third_Party/LoRaWAN/Mac/Region/RegionUS915.c ****                     }
 2076              		.loc 1 714 25 is_stmt 1 view .LVU581
 714:Middlewares/Third_Party/LoRaWAN/Mac/Region/RegionUS915.c ****                     }
 2077              		.loc 1 714 41 is_stmt 0 view .LVU582
 2078 00fa BDF83420 		ldrh	r2, [sp, #52]
 2079 00fe 1343     		orrs	r3, r3, r2
 2080 0100 ADF83430 		strh	r3, [sp, #52]	@ movhi
 2081 0104 DFE7     		b	.L135
 2082              	.L133:
 729:Middlewares/Third_Party/LoRaWAN/Mac/Region/RegionUS915.c ****                     {
 2083              		.loc 1 729 21 is_stmt 1 view .LVU583
 729:Middlewares/Third_Party/LoRaWAN/Mac/Region/RegionUS915.c ****                     {
 2084              		.loc 1 729 23 is_stmt 0 view .LVU584
 2085 0106 1CF0010F 		tst	ip, #1
 2086 010a 0FD1     		bne	.L136
 732:Middlewares/Third_Party/LoRaWAN/Mac/Region/RegionUS915.c ****                         // Disable the corresponding 500kHz channel
ARM GAS  /tmp/cczpAp4p.s 			page 56


 2087              		.loc 1 732 25 is_stmt 1 view .LVU585
 732:Middlewares/Third_Party/LoRaWAN/Mac/Region/RegionUS915.c ****                         // Disable the corresponding 500kHz channel
 2088              		.loc 1 732 54 is_stmt 0 view .LVU586
 2089 010c 10AA     		add	r2, sp, #64
 2090 010e 02EB4100 		add	r0, r2, r1, lsl #1
 2091 0112 30F8142C 		ldrh	r2, [r0, #-20]
 2092 0116 22F0FF02 		bic	r2, r2, #255
 2093 011a 20F8142C 		strh	r2, [r0, #-20]	@ movhi
 734:Middlewares/Third_Party/LoRaWAN/Mac/Region/RegionUS915.c ****                     }
 2094              		.loc 1 734 25 is_stmt 1 view .LVU587
 734:Middlewares/Third_Party/LoRaWAN/Mac/Region/RegionUS915.c ****                     }
 2095              		.loc 1 734 41 is_stmt 0 view .LVU588
 2096 011e BDF83420 		ldrh	r2, [sp, #52]
 2097 0122 22EA0303 		bic	r3, r2, r3
 2098 0126 ADF83430 		strh	r3, [sp, #52]	@ movhi
 2099 012a CCE7     		b	.L135
 2100              	.L136:
 739:Middlewares/Third_Party/LoRaWAN/Mac/Region/RegionUS915.c ****                         // Disable the corresponding 500kHz channel
 2101              		.loc 1 739 25 is_stmt 1 view .LVU589
 739:Middlewares/Third_Party/LoRaWAN/Mac/Region/RegionUS915.c ****                         // Disable the corresponding 500kHz channel
 2102              		.loc 1 739 54 is_stmt 0 view .LVU590
 2103 012c 10AA     		add	r2, sp, #64
 2104 012e 02EB4102 		add	r2, r2, r1, lsl #1
 2105 0132 12F8140C 		ldrb	r0, [r2, #-20]	@ zero_extendqisi2
 2106 0136 22F8140C 		strh	r0, [r2, #-20]	@ movhi
 741:Middlewares/Third_Party/LoRaWAN/Mac/Region/RegionUS915.c ****                         // cntChannelMask increment for uneven i
 2107              		.loc 1 741 25 is_stmt 1 view .LVU591
 741:Middlewares/Third_Party/LoRaWAN/Mac/Region/RegionUS915.c ****                         // cntChannelMask increment for uneven i
 2108              		.loc 1 741 41 is_stmt 0 view .LVU592
 2109 013a BDF83420 		ldrh	r2, [sp, #52]
 2110 013e 22EA0303 		bic	r3, r2, r3
 2111 0142 ADF83430 		strh	r3, [sp, #52]	@ movhi
 743:Middlewares/Third_Party/LoRaWAN/Mac/Region/RegionUS915.c ****                     }
 2112              		.loc 1 743 25 is_stmt 1 view .LVU593
 743:Middlewares/Third_Party/LoRaWAN/Mac/Region/RegionUS915.c ****                     }
 2113              		.loc 1 743 39 is_stmt 0 view .LVU594
 2114 0146 0131     		adds	r1, r1, #1
 2115              	.LVL166:
 743:Middlewares/Third_Party/LoRaWAN/Mac/Region/RegionUS915.c ****                     }
 2116              		.loc 1 743 39 view .LVU595
 2117 0148 C9B2     		uxtb	r1, r1
 2118              	.LVL167:
 743:Middlewares/Third_Party/LoRaWAN/Mac/Region/RegionUS915.c ****                     }
 2119              		.loc 1 743 39 view .LVU596
 2120 014a BCE7     		b	.L135
 2121              	.LVL168:
 2122              	.L148:
 703:Middlewares/Third_Party/LoRaWAN/Mac/Region/RegionUS915.c ****             {
 2123              		.loc 1 703 26 view .LVU597
 2124 014c 4FF0000C 		mov	ip, #0
 2125              	.LBE11:
 700:Middlewares/Third_Party/LoRaWAN/Mac/Region/RegionUS915.c **** 
 2126              		.loc 1 700 21 view .LVU598
 2127 0150 6146     		mov	r1, ip
 2128 0152 BCE7     		b	.L131
 2129              	.LVL169:
 2130              	.L127:
ARM GAS  /tmp/cczpAp4p.s 			page 57


 700:Middlewares/Third_Party/LoRaWAN/Mac/Region/RegionUS915.c **** 
 2131              		.loc 1 700 21 view .LVU599
 2132              	.LBE10:
 751:Middlewares/Third_Party/LoRaWAN/Mac/Region/RegionUS915.c ****         }
 752:Middlewares/Third_Party/LoRaWAN/Mac/Region/RegionUS915.c ****     }
 753:Middlewares/Third_Party/LoRaWAN/Mac/Region/RegionUS915.c **** 
 754:Middlewares/Third_Party/LoRaWAN/Mac/Region/RegionUS915.c ****     // FCC 15.247 paragraph F mandates to hop on at least 2 125 kHz channels
 755:Middlewares/Third_Party/LoRaWAN/Mac/Region/RegionUS915.c ****     if( ( linkAdrParams.Datarate < DR_4 ) && ( RegionCommonCountChannels( channelsMask, 0, 4 ) < 2 
 2133              		.loc 1 755 5 is_stmt 1 view .LVU600
 2134              		.loc 1 755 24 is_stmt 0 view .LVU601
 2135 0154 9DF93930 		ldrsb	r3, [sp, #57]
 2136              		.loc 1 755 7 view .LVU602
 2137 0158 032B     		cmp	r3, #3
 2138 015a 58DD     		ble	.L149
 2139 015c 4FF00709 		mov	r9, #7
 2140              	.L139:
 2141              	.LVL170:
 756:Middlewares/Third_Party/LoRaWAN/Mac/Region/RegionUS915.c ****     {
 757:Middlewares/Third_Party/LoRaWAN/Mac/Region/RegionUS915.c ****         status &= 0xFE; // Channel mask KO
 758:Middlewares/Third_Party/LoRaWAN/Mac/Region/RegionUS915.c ****     }
 759:Middlewares/Third_Party/LoRaWAN/Mac/Region/RegionUS915.c **** 
 760:Middlewares/Third_Party/LoRaWAN/Mac/Region/RegionUS915.c ****     // Get the minimum possible datarate
 761:Middlewares/Third_Party/LoRaWAN/Mac/Region/RegionUS915.c ****     getPhy.Attribute = PHY_MIN_TX_DR;
 2142              		.loc 1 761 5 is_stmt 1 view .LVU603
 2143              		.loc 1 761 22 is_stmt 0 view .LVU604
 2144 0160 0223     		movs	r3, #2
 2145 0162 8DF82430 		strb	r3, [sp, #36]
 762:Middlewares/Third_Party/LoRaWAN/Mac/Region/RegionUS915.c ****     getPhy.UplinkDwellTime = linkAdrReq->UplinkDwellTime;
 2146              		.loc 1 762 5 is_stmt 1 view .LVU605
 2147              		.loc 1 762 40 is_stmt 0 view .LVU606
 2148 0166 6B7A     		ldrb	r3, [r5, #9]	@ zero_extendqisi2
 2149              		.loc 1 762 28 view .LVU607
 2150 0168 8DF82630 		strb	r3, [sp, #38]
 763:Middlewares/Third_Party/LoRaWAN/Mac/Region/RegionUS915.c ****     phyParam = RegionUS915GetPhyParam( &getPhy );
 2151              		.loc 1 763 5 is_stmt 1 view .LVU608
 2152              		.loc 1 763 16 is_stmt 0 view .LVU609
 2153 016c 09A8     		add	r0, sp, #36
 2154 016e FFF7FEFF 		bl	RegionUS915GetPhyParam
 2155              	.LVL171:
 2156 0172 0890     		str	r0, [sp, #32]
 764:Middlewares/Third_Party/LoRaWAN/Mac/Region/RegionUS915.c **** 
 765:Middlewares/Third_Party/LoRaWAN/Mac/Region/RegionUS915.c ****     linkAdrVerifyParams.Status = status;
 2157              		.loc 1 765 5 is_stmt 1 view .LVU610
 2158              		.loc 1 765 32 is_stmt 0 view .LVU611
 2159 0174 8DF80490 		strb	r9, [sp, #4]
 766:Middlewares/Third_Party/LoRaWAN/Mac/Region/RegionUS915.c ****     linkAdrVerifyParams.AdrEnabled = linkAdrReq->AdrEnabled;
 2160              		.loc 1 766 5 is_stmt 1 view .LVU612
 2161              		.loc 1 766 48 is_stmt 0 view .LVU613
 2162 0178 AB7A     		ldrb	r3, [r5, #10]	@ zero_extendqisi2
 2163              		.loc 1 766 36 view .LVU614
 2164 017a 8DF80530 		strb	r3, [sp, #5]
 767:Middlewares/Third_Party/LoRaWAN/Mac/Region/RegionUS915.c ****     linkAdrVerifyParams.Datarate = linkAdrParams.Datarate;
 2165              		.loc 1 767 5 is_stmt 1 view .LVU615
 2166              		.loc 1 767 49 is_stmt 0 view .LVU616
 2167 017e 9DF93930 		ldrsb	r3, [sp, #57]
 2168              		.loc 1 767 34 view .LVU617
 2169 0182 8DF80630 		strb	r3, [sp, #6]
ARM GAS  /tmp/cczpAp4p.s 			page 58


 768:Middlewares/Third_Party/LoRaWAN/Mac/Region/RegionUS915.c ****     linkAdrVerifyParams.TxPower = linkAdrParams.TxPower;
 2170              		.loc 1 768 5 is_stmt 1 view .LVU618
 2171              		.loc 1 768 48 is_stmt 0 view .LVU619
 2172 0186 9DF93A30 		ldrsb	r3, [sp, #58]
 2173              		.loc 1 768 33 view .LVU620
 2174 018a 8DF80730 		strb	r3, [sp, #7]
 769:Middlewares/Third_Party/LoRaWAN/Mac/Region/RegionUS915.c ****     linkAdrVerifyParams.NbRep = linkAdrParams.NbRep;
 2175              		.loc 1 769 5 is_stmt 1 view .LVU621
 2176              		.loc 1 769 46 is_stmt 0 view .LVU622
 2177 018e 9DF83830 		ldrb	r3, [sp, #56]	@ zero_extendqisi2
 2178              		.loc 1 769 31 view .LVU623
 2179 0192 8DF80830 		strb	r3, [sp, #8]
 770:Middlewares/Third_Party/LoRaWAN/Mac/Region/RegionUS915.c ****     linkAdrVerifyParams.CurrentDatarate = linkAdrReq->CurrentDatarate;
 2180              		.loc 1 770 5 is_stmt 1 view .LVU624
 2181              		.loc 1 770 53 is_stmt 0 view .LVU625
 2182 0196 95F90B30 		ldrsb	r3, [r5, #11]
 2183              		.loc 1 770 41 view .LVU626
 2184 019a 8DF80930 		strb	r3, [sp, #9]
 771:Middlewares/Third_Party/LoRaWAN/Mac/Region/RegionUS915.c ****     linkAdrVerifyParams.CurrentTxPower = linkAdrReq->CurrentTxPower;
 2185              		.loc 1 771 5 is_stmt 1 view .LVU627
 2186              		.loc 1 771 52 is_stmt 0 view .LVU628
 2187 019e 95F90C30 		ldrsb	r3, [r5, #12]
 2188              		.loc 1 771 40 view .LVU629
 2189 01a2 8DF80A30 		strb	r3, [sp, #10]
 772:Middlewares/Third_Party/LoRaWAN/Mac/Region/RegionUS915.c ****     linkAdrVerifyParams.CurrentNbRep = linkAdrReq->CurrentNbRep;
 2190              		.loc 1 772 5 is_stmt 1 view .LVU630
 2191              		.loc 1 772 50 is_stmt 0 view .LVU631
 2192 01a6 95F90D30 		ldrsb	r3, [r5, #13]
 2193              		.loc 1 772 38 view .LVU632
 2194 01aa 8DF80B30 		strb	r3, [sp, #11]
 773:Middlewares/Third_Party/LoRaWAN/Mac/Region/RegionUS915.c ****     linkAdrVerifyParams.NbChannels = US915_MAX_NB_CHANNELS;
 2195              		.loc 1 773 5 is_stmt 1 view .LVU633
 2196              		.loc 1 773 36 is_stmt 0 view .LVU634
 2197 01ae 4823     		movs	r3, #72
 2198 01b0 8DF80C30 		strb	r3, [sp, #12]
 774:Middlewares/Third_Party/LoRaWAN/Mac/Region/RegionUS915.c ****     linkAdrVerifyParams.ChannelsMask = channelsMask;
 2199              		.loc 1 774 5 is_stmt 1 view .LVU635
 2200              		.loc 1 774 38 is_stmt 0 view .LVU636
 2201 01b4 0BAB     		add	r3, sp, #44
 2202 01b6 0493     		str	r3, [sp, #16]
 775:Middlewares/Third_Party/LoRaWAN/Mac/Region/RegionUS915.c ****     linkAdrVerifyParams.MinDatarate = ( int8_t )phyParam.Value;
 2203              		.loc 1 775 5 is_stmt 1 view .LVU637
 2204              		.loc 1 775 37 is_stmt 0 view .LVU638
 2205 01b8 8DF81400 		strb	r0, [sp, #20]
 776:Middlewares/Third_Party/LoRaWAN/Mac/Region/RegionUS915.c ****     linkAdrVerifyParams.MaxDatarate = US915_TX_MAX_DATARATE;
 2206              		.loc 1 776 5 is_stmt 1 view .LVU639
 2207              		.loc 1 776 37 is_stmt 0 view .LVU640
 2208 01bc 0423     		movs	r3, #4
 2209 01be 8DF81530 		strb	r3, [sp, #21]
 777:Middlewares/Third_Party/LoRaWAN/Mac/Region/RegionUS915.c ****     linkAdrVerifyParams.Channels = RegionNvmGroup2->Channels;
 2210              		.loc 1 777 5 is_stmt 1 view .LVU641
 2211              		.loc 1 777 51 is_stmt 0 view .LVU642
 2212 01c2 334B     		ldr	r3, .L151
 2213 01c4 1B68     		ldr	r3, [r3]
 2214              		.loc 1 777 34 view .LVU643
 2215 01c6 0693     		str	r3, [sp, #24]
 778:Middlewares/Third_Party/LoRaWAN/Mac/Region/RegionUS915.c ****     linkAdrVerifyParams.MinTxPower = US915_MIN_TX_POWER;
ARM GAS  /tmp/cczpAp4p.s 			page 59


 2216              		.loc 1 778 5 is_stmt 1 view .LVU644
 2217              		.loc 1 778 36 is_stmt 0 view .LVU645
 2218 01c8 0E23     		movs	r3, #14
 2219 01ca 8DF81C30 		strb	r3, [sp, #28]
 779:Middlewares/Third_Party/LoRaWAN/Mac/Region/RegionUS915.c ****     linkAdrVerifyParams.MaxTxPower = US915_MAX_TX_POWER;
 2220              		.loc 1 779 5 is_stmt 1 view .LVU646
 2221              		.loc 1 779 36 is_stmt 0 view .LVU647
 2222 01ce 0023     		movs	r3, #0
 2223 01d0 8DF81D30 		strb	r3, [sp, #29]
 780:Middlewares/Third_Party/LoRaWAN/Mac/Region/RegionUS915.c ****     linkAdrVerifyParams.Version = linkAdrReq->Version;
 2224              		.loc 1 780 5 is_stmt 1 view .LVU648
 2225              		.loc 1 780 33 is_stmt 0 view .LVU649
 2226 01d4 2B68     		ldr	r3, [r5]
 2227 01d6 0093     		str	r3, [sp]
 781:Middlewares/Third_Party/LoRaWAN/Mac/Region/RegionUS915.c **** 
 782:Middlewares/Third_Party/LoRaWAN/Mac/Region/RegionUS915.c ****     // Verify the parameters and update, if necessary
 783:Middlewares/Third_Party/LoRaWAN/Mac/Region/RegionUS915.c ****     status = RegionCommonLinkAdrReqVerifyParams( &linkAdrVerifyParams, &linkAdrParams.Datarate, &li
 2228              		.loc 1 783 5 is_stmt 1 view .LVU650
 2229              		.loc 1 783 14 is_stmt 0 view .LVU651
 2230 01d8 0EAB     		add	r3, sp, #56
 2231 01da 0DF13A02 		add	r2, sp, #58
 2232 01de 0DF13901 		add	r1, sp, #57
 2233 01e2 6846     		mov	r0, sp
 2234 01e4 FFF7FEFF 		bl	RegionCommonLinkAdrReqVerifyParams
 2235              	.LVL172:
 2236 01e8 0546     		mov	r5, r0
 2237              	.LVL173:
 784:Middlewares/Third_Party/LoRaWAN/Mac/Region/RegionUS915.c **** 
 785:Middlewares/Third_Party/LoRaWAN/Mac/Region/RegionUS915.c ****     // Update channelsMask if everything is correct
 786:Middlewares/Third_Party/LoRaWAN/Mac/Region/RegionUS915.c ****     if( status == 0x07 )
 2238              		.loc 1 786 5 is_stmt 1 view .LVU652
 2239              		.loc 1 786 7 is_stmt 0 view .LVU653
 2240 01ea 0728     		cmp	r0, #7
 2241 01ec 1CD0     		beq	.L150
 2242              	.LVL174:
 2243              	.L140:
 787:Middlewares/Third_Party/LoRaWAN/Mac/Region/RegionUS915.c ****     {
 788:Middlewares/Third_Party/LoRaWAN/Mac/Region/RegionUS915.c ****         // Copy Mask
 789:Middlewares/Third_Party/LoRaWAN/Mac/Region/RegionUS915.c ****         RegionCommonChanMaskCopy( RegionNvmGroup2->ChannelsMask, channelsMask, 6 );
 790:Middlewares/Third_Party/LoRaWAN/Mac/Region/RegionUS915.c **** 
 791:Middlewares/Third_Party/LoRaWAN/Mac/Region/RegionUS915.c ****         RegionNvmGroup1->ChannelsMaskRemaining[0] &= RegionNvmGroup2->ChannelsMask[0];
 792:Middlewares/Third_Party/LoRaWAN/Mac/Region/RegionUS915.c ****         RegionNvmGroup1->ChannelsMaskRemaining[1] &= RegionNvmGroup2->ChannelsMask[1];
 793:Middlewares/Third_Party/LoRaWAN/Mac/Region/RegionUS915.c ****         RegionNvmGroup1->ChannelsMaskRemaining[2] &= RegionNvmGroup2->ChannelsMask[2];
 794:Middlewares/Third_Party/LoRaWAN/Mac/Region/RegionUS915.c ****         RegionNvmGroup1->ChannelsMaskRemaining[3] &= RegionNvmGroup2->ChannelsMask[3];
 795:Middlewares/Third_Party/LoRaWAN/Mac/Region/RegionUS915.c ****         RegionNvmGroup1->ChannelsMaskRemaining[4] = RegionNvmGroup2->ChannelsMask[4];
 796:Middlewares/Third_Party/LoRaWAN/Mac/Region/RegionUS915.c ****         RegionNvmGroup1->ChannelsMaskRemaining[5] = RegionNvmGroup2->ChannelsMask[5];
 797:Middlewares/Third_Party/LoRaWAN/Mac/Region/RegionUS915.c ****     }
 798:Middlewares/Third_Party/LoRaWAN/Mac/Region/RegionUS915.c **** 
 799:Middlewares/Third_Party/LoRaWAN/Mac/Region/RegionUS915.c ****     // Update status variables
 800:Middlewares/Third_Party/LoRaWAN/Mac/Region/RegionUS915.c ****     *drOut = linkAdrParams.Datarate;
 2244              		.loc 1 800 5 is_stmt 1 view .LVU654
 2245              		.loc 1 800 27 is_stmt 0 view .LVU655
 2246 01ee 9DF93930 		ldrsb	r3, [sp, #57]
 2247              		.loc 1 800 12 view .LVU656
 2248 01f2 88F80030 		strb	r3, [r8]
 801:Middlewares/Third_Party/LoRaWAN/Mac/Region/RegionUS915.c ****     *txPowOut = linkAdrParams.TxPower;
 2249              		.loc 1 801 5 is_stmt 1 view .LVU657
ARM GAS  /tmp/cczpAp4p.s 			page 60


 2250              		.loc 1 801 30 is_stmt 0 view .LVU658
 2251 01f6 9DF93A30 		ldrsb	r3, [sp, #58]
 2252              		.loc 1 801 15 view .LVU659
 2253 01fa 3B70     		strb	r3, [r7]
 802:Middlewares/Third_Party/LoRaWAN/Mac/Region/RegionUS915.c ****     *nbRepOut = linkAdrParams.NbRep;
 2254              		.loc 1 802 5 is_stmt 1 view .LVU660
 2255              		.loc 1 802 30 is_stmt 0 view .LVU661
 2256 01fc 9DF83830 		ldrb	r3, [sp, #56]	@ zero_extendqisi2
 2257              		.loc 1 802 15 view .LVU662
 2258 0200 3370     		strb	r3, [r6]
 803:Middlewares/Third_Party/LoRaWAN/Mac/Region/RegionUS915.c ****     *nbBytesParsed = bytesProcessed;
 2259              		.loc 1 803 5 is_stmt 1 view .LVU663
 2260              		.loc 1 803 20 is_stmt 0 view .LVU664
 2261 0202 189B     		ldr	r3, [sp, #96]
 2262 0204 1C70     		strb	r4, [r3]
 804:Middlewares/Third_Party/LoRaWAN/Mac/Region/RegionUS915.c **** 
 805:Middlewares/Third_Party/LoRaWAN/Mac/Region/RegionUS915.c **** #endif /* REGION_US915 */
 806:Middlewares/Third_Party/LoRaWAN/Mac/Region/RegionUS915.c ****     return status;
 2263              		.loc 1 806 5 is_stmt 1 view .LVU665
 807:Middlewares/Third_Party/LoRaWAN/Mac/Region/RegionUS915.c **** }
 2264              		.loc 1 807 1 is_stmt 0 view .LVU666
 2265 0206 2846     		mov	r0, r5
 2266 0208 11B0     		add	sp, sp, #68
 2267              	.LCFI31:
 2268              		.cfi_remember_state
 2269              		.cfi_def_cfa_offset 28
 2270              		@ sp needed
 2271 020a BDE8F083 		pop	{r4, r5, r6, r7, r8, r9, pc}
 2272              	.LVL175:
 2273              	.L149:
 2274              	.LCFI32:
 2275              		.cfi_restore_state
 755:Middlewares/Third_Party/LoRaWAN/Mac/Region/RegionUS915.c ****     {
 2276              		.loc 1 755 48 discriminator 1 view .LVU667
 2277 020e 0422     		movs	r2, #4
 2278 0210 0021     		movs	r1, #0
 2279 0212 0BA8     		add	r0, sp, #44
 2280 0214 FFF7FEFF 		bl	RegionCommonCountChannels
 2281              	.LVL176:
 755:Middlewares/Third_Party/LoRaWAN/Mac/Region/RegionUS915.c ****     {
 2282              		.loc 1 755 43 discriminator 1 view .LVU668
 2283 0218 0128     		cmp	r0, #1
 2284 021a 02D9     		bls	.L143
 755:Middlewares/Third_Party/LoRaWAN/Mac/Region/RegionUS915.c ****     {
 2285              		.loc 1 755 43 view .LVU669
 2286 021c 4FF00709 		mov	r9, #7
 2287 0220 9EE7     		b	.L139
 2288              	.L143:
 757:Middlewares/Third_Party/LoRaWAN/Mac/Region/RegionUS915.c ****     }
 2289              		.loc 1 757 16 view .LVU670
 2290 0222 4FF00609 		mov	r9, #6
 2291 0226 9BE7     		b	.L139
 2292              	.LVL177:
 2293              	.L150:
 789:Middlewares/Third_Party/LoRaWAN/Mac/Region/RegionUS915.c **** 
 2294              		.loc 1 789 9 is_stmt 1 view .LVU671
 789:Middlewares/Third_Party/LoRaWAN/Mac/Region/RegionUS915.c **** 
ARM GAS  /tmp/cczpAp4p.s 			page 61


 2295              		.loc 1 789 50 is_stmt 0 view .LVU672
 2296 0228 DFF86490 		ldr	r9, .L151
 2297 022c D9F80000 		ldr	r0, [r9]
 2298              	.LVL178:
 789:Middlewares/Third_Party/LoRaWAN/Mac/Region/RegionUS915.c **** 
 2299              		.loc 1 789 9 view .LVU673
 2300 0230 0622     		movs	r2, #6
 2301 0232 0BA9     		add	r1, sp, #44
 2302 0234 00F55870 		add	r0, r0, #864
 2303 0238 FFF7FEFF 		bl	RegionCommonChanMaskCopy
 2304              	.LVL179:
 791:Middlewares/Third_Party/LoRaWAN/Mac/Region/RegionUS915.c ****         RegionNvmGroup1->ChannelsMaskRemaining[1] &= RegionNvmGroup2->ChannelsMask[1];
 2305              		.loc 1 791 9 is_stmt 1 view .LVU674
 791:Middlewares/Third_Party/LoRaWAN/Mac/Region/RegionUS915.c ****         RegionNvmGroup1->ChannelsMaskRemaining[1] &= RegionNvmGroup2->ChannelsMask[1];
 2306              		.loc 1 791 51 is_stmt 0 view .LVU675
 2307 023c 154B     		ldr	r3, .L151+4
 2308 023e 1B68     		ldr	r3, [r3]
 791:Middlewares/Third_Party/LoRaWAN/Mac/Region/RegionUS915.c ****         RegionNvmGroup1->ChannelsMaskRemaining[1] &= RegionNvmGroup2->ChannelsMask[1];
 2309              		.loc 1 791 69 view .LVU676
 2310 0240 D9F80020 		ldr	r2, [r9]
 791:Middlewares/Third_Party/LoRaWAN/Mac/Region/RegionUS915.c ****         RegionNvmGroup1->ChannelsMaskRemaining[1] &= RegionNvmGroup2->ChannelsMask[1];
 2311              		.loc 1 791 83 view .LVU677
 2312 0244 B2F86013 		ldrh	r1, [r2, #864]
 791:Middlewares/Third_Party/LoRaWAN/Mac/Region/RegionUS915.c ****         RegionNvmGroup1->ChannelsMaskRemaining[1] &= RegionNvmGroup2->ChannelsMask[1];
 2313              		.loc 1 791 51 view .LVU678
 2314 0248 B3F89000 		ldrh	r0, [r3, #144]
 2315 024c 0140     		ands	r1, r1, r0
 2316 024e A3F89010 		strh	r1, [r3, #144]	@ movhi
 792:Middlewares/Third_Party/LoRaWAN/Mac/Region/RegionUS915.c ****         RegionNvmGroup1->ChannelsMaskRemaining[2] &= RegionNvmGroup2->ChannelsMask[2];
 2317              		.loc 1 792 9 is_stmt 1 view .LVU679
 792:Middlewares/Third_Party/LoRaWAN/Mac/Region/RegionUS915.c ****         RegionNvmGroup1->ChannelsMaskRemaining[2] &= RegionNvmGroup2->ChannelsMask[2];
 2318              		.loc 1 792 83 is_stmt 0 view .LVU680
 2319 0252 B2F86213 		ldrh	r1, [r2, #866]
 792:Middlewares/Third_Party/LoRaWAN/Mac/Region/RegionUS915.c ****         RegionNvmGroup1->ChannelsMaskRemaining[2] &= RegionNvmGroup2->ChannelsMask[2];
 2320              		.loc 1 792 51 view .LVU681
 2321 0256 B3F89200 		ldrh	r0, [r3, #146]
 2322 025a 0140     		ands	r1, r1, r0
 2323 025c A3F89210 		strh	r1, [r3, #146]	@ movhi
 793:Middlewares/Third_Party/LoRaWAN/Mac/Region/RegionUS915.c ****         RegionNvmGroup1->ChannelsMaskRemaining[3] &= RegionNvmGroup2->ChannelsMask[3];
 2324              		.loc 1 793 9 is_stmt 1 view .LVU682
 793:Middlewares/Third_Party/LoRaWAN/Mac/Region/RegionUS915.c ****         RegionNvmGroup1->ChannelsMaskRemaining[3] &= RegionNvmGroup2->ChannelsMask[3];
 2325              		.loc 1 793 83 is_stmt 0 view .LVU683
 2326 0260 B2F86413 		ldrh	r1, [r2, #868]
 793:Middlewares/Third_Party/LoRaWAN/Mac/Region/RegionUS915.c ****         RegionNvmGroup1->ChannelsMaskRemaining[3] &= RegionNvmGroup2->ChannelsMask[3];
 2327              		.loc 1 793 51 view .LVU684
 2328 0264 B3F89400 		ldrh	r0, [r3, #148]
 2329 0268 0140     		ands	r1, r1, r0
 2330 026a A3F89410 		strh	r1, [r3, #148]	@ movhi
 794:Middlewares/Third_Party/LoRaWAN/Mac/Region/RegionUS915.c ****         RegionNvmGroup1->ChannelsMaskRemaining[4] = RegionNvmGroup2->ChannelsMask[4];
 2331              		.loc 1 794 9 is_stmt 1 view .LVU685
 794:Middlewares/Third_Party/LoRaWAN/Mac/Region/RegionUS915.c ****         RegionNvmGroup1->ChannelsMaskRemaining[4] = RegionNvmGroup2->ChannelsMask[4];
 2332              		.loc 1 794 83 is_stmt 0 view .LVU686
 2333 026e B2F86613 		ldrh	r1, [r2, #870]
 794:Middlewares/Third_Party/LoRaWAN/Mac/Region/RegionUS915.c ****         RegionNvmGroup1->ChannelsMaskRemaining[4] = RegionNvmGroup2->ChannelsMask[4];
 2334              		.loc 1 794 51 view .LVU687
 2335 0272 B3F89600 		ldrh	r0, [r3, #150]
 2336 0276 0140     		ands	r1, r1, r0
ARM GAS  /tmp/cczpAp4p.s 			page 62


 2337 0278 A3F89610 		strh	r1, [r3, #150]	@ movhi
 795:Middlewares/Third_Party/LoRaWAN/Mac/Region/RegionUS915.c ****         RegionNvmGroup1->ChannelsMaskRemaining[5] = RegionNvmGroup2->ChannelsMask[5];
 2338              		.loc 1 795 9 is_stmt 1 view .LVU688
 795:Middlewares/Third_Party/LoRaWAN/Mac/Region/RegionUS915.c ****         RegionNvmGroup1->ChannelsMaskRemaining[5] = RegionNvmGroup2->ChannelsMask[5];
 2339              		.loc 1 795 82 is_stmt 0 view .LVU689
 2340 027c B2F86813 		ldrh	r1, [r2, #872]
 795:Middlewares/Third_Party/LoRaWAN/Mac/Region/RegionUS915.c ****         RegionNvmGroup1->ChannelsMaskRemaining[5] = RegionNvmGroup2->ChannelsMask[5];
 2341              		.loc 1 795 51 view .LVU690
 2342 0280 A3F89810 		strh	r1, [r3, #152]	@ movhi
 796:Middlewares/Third_Party/LoRaWAN/Mac/Region/RegionUS915.c ****     }
 2343              		.loc 1 796 9 is_stmt 1 view .LVU691
 796:Middlewares/Third_Party/LoRaWAN/Mac/Region/RegionUS915.c ****     }
 2344              		.loc 1 796 82 is_stmt 0 view .LVU692
 2345 0284 B2F86A23 		ldrh	r2, [r2, #874]
 796:Middlewares/Third_Party/LoRaWAN/Mac/Region/RegionUS915.c ****     }
 2346              		.loc 1 796 51 view .LVU693
 2347 0288 A3F89A20 		strh	r2, [r3, #154]	@ movhi
 2348 028c AFE7     		b	.L140
 2349              	.L152:
 2350 028e 00BF     		.align	2
 2351              	.L151:
 2352 0290 00000000 		.word	.LANCHOR2
 2353 0294 00000000 		.word	.LANCHOR5
 2354              		.cfi_endproc
 2355              	.LFE116:
 2357              		.section	.text.RegionUS915RxParamSetupReq,"ax",%progbits
 2358              		.align	1
 2359              		.global	RegionUS915RxParamSetupReq
 2360              		.syntax unified
 2361              		.thumb
 2362              		.thumb_func
 2363              		.fpu softvfp
 2365              	RegionUS915RxParamSetupReq:
 2366              	.LVL180:
 2367              	.LFB117:
 808:Middlewares/Third_Party/LoRaWAN/Mac/Region/RegionUS915.c **** 
 809:Middlewares/Third_Party/LoRaWAN/Mac/Region/RegionUS915.c **** uint8_t RegionUS915RxParamSetupReq( RxParamSetupReqParams_t* rxParamSetupReq )
 810:Middlewares/Third_Party/LoRaWAN/Mac/Region/RegionUS915.c **** {
 2368              		.loc 1 810 1 is_stmt 1 view -0
 2369              		.cfi_startproc
 2370              		@ args = 0, pretend = 0, frame = 0
 2371              		@ frame_needed = 0, uses_anonymous_args = 0
 2372              		.loc 1 810 1 is_stmt 0 view .LVU695
 2373 0000 38B5     		push	{r3, r4, r5, lr}
 2374              	.LCFI33:
 2375              		.cfi_def_cfa_offset 16
 2376              		.cfi_offset 3, -16
 2377              		.cfi_offset 4, -12
 2378              		.cfi_offset 5, -8
 2379              		.cfi_offset 14, -4
 2380 0002 0446     		mov	r4, r0
 811:Middlewares/Third_Party/LoRaWAN/Mac/Region/RegionUS915.c ****     uint8_t status = 0x07;
 2381              		.loc 1 811 5 is_stmt 1 view .LVU696
 2382              	.LVL181:
 812:Middlewares/Third_Party/LoRaWAN/Mac/Region/RegionUS915.c **** #if defined( REGION_US915 )
 813:Middlewares/Third_Party/LoRaWAN/Mac/Region/RegionUS915.c **** 
 814:Middlewares/Third_Party/LoRaWAN/Mac/Region/RegionUS915.c ****     // Verify radio frequency
ARM GAS  /tmp/cczpAp4p.s 			page 63


 815:Middlewares/Third_Party/LoRaWAN/Mac/Region/RegionUS915.c ****     if( VerifyRfFreq( rxParamSetupReq->Frequency ) == false )
 2383              		.loc 1 815 5 view .LVU697
 2384              		.loc 1 815 9 is_stmt 0 view .LVU698
 2385 0004 4068     		ldr	r0, [r0, #4]
 2386              	.LVL182:
 2387              		.loc 1 815 9 view .LVU699
 2388 0006 FFF7FEFF 		bl	VerifyRfFreq
 2389              	.LVL183:
 2390              		.loc 1 815 7 view .LVU700
 2391 000a 10B3     		cbz	r0, .L159
 811:Middlewares/Third_Party/LoRaWAN/Mac/Region/RegionUS915.c ****     uint8_t status = 0x07;
 2392              		.loc 1 811 13 view .LVU701
 2393 000c 0725     		movs	r5, #7
 2394              	.L154:
 2395              	.LVL184:
 816:Middlewares/Third_Party/LoRaWAN/Mac/Region/RegionUS915.c ****     {
 817:Middlewares/Third_Party/LoRaWAN/Mac/Region/RegionUS915.c ****         status &= 0xFE; // Channel frequency KO
 818:Middlewares/Third_Party/LoRaWAN/Mac/Region/RegionUS915.c ****     }
 819:Middlewares/Third_Party/LoRaWAN/Mac/Region/RegionUS915.c **** 
 820:Middlewares/Third_Party/LoRaWAN/Mac/Region/RegionUS915.c ****     // Verify datarate
 821:Middlewares/Third_Party/LoRaWAN/Mac/Region/RegionUS915.c ****     if( RegionCommonValueInRange( rxParamSetupReq->Datarate, US915_RX_MIN_DATARATE, US915_RX_MAX_DA
 2396              		.loc 1 821 5 is_stmt 1 view .LVU702
 2397              		.loc 1 821 9 is_stmt 0 view .LVU703
 2398 000e 0D22     		movs	r2, #13
 2399 0010 0821     		movs	r1, #8
 2400 0012 94F90000 		ldrsb	r0, [r4]
 2401 0016 FFF7FEFF 		bl	RegionCommonValueInRange
 2402              	.LVL185:
 2403              		.loc 1 821 7 view .LVU704
 2404 001a 08B9     		cbnz	r0, .L155
 822:Middlewares/Third_Party/LoRaWAN/Mac/Region/RegionUS915.c ****     {
 823:Middlewares/Third_Party/LoRaWAN/Mac/Region/RegionUS915.c ****         status &= 0xFD; // Datarate KO
 2405              		.loc 1 823 9 is_stmt 1 view .LVU705
 2406              		.loc 1 823 16 is_stmt 0 view .LVU706
 2407 001c 05F0FD05 		and	r5, r5, #253
 2408              	.LVL186:
 2409              	.L155:
 824:Middlewares/Third_Party/LoRaWAN/Mac/Region/RegionUS915.c ****     }
 825:Middlewares/Third_Party/LoRaWAN/Mac/Region/RegionUS915.c ****     if( ( RegionCommonValueInRange( rxParamSetupReq->Datarate, DR_5, DR_7 ) == true ) ||
 2410              		.loc 1 825 5 is_stmt 1 view .LVU707
 2411              		.loc 1 825 11 is_stmt 0 view .LVU708
 2412 0020 0722     		movs	r2, #7
 2413 0022 0521     		movs	r1, #5
 2414 0024 94F90000 		ldrsb	r0, [r4]
 2415 0028 FFF7FEFF 		bl	RegionCommonValueInRange
 2416              	.LVL187:
 2417              		.loc 1 825 7 view .LVU709
 2418 002c 0128     		cmp	r0, #1
 2419 002e 03D0     		beq	.L156
 826:Middlewares/Third_Party/LoRaWAN/Mac/Region/RegionUS915.c ****         ( rxParamSetupReq->Datarate > DR_13 ) )
 2420              		.loc 1 826 26 discriminator 1 view .LVU710
 2421 0030 94F90030 		ldrsb	r3, [r4]
 825:Middlewares/Third_Party/LoRaWAN/Mac/Region/RegionUS915.c ****         ( rxParamSetupReq->Datarate > DR_13 ) )
 2422              		.loc 1 825 87 discriminator 1 view .LVU711
 2423 0034 0D2B     		cmp	r3, #13
 2424 0036 01DD     		ble	.L157
 2425              	.L156:
ARM GAS  /tmp/cczpAp4p.s 			page 64


 827:Middlewares/Third_Party/LoRaWAN/Mac/Region/RegionUS915.c ****     {
 828:Middlewares/Third_Party/LoRaWAN/Mac/Region/RegionUS915.c ****         status &= 0xFD; // Datarate KO
 2426              		.loc 1 828 9 is_stmt 1 view .LVU712
 2427              		.loc 1 828 16 is_stmt 0 view .LVU713
 2428 0038 05F0FD05 		and	r5, r5, #253
 2429              	.LVL188:
 2430              	.L157:
 829:Middlewares/Third_Party/LoRaWAN/Mac/Region/RegionUS915.c ****     }
 830:Middlewares/Third_Party/LoRaWAN/Mac/Region/RegionUS915.c **** 
 831:Middlewares/Third_Party/LoRaWAN/Mac/Region/RegionUS915.c ****     // Verify datarate offset
 832:Middlewares/Third_Party/LoRaWAN/Mac/Region/RegionUS915.c ****     if( RegionCommonValueInRange( rxParamSetupReq->DrOffset, US915_MIN_RX1_DR_OFFSET, US915_MAX_RX1
 2431              		.loc 1 832 5 is_stmt 1 view .LVU714
 2432              		.loc 1 832 9 is_stmt 0 view .LVU715
 2433 003c 0322     		movs	r2, #3
 2434 003e 0021     		movs	r1, #0
 2435 0040 94F90100 		ldrsb	r0, [r4, #1]
 2436 0044 FFF7FEFF 		bl	RegionCommonValueInRange
 2437              	.LVL189:
 2438              		.loc 1 832 7 view .LVU716
 2439 0048 08B9     		cbnz	r0, .L158
 833:Middlewares/Third_Party/LoRaWAN/Mac/Region/RegionUS915.c ****     {
 834:Middlewares/Third_Party/LoRaWAN/Mac/Region/RegionUS915.c ****         status &= 0xFB; // Rx1DrOffset range KO
 2440              		.loc 1 834 9 is_stmt 1 view .LVU717
 2441              		.loc 1 834 16 is_stmt 0 view .LVU718
 2442 004a 05F0FB05 		and	r5, r5, #251
 2443              	.LVL190:
 2444              	.L158:
 835:Middlewares/Third_Party/LoRaWAN/Mac/Region/RegionUS915.c ****     }
 836:Middlewares/Third_Party/LoRaWAN/Mac/Region/RegionUS915.c **** 
 837:Middlewares/Third_Party/LoRaWAN/Mac/Region/RegionUS915.c **** #endif /* REGION_US915 */
 838:Middlewares/Third_Party/LoRaWAN/Mac/Region/RegionUS915.c ****     return status;
 2445              		.loc 1 838 5 is_stmt 1 view .LVU719
 839:Middlewares/Third_Party/LoRaWAN/Mac/Region/RegionUS915.c **** }
 2446              		.loc 1 839 1 is_stmt 0 view .LVU720
 2447 004e 2846     		mov	r0, r5
 2448 0050 38BD     		pop	{r3, r4, r5, pc}
 2449              	.LVL191:
 2450              	.L159:
 817:Middlewares/Third_Party/LoRaWAN/Mac/Region/RegionUS915.c ****     }
 2451              		.loc 1 817 16 view .LVU721
 2452 0052 0625     		movs	r5, #6
 2453 0054 DBE7     		b	.L154
 2454              		.cfi_endproc
 2455              	.LFE117:
 2457              		.section	.text.RegionUS915NewChannelReq,"ax",%progbits
 2458              		.align	1
 2459              		.global	RegionUS915NewChannelReq
 2460              		.syntax unified
 2461              		.thumb
 2462              		.thumb_func
 2463              		.fpu softvfp
 2465              	RegionUS915NewChannelReq:
 2466              	.LVL192:
 2467              	.LFB118:
 840:Middlewares/Third_Party/LoRaWAN/Mac/Region/RegionUS915.c **** 
 841:Middlewares/Third_Party/LoRaWAN/Mac/Region/RegionUS915.c **** int8_t RegionUS915NewChannelReq( NewChannelReqParams_t* newChannelReq )
 842:Middlewares/Third_Party/LoRaWAN/Mac/Region/RegionUS915.c **** {
ARM GAS  /tmp/cczpAp4p.s 			page 65


 2468              		.loc 1 842 1 is_stmt 1 view -0
 2469              		.cfi_startproc
 2470              		@ args = 0, pretend = 0, frame = 0
 2471              		@ frame_needed = 0, uses_anonymous_args = 0
 2472              		@ link register save eliminated.
 843:Middlewares/Third_Party/LoRaWAN/Mac/Region/RegionUS915.c ****     // Do not accept the request
 844:Middlewares/Third_Party/LoRaWAN/Mac/Region/RegionUS915.c ****     return -1;
 2473              		.loc 1 844 5 view .LVU723
 845:Middlewares/Third_Party/LoRaWAN/Mac/Region/RegionUS915.c **** }
 2474              		.loc 1 845 1 is_stmt 0 view .LVU724
 2475 0000 4FF0FF30 		mov	r0, #-1
 2476              	.LVL193:
 2477              		.loc 1 845 1 view .LVU725
 2478 0004 7047     		bx	lr
 2479              		.cfi_endproc
 2480              	.LFE118:
 2482              		.section	.text.RegionUS915TxParamSetupReq,"ax",%progbits
 2483              		.align	1
 2484              		.global	RegionUS915TxParamSetupReq
 2485              		.syntax unified
 2486              		.thumb
 2487              		.thumb_func
 2488              		.fpu softvfp
 2490              	RegionUS915TxParamSetupReq:
 2491              	.LVL194:
 2492              	.LFB119:
 846:Middlewares/Third_Party/LoRaWAN/Mac/Region/RegionUS915.c **** 
 847:Middlewares/Third_Party/LoRaWAN/Mac/Region/RegionUS915.c **** int8_t RegionUS915TxParamSetupReq( TxParamSetupReqParams_t* txParamSetupReq )
 848:Middlewares/Third_Party/LoRaWAN/Mac/Region/RegionUS915.c **** {
 2493              		.loc 1 848 1 is_stmt 1 view -0
 2494              		.cfi_startproc
 2495              		@ args = 0, pretend = 0, frame = 0
 2496              		@ frame_needed = 0, uses_anonymous_args = 0
 2497              		@ link register save eliminated.
 849:Middlewares/Third_Party/LoRaWAN/Mac/Region/RegionUS915.c ****     // Do not accept the request
 850:Middlewares/Third_Party/LoRaWAN/Mac/Region/RegionUS915.c ****     return -1;
 2498              		.loc 1 850 5 view .LVU727
 851:Middlewares/Third_Party/LoRaWAN/Mac/Region/RegionUS915.c **** }
 2499              		.loc 1 851 1 is_stmt 0 view .LVU728
 2500 0000 4FF0FF30 		mov	r0, #-1
 2501              	.LVL195:
 2502              		.loc 1 851 1 view .LVU729
 2503 0004 7047     		bx	lr
 2504              		.cfi_endproc
 2505              	.LFE119:
 2507              		.section	.text.RegionUS915DlChannelReq,"ax",%progbits
 2508              		.align	1
 2509              		.global	RegionUS915DlChannelReq
 2510              		.syntax unified
 2511              		.thumb
 2512              		.thumb_func
 2513              		.fpu softvfp
 2515              	RegionUS915DlChannelReq:
 2516              	.LVL196:
 2517              	.LFB120:
 852:Middlewares/Third_Party/LoRaWAN/Mac/Region/RegionUS915.c **** 
 853:Middlewares/Third_Party/LoRaWAN/Mac/Region/RegionUS915.c **** int8_t RegionUS915DlChannelReq( DlChannelReqParams_t* dlChannelReq )
ARM GAS  /tmp/cczpAp4p.s 			page 66


 854:Middlewares/Third_Party/LoRaWAN/Mac/Region/RegionUS915.c **** {
 2518              		.loc 1 854 1 is_stmt 1 view -0
 2519              		.cfi_startproc
 2520              		@ args = 0, pretend = 0, frame = 0
 2521              		@ frame_needed = 0, uses_anonymous_args = 0
 2522              		@ link register save eliminated.
 855:Middlewares/Third_Party/LoRaWAN/Mac/Region/RegionUS915.c ****     // Do not accept the request
 856:Middlewares/Third_Party/LoRaWAN/Mac/Region/RegionUS915.c ****     return -1;
 2523              		.loc 1 856 5 view .LVU731
 857:Middlewares/Third_Party/LoRaWAN/Mac/Region/RegionUS915.c **** }
 2524              		.loc 1 857 1 is_stmt 0 view .LVU732
 2525 0000 4FF0FF30 		mov	r0, #-1
 2526              	.LVL197:
 2527              		.loc 1 857 1 view .LVU733
 2528 0004 7047     		bx	lr
 2529              		.cfi_endproc
 2530              	.LFE120:
 2532              		.section	.text.RegionUS915AlternateDr,"ax",%progbits
 2533              		.align	1
 2534              		.global	RegionUS915AlternateDr
 2535              		.syntax unified
 2536              		.thumb
 2537              		.thumb_func
 2538              		.fpu softvfp
 2540              	RegionUS915AlternateDr:
 2541              	.LVL198:
 2542              	.LFB121:
 858:Middlewares/Third_Party/LoRaWAN/Mac/Region/RegionUS915.c **** 
 859:Middlewares/Third_Party/LoRaWAN/Mac/Region/RegionUS915.c **** int8_t RegionUS915AlternateDr( int8_t currentDr, AlternateDrType_t type )
 860:Middlewares/Third_Party/LoRaWAN/Mac/Region/RegionUS915.c **** {
 2543              		.loc 1 860 1 is_stmt 1 view -0
 2544              		.cfi_startproc
 2545              		@ args = 0, pretend = 0, frame = 0
 2546              		@ frame_needed = 0, uses_anonymous_args = 0
 2547              		@ link register save eliminated.
 861:Middlewares/Third_Party/LoRaWAN/Mac/Region/RegionUS915.c **** #if defined( REGION_US915 )
 862:Middlewares/Third_Party/LoRaWAN/Mac/Region/RegionUS915.c ****     // Alternates the data rate according to the channel sequence:
 863:Middlewares/Third_Party/LoRaWAN/Mac/Region/RegionUS915.c ****     // Eight times a 125kHz DR_0 and then one 500kHz DR_4 channel
 864:Middlewares/Third_Party/LoRaWAN/Mac/Region/RegionUS915.c ****     if( type == ALTERNATE_DR )
 2548              		.loc 1 864 5 view .LVU735
 2549              		.loc 1 864 7 is_stmt 0 view .LVU736
 2550 0000 B1B9     		cbnz	r1, .L165
 865:Middlewares/Third_Party/LoRaWAN/Mac/Region/RegionUS915.c ****     {
 866:Middlewares/Third_Party/LoRaWAN/Mac/Region/RegionUS915.c ****         RegionNvmGroup1->JoinTrialsCounter++;
 2551              		.loc 1 866 9 is_stmt 1 view .LVU737
 2552              		.loc 1 866 24 is_stmt 0 view .LVU738
 2553 0002 104B     		ldr	r3, .L170
 2554 0004 1A68     		ldr	r2, [r3]
 2555 0006 92F89D30 		ldrb	r3, [r2, #157]	@ zero_extendqisi2
 2556              		.loc 1 866 43 view .LVU739
 2557 000a 0133     		adds	r3, r3, #1
 2558 000c 82F89D30 		strb	r3, [r2, #157]
 2559              	.L166:
 867:Middlewares/Third_Party/LoRaWAN/Mac/Region/RegionUS915.c ****     }
 868:Middlewares/Third_Party/LoRaWAN/Mac/Region/RegionUS915.c ****     else
 869:Middlewares/Third_Party/LoRaWAN/Mac/Region/RegionUS915.c ****     {
 870:Middlewares/Third_Party/LoRaWAN/Mac/Region/RegionUS915.c ****         RegionNvmGroup1->JoinTrialsCounter--;
ARM GAS  /tmp/cczpAp4p.s 			page 67


 871:Middlewares/Third_Party/LoRaWAN/Mac/Region/RegionUS915.c ****     }
 872:Middlewares/Third_Party/LoRaWAN/Mac/Region/RegionUS915.c **** 
 873:Middlewares/Third_Party/LoRaWAN/Mac/Region/RegionUS915.c ****     if( RegionNvmGroup1->JoinTrialsCounter % 9 == 0 )
 2560              		.loc 1 873 5 is_stmt 1 view .LVU740
 2561              		.loc 1 873 24 is_stmt 0 view .LVU741
 2562 0010 0C4B     		ldr	r3, .L170
 2563 0012 1B68     		ldr	r3, [r3]
 2564 0014 93F89D20 		ldrb	r2, [r3, #157]	@ zero_extendqisi2
 2565              		.loc 1 873 48 view .LVU742
 2566 0018 0B4B     		ldr	r3, .L170+4
 2567 001a A3FB0213 		umull	r1, r3, r3, r2
 2568              	.LVL199:
 2569              		.loc 1 873 48 view .LVU743
 2570 001e 5B08     		lsrs	r3, r3, #1
 2571 0020 03EBC303 		add	r3, r3, r3, lsl #3
 2572 0024 D31A     		subs	r3, r2, r3
 2573              		.loc 1 873 7 view .LVU744
 2574 0026 13F0FF0F 		tst	r3, #255
 2575 002a 09D0     		beq	.L169
 874:Middlewares/Third_Party/LoRaWAN/Mac/Region/RegionUS915.c ****     {
 875:Middlewares/Third_Party/LoRaWAN/Mac/Region/RegionUS915.c ****         // Use DR_4 every 9th times.
 876:Middlewares/Third_Party/LoRaWAN/Mac/Region/RegionUS915.c ****         currentDr = DR_4;
 877:Middlewares/Third_Party/LoRaWAN/Mac/Region/RegionUS915.c ****     }
 878:Middlewares/Third_Party/LoRaWAN/Mac/Region/RegionUS915.c ****     else
 879:Middlewares/Third_Party/LoRaWAN/Mac/Region/RegionUS915.c ****     {
 880:Middlewares/Third_Party/LoRaWAN/Mac/Region/RegionUS915.c ****         currentDr = DR_0;
 2576              		.loc 1 880 19 view .LVU745
 2577 002c 0020     		movs	r0, #0
 2578              	.LVL200:
 881:Middlewares/Third_Party/LoRaWAN/Mac/Region/RegionUS915.c ****     }
 882:Middlewares/Third_Party/LoRaWAN/Mac/Region/RegionUS915.c ****     return currentDr;
 2579              		.loc 1 882 5 is_stmt 1 view .LVU746
 883:Middlewares/Third_Party/LoRaWAN/Mac/Region/RegionUS915.c **** #else
 884:Middlewares/Third_Party/LoRaWAN/Mac/Region/RegionUS915.c ****     return -1;
 885:Middlewares/Third_Party/LoRaWAN/Mac/Region/RegionUS915.c **** #endif /* REGION_US915 */
 886:Middlewares/Third_Party/LoRaWAN/Mac/Region/RegionUS915.c **** }
 2580              		.loc 1 886 1 is_stmt 0 view .LVU747
 2581 002e 7047     		bx	lr
 2582              	.LVL201:
 2583              	.L165:
 870:Middlewares/Third_Party/LoRaWAN/Mac/Region/RegionUS915.c ****     }
 2584              		.loc 1 870 9 is_stmt 1 view .LVU748
 870:Middlewares/Third_Party/LoRaWAN/Mac/Region/RegionUS915.c ****     }
 2585              		.loc 1 870 24 is_stmt 0 view .LVU749
 2586 0030 044B     		ldr	r3, .L170
 2587 0032 1A68     		ldr	r2, [r3]
 2588 0034 92F89D30 		ldrb	r3, [r2, #157]	@ zero_extendqisi2
 870:Middlewares/Third_Party/LoRaWAN/Mac/Region/RegionUS915.c ****     }
 2589              		.loc 1 870 43 view .LVU750
 2590 0038 013B     		subs	r3, r3, #1
 2591 003a 82F89D30 		strb	r3, [r2, #157]
 2592 003e E7E7     		b	.L166
 2593              	.LVL202:
 2594              	.L169:
 876:Middlewares/Third_Party/LoRaWAN/Mac/Region/RegionUS915.c ****     }
 2595              		.loc 1 876 19 view .LVU751
 2596 0040 0420     		movs	r0, #4
ARM GAS  /tmp/cczpAp4p.s 			page 68


 2597              	.LVL203:
 876:Middlewares/Third_Party/LoRaWAN/Mac/Region/RegionUS915.c ****     }
 2598              		.loc 1 876 19 view .LVU752
 2599 0042 7047     		bx	lr
 2600              	.L171:
 2601              		.align	2
 2602              	.L170:
 2603 0044 00000000 		.word	.LANCHOR5
 2604 0048 398EE338 		.word	954437177
 2605              		.cfi_endproc
 2606              	.LFE121:
 2608              		.section	.text.RegionUS915NextChannel,"ax",%progbits
 2609              		.align	1
 2610              		.global	RegionUS915NextChannel
 2611              		.syntax unified
 2612              		.thumb
 2613              		.thumb_func
 2614              		.fpu softvfp
 2616              	RegionUS915NextChannel:
 2617              	.LVL204:
 2618              	.LFB122:
 887:Middlewares/Third_Party/LoRaWAN/Mac/Region/RegionUS915.c **** 
 888:Middlewares/Third_Party/LoRaWAN/Mac/Region/RegionUS915.c **** LoRaMacStatus_t RegionUS915NextChannel( NextChanParams_t* nextChanParams, uint8_t* channel, TimerTi
 889:Middlewares/Third_Party/LoRaWAN/Mac/Region/RegionUS915.c **** {
 2619              		.loc 1 889 1 is_stmt 1 view -0
 2620              		.cfi_startproc
 2621              		@ args = 0, pretend = 0, frame = 136
 2622              		@ frame_needed = 0, uses_anonymous_args = 0
 2623              		.loc 1 889 1 is_stmt 0 view .LVU754
 2624 0000 2DE9F041 		push	{r4, r5, r6, r7, r8, lr}
 2625              	.LCFI34:
 2626              		.cfi_def_cfa_offset 24
 2627              		.cfi_offset 4, -24
 2628              		.cfi_offset 5, -20
 2629              		.cfi_offset 6, -16
 2630              		.cfi_offset 7, -12
 2631              		.cfi_offset 8, -8
 2632              		.cfi_offset 14, -4
 2633 0004 A4B0     		sub	sp, sp, #144
 2634              	.LCFI35:
 2635              		.cfi_def_cfa_offset 168
 2636 0006 0446     		mov	r4, r0
 2637 0008 0E46     		mov	r6, r1
 2638 000a 9046     		mov	r8, r2
 2639 000c 1F46     		mov	r7, r3
 890:Middlewares/Third_Party/LoRaWAN/Mac/Region/RegionUS915.c **** #if defined( REGION_US915 )
 891:Middlewares/Third_Party/LoRaWAN/Mac/Region/RegionUS915.c ****     uint8_t nbEnabledChannels = 0;
 2640              		.loc 1 891 5 is_stmt 1 view .LVU755
 2641              		.loc 1 891 13 is_stmt 0 view .LVU756
 2642 000e 0025     		movs	r5, #0
 2643 0010 8DF88F50 		strb	r5, [sp, #143]
 892:Middlewares/Third_Party/LoRaWAN/Mac/Region/RegionUS915.c ****     uint8_t nbRestrictedChannels = 0;
 2644              		.loc 1 892 5 is_stmt 1 view .LVU757
 2645              		.loc 1 892 13 is_stmt 0 view .LVU758
 2646 0014 8DF88E50 		strb	r5, [sp, #142]
 893:Middlewares/Third_Party/LoRaWAN/Mac/Region/RegionUS915.c ****     uint8_t enabledChannels[US915_MAX_NB_CHANNELS] = { 0 };
 2647              		.loc 1 893 5 is_stmt 1 view .LVU759
ARM GAS  /tmp/cczpAp4p.s 			page 69


 2648              		.loc 1 893 13 is_stmt 0 view .LVU760
 2649 0018 1195     		str	r5, [sp, #68]
 2650 001a 4422     		movs	r2, #68
 2651              	.LVL205:
 2652              		.loc 1 893 13 view .LVU761
 2653 001c 2946     		mov	r1, r5
 2654              	.LVL206:
 2655              		.loc 1 893 13 view .LVU762
 2656 001e 12A8     		add	r0, sp, #72
 2657              	.LVL207:
 2658              		.loc 1 893 13 view .LVU763
 2659 0020 FFF7FEFF 		bl	memset
 2660              	.LVL208:
 894:Middlewares/Third_Party/LoRaWAN/Mac/Region/RegionUS915.c ****     RegionCommonIdentifyChannelsParam_t identifyChannelsParam;
 2661              		.loc 1 894 5 is_stmt 1 view .LVU764
 895:Middlewares/Third_Party/LoRaWAN/Mac/Region/RegionUS915.c ****     RegionCommonCountNbOfEnabledChannelsParams_t countChannelsParams;
 2662              		.loc 1 895 5 view .LVU765
 896:Middlewares/Third_Party/LoRaWAN/Mac/Region/RegionUS915.c ****     LoRaMacStatus_t status = LORAMAC_STATUS_NO_CHANNEL_FOUND;
 2663              		.loc 1 896 5 view .LVU766
 897:Middlewares/Third_Party/LoRaWAN/Mac/Region/RegionUS915.c **** 
 898:Middlewares/Third_Party/LoRaWAN/Mac/Region/RegionUS915.c ****     // Count 125kHz channels
 899:Middlewares/Third_Party/LoRaWAN/Mac/Region/RegionUS915.c ****     if( RegionCommonCountChannels( RegionNvmGroup1->ChannelsMaskRemaining, 0, 4 ) == 0 )
 2664              		.loc 1 899 5 view .LVU767
 2665              		.loc 1 899 51 is_stmt 0 view .LVU768
 2666 0024 4E4B     		ldr	r3, .L186
 2667 0026 1868     		ldr	r0, [r3]
 2668              		.loc 1 899 9 view .LVU769
 2669 0028 0422     		movs	r2, #4
 2670 002a 2946     		mov	r1, r5
 2671 002c 9030     		adds	r0, r0, #144
 2672 002e FFF7FEFF 		bl	RegionCommonCountChannels
 2673              	.LVL209:
 2674              		.loc 1 899 7 view .LVU770
 2675 0032 0028     		cmp	r0, #0
 2676 0034 54D0     		beq	.L183
 2677              	.L173:
 900:Middlewares/Third_Party/LoRaWAN/Mac/Region/RegionUS915.c ****     { // Reactivate default channels
 901:Middlewares/Third_Party/LoRaWAN/Mac/Region/RegionUS915.c ****         RegionCommonChanMaskCopy( RegionNvmGroup1->ChannelsMaskRemaining, RegionNvmGroup2->Channels
 902:Middlewares/Third_Party/LoRaWAN/Mac/Region/RegionUS915.c **** 
 903:Middlewares/Third_Party/LoRaWAN/Mac/Region/RegionUS915.c ****         RegionNvmGroup1->JoinChannelGroupsCurrentIndex = 0;
 904:Middlewares/Third_Party/LoRaWAN/Mac/Region/RegionUS915.c ****     }
 905:Middlewares/Third_Party/LoRaWAN/Mac/Region/RegionUS915.c ****     // Check other channels
 906:Middlewares/Third_Party/LoRaWAN/Mac/Region/RegionUS915.c ****     if( nextChanParams->Datarate >= DR_4 )
 2678              		.loc 1 906 5 is_stmt 1 view .LVU771
 2679              		.loc 1 906 23 is_stmt 0 view .LVU772
 2680 0036 94F90830 		ldrsb	r3, [r4, #8]
 2681              		.loc 1 906 7 view .LVU773
 2682 003a 032B     		cmp	r3, #3
 2683 003c 0ADD     		ble	.L174
 907:Middlewares/Third_Party/LoRaWAN/Mac/Region/RegionUS915.c ****     {
 908:Middlewares/Third_Party/LoRaWAN/Mac/Region/RegionUS915.c ****         if( ( RegionNvmGroup1->ChannelsMaskRemaining[4] & CHANNELS_MASK_500KHZ_MASK ) == 0 )
 2684              		.loc 1 908 9 is_stmt 1 view .LVU774
 2685              		.loc 1 908 30 is_stmt 0 view .LVU775
 2686 003e 484B     		ldr	r3, .L186
 2687 0040 1B68     		ldr	r3, [r3]
 2688              		.loc 1 908 11 view .LVU776
 2689 0042 93F89820 		ldrb	r2, [r3, #152]	@ zero_extendqisi2
ARM GAS  /tmp/cczpAp4p.s 			page 70


 2690 0046 2AB9     		cbnz	r2, .L174
 909:Middlewares/Third_Party/LoRaWAN/Mac/Region/RegionUS915.c ****         {
 910:Middlewares/Third_Party/LoRaWAN/Mac/Region/RegionUS915.c ****             RegionNvmGroup1->ChannelsMaskRemaining[4] = RegionNvmGroup2->ChannelsMask[4];
 2691              		.loc 1 910 13 is_stmt 1 view .LVU777
 2692              		.loc 1 910 72 is_stmt 0 view .LVU778
 2693 0048 464A     		ldr	r2, .L186+4
 2694 004a 1268     		ldr	r2, [r2]
 2695              		.loc 1 910 86 view .LVU779
 2696 004c B2F86823 		ldrh	r2, [r2, #872]
 2697              		.loc 1 910 55 view .LVU780
 2698 0050 A3F89820 		strh	r2, [r3, #152]	@ movhi
 2699              	.L174:
 911:Middlewares/Third_Party/LoRaWAN/Mac/Region/RegionUS915.c ****         }
 912:Middlewares/Third_Party/LoRaWAN/Mac/Region/RegionUS915.c ****     }
 913:Middlewares/Third_Party/LoRaWAN/Mac/Region/RegionUS915.c **** 
 914:Middlewares/Third_Party/LoRaWAN/Mac/Region/RegionUS915.c ****     // Search how many channels are enabled
 915:Middlewares/Third_Party/LoRaWAN/Mac/Region/RegionUS915.c ****     countChannelsParams.Joined = nextChanParams->Joined;
 2700              		.loc 1 915 5 is_stmt 1 view .LVU781
 2701              		.loc 1 915 48 is_stmt 0 view .LVU782
 2702 0054 637A     		ldrb	r3, [r4, #9]	@ zero_extendqisi2
 2703              		.loc 1 915 32 view .LVU783
 2704 0056 8DF80C30 		strb	r3, [sp, #12]
 916:Middlewares/Third_Party/LoRaWAN/Mac/Region/RegionUS915.c ****     countChannelsParams.Datarate = nextChanParams->Datarate;
 2705              		.loc 1 916 5 is_stmt 1 view .LVU784
 2706              		.loc 1 916 50 is_stmt 0 view .LVU785
 2707 005a 237A     		ldrb	r3, [r4, #8]	@ zero_extendqisi2
 2708              		.loc 1 916 34 view .LVU786
 2709 005c 8DF80D30 		strb	r3, [sp, #13]
 917:Middlewares/Third_Party/LoRaWAN/Mac/Region/RegionUS915.c ****     countChannelsParams.ChannelsMask = RegionNvmGroup1->ChannelsMaskRemaining;
 2710              		.loc 1 917 5 is_stmt 1 view .LVU787
 2711              		.loc 1 917 55 is_stmt 0 view .LVU788
 2712 0060 3F4B     		ldr	r3, .L186
 2713 0062 1B68     		ldr	r3, [r3]
 2714              		.loc 1 917 40 view .LVU789
 2715 0064 03F19002 		add	r2, r3, #144
 2716              		.loc 1 917 38 view .LVU790
 2717 0068 0492     		str	r2, [sp, #16]
 918:Middlewares/Third_Party/LoRaWAN/Mac/Region/RegionUS915.c ****     countChannelsParams.Channels = RegionNvmGroup2->Channels;
 2718              		.loc 1 918 5 is_stmt 1 view .LVU791
 2719              		.loc 1 918 51 is_stmt 0 view .LVU792
 2720 006a 3E4A     		ldr	r2, .L186+4
 2721 006c 1268     		ldr	r2, [r2]
 2722              		.loc 1 918 34 view .LVU793
 2723 006e 0592     		str	r2, [sp, #20]
 919:Middlewares/Third_Party/LoRaWAN/Mac/Region/RegionUS915.c ****     countChannelsParams.Bands = RegionNvmGroup1->Bands;
 2724              		.loc 1 919 5 is_stmt 1 view .LVU794
 2725              		.loc 1 919 31 is_stmt 0 view .LVU795
 2726 0070 0693     		str	r3, [sp, #24]
 920:Middlewares/Third_Party/LoRaWAN/Mac/Region/RegionUS915.c ****     countChannelsParams.MaxNbChannels = US915_MAX_NB_CHANNELS;
 2727              		.loc 1 920 5 is_stmt 1 view .LVU796
 2728              		.loc 1 920 39 is_stmt 0 view .LVU797
 2729 0072 4823     		movs	r3, #72
 2730 0074 ADF81C30 		strh	r3, [sp, #28]	@ movhi
 921:Middlewares/Third_Party/LoRaWAN/Mac/Region/RegionUS915.c ****     countChannelsParams.JoinChannels = NULL;
 2731              		.loc 1 921 5 is_stmt 1 view .LVU798
 2732              		.loc 1 921 38 is_stmt 0 view .LVU799
 2733 0078 0023     		movs	r3, #0
ARM GAS  /tmp/cczpAp4p.s 			page 71


 2734 007a 0893     		str	r3, [sp, #32]
 922:Middlewares/Third_Party/LoRaWAN/Mac/Region/RegionUS915.c **** 
 923:Middlewares/Third_Party/LoRaWAN/Mac/Region/RegionUS915.c ****     identifyChannelsParam.AggrTimeOff = nextChanParams->AggrTimeOff;
 2735              		.loc 1 923 5 is_stmt 1 view .LVU800
 2736              		.loc 1 923 55 is_stmt 0 view .LVU801
 2737 007c 2368     		ldr	r3, [r4]
 2738              		.loc 1 923 39 view .LVU802
 2739 007e 0993     		str	r3, [sp, #36]
 924:Middlewares/Third_Party/LoRaWAN/Mac/Region/RegionUS915.c ****     identifyChannelsParam.LastAggrTx = nextChanParams->LastAggrTx;
 2740              		.loc 1 924 5 is_stmt 1 view .LVU803
 2741              		.loc 1 924 54 is_stmt 0 view .LVU804
 2742 0080 6368     		ldr	r3, [r4, #4]
 2743              		.loc 1 924 38 view .LVU805
 2744 0082 0A93     		str	r3, [sp, #40]
 925:Middlewares/Third_Party/LoRaWAN/Mac/Region/RegionUS915.c ****     identifyChannelsParam.DutyCycleEnabled = nextChanParams->DutyCycleEnabled;
 2745              		.loc 1 925 5 is_stmt 1 view .LVU806
 2746              		.loc 1 925 60 is_stmt 0 view .LVU807
 2747 0084 A37A     		ldrb	r3, [r4, #10]	@ zero_extendqisi2
 2748              		.loc 1 925 44 view .LVU808
 2749 0086 8DF82C30 		strb	r3, [sp, #44]
 926:Middlewares/Third_Party/LoRaWAN/Mac/Region/RegionUS915.c ****     identifyChannelsParam.MaxBands = US915_MAX_NB_BANDS;
 2750              		.loc 1 926 5 is_stmt 1 view .LVU809
 2751              		.loc 1 926 36 is_stmt 0 view .LVU810
 2752 008a 0123     		movs	r3, #1
 2753 008c 8DF82D30 		strb	r3, [sp, #45]
 927:Middlewares/Third_Party/LoRaWAN/Mac/Region/RegionUS915.c **** 
 928:Middlewares/Third_Party/LoRaWAN/Mac/Region/RegionUS915.c ****     identifyChannelsParam.ElapsedTimeSinceStartUp = nextChanParams->ElapsedTimeSinceStartUp;
 2754              		.loc 1 928 5 is_stmt 1 view .LVU811
 2755              		.loc 1 928 51 is_stmt 0 view .LVU812
 2756 0090 0CAB     		add	r3, sp, #48
 2757 0092 04F10C02 		add	r2, r4, #12
 2758 0096 92E80300 		ldm	r2, {r0, r1}
 2759 009a 83E80300 		stm	r3, {r0, r1}
 929:Middlewares/Third_Party/LoRaWAN/Mac/Region/RegionUS915.c ****     identifyChannelsParam.LastTxIsJoinRequest = nextChanParams->LastTxIsJoinRequest;
 2760              		.loc 1 929 5 is_stmt 1 view .LVU813
 2761              		.loc 1 929 63 is_stmt 0 view .LVU814
 2762 009e 237D     		ldrb	r3, [r4, #20]	@ zero_extendqisi2
 2763              		.loc 1 929 47 view .LVU815
 2764 00a0 8DF83830 		strb	r3, [sp, #56]
 930:Middlewares/Third_Party/LoRaWAN/Mac/Region/RegionUS915.c ****     identifyChannelsParam.ExpectedTimeOnAir = GetTimeOnAir( nextChanParams->Datarate, nextChanParam
 2765              		.loc 1 930 5 is_stmt 1 view .LVU816
 2766              		.loc 1 930 47 is_stmt 0 view .LVU817
 2767 00a4 E18A     		ldrh	r1, [r4, #22]
 2768 00a6 94F90800 		ldrsb	r0, [r4, #8]
 2769 00aa FFF7FEFF 		bl	GetTimeOnAir
 2770              	.LVL210:
 2771              		.loc 1 930 45 view .LVU818
 2772 00ae 0F90     		str	r0, [sp, #60]
 931:Middlewares/Third_Party/LoRaWAN/Mac/Region/RegionUS915.c **** 
 932:Middlewares/Third_Party/LoRaWAN/Mac/Region/RegionUS915.c ****     identifyChannelsParam.CountNbOfEnabledChannelsParam = &countChannelsParams;
 2773              		.loc 1 932 5 is_stmt 1 view .LVU819
 2774              		.loc 1 932 57 is_stmt 0 view .LVU820
 2775 00b0 03AB     		add	r3, sp, #12
 2776 00b2 1093     		str	r3, [sp, #64]
 933:Middlewares/Third_Party/LoRaWAN/Mac/Region/RegionUS915.c **** 
 934:Middlewares/Third_Party/LoRaWAN/Mac/Region/RegionUS915.c ****     status = RegionCommonIdentifyChannels( &identifyChannelsParam, aggregatedTimeOff, enabledChanne
 2777              		.loc 1 934 5 is_stmt 1 view .LVU821
ARM GAS  /tmp/cczpAp4p.s 			page 72


 2778              		.loc 1 934 14 is_stmt 0 view .LVU822
 2779 00b4 CDF80480 		str	r8, [sp, #4]
 2780 00b8 0DF18E03 		add	r3, sp, #142
 2781 00bc 0093     		str	r3, [sp]
 2782 00be 0DF18F03 		add	r3, sp, #143
 2783 00c2 11AA     		add	r2, sp, #68
 2784 00c4 3946     		mov	r1, r7
 2785 00c6 09A8     		add	r0, sp, #36
 2786 00c8 FFF7FEFF 		bl	RegionCommonIdentifyChannels
 2787              	.LVL211:
 935:Middlewares/Third_Party/LoRaWAN/Mac/Region/RegionUS915.c ****                                            &nbEnabledChannels, &nbRestrictedChannels, time );
 936:Middlewares/Third_Party/LoRaWAN/Mac/Region/RegionUS915.c **** 
 937:Middlewares/Third_Party/LoRaWAN/Mac/Region/RegionUS915.c ****     if( status == LORAMAC_STATUS_OK )
 2788              		.loc 1 937 5 is_stmt 1 view .LVU823
 2789              		.loc 1 937 7 is_stmt 0 view .LVU824
 2790 00cc 0546     		mov	r5, r0
 2791 00ce 0028     		cmp	r0, #0
 2792 00d0 41D1     		bne	.L175
 938:Middlewares/Third_Party/LoRaWAN/Mac/Region/RegionUS915.c ****     {
 939:Middlewares/Third_Party/LoRaWAN/Mac/Region/RegionUS915.c ****         if( nextChanParams->Joined == true )
 2793              		.loc 1 939 9 is_stmt 1 view .LVU825
 2794              		.loc 1 939 27 is_stmt 0 view .LVU826
 2795 00d2 637A     		ldrb	r3, [r4, #9]	@ zero_extendqisi2
 2796              		.loc 1 939 11 view .LVU827
 2797 00d4 9BB9     		cbnz	r3, .L184
 940:Middlewares/Third_Party/LoRaWAN/Mac/Region/RegionUS915.c ****         {
 941:Middlewares/Third_Party/LoRaWAN/Mac/Region/RegionUS915.c ****             // Choose randomly on of the remaining channels
 942:Middlewares/Third_Party/LoRaWAN/Mac/Region/RegionUS915.c ****             *channel = enabledChannels[randr( 0, nbEnabledChannels - 1 )];
 943:Middlewares/Third_Party/LoRaWAN/Mac/Region/RegionUS915.c ****         }
 944:Middlewares/Third_Party/LoRaWAN/Mac/Region/RegionUS915.c ****         else
 945:Middlewares/Third_Party/LoRaWAN/Mac/Region/RegionUS915.c ****         {
 946:Middlewares/Third_Party/LoRaWAN/Mac/Region/RegionUS915.c ****             // For rapid network acquisition in mixed gateway channel plan environments, the device
