ARM GAS  /tmp/ccyVxTym.s 			page 1


   1              		.cpu cortex-m4
   2              		.eabi_attribute 20, 1
   3              		.eabi_attribute 21, 1
   4              		.eabi_attribute 23, 3
   5              		.eabi_attribute 24, 1
   6              		.eabi_attribute 25, 1
   7              		.eabi_attribute 26, 1
   8              		.eabi_attribute 30, 1
   9              		.eabi_attribute 34, 1
  10              		.eabi_attribute 18, 4
  11              		.file	"stm32wlxx_hal_pwr_ex.c"
  12              		.text
  13              	.Ltext0:
  14              		.cfi_sections	.debug_frame
  15              		.section	.text.HAL_PWREx_GetVoltageRange,"ax",%progbits
  16              		.align	1
  17              		.global	HAL_PWREx_GetVoltageRange
  18              		.arch armv7e-m
  19              		.syntax unified
  20              		.thumb
  21              		.thumb_func
  22              		.fpu softvfp
  24              	HAL_PWREx_GetVoltageRange:
  25              	.LFB961:
  26              		.file 1 "Drivers/STM32WLxx_HAL_Driver/Src/stm32wlxx_hal_pwr_ex.c"
   1:Drivers/STM32WLxx_HAL_Driver/Src/stm32wlxx_hal_pwr_ex.c **** /**
   2:Drivers/STM32WLxx_HAL_Driver/Src/stm32wlxx_hal_pwr_ex.c ****   ******************************************************************************
   3:Drivers/STM32WLxx_HAL_Driver/Src/stm32wlxx_hal_pwr_ex.c ****   * @file    stm32wlxx_hal_pwr_ex.c
   4:Drivers/STM32WLxx_HAL_Driver/Src/stm32wlxx_hal_pwr_ex.c ****   * @author  MCD Application Team
   5:Drivers/STM32WLxx_HAL_Driver/Src/stm32wlxx_hal_pwr_ex.c ****   * @brief   Extended PWR HAL module driver.
   6:Drivers/STM32WLxx_HAL_Driver/Src/stm32wlxx_hal_pwr_ex.c ****   *          This file provides firmware functions to manage the following
   7:Drivers/STM32WLxx_HAL_Driver/Src/stm32wlxx_hal_pwr_ex.c ****   *          functionalities of the Power Controller (PWR) peripheral:
   8:Drivers/STM32WLxx_HAL_Driver/Src/stm32wlxx_hal_pwr_ex.c ****   *           + Extended Initialization and de-initialization functions
   9:Drivers/STM32WLxx_HAL_Driver/Src/stm32wlxx_hal_pwr_ex.c ****   *           + Extended Peripheral Control functions
  10:Drivers/STM32WLxx_HAL_Driver/Src/stm32wlxx_hal_pwr_ex.c ****   *
  11:Drivers/STM32WLxx_HAL_Driver/Src/stm32wlxx_hal_pwr_ex.c ****   ******************************************************************************
  12:Drivers/STM32WLxx_HAL_Driver/Src/stm32wlxx_hal_pwr_ex.c ****   * @attention
  13:Drivers/STM32WLxx_HAL_Driver/Src/stm32wlxx_hal_pwr_ex.c ****   *
  14:Drivers/STM32WLxx_HAL_Driver/Src/stm32wlxx_hal_pwr_ex.c ****   * <h2><center>&copy; Copyright (c) 2020 STMicroelectronics.
  15:Drivers/STM32WLxx_HAL_Driver/Src/stm32wlxx_hal_pwr_ex.c ****   * All rights reserved.</center></h2>
  16:Drivers/STM32WLxx_HAL_Driver/Src/stm32wlxx_hal_pwr_ex.c ****   *
  17:Drivers/STM32WLxx_HAL_Driver/Src/stm32wlxx_hal_pwr_ex.c ****   * This software component is licensed by ST under BSD 3-Clause license,
  18:Drivers/STM32WLxx_HAL_Driver/Src/stm32wlxx_hal_pwr_ex.c ****   * the "License"; You may not use this file except in compliance with the
  19:Drivers/STM32WLxx_HAL_Driver/Src/stm32wlxx_hal_pwr_ex.c ****   * License. You may obtain a copy of the License at:
  20:Drivers/STM32WLxx_HAL_Driver/Src/stm32wlxx_hal_pwr_ex.c ****   *                        opensource.org/licenses/BSD-3-Clause
  21:Drivers/STM32WLxx_HAL_Driver/Src/stm32wlxx_hal_pwr_ex.c ****   *
  22:Drivers/STM32WLxx_HAL_Driver/Src/stm32wlxx_hal_pwr_ex.c ****   ******************************************************************************
  23:Drivers/STM32WLxx_HAL_Driver/Src/stm32wlxx_hal_pwr_ex.c ****   */
  24:Drivers/STM32WLxx_HAL_Driver/Src/stm32wlxx_hal_pwr_ex.c **** 
  25:Drivers/STM32WLxx_HAL_Driver/Src/stm32wlxx_hal_pwr_ex.c **** /* Includes ------------------------------------------------------------------*/
  26:Drivers/STM32WLxx_HAL_Driver/Src/stm32wlxx_hal_pwr_ex.c **** #include "stm32wlxx_hal.h"
  27:Drivers/STM32WLxx_HAL_Driver/Src/stm32wlxx_hal_pwr_ex.c **** 
  28:Drivers/STM32WLxx_HAL_Driver/Src/stm32wlxx_hal_pwr_ex.c **** /** @addtogroup STM32WLxx_HAL_Driver
  29:Drivers/STM32WLxx_HAL_Driver/Src/stm32wlxx_hal_pwr_ex.c ****   * @{
  30:Drivers/STM32WLxx_HAL_Driver/Src/stm32wlxx_hal_pwr_ex.c ****   */
  31:Drivers/STM32WLxx_HAL_Driver/Src/stm32wlxx_hal_pwr_ex.c **** 
  32:Drivers/STM32WLxx_HAL_Driver/Src/stm32wlxx_hal_pwr_ex.c **** /** @addtogroup PWREx
ARM GAS  /tmp/ccyVxTym.s 			page 2


  33:Drivers/STM32WLxx_HAL_Driver/Src/stm32wlxx_hal_pwr_ex.c ****   * @{
  34:Drivers/STM32WLxx_HAL_Driver/Src/stm32wlxx_hal_pwr_ex.c ****   */
  35:Drivers/STM32WLxx_HAL_Driver/Src/stm32wlxx_hal_pwr_ex.c **** 
  36:Drivers/STM32WLxx_HAL_Driver/Src/stm32wlxx_hal_pwr_ex.c **** #ifdef HAL_PWR_MODULE_ENABLED
  37:Drivers/STM32WLxx_HAL_Driver/Src/stm32wlxx_hal_pwr_ex.c **** 
  38:Drivers/STM32WLxx_HAL_Driver/Src/stm32wlxx_hal_pwr_ex.c **** /* Private typedef -----------------------------------------------------------*/
  39:Drivers/STM32WLxx_HAL_Driver/Src/stm32wlxx_hal_pwr_ex.c **** /* Private constants ---------------------------------------------------------*/
  40:Drivers/STM32WLxx_HAL_Driver/Src/stm32wlxx_hal_pwr_ex.c **** /** @addtogroup PWREx_Private_Constants PWR Extended Private Constants
  41:Drivers/STM32WLxx_HAL_Driver/Src/stm32wlxx_hal_pwr_ex.c ****   * @{
  42:Drivers/STM32WLxx_HAL_Driver/Src/stm32wlxx_hal_pwr_ex.c ****   */
  43:Drivers/STM32WLxx_HAL_Driver/Src/stm32wlxx_hal_pwr_ex.c **** #define PWR_PORTC_AVAILABLE_PINS   (PWR_GPIO_BIT_15 | PWR_GPIO_BIT_14 | PWR_GPIO_BIT_13 | PWR_GPIO_
  44:Drivers/STM32WLxx_HAL_Driver/Src/stm32wlxx_hal_pwr_ex.c **** #define PWR_PORTH_AVAILABLE_PINS   (PWR_GPIO_BIT_3)
  45:Drivers/STM32WLxx_HAL_Driver/Src/stm32wlxx_hal_pwr_ex.c **** 
  46:Drivers/STM32WLxx_HAL_Driver/Src/stm32wlxx_hal_pwr_ex.c **** /** @defgroup PWREx_TimeOut_Value PWR Extended Flag Setting Time Out Value
  47:Drivers/STM32WLxx_HAL_Driver/Src/stm32wlxx_hal_pwr_ex.c ****   * @{
  48:Drivers/STM32WLxx_HAL_Driver/Src/stm32wlxx_hal_pwr_ex.c ****   */
  49:Drivers/STM32WLxx_HAL_Driver/Src/stm32wlxx_hal_pwr_ex.c **** #define PWR_FLAG_SETTING_DELAY_US                      50UL   /*!< Time out value for REGLPF and VO
  50:Drivers/STM32WLxx_HAL_Driver/Src/stm32wlxx_hal_pwr_ex.c **** /**
  51:Drivers/STM32WLxx_HAL_Driver/Src/stm32wlxx_hal_pwr_ex.c ****   * @}
  52:Drivers/STM32WLxx_HAL_Driver/Src/stm32wlxx_hal_pwr_ex.c ****   */
  53:Drivers/STM32WLxx_HAL_Driver/Src/stm32wlxx_hal_pwr_ex.c **** 
  54:Drivers/STM32WLxx_HAL_Driver/Src/stm32wlxx_hal_pwr_ex.c **** /**
  55:Drivers/STM32WLxx_HAL_Driver/Src/stm32wlxx_hal_pwr_ex.c ****   * @}
  56:Drivers/STM32WLxx_HAL_Driver/Src/stm32wlxx_hal_pwr_ex.c ****   */
  57:Drivers/STM32WLxx_HAL_Driver/Src/stm32wlxx_hal_pwr_ex.c **** 
  58:Drivers/STM32WLxx_HAL_Driver/Src/stm32wlxx_hal_pwr_ex.c **** /* Private macro -------------------------------------------------------------*/
  59:Drivers/STM32WLxx_HAL_Driver/Src/stm32wlxx_hal_pwr_ex.c **** /* Private variables ---------------------------------------------------------*/
  60:Drivers/STM32WLxx_HAL_Driver/Src/stm32wlxx_hal_pwr_ex.c **** /* Private function prototypes -----------------------------------------------*/
  61:Drivers/STM32WLxx_HAL_Driver/Src/stm32wlxx_hal_pwr_ex.c **** /* Exported functions --------------------------------------------------------*/
  62:Drivers/STM32WLxx_HAL_Driver/Src/stm32wlxx_hal_pwr_ex.c **** /** @addtogroup PWREx_Exported_Functions PWR Extended Exported Functions
  63:Drivers/STM32WLxx_HAL_Driver/Src/stm32wlxx_hal_pwr_ex.c ****   * @{
  64:Drivers/STM32WLxx_HAL_Driver/Src/stm32wlxx_hal_pwr_ex.c ****   */
  65:Drivers/STM32WLxx_HAL_Driver/Src/stm32wlxx_hal_pwr_ex.c **** 
  66:Drivers/STM32WLxx_HAL_Driver/Src/stm32wlxx_hal_pwr_ex.c **** /** @addtogroup PWREx_Exported_Functions_Group1 Extended Peripheral Control functions
  67:Drivers/STM32WLxx_HAL_Driver/Src/stm32wlxx_hal_pwr_ex.c ****   *  @brief   Extended Peripheral Control functions
  68:Drivers/STM32WLxx_HAL_Driver/Src/stm32wlxx_hal_pwr_ex.c ****   *
  69:Drivers/STM32WLxx_HAL_Driver/Src/stm32wlxx_hal_pwr_ex.c **** @verbatim
  70:Drivers/STM32WLxx_HAL_Driver/Src/stm32wlxx_hal_pwr_ex.c ****  ===============================================================================
  71:Drivers/STM32WLxx_HAL_Driver/Src/stm32wlxx_hal_pwr_ex.c ****               ##### Extended Peripheral Initialization and de-initialization functions #####
  72:Drivers/STM32WLxx_HAL_Driver/Src/stm32wlxx_hal_pwr_ex.c ****  ===============================================================================
  73:Drivers/STM32WLxx_HAL_Driver/Src/stm32wlxx_hal_pwr_ex.c ****     [..]
  74:Drivers/STM32WLxx_HAL_Driver/Src/stm32wlxx_hal_pwr_ex.c **** 
  75:Drivers/STM32WLxx_HAL_Driver/Src/stm32wlxx_hal_pwr_ex.c **** @endverbatim
  76:Drivers/STM32WLxx_HAL_Driver/Src/stm32wlxx_hal_pwr_ex.c ****   * @{
  77:Drivers/STM32WLxx_HAL_Driver/Src/stm32wlxx_hal_pwr_ex.c ****   */
  78:Drivers/STM32WLxx_HAL_Driver/Src/stm32wlxx_hal_pwr_ex.c **** 
  79:Drivers/STM32WLxx_HAL_Driver/Src/stm32wlxx_hal_pwr_ex.c **** 
  80:Drivers/STM32WLxx_HAL_Driver/Src/stm32wlxx_hal_pwr_ex.c **** /**
  81:Drivers/STM32WLxx_HAL_Driver/Src/stm32wlxx_hal_pwr_ex.c ****   * @brief Return Voltage Scaling Range.
  82:Drivers/STM32WLxx_HAL_Driver/Src/stm32wlxx_hal_pwr_ex.c ****   * @retval VOS bit field (PWR_REGULATOR_VOLTAGE_SCALE1 or PWPWR_REGULATOR_VOLTAGE_SCALE2)
  83:Drivers/STM32WLxx_HAL_Driver/Src/stm32wlxx_hal_pwr_ex.c ****   */
  84:Drivers/STM32WLxx_HAL_Driver/Src/stm32wlxx_hal_pwr_ex.c **** uint32_t HAL_PWREx_GetVoltageRange(void)
  85:Drivers/STM32WLxx_HAL_Driver/Src/stm32wlxx_hal_pwr_ex.c **** {
  27              		.loc 1 85 1 view -0
  28              		.cfi_startproc
  29              		@ args = 0, pretend = 0, frame = 0
  30              		@ frame_needed = 0, uses_anonymous_args = 0
ARM GAS  /tmp/ccyVxTym.s 			page 3


  31              		@ link register save eliminated.
  86:Drivers/STM32WLxx_HAL_Driver/Src/stm32wlxx_hal_pwr_ex.c ****   return (PWR->CR1 & PWR_CR1_VOS);
  32              		.loc 1 86 3 view .LVU1
  33              		.loc 1 86 14 is_stmt 0 view .LVU2
  34 0000 024B     		ldr	r3, .L2
  35 0002 1868     		ldr	r0, [r3]
  87:Drivers/STM32WLxx_HAL_Driver/Src/stm32wlxx_hal_pwr_ex.c **** }
  36              		.loc 1 87 1 view .LVU3
  37 0004 00F4C060 		and	r0, r0, #1536
  38 0008 7047     		bx	lr
  39              	.L3:
  40 000a 00BF     		.align	2
  41              	.L2:
  42 000c 00040058 		.word	1476396032
  43              		.cfi_endproc
  44              	.LFE961:
  46              		.section	.text.HAL_PWREx_ControlVoltageScaling,"ax",%progbits
  47              		.align	1
  48              		.global	HAL_PWREx_ControlVoltageScaling
  49              		.syntax unified
  50              		.thumb
  51              		.thumb_func
  52              		.fpu softvfp
  54              	HAL_PWREx_ControlVoltageScaling:
  55              	.LVL0:
  56              	.LFB962:
  88:Drivers/STM32WLxx_HAL_Driver/Src/stm32wlxx_hal_pwr_ex.c **** 
  89:Drivers/STM32WLxx_HAL_Driver/Src/stm32wlxx_hal_pwr_ex.c **** /**
  90:Drivers/STM32WLxx_HAL_Driver/Src/stm32wlxx_hal_pwr_ex.c ****   * @brief Configure the main internal regulator output voltage.
  91:Drivers/STM32WLxx_HAL_Driver/Src/stm32wlxx_hal_pwr_ex.c ****   * @param VoltageScaling specifies the regulator output voltage to achieve
  92:Drivers/STM32WLxx_HAL_Driver/Src/stm32wlxx_hal_pwr_ex.c ****   *         a trade-off between performance and power consumption.
  93:Drivers/STM32WLxx_HAL_Driver/Src/stm32wlxx_hal_pwr_ex.c ****   *          This parameter can be one of the following values:
  94:Drivers/STM32WLxx_HAL_Driver/Src/stm32wlxx_hal_pwr_ex.c ****   *            @arg @ref PWR_REGULATOR_VOLTAGE_SCALE1 Regulator voltage output range 1 mode,
  95:Drivers/STM32WLxx_HAL_Driver/Src/stm32wlxx_hal_pwr_ex.c ****   *                                                typical output voltage at 1.2 V,
  96:Drivers/STM32WLxx_HAL_Driver/Src/stm32wlxx_hal_pwr_ex.c ****   *                                                system frequency up to 48 MHz.
  97:Drivers/STM32WLxx_HAL_Driver/Src/stm32wlxx_hal_pwr_ex.c ****   *            @arg @ref PWR_REGULATOR_VOLTAGE_SCALE2 Regulator voltage output range 2 mode,
  98:Drivers/STM32WLxx_HAL_Driver/Src/stm32wlxx_hal_pwr_ex.c ****   *                                                typical output voltage at 1.0 V,
  99:Drivers/STM32WLxx_HAL_Driver/Src/stm32wlxx_hal_pwr_ex.c ****   *                                                system frequency up to 16 MHz.
 100:Drivers/STM32WLxx_HAL_Driver/Src/stm32wlxx_hal_pwr_ex.c ****   * @note  When moving from Range 1 to Range 2, the system frequency must be decreased to
 101:Drivers/STM32WLxx_HAL_Driver/Src/stm32wlxx_hal_pwr_ex.c ****   *        a value below 16 MHz before calling HAL_PWREx_ControlVoltageScaling() API.
 102:Drivers/STM32WLxx_HAL_Driver/Src/stm32wlxx_hal_pwr_ex.c ****   *        When moving from Range 2 to Range 1, the system frequency can be increased to
 103:Drivers/STM32WLxx_HAL_Driver/Src/stm32wlxx_hal_pwr_ex.c ****   *        a value up to 48 MHz after calling HAL_PWREx_ControlVoltageScaling() API.
 104:Drivers/STM32WLxx_HAL_Driver/Src/stm32wlxx_hal_pwr_ex.c ****   * @note  When moving from Range 2 to Range 1, the API waits for VOSF flag to be
 105:Drivers/STM32WLxx_HAL_Driver/Src/stm32wlxx_hal_pwr_ex.c ****   *        cleared before returning the status. If the flag is not cleared within
 106:Drivers/STM32WLxx_HAL_Driver/Src/stm32wlxx_hal_pwr_ex.c ****   *        50 microseconds, HAL_TIMEOUT status is reported.
 107:Drivers/STM32WLxx_HAL_Driver/Src/stm32wlxx_hal_pwr_ex.c ****   * @retval HAL Status
 108:Drivers/STM32WLxx_HAL_Driver/Src/stm32wlxx_hal_pwr_ex.c ****   */
 109:Drivers/STM32WLxx_HAL_Driver/Src/stm32wlxx_hal_pwr_ex.c **** HAL_StatusTypeDef HAL_PWREx_ControlVoltageScaling(uint32_t VoltageScaling)
 110:Drivers/STM32WLxx_HAL_Driver/Src/stm32wlxx_hal_pwr_ex.c **** {
  57              		.loc 1 110 1 is_stmt 1 view -0
  58              		.cfi_startproc
  59              		@ args = 0, pretend = 0, frame = 0
  60              		@ frame_needed = 0, uses_anonymous_args = 0
  61              		@ link register save eliminated.
 111:Drivers/STM32WLxx_HAL_Driver/Src/stm32wlxx_hal_pwr_ex.c ****   uint32_t wait_loop_index;
  62              		.loc 1 111 3 view .LVU5
 112:Drivers/STM32WLxx_HAL_Driver/Src/stm32wlxx_hal_pwr_ex.c **** 
ARM GAS  /tmp/ccyVxTym.s 			page 4


 113:Drivers/STM32WLxx_HAL_Driver/Src/stm32wlxx_hal_pwr_ex.c ****   assert_param(IS_PWR_VOLTAGE_SCALING_RANGE(VoltageScaling));
  63              		.loc 1 113 3 view .LVU6
 114:Drivers/STM32WLxx_HAL_Driver/Src/stm32wlxx_hal_pwr_ex.c **** 
 115:Drivers/STM32WLxx_HAL_Driver/Src/stm32wlxx_hal_pwr_ex.c ****   /* If Set Range 1 */
 116:Drivers/STM32WLxx_HAL_Driver/Src/stm32wlxx_hal_pwr_ex.c ****   if (VoltageScaling == PWR_REGULATOR_VOLTAGE_SCALE1)
  64              		.loc 1 116 3 view .LVU7
  65              		.loc 1 116 6 is_stmt 0 view .LVU8
  66 0000 B0F5007F 		cmp	r0, #512
  67 0004 0FD0     		beq	.L13
 117:Drivers/STM32WLxx_HAL_Driver/Src/stm32wlxx_hal_pwr_ex.c ****   {
 118:Drivers/STM32WLxx_HAL_Driver/Src/stm32wlxx_hal_pwr_ex.c ****     if (READ_BIT(PWR->CR1, PWR_CR1_VOS) != PWR_REGULATOR_VOLTAGE_SCALE1)
 119:Drivers/STM32WLxx_HAL_Driver/Src/stm32wlxx_hal_pwr_ex.c ****     {
 120:Drivers/STM32WLxx_HAL_Driver/Src/stm32wlxx_hal_pwr_ex.c ****       /* Set Range 1 */
 121:Drivers/STM32WLxx_HAL_Driver/Src/stm32wlxx_hal_pwr_ex.c ****       MODIFY_REG(PWR->CR1, PWR_CR1_VOS, PWR_REGULATOR_VOLTAGE_SCALE1);
 122:Drivers/STM32WLxx_HAL_Driver/Src/stm32wlxx_hal_pwr_ex.c **** 
 123:Drivers/STM32WLxx_HAL_Driver/Src/stm32wlxx_hal_pwr_ex.c ****       /* Wait until VOSF is cleared */
 124:Drivers/STM32WLxx_HAL_Driver/Src/stm32wlxx_hal_pwr_ex.c ****       wait_loop_index = ((PWR_FLAG_SETTING_DELAY_US * SystemCoreClock) / 1000000UL);
 125:Drivers/STM32WLxx_HAL_Driver/Src/stm32wlxx_hal_pwr_ex.c ****       while ((HAL_IS_BIT_SET(PWR->SR2, PWR_SR2_VOSF)) && (wait_loop_index != 0U))
 126:Drivers/STM32WLxx_HAL_Driver/Src/stm32wlxx_hal_pwr_ex.c ****       {
 127:Drivers/STM32WLxx_HAL_Driver/Src/stm32wlxx_hal_pwr_ex.c ****         wait_loop_index--;
 128:Drivers/STM32WLxx_HAL_Driver/Src/stm32wlxx_hal_pwr_ex.c ****       }
 129:Drivers/STM32WLxx_HAL_Driver/Src/stm32wlxx_hal_pwr_ex.c ****       if (HAL_IS_BIT_SET(PWR->SR2, PWR_SR2_VOSF))
 130:Drivers/STM32WLxx_HAL_Driver/Src/stm32wlxx_hal_pwr_ex.c ****       {
 131:Drivers/STM32WLxx_HAL_Driver/Src/stm32wlxx_hal_pwr_ex.c ****         return HAL_TIMEOUT;
 132:Drivers/STM32WLxx_HAL_Driver/Src/stm32wlxx_hal_pwr_ex.c ****       }
 133:Drivers/STM32WLxx_HAL_Driver/Src/stm32wlxx_hal_pwr_ex.c ****     }
 134:Drivers/STM32WLxx_HAL_Driver/Src/stm32wlxx_hal_pwr_ex.c ****   }
 135:Drivers/STM32WLxx_HAL_Driver/Src/stm32wlxx_hal_pwr_ex.c ****   else
 136:Drivers/STM32WLxx_HAL_Driver/Src/stm32wlxx_hal_pwr_ex.c ****   {
 137:Drivers/STM32WLxx_HAL_Driver/Src/stm32wlxx_hal_pwr_ex.c ****     if (READ_BIT(PWR->CR1, PWR_CR1_VOS) != PWR_REGULATOR_VOLTAGE_SCALE2)
  68              		.loc 1 137 5 is_stmt 1 view .LVU9
  69              		.loc 1 137 9 is_stmt 0 view .LVU10
  70 0006 1E4B     		ldr	r3, .L14
  71 0008 1B68     		ldr	r3, [r3]
  72 000a 03F4C063 		and	r3, r3, #1536
  73              		.loc 1 137 8 view .LVU11
  74 000e B3F5806F 		cmp	r3, #1024
  75 0012 33D0     		beq	.L12
 138:Drivers/STM32WLxx_HAL_Driver/Src/stm32wlxx_hal_pwr_ex.c ****     {
 139:Drivers/STM32WLxx_HAL_Driver/Src/stm32wlxx_hal_pwr_ex.c ****       /* Set Range 2 */
 140:Drivers/STM32WLxx_HAL_Driver/Src/stm32wlxx_hal_pwr_ex.c ****       MODIFY_REG(PWR->CR1, PWR_CR1_VOS, PWR_REGULATOR_VOLTAGE_SCALE2);
  76              		.loc 1 140 7 is_stmt 1 view .LVU12
  77 0014 1A4A     		ldr	r2, .L14
  78 0016 1368     		ldr	r3, [r2]
  79 0018 23F4C063 		bic	r3, r3, #1536
  80 001c 43F48063 		orr	r3, r3, #1024
  81 0020 1360     		str	r3, [r2]
 141:Drivers/STM32WLxx_HAL_Driver/Src/stm32wlxx_hal_pwr_ex.c ****       /* No need to wait for VOSF to be cleared for this transition */
 142:Drivers/STM32WLxx_HAL_Driver/Src/stm32wlxx_hal_pwr_ex.c ****     }
 143:Drivers/STM32WLxx_HAL_Driver/Src/stm32wlxx_hal_pwr_ex.c ****   }
 144:Drivers/STM32WLxx_HAL_Driver/Src/stm32wlxx_hal_pwr_ex.c **** 
 145:Drivers/STM32WLxx_HAL_Driver/Src/stm32wlxx_hal_pwr_ex.c ****   return HAL_OK;
  82              		.loc 1 145 10 is_stmt 0 view .LVU13
  83 0022 0020     		movs	r0, #0
  84              	.LVL1:
  85              		.loc 1 145 10 view .LVU14
  86 0024 7047     		bx	lr
ARM GAS  /tmp/ccyVxTym.s 			page 5


  87              	.LVL2:
  88              	.L13:
 118:Drivers/STM32WLxx_HAL_Driver/Src/stm32wlxx_hal_pwr_ex.c ****     {
  89              		.loc 1 118 5 is_stmt 1 view .LVU15
 118:Drivers/STM32WLxx_HAL_Driver/Src/stm32wlxx_hal_pwr_ex.c ****     {
  90              		.loc 1 118 9 is_stmt 0 view .LVU16
  91 0026 164B     		ldr	r3, .L14
  92 0028 1B68     		ldr	r3, [r3]
  93 002a 03F4C063 		and	r3, r3, #1536
 118:Drivers/STM32WLxx_HAL_Driver/Src/stm32wlxx_hal_pwr_ex.c ****     {
  94              		.loc 1 118 8 view .LVU17
  95 002e B3F5007F 		cmp	r3, #512
  96 0032 1FD0     		beq	.L10
 121:Drivers/STM32WLxx_HAL_Driver/Src/stm32wlxx_hal_pwr_ex.c **** 
  97              		.loc 1 121 7 is_stmt 1 view .LVU18
  98 0034 124A     		ldr	r2, .L14
  99 0036 1368     		ldr	r3, [r2]
 100 0038 23F4C063 		bic	r3, r3, #1536
 101 003c 43F40073 		orr	r3, r3, #512
 102 0040 1360     		str	r3, [r2]
 124:Drivers/STM32WLxx_HAL_Driver/Src/stm32wlxx_hal_pwr_ex.c ****       while ((HAL_IS_BIT_SET(PWR->SR2, PWR_SR2_VOSF)) && (wait_loop_index != 0U))
 103              		.loc 1 124 7 view .LVU19
 124:Drivers/STM32WLxx_HAL_Driver/Src/stm32wlxx_hal_pwr_ex.c ****       while ((HAL_IS_BIT_SET(PWR->SR2, PWR_SR2_VOSF)) && (wait_loop_index != 0U))
 104              		.loc 1 124 53 is_stmt 0 view .LVU20
 105 0042 104B     		ldr	r3, .L14+4
 106 0044 1B68     		ldr	r3, [r3]
 107 0046 3222     		movs	r2, #50
 108 0048 02FB03F3 		mul	r3, r2, r3
 124:Drivers/STM32WLxx_HAL_Driver/Src/stm32wlxx_hal_pwr_ex.c ****       while ((HAL_IS_BIT_SET(PWR->SR2, PWR_SR2_VOSF)) && (wait_loop_index != 0U))
 109              		.loc 1 124 23 view .LVU21
 110 004c 0E4A     		ldr	r2, .L14+8
 111 004e A2FB0323 		umull	r2, r3, r2, r3
 112 0052 9B0C     		lsrs	r3, r3, #18
 113              	.LVL3:
 125:Drivers/STM32WLxx_HAL_Driver/Src/stm32wlxx_hal_pwr_ex.c ****       {
 114              		.loc 1 125 7 is_stmt 1 view .LVU22
 125:Drivers/STM32WLxx_HAL_Driver/Src/stm32wlxx_hal_pwr_ex.c ****       {
 115              		.loc 1 125 13 is_stmt 0 view .LVU23
 116 0054 00E0     		b	.L7
 117              	.L9:
 127:Drivers/STM32WLxx_HAL_Driver/Src/stm32wlxx_hal_pwr_ex.c ****       }
 118              		.loc 1 127 9 is_stmt 1 view .LVU24
 127:Drivers/STM32WLxx_HAL_Driver/Src/stm32wlxx_hal_pwr_ex.c ****       }
 119              		.loc 1 127 24 is_stmt 0 view .LVU25
 120 0056 013B     		subs	r3, r3, #1
 121              	.LVL4:
 122              	.L7:
 125:Drivers/STM32WLxx_HAL_Driver/Src/stm32wlxx_hal_pwr_ex.c ****       {
 123              		.loc 1 125 13 is_stmt 1 view .LVU26
 125:Drivers/STM32WLxx_HAL_Driver/Src/stm32wlxx_hal_pwr_ex.c ****       {
 124              		.loc 1 125 15 is_stmt 0 view .LVU27
 125 0058 094A     		ldr	r2, .L14
 126 005a 5269     		ldr	r2, [r2, #20]
 125:Drivers/STM32WLxx_HAL_Driver/Src/stm32wlxx_hal_pwr_ex.c ****       {
 127              		.loc 1 125 13 view .LVU28
 128 005c 12F4806F 		tst	r2, #1024
 129 0060 01D0     		beq	.L8
ARM GAS  /tmp/ccyVxTym.s 			page 6


 125:Drivers/STM32WLxx_HAL_Driver/Src/stm32wlxx_hal_pwr_ex.c ****       {
 130              		.loc 1 125 55 discriminator 1 view .LVU29
 131 0062 002B     		cmp	r3, #0
 132 0064 F7D1     		bne	.L9
 133              	.L8:
 129:Drivers/STM32WLxx_HAL_Driver/Src/stm32wlxx_hal_pwr_ex.c ****       {
 134              		.loc 1 129 7 is_stmt 1 view .LVU30
 129:Drivers/STM32WLxx_HAL_Driver/Src/stm32wlxx_hal_pwr_ex.c ****       {
 135              		.loc 1 129 11 is_stmt 0 view .LVU31
 136 0066 064B     		ldr	r3, .L14
 137              	.LVL5:
 129:Drivers/STM32WLxx_HAL_Driver/Src/stm32wlxx_hal_pwr_ex.c ****       {
 138              		.loc 1 129 11 view .LVU32
 139 0068 5B69     		ldr	r3, [r3, #20]
 129:Drivers/STM32WLxx_HAL_Driver/Src/stm32wlxx_hal_pwr_ex.c ****       {
 140              		.loc 1 129 10 view .LVU33
 141 006a 13F4806F 		tst	r3, #1024
 142 006e 03D1     		bne	.L11
 143              		.loc 1 145 10 view .LVU34
 144 0070 0020     		movs	r0, #0
 145              	.LVL6:
 146              		.loc 1 145 10 view .LVU35
 147 0072 7047     		bx	lr
 148              	.LVL7:
 149              	.L10:
 150              		.loc 1 145 10 view .LVU36
 151 0074 0020     		movs	r0, #0
 152              	.LVL8:
 153              		.loc 1 145 10 view .LVU37
 154 0076 7047     		bx	lr
 155              	.LVL9:
 156              	.L11:
 131:Drivers/STM32WLxx_HAL_Driver/Src/stm32wlxx_hal_pwr_ex.c ****       }
 157              		.loc 1 131 16 view .LVU38
 158 0078 0320     		movs	r0, #3
 159              	.LVL10:
 131:Drivers/STM32WLxx_HAL_Driver/Src/stm32wlxx_hal_pwr_ex.c ****       }
 160              		.loc 1 131 16 view .LVU39
 161 007a 7047     		bx	lr
 162              	.LVL11:
 163              	.L12:
 164              		.loc 1 145 10 view .LVU40
 165 007c 0020     		movs	r0, #0
 166              	.LVL12:
 146:Drivers/STM32WLxx_HAL_Driver/Src/stm32wlxx_hal_pwr_ex.c **** }
 167              		.loc 1 146 1 view .LVU41
 168 007e 7047     		bx	lr
 169              	.L15:
 170              		.align	2
 171              	.L14:
 172 0080 00040058 		.word	1476396032
 173 0084 00000000 		.word	SystemCoreClock
 174 0088 83DE1B43 		.word	1125899907
 175              		.cfi_endproc
 176              	.LFE962:
 178              		.section	.text.HAL_PWREx_EnableBatteryCharging,"ax",%progbits
 179              		.align	1
ARM GAS  /tmp/ccyVxTym.s 			page 7


 180              		.global	HAL_PWREx_EnableBatteryCharging
 181              		.syntax unified
 182              		.thumb
 183              		.thumb_func
 184              		.fpu softvfp
 186              	HAL_PWREx_EnableBatteryCharging:
 187              	.LVL13:
 188              	.LFB963:
 147:Drivers/STM32WLxx_HAL_Driver/Src/stm32wlxx_hal_pwr_ex.c **** 
 148:Drivers/STM32WLxx_HAL_Driver/Src/stm32wlxx_hal_pwr_ex.c **** /****************************************************************************/
 149:Drivers/STM32WLxx_HAL_Driver/Src/stm32wlxx_hal_pwr_ex.c **** 
 150:Drivers/STM32WLxx_HAL_Driver/Src/stm32wlxx_hal_pwr_ex.c **** /**
 151:Drivers/STM32WLxx_HAL_Driver/Src/stm32wlxx_hal_pwr_ex.c ****   * @brief Enable battery charging.
 152:Drivers/STM32WLxx_HAL_Driver/Src/stm32wlxx_hal_pwr_ex.c ****   *        When VDD is present, charge the external battery on VBAT through an internal resistor.
 153:Drivers/STM32WLxx_HAL_Driver/Src/stm32wlxx_hal_pwr_ex.c ****   * @param ResistorSelection specifies the resistor impedance.
 154:Drivers/STM32WLxx_HAL_Driver/Src/stm32wlxx_hal_pwr_ex.c ****   *          This parameter can be one of the following values:
 155:Drivers/STM32WLxx_HAL_Driver/Src/stm32wlxx_hal_pwr_ex.c ****   *            @arg @ref PWR_BATTERY_CHARGING_RESISTOR_5     5 kOhms resistor
 156:Drivers/STM32WLxx_HAL_Driver/Src/stm32wlxx_hal_pwr_ex.c ****   *            @arg @ref PWR_BATTERY_CHARGING_RESISTOR_1_5 1.5 kOhms resistor
 157:Drivers/STM32WLxx_HAL_Driver/Src/stm32wlxx_hal_pwr_ex.c ****   * @retval None
 158:Drivers/STM32WLxx_HAL_Driver/Src/stm32wlxx_hal_pwr_ex.c ****   */
 159:Drivers/STM32WLxx_HAL_Driver/Src/stm32wlxx_hal_pwr_ex.c **** void HAL_PWREx_EnableBatteryCharging(uint32_t ResistorSelection)
 160:Drivers/STM32WLxx_HAL_Driver/Src/stm32wlxx_hal_pwr_ex.c **** {
 189              		.loc 1 160 1 is_stmt 1 view -0
 190              		.cfi_startproc
 191              		@ args = 0, pretend = 0, frame = 0
 192              		@ frame_needed = 0, uses_anonymous_args = 0
 193              		@ link register save eliminated.
 161:Drivers/STM32WLxx_HAL_Driver/Src/stm32wlxx_hal_pwr_ex.c ****   assert_param(IS_PWR_BATTERY_RESISTOR_SELECT(ResistorSelection));
 194              		.loc 1 161 3 view .LVU43
 162:Drivers/STM32WLxx_HAL_Driver/Src/stm32wlxx_hal_pwr_ex.c **** 
 163:Drivers/STM32WLxx_HAL_Driver/Src/stm32wlxx_hal_pwr_ex.c ****   /* Specify resistor selection */
 164:Drivers/STM32WLxx_HAL_Driver/Src/stm32wlxx_hal_pwr_ex.c ****   MODIFY_REG(PWR->CR4, PWR_CR4_VBRS, ResistorSelection);
 195              		.loc 1 164 3 view .LVU44
 196 0000 054A     		ldr	r2, .L17
 197 0002 D368     		ldr	r3, [r2, #12]
 198 0004 23F40073 		bic	r3, r3, #512
 199 0008 0343     		orrs	r3, r3, r0
 200 000a D360     		str	r3, [r2, #12]
 165:Drivers/STM32WLxx_HAL_Driver/Src/stm32wlxx_hal_pwr_ex.c **** 
 166:Drivers/STM32WLxx_HAL_Driver/Src/stm32wlxx_hal_pwr_ex.c ****   /* Enable battery charging */
 167:Drivers/STM32WLxx_HAL_Driver/Src/stm32wlxx_hal_pwr_ex.c ****   SET_BIT(PWR->CR4, PWR_CR4_VBE);
 201              		.loc 1 167 3 view .LVU45
 202 000c D368     		ldr	r3, [r2, #12]
 203 000e 43F48073 		orr	r3, r3, #256
 204 0012 D360     		str	r3, [r2, #12]
 168:Drivers/STM32WLxx_HAL_Driver/Src/stm32wlxx_hal_pwr_ex.c **** }
 205              		.loc 1 168 1 is_stmt 0 view .LVU46
 206 0014 7047     		bx	lr
 207              	.L18:
 208 0016 00BF     		.align	2
 209              	.L17:
 210 0018 00040058 		.word	1476396032
 211              		.cfi_endproc
 212              	.LFE963:
 214              		.section	.text.HAL_PWREx_DisableBatteryCharging,"ax",%progbits
 215              		.align	1
 216              		.global	HAL_PWREx_DisableBatteryCharging
ARM GAS  /tmp/ccyVxTym.s 			page 8


 217              		.syntax unified
 218              		.thumb
 219              		.thumb_func
 220              		.fpu softvfp
 222              	HAL_PWREx_DisableBatteryCharging:
 223              	.LFB964:
 169:Drivers/STM32WLxx_HAL_Driver/Src/stm32wlxx_hal_pwr_ex.c **** 
 170:Drivers/STM32WLxx_HAL_Driver/Src/stm32wlxx_hal_pwr_ex.c **** /**
 171:Drivers/STM32WLxx_HAL_Driver/Src/stm32wlxx_hal_pwr_ex.c ****   * @brief Disable battery charging.
 172:Drivers/STM32WLxx_HAL_Driver/Src/stm32wlxx_hal_pwr_ex.c ****   * @retval None
 173:Drivers/STM32WLxx_HAL_Driver/Src/stm32wlxx_hal_pwr_ex.c ****   */
 174:Drivers/STM32WLxx_HAL_Driver/Src/stm32wlxx_hal_pwr_ex.c **** void HAL_PWREx_DisableBatteryCharging(void)
 175:Drivers/STM32WLxx_HAL_Driver/Src/stm32wlxx_hal_pwr_ex.c **** {
 224              		.loc 1 175 1 is_stmt 1 view -0
 225              		.cfi_startproc
 226              		@ args = 0, pretend = 0, frame = 0
 227              		@ frame_needed = 0, uses_anonymous_args = 0
 228              		@ link register save eliminated.
 176:Drivers/STM32WLxx_HAL_Driver/Src/stm32wlxx_hal_pwr_ex.c ****   CLEAR_BIT(PWR->CR4, PWR_CR4_VBE);
 229              		.loc 1 176 3 view .LVU48
 230 0000 024A     		ldr	r2, .L20
 231 0002 D368     		ldr	r3, [r2, #12]
 232 0004 23F48073 		bic	r3, r3, #256
 233 0008 D360     		str	r3, [r2, #12]
 177:Drivers/STM32WLxx_HAL_Driver/Src/stm32wlxx_hal_pwr_ex.c **** }
 234              		.loc 1 177 1 is_stmt 0 view .LVU49
 235 000a 7047     		bx	lr
 236              	.L21:
 237              		.align	2
 238              	.L20:
 239 000c 00040058 		.word	1476396032
 240              		.cfi_endproc
 241              	.LFE964:
 243              		.section	.text.HAL_PWREx_EnableInternalWakeUpLine,"ax",%progbits
 244              		.align	1
 245              		.global	HAL_PWREx_EnableInternalWakeUpLine
 246              		.syntax unified
 247              		.thumb
 248              		.thumb_func
 249              		.fpu softvfp
 251              	HAL_PWREx_EnableInternalWakeUpLine:
 252              	.LFB965:
 178:Drivers/STM32WLxx_HAL_Driver/Src/stm32wlxx_hal_pwr_ex.c **** 
 179:Drivers/STM32WLxx_HAL_Driver/Src/stm32wlxx_hal_pwr_ex.c **** /****************************************************************************/
 180:Drivers/STM32WLxx_HAL_Driver/Src/stm32wlxx_hal_pwr_ex.c **** 
 181:Drivers/STM32WLxx_HAL_Driver/Src/stm32wlxx_hal_pwr_ex.c **** /**
 182:Drivers/STM32WLxx_HAL_Driver/Src/stm32wlxx_hal_pwr_ex.c ****   * @brief Enable Internal Wake-up Line.
 183:Drivers/STM32WLxx_HAL_Driver/Src/stm32wlxx_hal_pwr_ex.c ****   * @retval None
 184:Drivers/STM32WLxx_HAL_Driver/Src/stm32wlxx_hal_pwr_ex.c ****   */
 185:Drivers/STM32WLxx_HAL_Driver/Src/stm32wlxx_hal_pwr_ex.c **** void HAL_PWREx_EnableInternalWakeUpLine(void)
 186:Drivers/STM32WLxx_HAL_Driver/Src/stm32wlxx_hal_pwr_ex.c **** {
 253              		.loc 1 186 1 is_stmt 1 view -0
 254              		.cfi_startproc
 255              		@ args = 0, pretend = 0, frame = 0
 256              		@ frame_needed = 0, uses_anonymous_args = 0
 257              		@ link register save eliminated.
 187:Drivers/STM32WLxx_HAL_Driver/Src/stm32wlxx_hal_pwr_ex.c **** #ifdef CORE_CM0PLUS
ARM GAS  /tmp/ccyVxTym.s 			page 9


 188:Drivers/STM32WLxx_HAL_Driver/Src/stm32wlxx_hal_pwr_ex.c ****   SET_BIT(PWR->C2CR3, PWR_C2CR3_EIWUL);
 189:Drivers/STM32WLxx_HAL_Driver/Src/stm32wlxx_hal_pwr_ex.c **** #else
 190:Drivers/STM32WLxx_HAL_Driver/Src/stm32wlxx_hal_pwr_ex.c ****   SET_BIT(PWR->CR3, PWR_CR3_EIWUL);
 258              		.loc 1 190 3 view .LVU51
 259 0000 024A     		ldr	r2, .L23
 260 0002 9368     		ldr	r3, [r2, #8]
 261 0004 43F40043 		orr	r3, r3, #32768
 262 0008 9360     		str	r3, [r2, #8]
 191:Drivers/STM32WLxx_HAL_Driver/Src/stm32wlxx_hal_pwr_ex.c **** #endif
 192:Drivers/STM32WLxx_HAL_Driver/Src/stm32wlxx_hal_pwr_ex.c **** }
 263              		.loc 1 192 1 is_stmt 0 view .LVU52
 264 000a 7047     		bx	lr
 265              	.L24:
 266              		.align	2
 267              	.L23:
 268 000c 00040058 		.word	1476396032
 269              		.cfi_endproc
 270              	.LFE965:
 272              		.section	.text.HAL_PWREx_DisableInternalWakeUpLine,"ax",%progbits
 273              		.align	1
 274              		.global	HAL_PWREx_DisableInternalWakeUpLine
 275              		.syntax unified
 276              		.thumb
 277              		.thumb_func
 278              		.fpu softvfp
 280              	HAL_PWREx_DisableInternalWakeUpLine:
 281              	.LFB966:
 193:Drivers/STM32WLxx_HAL_Driver/Src/stm32wlxx_hal_pwr_ex.c **** 
 194:Drivers/STM32WLxx_HAL_Driver/Src/stm32wlxx_hal_pwr_ex.c **** /**
 195:Drivers/STM32WLxx_HAL_Driver/Src/stm32wlxx_hal_pwr_ex.c ****   * @brief Disable Internal Wake-up Line.
 196:Drivers/STM32WLxx_HAL_Driver/Src/stm32wlxx_hal_pwr_ex.c ****   * @retval None
 197:Drivers/STM32WLxx_HAL_Driver/Src/stm32wlxx_hal_pwr_ex.c ****   */
 198:Drivers/STM32WLxx_HAL_Driver/Src/stm32wlxx_hal_pwr_ex.c **** void HAL_PWREx_DisableInternalWakeUpLine(void)
 199:Drivers/STM32WLxx_HAL_Driver/Src/stm32wlxx_hal_pwr_ex.c **** {
 282              		.loc 1 199 1 is_stmt 1 view -0
 283              		.cfi_startproc
 284              		@ args = 0, pretend = 0, frame = 0
 285              		@ frame_needed = 0, uses_anonymous_args = 0
 286              		@ link register save eliminated.
 200:Drivers/STM32WLxx_HAL_Driver/Src/stm32wlxx_hal_pwr_ex.c **** #ifdef CORE_CM0PLUS
 201:Drivers/STM32WLxx_HAL_Driver/Src/stm32wlxx_hal_pwr_ex.c ****   CLEAR_BIT(PWR->C2CR3, PWR_C2CR3_EIWUL);
 202:Drivers/STM32WLxx_HAL_Driver/Src/stm32wlxx_hal_pwr_ex.c **** #else
 203:Drivers/STM32WLxx_HAL_Driver/Src/stm32wlxx_hal_pwr_ex.c ****   CLEAR_BIT(PWR->CR3, PWR_CR3_EIWUL);
 287              		.loc 1 203 3 view .LVU54
 288 0000 024A     		ldr	r2, .L26
 289 0002 9368     		ldr	r3, [r2, #8]
 290 0004 23F40043 		bic	r3, r3, #32768
 291 0008 9360     		str	r3, [r2, #8]
 204:Drivers/STM32WLxx_HAL_Driver/Src/stm32wlxx_hal_pwr_ex.c **** #endif
 205:Drivers/STM32WLxx_HAL_Driver/Src/stm32wlxx_hal_pwr_ex.c **** }
 292              		.loc 1 205 1 is_stmt 0 view .LVU55
 293 000a 7047     		bx	lr
 294              	.L27:
 295              		.align	2
 296              	.L26:
 297 000c 00040058 		.word	1476396032
 298              		.cfi_endproc
ARM GAS  /tmp/ccyVxTym.s 			page 10


 299              	.LFE966:
 301              		.section	.text.HAL_PWREx_SetRadioBusyPolarity,"ax",%progbits
 302              		.align	1
 303              		.global	HAL_PWREx_SetRadioBusyPolarity
 304              		.syntax unified
 305              		.thumb
 306              		.thumb_func
 307              		.fpu softvfp
 309              	HAL_PWREx_SetRadioBusyPolarity:
 310              	.LVL14:
 311              	.LFB967:
 206:Drivers/STM32WLxx_HAL_Driver/Src/stm32wlxx_hal_pwr_ex.c **** 
 207:Drivers/STM32WLxx_HAL_Driver/Src/stm32wlxx_hal_pwr_ex.c **** /**
 208:Drivers/STM32WLxx_HAL_Driver/Src/stm32wlxx_hal_pwr_ex.c ****   * @brief  Set radio busy trigger polarity.
 209:Drivers/STM32WLxx_HAL_Driver/Src/stm32wlxx_hal_pwr_ex.c ****   * @param  RadioBusyPolarity This parameter can be one of the following values:
 210:Drivers/STM32WLxx_HAL_Driver/Src/stm32wlxx_hal_pwr_ex.c ****   *         @arg @ref PWR_RADIO_BUSY_POLARITY_RISING
 211:Drivers/STM32WLxx_HAL_Driver/Src/stm32wlxx_hal_pwr_ex.c ****   *         @arg @ref PWR_RADIO_BUSY_POLARITY_FALLING
 212:Drivers/STM32WLxx_HAL_Driver/Src/stm32wlxx_hal_pwr_ex.c ****   * @retval HAL Status
 213:Drivers/STM32WLxx_HAL_Driver/Src/stm32wlxx_hal_pwr_ex.c ****   */
 214:Drivers/STM32WLxx_HAL_Driver/Src/stm32wlxx_hal_pwr_ex.c **** void HAL_PWREx_SetRadioBusyPolarity(uint32_t RadioBusyPolarity)
 215:Drivers/STM32WLxx_HAL_Driver/Src/stm32wlxx_hal_pwr_ex.c **** {
 312              		.loc 1 215 1 is_stmt 1 view -0
 313              		.cfi_startproc
 314              		@ args = 0, pretend = 0, frame = 0
 315              		@ frame_needed = 0, uses_anonymous_args = 0
 316              		@ link register save eliminated.
 216:Drivers/STM32WLxx_HAL_Driver/Src/stm32wlxx_hal_pwr_ex.c ****   /* Check the parameters */
 217:Drivers/STM32WLxx_HAL_Driver/Src/stm32wlxx_hal_pwr_ex.c ****   assert_param(IS_RADIO_BUSY_POLARITY(RadioBusyPolarity));
 317              		.loc 1 217 3 view .LVU57
 218:Drivers/STM32WLxx_HAL_Driver/Src/stm32wlxx_hal_pwr_ex.c **** 
 219:Drivers/STM32WLxx_HAL_Driver/Src/stm32wlxx_hal_pwr_ex.c ****   LL_PWR_SetRadioBusyPolarity(RadioBusyPolarity);
 318              		.loc 1 219 3 view .LVU58
 319              	.LBB42:
 320              	.LBI42:
 321              		.file 2 "Drivers/STM32WLxx_HAL_Driver/Inc/stm32wlxx_ll_pwr.h"
   1:Drivers/STM32WLxx_HAL_Driver/Inc/stm32wlxx_ll_pwr.h **** /**
   2:Drivers/STM32WLxx_HAL_Driver/Inc/stm32wlxx_ll_pwr.h ****   ******************************************************************************
   3:Drivers/STM32WLxx_HAL_Driver/Inc/stm32wlxx_ll_pwr.h ****   * @file    stm32wlxx_ll_pwr.h
   4:Drivers/STM32WLxx_HAL_Driver/Inc/stm32wlxx_ll_pwr.h ****   * @author  MCD Application Team
   5:Drivers/STM32WLxx_HAL_Driver/Inc/stm32wlxx_ll_pwr.h ****   * @brief   Header file of PWR LL module.
   6:Drivers/STM32WLxx_HAL_Driver/Inc/stm32wlxx_ll_pwr.h ****   ******************************************************************************
   7:Drivers/STM32WLxx_HAL_Driver/Inc/stm32wlxx_ll_pwr.h ****   * @attention
   8:Drivers/STM32WLxx_HAL_Driver/Inc/stm32wlxx_ll_pwr.h ****   *
   9:Drivers/STM32WLxx_HAL_Driver/Inc/stm32wlxx_ll_pwr.h ****   * <h2><center>&copy; Copyright (c) 2020 STMicroelectronics.
  10:Drivers/STM32WLxx_HAL_Driver/Inc/stm32wlxx_ll_pwr.h ****   * All rights reserved.</center></h2>
  11:Drivers/STM32WLxx_HAL_Driver/Inc/stm32wlxx_ll_pwr.h ****   *
  12:Drivers/STM32WLxx_HAL_Driver/Inc/stm32wlxx_ll_pwr.h ****   * This software component is licensed by ST under BSD 3-Clause license,
  13:Drivers/STM32WLxx_HAL_Driver/Inc/stm32wlxx_ll_pwr.h ****   * the "License"; You may not use this file except in compliance with the
  14:Drivers/STM32WLxx_HAL_Driver/Inc/stm32wlxx_ll_pwr.h ****   * License. You may obtain a copy of the License at:
  15:Drivers/STM32WLxx_HAL_Driver/Inc/stm32wlxx_ll_pwr.h ****   *                        opensource.org/licenses/BSD-3-Clause
  16:Drivers/STM32WLxx_HAL_Driver/Inc/stm32wlxx_ll_pwr.h ****   *
  17:Drivers/STM32WLxx_HAL_Driver/Inc/stm32wlxx_ll_pwr.h ****   ******************************************************************************
  18:Drivers/STM32WLxx_HAL_Driver/Inc/stm32wlxx_ll_pwr.h ****   */
  19:Drivers/STM32WLxx_HAL_Driver/Inc/stm32wlxx_ll_pwr.h **** 
  20:Drivers/STM32WLxx_HAL_Driver/Inc/stm32wlxx_ll_pwr.h **** /* Define to prevent recursive inclusion -------------------------------------*/
  21:Drivers/STM32WLxx_HAL_Driver/Inc/stm32wlxx_ll_pwr.h **** #ifndef __STM32WLxx_LL_PWR_H
  22:Drivers/STM32WLxx_HAL_Driver/Inc/stm32wlxx_ll_pwr.h **** #define __STM32WLxx_LL_PWR_H
ARM GAS  /tmp/ccyVxTym.s 			page 11


  23:Drivers/STM32WLxx_HAL_Driver/Inc/stm32wlxx_ll_pwr.h **** 
  24:Drivers/STM32WLxx_HAL_Driver/Inc/stm32wlxx_ll_pwr.h **** #ifdef __cplusplus
  25:Drivers/STM32WLxx_HAL_Driver/Inc/stm32wlxx_ll_pwr.h **** extern "C" {
  26:Drivers/STM32WLxx_HAL_Driver/Inc/stm32wlxx_ll_pwr.h **** #endif
  27:Drivers/STM32WLxx_HAL_Driver/Inc/stm32wlxx_ll_pwr.h **** 
  28:Drivers/STM32WLxx_HAL_Driver/Inc/stm32wlxx_ll_pwr.h **** /* Includes ------------------------------------------------------------------*/
  29:Drivers/STM32WLxx_HAL_Driver/Inc/stm32wlxx_ll_pwr.h **** #include "stm32wlxx.h"
  30:Drivers/STM32WLxx_HAL_Driver/Inc/stm32wlxx_ll_pwr.h **** 
  31:Drivers/STM32WLxx_HAL_Driver/Inc/stm32wlxx_ll_pwr.h **** /** @addtogroup STM32WLxx_LL_Driver
  32:Drivers/STM32WLxx_HAL_Driver/Inc/stm32wlxx_ll_pwr.h ****   * @{
  33:Drivers/STM32WLxx_HAL_Driver/Inc/stm32wlxx_ll_pwr.h ****   */
  34:Drivers/STM32WLxx_HAL_Driver/Inc/stm32wlxx_ll_pwr.h **** 
  35:Drivers/STM32WLxx_HAL_Driver/Inc/stm32wlxx_ll_pwr.h **** #if defined(PWR)
  36:Drivers/STM32WLxx_HAL_Driver/Inc/stm32wlxx_ll_pwr.h **** 
  37:Drivers/STM32WLxx_HAL_Driver/Inc/stm32wlxx_ll_pwr.h **** /** @defgroup PWR_LL PWR
  38:Drivers/STM32WLxx_HAL_Driver/Inc/stm32wlxx_ll_pwr.h ****   * @{
  39:Drivers/STM32WLxx_HAL_Driver/Inc/stm32wlxx_ll_pwr.h ****   */
  40:Drivers/STM32WLxx_HAL_Driver/Inc/stm32wlxx_ll_pwr.h **** 
  41:Drivers/STM32WLxx_HAL_Driver/Inc/stm32wlxx_ll_pwr.h **** /* Private types -------------------------------------------------------------*/
  42:Drivers/STM32WLxx_HAL_Driver/Inc/stm32wlxx_ll_pwr.h **** /* Private variables ---------------------------------------------------------*/
  43:Drivers/STM32WLxx_HAL_Driver/Inc/stm32wlxx_ll_pwr.h **** 
  44:Drivers/STM32WLxx_HAL_Driver/Inc/stm32wlxx_ll_pwr.h **** /* Private constants ---------------------------------------------------------*/
  45:Drivers/STM32WLxx_HAL_Driver/Inc/stm32wlxx_ll_pwr.h **** /** @defgroup PWR_LL_Private_Constants PWR Private Constants
  46:Drivers/STM32WLxx_HAL_Driver/Inc/stm32wlxx_ll_pwr.h ****   * @{
  47:Drivers/STM32WLxx_HAL_Driver/Inc/stm32wlxx_ll_pwr.h ****   */
  48:Drivers/STM32WLxx_HAL_Driver/Inc/stm32wlxx_ll_pwr.h **** #define PWR_FLASH_POWER_MODE_UNLOCK_CODE  (0x0000C1B0UL)
  49:Drivers/STM32WLxx_HAL_Driver/Inc/stm32wlxx_ll_pwr.h **** /**
  50:Drivers/STM32WLxx_HAL_Driver/Inc/stm32wlxx_ll_pwr.h ****   * @}
  51:Drivers/STM32WLxx_HAL_Driver/Inc/stm32wlxx_ll_pwr.h ****   */
  52:Drivers/STM32WLxx_HAL_Driver/Inc/stm32wlxx_ll_pwr.h **** 
  53:Drivers/STM32WLxx_HAL_Driver/Inc/stm32wlxx_ll_pwr.h **** /* Private macros ------------------------------------------------------------*/
  54:Drivers/STM32WLxx_HAL_Driver/Inc/stm32wlxx_ll_pwr.h **** 
  55:Drivers/STM32WLxx_HAL_Driver/Inc/stm32wlxx_ll_pwr.h **** /* Exported types ------------------------------------------------------------*/
  56:Drivers/STM32WLxx_HAL_Driver/Inc/stm32wlxx_ll_pwr.h **** /* Exported constants --------------------------------------------------------*/
  57:Drivers/STM32WLxx_HAL_Driver/Inc/stm32wlxx_ll_pwr.h **** /** @defgroup PWR_LL_Exported_Constants PWR Exported Constants
  58:Drivers/STM32WLxx_HAL_Driver/Inc/stm32wlxx_ll_pwr.h ****   * @{
  59:Drivers/STM32WLxx_HAL_Driver/Inc/stm32wlxx_ll_pwr.h ****   */
  60:Drivers/STM32WLxx_HAL_Driver/Inc/stm32wlxx_ll_pwr.h **** 
  61:Drivers/STM32WLxx_HAL_Driver/Inc/stm32wlxx_ll_pwr.h **** /** @defgroup PWR_LL_EC_CLEAR_FLAG Clear Flags Defines
  62:Drivers/STM32WLxx_HAL_Driver/Inc/stm32wlxx_ll_pwr.h ****   * @brief    Flags defines which can be used with LL_PWR_WriteReg function
  63:Drivers/STM32WLxx_HAL_Driver/Inc/stm32wlxx_ll_pwr.h ****   * @{
  64:Drivers/STM32WLxx_HAL_Driver/Inc/stm32wlxx_ll_pwr.h ****   */
  65:Drivers/STM32WLxx_HAL_Driver/Inc/stm32wlxx_ll_pwr.h **** #define LL_PWR_SCR_CWUF                    PWR_SCR_CWUF
  66:Drivers/STM32WLxx_HAL_Driver/Inc/stm32wlxx_ll_pwr.h **** #define LL_PWR_SCR_CWUF3                   PWR_SCR_CWUF3
  67:Drivers/STM32WLxx_HAL_Driver/Inc/stm32wlxx_ll_pwr.h **** #define LL_PWR_SCR_CWUF2                   PWR_SCR_CWUF2
  68:Drivers/STM32WLxx_HAL_Driver/Inc/stm32wlxx_ll_pwr.h **** #define LL_PWR_SCR_CWUF1                   PWR_SCR_CWUF1
  69:Drivers/STM32WLxx_HAL_Driver/Inc/stm32wlxx_ll_pwr.h **** #define LL_PWR_SCR_CWPVDF                  PWR_SCR_CWPVDF
  70:Drivers/STM32WLxx_HAL_Driver/Inc/stm32wlxx_ll_pwr.h **** #define LL_PWR_SCR_CWRFBUSYF               PWR_SCR_CWRFBUSYF
  71:Drivers/STM32WLxx_HAL_Driver/Inc/stm32wlxx_ll_pwr.h **** #define LL_PWR_SCR_CC2HF                   PWR_SCR_CC2HF
  72:Drivers/STM32WLxx_HAL_Driver/Inc/stm32wlxx_ll_pwr.h **** #define LL_PWR_EXTSCR_C2CSSF               PWR_EXTSCR_C2CSSF
  73:Drivers/STM32WLxx_HAL_Driver/Inc/stm32wlxx_ll_pwr.h **** #define LL_PWR_EXTSCR_C1CSSF               PWR_EXTSCR_C1CSSF
  74:Drivers/STM32WLxx_HAL_Driver/Inc/stm32wlxx_ll_pwr.h **** /**
  75:Drivers/STM32WLxx_HAL_Driver/Inc/stm32wlxx_ll_pwr.h ****   * @}
  76:Drivers/STM32WLxx_HAL_Driver/Inc/stm32wlxx_ll_pwr.h ****   */
  77:Drivers/STM32WLxx_HAL_Driver/Inc/stm32wlxx_ll_pwr.h **** 
  78:Drivers/STM32WLxx_HAL_Driver/Inc/stm32wlxx_ll_pwr.h **** /** @defgroup PWR_LL_EC_GET_FLAG Get Flags Defines
  79:Drivers/STM32WLxx_HAL_Driver/Inc/stm32wlxx_ll_pwr.h ****   * @brief    Flags defines which can be used with LL_PWR_ReadReg function
ARM GAS  /tmp/ccyVxTym.s 			page 12


  80:Drivers/STM32WLxx_HAL_Driver/Inc/stm32wlxx_ll_pwr.h ****   * @{
  81:Drivers/STM32WLxx_HAL_Driver/Inc/stm32wlxx_ll_pwr.h ****   */
  82:Drivers/STM32WLxx_HAL_Driver/Inc/stm32wlxx_ll_pwr.h **** #define LL_PWR_SR1_WUFI                    PWR_SR1_WUFI
  83:Drivers/STM32WLxx_HAL_Driver/Inc/stm32wlxx_ll_pwr.h **** #define LL_PWR_SR1_WUF3                    PWR_SR1_WUF3
  84:Drivers/STM32WLxx_HAL_Driver/Inc/stm32wlxx_ll_pwr.h **** #define LL_PWR_SR1_WUF2                    PWR_SR1_WUF2
  85:Drivers/STM32WLxx_HAL_Driver/Inc/stm32wlxx_ll_pwr.h **** #define LL_PWR_SR1_WUF1                    PWR_SR1_WUF1
  86:Drivers/STM32WLxx_HAL_Driver/Inc/stm32wlxx_ll_pwr.h **** #define LL_PWR_SR1_WPVDF                   PWR_SR1_WPVDF
  87:Drivers/STM32WLxx_HAL_Driver/Inc/stm32wlxx_ll_pwr.h **** 
  88:Drivers/STM32WLxx_HAL_Driver/Inc/stm32wlxx_ll_pwr.h **** #define LL_PWR_SR2_LDORDY                  PWR_SR2_LDORDY
  89:Drivers/STM32WLxx_HAL_Driver/Inc/stm32wlxx_ll_pwr.h **** #define LL_PWR_SR2_PVMO3                   PWR_SR2_PVMO3
  90:Drivers/STM32WLxx_HAL_Driver/Inc/stm32wlxx_ll_pwr.h **** #define LL_PWR_SR2_PVDO                    PWR_SR2_PVDO
  91:Drivers/STM32WLxx_HAL_Driver/Inc/stm32wlxx_ll_pwr.h **** #define LL_PWR_SR2_RFEOL                   PWR_SR2_RFEOLF
  92:Drivers/STM32WLxx_HAL_Driver/Inc/stm32wlxx_ll_pwr.h **** #define LL_PWR_SR2_VOSF                    PWR_SR2_VOSF
  93:Drivers/STM32WLxx_HAL_Driver/Inc/stm32wlxx_ll_pwr.h **** #define LL_PWR_SR2_REGLPF                  PWR_SR2_REGLPF
  94:Drivers/STM32WLxx_HAL_Driver/Inc/stm32wlxx_ll_pwr.h **** #define LL_PWR_SR2_REGLPS                  PWR_SR2_REGLPS
  95:Drivers/STM32WLxx_HAL_Driver/Inc/stm32wlxx_ll_pwr.h **** #define LL_PWR_SR2_REGMRS                  PWR_SR2_REGMRS
  96:Drivers/STM32WLxx_HAL_Driver/Inc/stm32wlxx_ll_pwr.h **** 
  97:Drivers/STM32WLxx_HAL_Driver/Inc/stm32wlxx_ll_pwr.h **** /* SMPS flags */
  98:Drivers/STM32WLxx_HAL_Driver/Inc/stm32wlxx_ll_pwr.h **** #define LL_PWR_SR2_SMPSRDY                 PWR_SR2_SMPSRDY
  99:Drivers/STM32WLxx_HAL_Driver/Inc/stm32wlxx_ll_pwr.h **** 
 100:Drivers/STM32WLxx_HAL_Driver/Inc/stm32wlxx_ll_pwr.h **** /* Radio flags */
 101:Drivers/STM32WLxx_HAL_Driver/Inc/stm32wlxx_ll_pwr.h **** #define LL_PWR_SR1_WRFBUSY                 PWR_SR1_WRFBUSYF   /* Radio busy flag for wake-up and in
 102:Drivers/STM32WLxx_HAL_Driver/Inc/stm32wlxx_ll_pwr.h **** #define LL_PWR_SR2_RFBUSYS                 PWR_SR2_RFBUSYS    /* Radio busy signal flag (current st
 103:Drivers/STM32WLxx_HAL_Driver/Inc/stm32wlxx_ll_pwr.h **** #define LL_PWR_SR2_RFBUSYMS                PWR_SR2_RFBUSYMS   /* Radio busy masked signal flag (cur
 104:Drivers/STM32WLxx_HAL_Driver/Inc/stm32wlxx_ll_pwr.h **** 
 105:Drivers/STM32WLxx_HAL_Driver/Inc/stm32wlxx_ll_pwr.h **** /* Multicore flags */
 106:Drivers/STM32WLxx_HAL_Driver/Inc/stm32wlxx_ll_pwr.h **** #define LL_PWR_EXTSCR_C1SBF                PWR_EXTSCR_C1SBF    /* System Standby flag for CPU1 */
 107:Drivers/STM32WLxx_HAL_Driver/Inc/stm32wlxx_ll_pwr.h **** #define LL_PWR_EXTSCR_C1STOP2F             PWR_EXTSCR_C1STOP2F /* System Stop 2 flag for CPU1 */
 108:Drivers/STM32WLxx_HAL_Driver/Inc/stm32wlxx_ll_pwr.h **** #define LL_PWR_EXTSCR_C1STOPF              PWR_EXTSCR_C1STOPF  /* System Stop 0 or stop 1 flag for 
 109:Drivers/STM32WLxx_HAL_Driver/Inc/stm32wlxx_ll_pwr.h **** #define LL_PWR_EXTSCR_C1DS                 PWR_EXTSCR_C1DS     /* CPU1 deepsleep mode */
 110:Drivers/STM32WLxx_HAL_Driver/Inc/stm32wlxx_ll_pwr.h **** #if defined(DUAL_CORE)
 111:Drivers/STM32WLxx_HAL_Driver/Inc/stm32wlxx_ll_pwr.h **** #define LL_PWR_EXTSCR_C2SBF                PWR_EXTSCR_C2SBF    /* System Standby flag for CPU2 */
 112:Drivers/STM32WLxx_HAL_Driver/Inc/stm32wlxx_ll_pwr.h **** #define LL_PWR_EXTSCR_C2STOP2F             PWR_EXTSCR_C2STOP2F /* System Stop 2 flag for CPU2 */
 113:Drivers/STM32WLxx_HAL_Driver/Inc/stm32wlxx_ll_pwr.h **** #define LL_PWR_EXTSCR_C2STOPF              PWR_EXTSCR_C2STOPF  /* System Stop 0 or stop 1 flag for 
 114:Drivers/STM32WLxx_HAL_Driver/Inc/stm32wlxx_ll_pwr.h **** #define LL_PWR_EXTSCR_C2DS                 PWR_EXTSCR_C2DS     /* CPU2 deepsleep mode */
 115:Drivers/STM32WLxx_HAL_Driver/Inc/stm32wlxx_ll_pwr.h **** #define LL_PWR_SR2_C2BOOTS                 PWR_SR2_C2BOOTS     /* CPU2 boot request source informat
 116:Drivers/STM32WLxx_HAL_Driver/Inc/stm32wlxx_ll_pwr.h **** #define LL_PWR_SR1_C2HF                    PWR_SR1_C2HF        /* CPU2 hold interrupt flag */
 117:Drivers/STM32WLxx_HAL_Driver/Inc/stm32wlxx_ll_pwr.h **** #endif
 118:Drivers/STM32WLxx_HAL_Driver/Inc/stm32wlxx_ll_pwr.h **** /**
 119:Drivers/STM32WLxx_HAL_Driver/Inc/stm32wlxx_ll_pwr.h ****   * @}
 120:Drivers/STM32WLxx_HAL_Driver/Inc/stm32wlxx_ll_pwr.h ****   */
 121:Drivers/STM32WLxx_HAL_Driver/Inc/stm32wlxx_ll_pwr.h **** 
 122:Drivers/STM32WLxx_HAL_Driver/Inc/stm32wlxx_ll_pwr.h **** /** @defgroup PWR_LL_EC_REGU_VOLTAGE REGU VOLTAGE
 123:Drivers/STM32WLxx_HAL_Driver/Inc/stm32wlxx_ll_pwr.h ****   * @{
 124:Drivers/STM32WLxx_HAL_Driver/Inc/stm32wlxx_ll_pwr.h ****   */
 125:Drivers/STM32WLxx_HAL_Driver/Inc/stm32wlxx_ll_pwr.h **** #define LL_PWR_REGU_VOLTAGE_SCALE1         (PWR_CR1_VOS_0) /* Regulator voltage output range 1 mode
 126:Drivers/STM32WLxx_HAL_Driver/Inc/stm32wlxx_ll_pwr.h **** #define LL_PWR_REGU_VOLTAGE_SCALE2         (PWR_CR1_VOS_1) /* Regulator voltage output range 2 mode
 127:Drivers/STM32WLxx_HAL_Driver/Inc/stm32wlxx_ll_pwr.h **** /**
 128:Drivers/STM32WLxx_HAL_Driver/Inc/stm32wlxx_ll_pwr.h ****   * @}
 129:Drivers/STM32WLxx_HAL_Driver/Inc/stm32wlxx_ll_pwr.h ****   */
 130:Drivers/STM32WLxx_HAL_Driver/Inc/stm32wlxx_ll_pwr.h **** 
 131:Drivers/STM32WLxx_HAL_Driver/Inc/stm32wlxx_ll_pwr.h **** /** @defgroup PWR_LL_EC_MODE_PWR MODE PWR
 132:Drivers/STM32WLxx_HAL_Driver/Inc/stm32wlxx_ll_pwr.h ****   * @{
 133:Drivers/STM32WLxx_HAL_Driver/Inc/stm32wlxx_ll_pwr.h ****   */
 134:Drivers/STM32WLxx_HAL_Driver/Inc/stm32wlxx_ll_pwr.h **** #define LL_PWR_MODE_STOP0                  (0x000000000UL)
 135:Drivers/STM32WLxx_HAL_Driver/Inc/stm32wlxx_ll_pwr.h **** #define LL_PWR_MODE_STOP1                  (PWR_CR1_LPMS_0)
 136:Drivers/STM32WLxx_HAL_Driver/Inc/stm32wlxx_ll_pwr.h **** #define LL_PWR_MODE_STOP2                  (PWR_CR1_LPMS_1)
ARM GAS  /tmp/ccyVxTym.s 			page 13


 137:Drivers/STM32WLxx_HAL_Driver/Inc/stm32wlxx_ll_pwr.h **** #define LL_PWR_MODE_STANDBY                (PWR_CR1_LPMS_1 | PWR_CR1_LPMS_0)
 138:Drivers/STM32WLxx_HAL_Driver/Inc/stm32wlxx_ll_pwr.h **** #define LL_PWR_MODE_SHUTDOWN               (PWR_CR1_LPMS_2 | PWR_CR1_LPMS_1 | PWR_CR1_LPMS_0)
 139:Drivers/STM32WLxx_HAL_Driver/Inc/stm32wlxx_ll_pwr.h **** /**
 140:Drivers/STM32WLxx_HAL_Driver/Inc/stm32wlxx_ll_pwr.h ****   * @}
 141:Drivers/STM32WLxx_HAL_Driver/Inc/stm32wlxx_ll_pwr.h ****   */
 142:Drivers/STM32WLxx_HAL_Driver/Inc/stm32wlxx_ll_pwr.h **** 
 143:Drivers/STM32WLxx_HAL_Driver/Inc/stm32wlxx_ll_pwr.h **** /** @defgroup PWR_LL_EC_FLASH_LPRUN_POWER_DOWN_MODE Flash power-down mode during low-power run mode
 144:Drivers/STM32WLxx_HAL_Driver/Inc/stm32wlxx_ll_pwr.h ****   * @{
 145:Drivers/STM32WLxx_HAL_Driver/Inc/stm32wlxx_ll_pwr.h ****   */
 146:Drivers/STM32WLxx_HAL_Driver/Inc/stm32wlxx_ll_pwr.h **** #define LL_PWR_FLASH_LPRUN_MODE_IDLE       (0x000000000UL)
 147:Drivers/STM32WLxx_HAL_Driver/Inc/stm32wlxx_ll_pwr.h **** #define LL_PWR_FLASH_LPRUN_MODE_POWER_DOWN (PWR_CR1_FPDR)
 148:Drivers/STM32WLxx_HAL_Driver/Inc/stm32wlxx_ll_pwr.h **** /**
 149:Drivers/STM32WLxx_HAL_Driver/Inc/stm32wlxx_ll_pwr.h ****   * @}
 150:Drivers/STM32WLxx_HAL_Driver/Inc/stm32wlxx_ll_pwr.h ****   */
 151:Drivers/STM32WLxx_HAL_Driver/Inc/stm32wlxx_ll_pwr.h **** 
 152:Drivers/STM32WLxx_HAL_Driver/Inc/stm32wlxx_ll_pwr.h **** /** @defgroup PWR_LL_EC_FLASH_SLEEP_POWER_DOWN_MODE Flash power-down mode during sleep mode
 153:Drivers/STM32WLxx_HAL_Driver/Inc/stm32wlxx_ll_pwr.h ****   * @{
 154:Drivers/STM32WLxx_HAL_Driver/Inc/stm32wlxx_ll_pwr.h ****   */
 155:Drivers/STM32WLxx_HAL_Driver/Inc/stm32wlxx_ll_pwr.h **** #define LL_PWR_FLASH_SLEEP_MODE_IDLE       (0x000000000UL)
 156:Drivers/STM32WLxx_HAL_Driver/Inc/stm32wlxx_ll_pwr.h **** #define LL_PWR_FLASH_SLEEP_MODE_POWER_DOWN (PWR_CR1_FPDS)
 157:Drivers/STM32WLxx_HAL_Driver/Inc/stm32wlxx_ll_pwr.h **** /**
 158:Drivers/STM32WLxx_HAL_Driver/Inc/stm32wlxx_ll_pwr.h ****   * @}
 159:Drivers/STM32WLxx_HAL_Driver/Inc/stm32wlxx_ll_pwr.h ****   */
 160:Drivers/STM32WLxx_HAL_Driver/Inc/stm32wlxx_ll_pwr.h **** 
 161:Drivers/STM32WLxx_HAL_Driver/Inc/stm32wlxx_ll_pwr.h **** /** @defgroup PWR_LL_EC_PVM Peripheral voltage monitoring
 162:Drivers/STM32WLxx_HAL_Driver/Inc/stm32wlxx_ll_pwr.h ****   * @{
 163:Drivers/STM32WLxx_HAL_Driver/Inc/stm32wlxx_ll_pwr.h ****   */
 164:Drivers/STM32WLxx_HAL_Driver/Inc/stm32wlxx_ll_pwr.h **** #define LL_PWR_PVM_VDDA_1_62V              (PWR_CR2_PVME3)     /* Monitoring VDDA vs. 1.62V  */
 165:Drivers/STM32WLxx_HAL_Driver/Inc/stm32wlxx_ll_pwr.h **** /**
 166:Drivers/STM32WLxx_HAL_Driver/Inc/stm32wlxx_ll_pwr.h ****   * @}
 167:Drivers/STM32WLxx_HAL_Driver/Inc/stm32wlxx_ll_pwr.h ****   */
 168:Drivers/STM32WLxx_HAL_Driver/Inc/stm32wlxx_ll_pwr.h **** 
 169:Drivers/STM32WLxx_HAL_Driver/Inc/stm32wlxx_ll_pwr.h **** /** @defgroup PWR_LL_EC_PVDLEVEL PVDLEVEL
 170:Drivers/STM32WLxx_HAL_Driver/Inc/stm32wlxx_ll_pwr.h ****   * @{
 171:Drivers/STM32WLxx_HAL_Driver/Inc/stm32wlxx_ll_pwr.h ****   */
 172:Drivers/STM32WLxx_HAL_Driver/Inc/stm32wlxx_ll_pwr.h **** #define LL_PWR_PVDLEVEL_0                  (0x00000000UL)                                  /* VPVD0
 173:Drivers/STM32WLxx_HAL_Driver/Inc/stm32wlxx_ll_pwr.h **** #define LL_PWR_PVDLEVEL_1                  (PWR_CR2_PLS_0)                                 /* VPVD1
 174:Drivers/STM32WLxx_HAL_Driver/Inc/stm32wlxx_ll_pwr.h **** #define LL_PWR_PVDLEVEL_2                  (PWR_CR2_PLS_1)                                 /* VPVD2
 175:Drivers/STM32WLxx_HAL_Driver/Inc/stm32wlxx_ll_pwr.h **** #define LL_PWR_PVDLEVEL_3                  (PWR_CR2_PLS_1 | PWR_CR2_PLS_0)                 /* VPVD3
 176:Drivers/STM32WLxx_HAL_Driver/Inc/stm32wlxx_ll_pwr.h **** #define LL_PWR_PVDLEVEL_4                  (PWR_CR2_PLS_2)                                 /* VPVD4
 177:Drivers/STM32WLxx_HAL_Driver/Inc/stm32wlxx_ll_pwr.h **** #define LL_PWR_PVDLEVEL_5                  (PWR_CR2_PLS_2 | PWR_CR2_PLS_0)                 /* VPVD5
 178:Drivers/STM32WLxx_HAL_Driver/Inc/stm32wlxx_ll_pwr.h **** #define LL_PWR_PVDLEVEL_6                  (PWR_CR2_PLS_2 | PWR_CR2_PLS_1)                 /* VPVD6
 179:Drivers/STM32WLxx_HAL_Driver/Inc/stm32wlxx_ll_pwr.h **** #define LL_PWR_PVDLEVEL_7                  (PWR_CR2_PLS_2 | PWR_CR2_PLS_1 | PWR_CR2_PLS_0) /* Exter
 180:Drivers/STM32WLxx_HAL_Driver/Inc/stm32wlxx_ll_pwr.h **** /**
 181:Drivers/STM32WLxx_HAL_Driver/Inc/stm32wlxx_ll_pwr.h ****   * @}
 182:Drivers/STM32WLxx_HAL_Driver/Inc/stm32wlxx_ll_pwr.h ****   */
 183:Drivers/STM32WLxx_HAL_Driver/Inc/stm32wlxx_ll_pwr.h **** 
 184:Drivers/STM32WLxx_HAL_Driver/Inc/stm32wlxx_ll_pwr.h **** /** @defgroup PWR_LL_EC_EOL_OPERATING_MODES Monitoring of supply voltage for radio operating level 
 185:Drivers/STM32WLxx_HAL_Driver/Inc/stm32wlxx_ll_pwr.h ****   * @{
 186:Drivers/STM32WLxx_HAL_Driver/Inc/stm32wlxx_ll_pwr.h ****   */
 187:Drivers/STM32WLxx_HAL_Driver/Inc/stm32wlxx_ll_pwr.h **** #define LL_PWR_RADIO_EOL_DISABLE                  (0x00000000UL)    /*!< Monitoring of supply volta
 188:Drivers/STM32WLxx_HAL_Driver/Inc/stm32wlxx_ll_pwr.h **** #define LL_PWR_RADIO_EOL_ENABLE                   (PWR_CR5_RFEOLEN) /*!< Monitoring of supply volta
 189:Drivers/STM32WLxx_HAL_Driver/Inc/stm32wlxx_ll_pwr.h **** /**
 190:Drivers/STM32WLxx_HAL_Driver/Inc/stm32wlxx_ll_pwr.h ****   * @}
 191:Drivers/STM32WLxx_HAL_Driver/Inc/stm32wlxx_ll_pwr.h ****   */
 192:Drivers/STM32WLxx_HAL_Driver/Inc/stm32wlxx_ll_pwr.h **** 
 193:Drivers/STM32WLxx_HAL_Driver/Inc/stm32wlxx_ll_pwr.h **** /** @defgroup PWR_LL_EC_WAKEUP WAKEUP
ARM GAS  /tmp/ccyVxTym.s 			page 14


 194:Drivers/STM32WLxx_HAL_Driver/Inc/stm32wlxx_ll_pwr.h ****   * @{
 195:Drivers/STM32WLxx_HAL_Driver/Inc/stm32wlxx_ll_pwr.h ****   */
 196:Drivers/STM32WLxx_HAL_Driver/Inc/stm32wlxx_ll_pwr.h **** #define LL_PWR_WAKEUP_PIN1                 (PWR_CR3_EWUP1)
 197:Drivers/STM32WLxx_HAL_Driver/Inc/stm32wlxx_ll_pwr.h **** #define LL_PWR_WAKEUP_PIN2                 (PWR_CR3_EWUP2)
 198:Drivers/STM32WLxx_HAL_Driver/Inc/stm32wlxx_ll_pwr.h **** #define LL_PWR_WAKEUP_PIN3                 (PWR_CR3_EWUP3)
 199:Drivers/STM32WLxx_HAL_Driver/Inc/stm32wlxx_ll_pwr.h **** /**
 200:Drivers/STM32WLxx_HAL_Driver/Inc/stm32wlxx_ll_pwr.h ****   * @}
 201:Drivers/STM32WLxx_HAL_Driver/Inc/stm32wlxx_ll_pwr.h ****   */
 202:Drivers/STM32WLxx_HAL_Driver/Inc/stm32wlxx_ll_pwr.h **** 
 203:Drivers/STM32WLxx_HAL_Driver/Inc/stm32wlxx_ll_pwr.h **** /** @defgroup PWR_LL_EC_BATT_CHARG_RESISTOR BATT CHARG RESISTOR
 204:Drivers/STM32WLxx_HAL_Driver/Inc/stm32wlxx_ll_pwr.h ****   * @{
 205:Drivers/STM32WLxx_HAL_Driver/Inc/stm32wlxx_ll_pwr.h ****   */
 206:Drivers/STM32WLxx_HAL_Driver/Inc/stm32wlxx_ll_pwr.h **** #define LL_PWR_BATT_CHARG_RESISTOR_5K      (0x00000000UL)
 207:Drivers/STM32WLxx_HAL_Driver/Inc/stm32wlxx_ll_pwr.h **** #define LL_PWR_BATT_CHARGRESISTOR_1_5K     (PWR_CR4_VBRS)
 208:Drivers/STM32WLxx_HAL_Driver/Inc/stm32wlxx_ll_pwr.h **** /**
 209:Drivers/STM32WLxx_HAL_Driver/Inc/stm32wlxx_ll_pwr.h ****   * @}
 210:Drivers/STM32WLxx_HAL_Driver/Inc/stm32wlxx_ll_pwr.h ****   */
 211:Drivers/STM32WLxx_HAL_Driver/Inc/stm32wlxx_ll_pwr.h **** 
 212:Drivers/STM32WLxx_HAL_Driver/Inc/stm32wlxx_ll_pwr.h **** /** @defgroup PWR_LL_EC_GPIO GPIO
 213:Drivers/STM32WLxx_HAL_Driver/Inc/stm32wlxx_ll_pwr.h ****   * @{
 214:Drivers/STM32WLxx_HAL_Driver/Inc/stm32wlxx_ll_pwr.h ****   */
 215:Drivers/STM32WLxx_HAL_Driver/Inc/stm32wlxx_ll_pwr.h **** #define LL_PWR_GPIO_A                      ((uint32_t)(&(PWR->PUCRA)))
 216:Drivers/STM32WLxx_HAL_Driver/Inc/stm32wlxx_ll_pwr.h **** #define LL_PWR_GPIO_B                      ((uint32_t)(&(PWR->PUCRB)))
 217:Drivers/STM32WLxx_HAL_Driver/Inc/stm32wlxx_ll_pwr.h **** #define LL_PWR_GPIO_C                      ((uint32_t)(&(PWR->PUCRC)))
 218:Drivers/STM32WLxx_HAL_Driver/Inc/stm32wlxx_ll_pwr.h **** #define LL_PWR_GPIO_H                      ((uint32_t)(&(PWR->PUCRH)))
 219:Drivers/STM32WLxx_HAL_Driver/Inc/stm32wlxx_ll_pwr.h **** /**
 220:Drivers/STM32WLxx_HAL_Driver/Inc/stm32wlxx_ll_pwr.h ****   * @}
 221:Drivers/STM32WLxx_HAL_Driver/Inc/stm32wlxx_ll_pwr.h ****   */
 222:Drivers/STM32WLxx_HAL_Driver/Inc/stm32wlxx_ll_pwr.h **** 
 223:Drivers/STM32WLxx_HAL_Driver/Inc/stm32wlxx_ll_pwr.h **** /** @defgroup PWR_LL_EC_GPIO_BIT GPIO BIT
 224:Drivers/STM32WLxx_HAL_Driver/Inc/stm32wlxx_ll_pwr.h ****   * @{
 225:Drivers/STM32WLxx_HAL_Driver/Inc/stm32wlxx_ll_pwr.h ****   */
 226:Drivers/STM32WLxx_HAL_Driver/Inc/stm32wlxx_ll_pwr.h **** /* Note: LL_PWR_GPIO_BIT_x defined from port B because all pins are available */
 227:Drivers/STM32WLxx_HAL_Driver/Inc/stm32wlxx_ll_pwr.h **** /*       for PWR pull-up and pull-down.                                       */
 228:Drivers/STM32WLxx_HAL_Driver/Inc/stm32wlxx_ll_pwr.h **** #define LL_PWR_GPIO_BIT_0                  (PWR_PUCRB_PB0)
 229:Drivers/STM32WLxx_HAL_Driver/Inc/stm32wlxx_ll_pwr.h **** #define LL_PWR_GPIO_BIT_1                  (PWR_PUCRB_PB1)
 230:Drivers/STM32WLxx_HAL_Driver/Inc/stm32wlxx_ll_pwr.h **** #define LL_PWR_GPIO_BIT_2                  (PWR_PUCRB_PB2)
 231:Drivers/STM32WLxx_HAL_Driver/Inc/stm32wlxx_ll_pwr.h **** #define LL_PWR_GPIO_BIT_3                  (PWR_PUCRB_PB3)
 232:Drivers/STM32WLxx_HAL_Driver/Inc/stm32wlxx_ll_pwr.h **** #define LL_PWR_GPIO_BIT_4                  (PWR_PUCRB_PB4)
 233:Drivers/STM32WLxx_HAL_Driver/Inc/stm32wlxx_ll_pwr.h **** #define LL_PWR_GPIO_BIT_5                  (PWR_PUCRB_PB5)
 234:Drivers/STM32WLxx_HAL_Driver/Inc/stm32wlxx_ll_pwr.h **** #define LL_PWR_GPIO_BIT_6                  (PWR_PUCRB_PB6)
 235:Drivers/STM32WLxx_HAL_Driver/Inc/stm32wlxx_ll_pwr.h **** #define LL_PWR_GPIO_BIT_7                  (PWR_PUCRB_PB7)
 236:Drivers/STM32WLxx_HAL_Driver/Inc/stm32wlxx_ll_pwr.h **** #define LL_PWR_GPIO_BIT_8                  (PWR_PUCRB_PB8)
 237:Drivers/STM32WLxx_HAL_Driver/Inc/stm32wlxx_ll_pwr.h **** #define LL_PWR_GPIO_BIT_9                  (PWR_PUCRB_PB9)
 238:Drivers/STM32WLxx_HAL_Driver/Inc/stm32wlxx_ll_pwr.h **** #define LL_PWR_GPIO_BIT_10                 (PWR_PUCRB_PB10)
 239:Drivers/STM32WLxx_HAL_Driver/Inc/stm32wlxx_ll_pwr.h **** #define LL_PWR_GPIO_BIT_11                 (PWR_PUCRB_PB11)
 240:Drivers/STM32WLxx_HAL_Driver/Inc/stm32wlxx_ll_pwr.h **** #define LL_PWR_GPIO_BIT_12                 (PWR_PUCRB_PB12)
 241:Drivers/STM32WLxx_HAL_Driver/Inc/stm32wlxx_ll_pwr.h **** #define LL_PWR_GPIO_BIT_13                 (PWR_PUCRB_PB13)
 242:Drivers/STM32WLxx_HAL_Driver/Inc/stm32wlxx_ll_pwr.h **** #define LL_PWR_GPIO_BIT_14                 (PWR_PUCRB_PB14)
 243:Drivers/STM32WLxx_HAL_Driver/Inc/stm32wlxx_ll_pwr.h **** #define LL_PWR_GPIO_BIT_15                 (PWR_PUCRB_PB15)
 244:Drivers/STM32WLxx_HAL_Driver/Inc/stm32wlxx_ll_pwr.h **** /**
 245:Drivers/STM32WLxx_HAL_Driver/Inc/stm32wlxx_ll_pwr.h ****   * @}
 246:Drivers/STM32WLxx_HAL_Driver/Inc/stm32wlxx_ll_pwr.h ****   */
 247:Drivers/STM32WLxx_HAL_Driver/Inc/stm32wlxx_ll_pwr.h **** 
 248:Drivers/STM32WLxx_HAL_Driver/Inc/stm32wlxx_ll_pwr.h **** /** @defgroup PWR_LL_EC_SMPS_OPERATING_MODES SMPS step down converter operating modes
 249:Drivers/STM32WLxx_HAL_Driver/Inc/stm32wlxx_ll_pwr.h ****   * @{
 250:Drivers/STM32WLxx_HAL_Driver/Inc/stm32wlxx_ll_pwr.h ****   */
ARM GAS  /tmp/ccyVxTym.s 			page 15


 251:Drivers/STM32WLxx_HAL_Driver/Inc/stm32wlxx_ll_pwr.h **** #define LL_PWR_SMPS_BYPASS                 (0x00000000UL)    /*!< SMPS step down in bypass mode (di
 252:Drivers/STM32WLxx_HAL_Driver/Inc/stm32wlxx_ll_pwr.h **** #define LL_PWR_SMPS_STEP_DOWN              (PWR_CR5_SMPSEN)  /*!< SMPS step down in step down mode 
 253:Drivers/STM32WLxx_HAL_Driver/Inc/stm32wlxx_ll_pwr.h **** /**
 254:Drivers/STM32WLxx_HAL_Driver/Inc/stm32wlxx_ll_pwr.h ****   * @}
 255:Drivers/STM32WLxx_HAL_Driver/Inc/stm32wlxx_ll_pwr.h ****   */
 256:Drivers/STM32WLxx_HAL_Driver/Inc/stm32wlxx_ll_pwr.h **** 
 257:Drivers/STM32WLxx_HAL_Driver/Inc/stm32wlxx_ll_pwr.h **** /** @defgroup PWR_LL_EC_RADIO_BUSY_POLARITY Radio busy signal polarity
 258:Drivers/STM32WLxx_HAL_Driver/Inc/stm32wlxx_ll_pwr.h ****   * @{
 259:Drivers/STM32WLxx_HAL_Driver/Inc/stm32wlxx_ll_pwr.h ****   */
 260:Drivers/STM32WLxx_HAL_Driver/Inc/stm32wlxx_ll_pwr.h **** #define LL_PWR_RADIO_BUSY_POLARITY_RISING  (0x00000000UL)     /*!< Radio busy signal polarity to ri
 261:Drivers/STM32WLxx_HAL_Driver/Inc/stm32wlxx_ll_pwr.h **** #define LL_PWR_RADIO_BUSY_POLARITY_FALLING (PWR_CR4_WRFBUSYP) /*!< Radio busy signal polarity to fa
 262:Drivers/STM32WLxx_HAL_Driver/Inc/stm32wlxx_ll_pwr.h **** /**
 263:Drivers/STM32WLxx_HAL_Driver/Inc/stm32wlxx_ll_pwr.h ****   * @}
 264:Drivers/STM32WLxx_HAL_Driver/Inc/stm32wlxx_ll_pwr.h ****   */
 265:Drivers/STM32WLxx_HAL_Driver/Inc/stm32wlxx_ll_pwr.h **** 
 266:Drivers/STM32WLxx_HAL_Driver/Inc/stm32wlxx_ll_pwr.h **** /** @defgroup PWR_LL_EC_RADIO_BUSY_TRIGGER Radio busy trigger
 267:Drivers/STM32WLxx_HAL_Driver/Inc/stm32wlxx_ll_pwr.h ****   * @{
 268:Drivers/STM32WLxx_HAL_Driver/Inc/stm32wlxx_ll_pwr.h ****   */
 269:Drivers/STM32WLxx_HAL_Driver/Inc/stm32wlxx_ll_pwr.h **** #define LL_PWR_RADIO_BUSY_TRIGGER_NONE     (0x00000000UL)     /*!< Radio busy trigger action: no wa
 270:Drivers/STM32WLxx_HAL_Driver/Inc/stm32wlxx_ll_pwr.h **** #define LL_PWR_RADIO_BUSY_TRIGGER_WU_IT    (PWR_CR3_EWRFBUSY) /*!< Radio busy trigger action: wake-
 271:Drivers/STM32WLxx_HAL_Driver/Inc/stm32wlxx_ll_pwr.h **** /**
 272:Drivers/STM32WLxx_HAL_Driver/Inc/stm32wlxx_ll_pwr.h ****   * @}
 273:Drivers/STM32WLxx_HAL_Driver/Inc/stm32wlxx_ll_pwr.h ****   */
 274:Drivers/STM32WLxx_HAL_Driver/Inc/stm32wlxx_ll_pwr.h **** 
 275:Drivers/STM32WLxx_HAL_Driver/Inc/stm32wlxx_ll_pwr.h **** /** @defgroup PWR_LL_EC_RADIO_IRQ_TRIGGER Radio IRQ trigger
 276:Drivers/STM32WLxx_HAL_Driver/Inc/stm32wlxx_ll_pwr.h ****   * @{
 277:Drivers/STM32WLxx_HAL_Driver/Inc/stm32wlxx_ll_pwr.h ****   */
 278:Drivers/STM32WLxx_HAL_Driver/Inc/stm32wlxx_ll_pwr.h **** #define LL_PWR_RADIO_IRQ_TRIGGER_NONE      (0x00000000UL)     /*!< Radio IRQ trigger action: no wak
 279:Drivers/STM32WLxx_HAL_Driver/Inc/stm32wlxx_ll_pwr.h **** #define LL_PWR_RADIO_IRQ_TRIGGER_WU_IT     (PWR_CR3_EWRFIRQ)  /*!< Radio IRQ trigger action: wake-u
 280:Drivers/STM32WLxx_HAL_Driver/Inc/stm32wlxx_ll_pwr.h **** /**
 281:Drivers/STM32WLxx_HAL_Driver/Inc/stm32wlxx_ll_pwr.h ****   * @}
 282:Drivers/STM32WLxx_HAL_Driver/Inc/stm32wlxx_ll_pwr.h ****   */
 283:Drivers/STM32WLxx_HAL_Driver/Inc/stm32wlxx_ll_pwr.h **** 
 284:Drivers/STM32WLxx_HAL_Driver/Inc/stm32wlxx_ll_pwr.h **** /** @defgroup PWR_LL_EC_RADIO_SPI_NSS_SRC Radio Sub-GHz radio SPI NSS source
 285:Drivers/STM32WLxx_HAL_Driver/Inc/stm32wlxx_ll_pwr.h ****   * @{
 286:Drivers/STM32WLxx_HAL_Driver/Inc/stm32wlxx_ll_pwr.h ****   */
 287:Drivers/STM32WLxx_HAL_Driver/Inc/stm32wlxx_ll_pwr.h **** #define LL_PWR_SUBGHZSPI_NSS_SRC_SW        (0x00000000UL)            /*!< Sub-GHz radio SPI NSS con
 288:Drivers/STM32WLxx_HAL_Driver/Inc/stm32wlxx_ll_pwr.h **** #define LL_PWR_SUBGHZSPI_NSS_SRC_LPTIM3    (PWR_CR1_SUBGHZSPINSSSEL) /*!< Sub-GHz radio SPI NSS con
 289:Drivers/STM32WLxx_HAL_Driver/Inc/stm32wlxx_ll_pwr.h **** /**
 290:Drivers/STM32WLxx_HAL_Driver/Inc/stm32wlxx_ll_pwr.h ****   * @}
 291:Drivers/STM32WLxx_HAL_Driver/Inc/stm32wlxx_ll_pwr.h ****   */
 292:Drivers/STM32WLxx_HAL_Driver/Inc/stm32wlxx_ll_pwr.h **** 
 293:Drivers/STM32WLxx_HAL_Driver/Inc/stm32wlxx_ll_pwr.h **** /**
 294:Drivers/STM32WLxx_HAL_Driver/Inc/stm32wlxx_ll_pwr.h ****   * @}
 295:Drivers/STM32WLxx_HAL_Driver/Inc/stm32wlxx_ll_pwr.h ****   */
 296:Drivers/STM32WLxx_HAL_Driver/Inc/stm32wlxx_ll_pwr.h **** 
 297:Drivers/STM32WLxx_HAL_Driver/Inc/stm32wlxx_ll_pwr.h **** /* Exported macro ------------------------------------------------------------*/
 298:Drivers/STM32WLxx_HAL_Driver/Inc/stm32wlxx_ll_pwr.h **** /** @defgroup PWR_LL_Exported_Macros PWR Exported Macros
 299:Drivers/STM32WLxx_HAL_Driver/Inc/stm32wlxx_ll_pwr.h ****   * @{
 300:Drivers/STM32WLxx_HAL_Driver/Inc/stm32wlxx_ll_pwr.h ****   */
 301:Drivers/STM32WLxx_HAL_Driver/Inc/stm32wlxx_ll_pwr.h **** 
 302:Drivers/STM32WLxx_HAL_Driver/Inc/stm32wlxx_ll_pwr.h **** /** @defgroup PWR_LL_EM_WRITE_READ Common Write and read registers Macros
 303:Drivers/STM32WLxx_HAL_Driver/Inc/stm32wlxx_ll_pwr.h ****   * @{
 304:Drivers/STM32WLxx_HAL_Driver/Inc/stm32wlxx_ll_pwr.h ****   */
 305:Drivers/STM32WLxx_HAL_Driver/Inc/stm32wlxx_ll_pwr.h **** 
 306:Drivers/STM32WLxx_HAL_Driver/Inc/stm32wlxx_ll_pwr.h **** /**
 307:Drivers/STM32WLxx_HAL_Driver/Inc/stm32wlxx_ll_pwr.h ****   * @brief  Write a value in PWR register
ARM GAS  /tmp/ccyVxTym.s 			page 16


 308:Drivers/STM32WLxx_HAL_Driver/Inc/stm32wlxx_ll_pwr.h ****   * @param  __REG__ Register to be written
 309:Drivers/STM32WLxx_HAL_Driver/Inc/stm32wlxx_ll_pwr.h ****   * @param  __VALUE__ Value to be written in the register
 310:Drivers/STM32WLxx_HAL_Driver/Inc/stm32wlxx_ll_pwr.h ****   * @retval None
 311:Drivers/STM32WLxx_HAL_Driver/Inc/stm32wlxx_ll_pwr.h ****   */
 312:Drivers/STM32WLxx_HAL_Driver/Inc/stm32wlxx_ll_pwr.h **** #define LL_PWR_WriteReg(__REG__, __VALUE__) WRITE_REG(PWR->__REG__, (__VALUE__))
 313:Drivers/STM32WLxx_HAL_Driver/Inc/stm32wlxx_ll_pwr.h **** 
 314:Drivers/STM32WLxx_HAL_Driver/Inc/stm32wlxx_ll_pwr.h **** /**
 315:Drivers/STM32WLxx_HAL_Driver/Inc/stm32wlxx_ll_pwr.h ****   * @brief  Read a value in PWR register
 316:Drivers/STM32WLxx_HAL_Driver/Inc/stm32wlxx_ll_pwr.h ****   * @param  __REG__ Register to be read
 317:Drivers/STM32WLxx_HAL_Driver/Inc/stm32wlxx_ll_pwr.h ****   * @retval Register value
 318:Drivers/STM32WLxx_HAL_Driver/Inc/stm32wlxx_ll_pwr.h ****   */
 319:Drivers/STM32WLxx_HAL_Driver/Inc/stm32wlxx_ll_pwr.h **** #define LL_PWR_ReadReg(__REG__) READ_REG(PWR->__REG__)
 320:Drivers/STM32WLxx_HAL_Driver/Inc/stm32wlxx_ll_pwr.h **** /**
 321:Drivers/STM32WLxx_HAL_Driver/Inc/stm32wlxx_ll_pwr.h ****   * @}
 322:Drivers/STM32WLxx_HAL_Driver/Inc/stm32wlxx_ll_pwr.h ****   */
 323:Drivers/STM32WLxx_HAL_Driver/Inc/stm32wlxx_ll_pwr.h **** 
 324:Drivers/STM32WLxx_HAL_Driver/Inc/stm32wlxx_ll_pwr.h **** /**
 325:Drivers/STM32WLxx_HAL_Driver/Inc/stm32wlxx_ll_pwr.h ****   * @}
 326:Drivers/STM32WLxx_HAL_Driver/Inc/stm32wlxx_ll_pwr.h ****   */
 327:Drivers/STM32WLxx_HAL_Driver/Inc/stm32wlxx_ll_pwr.h **** 
 328:Drivers/STM32WLxx_HAL_Driver/Inc/stm32wlxx_ll_pwr.h **** 
 329:Drivers/STM32WLxx_HAL_Driver/Inc/stm32wlxx_ll_pwr.h **** /* Exported functions --------------------------------------------------------*/
 330:Drivers/STM32WLxx_HAL_Driver/Inc/stm32wlxx_ll_pwr.h **** /** @defgroup PWR_LL_Exported_Functions PWR Exported Functions
 331:Drivers/STM32WLxx_HAL_Driver/Inc/stm32wlxx_ll_pwr.h ****   * @{
 332:Drivers/STM32WLxx_HAL_Driver/Inc/stm32wlxx_ll_pwr.h ****   */
 333:Drivers/STM32WLxx_HAL_Driver/Inc/stm32wlxx_ll_pwr.h **** 
 334:Drivers/STM32WLxx_HAL_Driver/Inc/stm32wlxx_ll_pwr.h **** /** @defgroup PWR_LL_EF_Configuration Configuration
 335:Drivers/STM32WLxx_HAL_Driver/Inc/stm32wlxx_ll_pwr.h ****   * @{
 336:Drivers/STM32WLxx_HAL_Driver/Inc/stm32wlxx_ll_pwr.h ****   */
 337:Drivers/STM32WLxx_HAL_Driver/Inc/stm32wlxx_ll_pwr.h **** 
 338:Drivers/STM32WLxx_HAL_Driver/Inc/stm32wlxx_ll_pwr.h **** /**
 339:Drivers/STM32WLxx_HAL_Driver/Inc/stm32wlxx_ll_pwr.h ****   * @brief  Switch from run main mode to run low-power mode.
 340:Drivers/STM32WLxx_HAL_Driver/Inc/stm32wlxx_ll_pwr.h ****   * @rmtoll CR1          LPR           LL_PWR_EnterLowPowerRunMode
 341:Drivers/STM32WLxx_HAL_Driver/Inc/stm32wlxx_ll_pwr.h ****   * @retval None
 342:Drivers/STM32WLxx_HAL_Driver/Inc/stm32wlxx_ll_pwr.h ****   */
 343:Drivers/STM32WLxx_HAL_Driver/Inc/stm32wlxx_ll_pwr.h **** __STATIC_INLINE void LL_PWR_EnterLowPowerRunMode(void)
 344:Drivers/STM32WLxx_HAL_Driver/Inc/stm32wlxx_ll_pwr.h **** {
 345:Drivers/STM32WLxx_HAL_Driver/Inc/stm32wlxx_ll_pwr.h ****   SET_BIT(PWR->CR1, PWR_CR1_LPR);
 346:Drivers/STM32WLxx_HAL_Driver/Inc/stm32wlxx_ll_pwr.h **** }
 347:Drivers/STM32WLxx_HAL_Driver/Inc/stm32wlxx_ll_pwr.h **** 
 348:Drivers/STM32WLxx_HAL_Driver/Inc/stm32wlxx_ll_pwr.h **** /**
 349:Drivers/STM32WLxx_HAL_Driver/Inc/stm32wlxx_ll_pwr.h ****   * @brief  Switch from run main mode to low-power mode.
 350:Drivers/STM32WLxx_HAL_Driver/Inc/stm32wlxx_ll_pwr.h ****   * @rmtoll CR1          LPR           LL_PWR_ExitLowPowerRunMode
 351:Drivers/STM32WLxx_HAL_Driver/Inc/stm32wlxx_ll_pwr.h ****   * @retval None
 352:Drivers/STM32WLxx_HAL_Driver/Inc/stm32wlxx_ll_pwr.h ****   */
 353:Drivers/STM32WLxx_HAL_Driver/Inc/stm32wlxx_ll_pwr.h **** __STATIC_INLINE void LL_PWR_ExitLowPowerRunMode(void)
 354:Drivers/STM32WLxx_HAL_Driver/Inc/stm32wlxx_ll_pwr.h **** {
 355:Drivers/STM32WLxx_HAL_Driver/Inc/stm32wlxx_ll_pwr.h ****   CLEAR_BIT(PWR->CR1, PWR_CR1_LPR);
 356:Drivers/STM32WLxx_HAL_Driver/Inc/stm32wlxx_ll_pwr.h **** }
 357:Drivers/STM32WLxx_HAL_Driver/Inc/stm32wlxx_ll_pwr.h **** 
 358:Drivers/STM32WLxx_HAL_Driver/Inc/stm32wlxx_ll_pwr.h **** /**
 359:Drivers/STM32WLxx_HAL_Driver/Inc/stm32wlxx_ll_pwr.h ****   * @brief  Check if the regulator is in low-power mode
 360:Drivers/STM32WLxx_HAL_Driver/Inc/stm32wlxx_ll_pwr.h ****   * @rmtoll CR1          LPR           LL_PWR_IsEnabledLowPowerRunMode
 361:Drivers/STM32WLxx_HAL_Driver/Inc/stm32wlxx_ll_pwr.h ****   * @retval State of bit (1 or 0).
 362:Drivers/STM32WLxx_HAL_Driver/Inc/stm32wlxx_ll_pwr.h ****   */
 363:Drivers/STM32WLxx_HAL_Driver/Inc/stm32wlxx_ll_pwr.h **** __STATIC_INLINE uint32_t LL_PWR_IsEnabledLowPowerRunMode(void)
 364:Drivers/STM32WLxx_HAL_Driver/Inc/stm32wlxx_ll_pwr.h **** {
ARM GAS  /tmp/ccyVxTym.s 			page 17


 365:Drivers/STM32WLxx_HAL_Driver/Inc/stm32wlxx_ll_pwr.h ****   return ((READ_BIT(PWR->CR1, PWR_CR1_LPR) == (PWR_CR1_LPR)) ? 1UL : 0UL);
 366:Drivers/STM32WLxx_HAL_Driver/Inc/stm32wlxx_ll_pwr.h **** }
 367:Drivers/STM32WLxx_HAL_Driver/Inc/stm32wlxx_ll_pwr.h **** 
 368:Drivers/STM32WLxx_HAL_Driver/Inc/stm32wlxx_ll_pwr.h **** /**
 369:Drivers/STM32WLxx_HAL_Driver/Inc/stm32wlxx_ll_pwr.h ****   * @brief  Set the main internal regulator output voltage
 370:Drivers/STM32WLxx_HAL_Driver/Inc/stm32wlxx_ll_pwr.h ****   * @note   A delay is required for the internal regulator to be ready
 371:Drivers/STM32WLxx_HAL_Driver/Inc/stm32wlxx_ll_pwr.h ****   *         after the voltage scaling has been changed.
 372:Drivers/STM32WLxx_HAL_Driver/Inc/stm32wlxx_ll_pwr.h ****   *         Check whether regulator reached the selected voltage level
 373:Drivers/STM32WLxx_HAL_Driver/Inc/stm32wlxx_ll_pwr.h ****   *         can be done using function @ref LL_PWR_IsActiveFlag_VOS().
 374:Drivers/STM32WLxx_HAL_Driver/Inc/stm32wlxx_ll_pwr.h ****   * @rmtoll CR1          VOS           LL_PWR_SetRegulVoltageScaling
 375:Drivers/STM32WLxx_HAL_Driver/Inc/stm32wlxx_ll_pwr.h ****   * @param  VoltageScaling This parameter can be one of the following values:
 376:Drivers/STM32WLxx_HAL_Driver/Inc/stm32wlxx_ll_pwr.h ****   *         @arg @ref LL_PWR_REGU_VOLTAGE_SCALE1
 377:Drivers/STM32WLxx_HAL_Driver/Inc/stm32wlxx_ll_pwr.h ****   *         @arg @ref LL_PWR_REGU_VOLTAGE_SCALE2
 378:Drivers/STM32WLxx_HAL_Driver/Inc/stm32wlxx_ll_pwr.h ****   * @retval None
 379:Drivers/STM32WLxx_HAL_Driver/Inc/stm32wlxx_ll_pwr.h ****   */
 380:Drivers/STM32WLxx_HAL_Driver/Inc/stm32wlxx_ll_pwr.h **** __STATIC_INLINE void LL_PWR_SetRegulVoltageScaling(uint32_t VoltageScaling)
 381:Drivers/STM32WLxx_HAL_Driver/Inc/stm32wlxx_ll_pwr.h **** {
 382:Drivers/STM32WLxx_HAL_Driver/Inc/stm32wlxx_ll_pwr.h ****   MODIFY_REG(PWR->CR1, PWR_CR1_VOS, VoltageScaling);
 383:Drivers/STM32WLxx_HAL_Driver/Inc/stm32wlxx_ll_pwr.h **** }
 384:Drivers/STM32WLxx_HAL_Driver/Inc/stm32wlxx_ll_pwr.h **** 
 385:Drivers/STM32WLxx_HAL_Driver/Inc/stm32wlxx_ll_pwr.h **** /**
 386:Drivers/STM32WLxx_HAL_Driver/Inc/stm32wlxx_ll_pwr.h ****   * @brief  Get the main internal regulator output voltage
 387:Drivers/STM32WLxx_HAL_Driver/Inc/stm32wlxx_ll_pwr.h ****   * @rmtoll CR1          VOS           LL_PWR_GetRegulVoltageScaling
 388:Drivers/STM32WLxx_HAL_Driver/Inc/stm32wlxx_ll_pwr.h ****   * @retval Returned value can be one of the following values:
 389:Drivers/STM32WLxx_HAL_Driver/Inc/stm32wlxx_ll_pwr.h ****   *         @arg @ref LL_PWR_REGU_VOLTAGE_SCALE1
 390:Drivers/STM32WLxx_HAL_Driver/Inc/stm32wlxx_ll_pwr.h ****   *         @arg @ref LL_PWR_REGU_VOLTAGE_SCALE2
 391:Drivers/STM32WLxx_HAL_Driver/Inc/stm32wlxx_ll_pwr.h ****   */
 392:Drivers/STM32WLxx_HAL_Driver/Inc/stm32wlxx_ll_pwr.h **** __STATIC_INLINE uint32_t LL_PWR_GetRegulVoltageScaling(void)
 393:Drivers/STM32WLxx_HAL_Driver/Inc/stm32wlxx_ll_pwr.h **** {
 394:Drivers/STM32WLxx_HAL_Driver/Inc/stm32wlxx_ll_pwr.h ****   return (uint32_t)(READ_BIT(PWR->CR1, PWR_CR1_VOS));
 395:Drivers/STM32WLxx_HAL_Driver/Inc/stm32wlxx_ll_pwr.h **** }
 396:Drivers/STM32WLxx_HAL_Driver/Inc/stm32wlxx_ll_pwr.h **** 
 397:Drivers/STM32WLxx_HAL_Driver/Inc/stm32wlxx_ll_pwr.h **** /**
 398:Drivers/STM32WLxx_HAL_Driver/Inc/stm32wlxx_ll_pwr.h ****   * @brief  Enable access to the backup domain
 399:Drivers/STM32WLxx_HAL_Driver/Inc/stm32wlxx_ll_pwr.h ****   * @rmtoll CR1          DBP           LL_PWR_EnableBkUpAccess
 400:Drivers/STM32WLxx_HAL_Driver/Inc/stm32wlxx_ll_pwr.h ****   * @retval None
 401:Drivers/STM32WLxx_HAL_Driver/Inc/stm32wlxx_ll_pwr.h ****   */
 402:Drivers/STM32WLxx_HAL_Driver/Inc/stm32wlxx_ll_pwr.h **** __STATIC_INLINE void LL_PWR_EnableBkUpAccess(void)
 403:Drivers/STM32WLxx_HAL_Driver/Inc/stm32wlxx_ll_pwr.h **** {
 404:Drivers/STM32WLxx_HAL_Driver/Inc/stm32wlxx_ll_pwr.h ****   SET_BIT(PWR->CR1, PWR_CR1_DBP);
 405:Drivers/STM32WLxx_HAL_Driver/Inc/stm32wlxx_ll_pwr.h **** }
 406:Drivers/STM32WLxx_HAL_Driver/Inc/stm32wlxx_ll_pwr.h **** 
 407:Drivers/STM32WLxx_HAL_Driver/Inc/stm32wlxx_ll_pwr.h **** /**
 408:Drivers/STM32WLxx_HAL_Driver/Inc/stm32wlxx_ll_pwr.h ****   * @brief  Disable access to the backup domain
 409:Drivers/STM32WLxx_HAL_Driver/Inc/stm32wlxx_ll_pwr.h ****   * @rmtoll CR1          DBP           LL_PWR_DisableBkUpAccess
 410:Drivers/STM32WLxx_HAL_Driver/Inc/stm32wlxx_ll_pwr.h ****   * @retval None
 411:Drivers/STM32WLxx_HAL_Driver/Inc/stm32wlxx_ll_pwr.h ****   */
 412:Drivers/STM32WLxx_HAL_Driver/Inc/stm32wlxx_ll_pwr.h **** __STATIC_INLINE void LL_PWR_DisableBkUpAccess(void)
 413:Drivers/STM32WLxx_HAL_Driver/Inc/stm32wlxx_ll_pwr.h **** {
 414:Drivers/STM32WLxx_HAL_Driver/Inc/stm32wlxx_ll_pwr.h ****   CLEAR_BIT(PWR->CR1, PWR_CR1_DBP);
 415:Drivers/STM32WLxx_HAL_Driver/Inc/stm32wlxx_ll_pwr.h **** }
 416:Drivers/STM32WLxx_HAL_Driver/Inc/stm32wlxx_ll_pwr.h **** 
 417:Drivers/STM32WLxx_HAL_Driver/Inc/stm32wlxx_ll_pwr.h **** /**
 418:Drivers/STM32WLxx_HAL_Driver/Inc/stm32wlxx_ll_pwr.h ****   * @brief  Check if the backup domain is enabled
 419:Drivers/STM32WLxx_HAL_Driver/Inc/stm32wlxx_ll_pwr.h ****   * @rmtoll CR1          DBP           LL_PWR_IsEnabledBkUpAccess
 420:Drivers/STM32WLxx_HAL_Driver/Inc/stm32wlxx_ll_pwr.h ****   * @retval State of bit (1 or 0).
 421:Drivers/STM32WLxx_HAL_Driver/Inc/stm32wlxx_ll_pwr.h ****   */
ARM GAS  /tmp/ccyVxTym.s 			page 18


 422:Drivers/STM32WLxx_HAL_Driver/Inc/stm32wlxx_ll_pwr.h **** __STATIC_INLINE uint32_t LL_PWR_IsEnabledBkUpAccess(void)
 423:Drivers/STM32WLxx_HAL_Driver/Inc/stm32wlxx_ll_pwr.h **** {
 424:Drivers/STM32WLxx_HAL_Driver/Inc/stm32wlxx_ll_pwr.h ****   return ((READ_BIT(PWR->CR1, PWR_CR1_DBP) == (PWR_CR1_DBP)) ? 1UL : 0UL);
 425:Drivers/STM32WLxx_HAL_Driver/Inc/stm32wlxx_ll_pwr.h **** }
 426:Drivers/STM32WLxx_HAL_Driver/Inc/stm32wlxx_ll_pwr.h **** 
 427:Drivers/STM32WLxx_HAL_Driver/Inc/stm32wlxx_ll_pwr.h **** /**
 428:Drivers/STM32WLxx_HAL_Driver/Inc/stm32wlxx_ll_pwr.h ****   * @brief  Set Low-Power mode
 429:Drivers/STM32WLxx_HAL_Driver/Inc/stm32wlxx_ll_pwr.h ****   * @rmtoll CR1          LPMS          LL_PWR_SetPowerMode
 430:Drivers/STM32WLxx_HAL_Driver/Inc/stm32wlxx_ll_pwr.h ****   * @param  LowPowerMode This parameter can be one of the following values:
 431:Drivers/STM32WLxx_HAL_Driver/Inc/stm32wlxx_ll_pwr.h ****   *         @arg @ref LL_PWR_MODE_STOP0
 432:Drivers/STM32WLxx_HAL_Driver/Inc/stm32wlxx_ll_pwr.h ****   *         @arg @ref LL_PWR_MODE_STOP1
 433:Drivers/STM32WLxx_HAL_Driver/Inc/stm32wlxx_ll_pwr.h ****   *         @arg @ref LL_PWR_MODE_STOP2
 434:Drivers/STM32WLxx_HAL_Driver/Inc/stm32wlxx_ll_pwr.h ****   *         @arg @ref LL_PWR_MODE_STANDBY
 435:Drivers/STM32WLxx_HAL_Driver/Inc/stm32wlxx_ll_pwr.h ****   *         @arg @ref LL_PWR_MODE_SHUTDOWN
 436:Drivers/STM32WLxx_HAL_Driver/Inc/stm32wlxx_ll_pwr.h ****   * @retval None
 437:Drivers/STM32WLxx_HAL_Driver/Inc/stm32wlxx_ll_pwr.h ****   */
 438:Drivers/STM32WLxx_HAL_Driver/Inc/stm32wlxx_ll_pwr.h **** __STATIC_INLINE void LL_PWR_SetPowerMode(uint32_t LowPowerMode)
 439:Drivers/STM32WLxx_HAL_Driver/Inc/stm32wlxx_ll_pwr.h **** {
 440:Drivers/STM32WLxx_HAL_Driver/Inc/stm32wlxx_ll_pwr.h ****   MODIFY_REG(PWR->CR1, PWR_CR1_LPMS, LowPowerMode);
 441:Drivers/STM32WLxx_HAL_Driver/Inc/stm32wlxx_ll_pwr.h **** }
 442:Drivers/STM32WLxx_HAL_Driver/Inc/stm32wlxx_ll_pwr.h **** 
 443:Drivers/STM32WLxx_HAL_Driver/Inc/stm32wlxx_ll_pwr.h **** /**
 444:Drivers/STM32WLxx_HAL_Driver/Inc/stm32wlxx_ll_pwr.h ****   * @brief  Get Low-Power mode
 445:Drivers/STM32WLxx_HAL_Driver/Inc/stm32wlxx_ll_pwr.h ****   * @rmtoll CR1          LPMS          LL_PWR_GetPowerMode
 446:Drivers/STM32WLxx_HAL_Driver/Inc/stm32wlxx_ll_pwr.h ****   * @retval Returned value can be one of the following values:
 447:Drivers/STM32WLxx_HAL_Driver/Inc/stm32wlxx_ll_pwr.h ****   *         @arg @ref LL_PWR_MODE_STOP0
 448:Drivers/STM32WLxx_HAL_Driver/Inc/stm32wlxx_ll_pwr.h ****   *         @arg @ref LL_PWR_MODE_STOP1
 449:Drivers/STM32WLxx_HAL_Driver/Inc/stm32wlxx_ll_pwr.h ****   *         @arg @ref LL_PWR_MODE_STOP2
 450:Drivers/STM32WLxx_HAL_Driver/Inc/stm32wlxx_ll_pwr.h ****   *         @arg @ref LL_PWR_MODE_STANDBY
 451:Drivers/STM32WLxx_HAL_Driver/Inc/stm32wlxx_ll_pwr.h ****   *         @arg @ref LL_PWR_MODE_SHUTDOWN
 452:Drivers/STM32WLxx_HAL_Driver/Inc/stm32wlxx_ll_pwr.h ****   */
 453:Drivers/STM32WLxx_HAL_Driver/Inc/stm32wlxx_ll_pwr.h **** __STATIC_INLINE uint32_t LL_PWR_GetPowerMode(void)
 454:Drivers/STM32WLxx_HAL_Driver/Inc/stm32wlxx_ll_pwr.h **** {
 455:Drivers/STM32WLxx_HAL_Driver/Inc/stm32wlxx_ll_pwr.h ****   return (uint32_t)(READ_BIT(PWR->CR1, PWR_CR1_LPMS));
 456:Drivers/STM32WLxx_HAL_Driver/Inc/stm32wlxx_ll_pwr.h **** }
 457:Drivers/STM32WLxx_HAL_Driver/Inc/stm32wlxx_ll_pwr.h **** 
 458:Drivers/STM32WLxx_HAL_Driver/Inc/stm32wlxx_ll_pwr.h **** /**
 459:Drivers/STM32WLxx_HAL_Driver/Inc/stm32wlxx_ll_pwr.h ****   * @brief  Set flash power-down mode during low-power run mode
 460:Drivers/STM32WLxx_HAL_Driver/Inc/stm32wlxx_ll_pwr.h ****   * @rmtoll CR1          FPDR          LL_PWR_SetFlashPowerModeLPRun
 461:Drivers/STM32WLxx_HAL_Driver/Inc/stm32wlxx_ll_pwr.h ****   * @param  FlashLowPowerMode This parameter can be one of the following values:
 462:Drivers/STM32WLxx_HAL_Driver/Inc/stm32wlxx_ll_pwr.h ****   *         @arg @ref LL_PWR_FLASH_LPRUN_MODE_IDLE
 463:Drivers/STM32WLxx_HAL_Driver/Inc/stm32wlxx_ll_pwr.h ****   *         @arg @ref LL_PWR_FLASH_LPRUN_MODE_POWER_DOWN
 464:Drivers/STM32WLxx_HAL_Driver/Inc/stm32wlxx_ll_pwr.h ****   * @retval None
 465:Drivers/STM32WLxx_HAL_Driver/Inc/stm32wlxx_ll_pwr.h ****   */
 466:Drivers/STM32WLxx_HAL_Driver/Inc/stm32wlxx_ll_pwr.h **** __STATIC_INLINE void LL_PWR_SetFlashPowerModeLPRun(uint32_t FlashLowPowerMode)
 467:Drivers/STM32WLxx_HAL_Driver/Inc/stm32wlxx_ll_pwr.h **** {
 468:Drivers/STM32WLxx_HAL_Driver/Inc/stm32wlxx_ll_pwr.h ****   /* Unlock bit FPDR */
 469:Drivers/STM32WLxx_HAL_Driver/Inc/stm32wlxx_ll_pwr.h ****   WRITE_REG(PWR->CR1, PWR_FLASH_POWER_MODE_UNLOCK_CODE);
 470:Drivers/STM32WLxx_HAL_Driver/Inc/stm32wlxx_ll_pwr.h **** 
 471:Drivers/STM32WLxx_HAL_Driver/Inc/stm32wlxx_ll_pwr.h ****   /* Update bit FPDR */
 472:Drivers/STM32WLxx_HAL_Driver/Inc/stm32wlxx_ll_pwr.h ****   MODIFY_REG(PWR->CR1, PWR_CR1_FPDR, FlashLowPowerMode);
 473:Drivers/STM32WLxx_HAL_Driver/Inc/stm32wlxx_ll_pwr.h **** }
 474:Drivers/STM32WLxx_HAL_Driver/Inc/stm32wlxx_ll_pwr.h **** 
 475:Drivers/STM32WLxx_HAL_Driver/Inc/stm32wlxx_ll_pwr.h **** /**
 476:Drivers/STM32WLxx_HAL_Driver/Inc/stm32wlxx_ll_pwr.h ****   * @brief  Get flash power-down mode during low-power run mode
 477:Drivers/STM32WLxx_HAL_Driver/Inc/stm32wlxx_ll_pwr.h ****   * @rmtoll CR1          FPDR          LL_PWR_GetFlashPowerModeLPRun
 478:Drivers/STM32WLxx_HAL_Driver/Inc/stm32wlxx_ll_pwr.h ****   * @retval Returned value can be one of the following values:
ARM GAS  /tmp/ccyVxTym.s 			page 19


 479:Drivers/STM32WLxx_HAL_Driver/Inc/stm32wlxx_ll_pwr.h ****   *         @arg @ref LL_PWR_FLASH_LPRUN_MODE_IDLE
 480:Drivers/STM32WLxx_HAL_Driver/Inc/stm32wlxx_ll_pwr.h ****   *         @arg @ref LL_PWR_FLASH_LPRUN_MODE_POWER_DOWN
 481:Drivers/STM32WLxx_HAL_Driver/Inc/stm32wlxx_ll_pwr.h ****   */
 482:Drivers/STM32WLxx_HAL_Driver/Inc/stm32wlxx_ll_pwr.h **** __STATIC_INLINE uint32_t LL_PWR_GetFlashPowerModeLPRun(void)
 483:Drivers/STM32WLxx_HAL_Driver/Inc/stm32wlxx_ll_pwr.h **** {
 484:Drivers/STM32WLxx_HAL_Driver/Inc/stm32wlxx_ll_pwr.h ****   return (uint32_t)(READ_BIT(PWR->CR1, PWR_CR1_FPDR));
 485:Drivers/STM32WLxx_HAL_Driver/Inc/stm32wlxx_ll_pwr.h **** }
 486:Drivers/STM32WLxx_HAL_Driver/Inc/stm32wlxx_ll_pwr.h **** 
 487:Drivers/STM32WLxx_HAL_Driver/Inc/stm32wlxx_ll_pwr.h **** /**
 488:Drivers/STM32WLxx_HAL_Driver/Inc/stm32wlxx_ll_pwr.h ****   * @brief  Set flash power-down mode during sleep mode
 489:Drivers/STM32WLxx_HAL_Driver/Inc/stm32wlxx_ll_pwr.h ****   * @rmtoll CR1          FPDS          LL_PWR_SetFlashPowerModeSleep
 490:Drivers/STM32WLxx_HAL_Driver/Inc/stm32wlxx_ll_pwr.h ****   * @param  FlashLowPowerMode This parameter can be one of the following values:
 491:Drivers/STM32WLxx_HAL_Driver/Inc/stm32wlxx_ll_pwr.h ****   *         @arg @ref LL_PWR_FLASH_SLEEP_MODE_IDLE
 492:Drivers/STM32WLxx_HAL_Driver/Inc/stm32wlxx_ll_pwr.h ****   *         @arg @ref LL_PWR_FLASH_SLEEP_MODE_POWER_DOWN
 493:Drivers/STM32WLxx_HAL_Driver/Inc/stm32wlxx_ll_pwr.h ****   * @retval None
 494:Drivers/STM32WLxx_HAL_Driver/Inc/stm32wlxx_ll_pwr.h ****   */
 495:Drivers/STM32WLxx_HAL_Driver/Inc/stm32wlxx_ll_pwr.h **** __STATIC_INLINE void LL_PWR_SetFlashPowerModeSleep(uint32_t FlashLowPowerMode)
 496:Drivers/STM32WLxx_HAL_Driver/Inc/stm32wlxx_ll_pwr.h **** {
 497:Drivers/STM32WLxx_HAL_Driver/Inc/stm32wlxx_ll_pwr.h ****   MODIFY_REG(PWR->CR1, PWR_CR1_FPDS, FlashLowPowerMode);
 498:Drivers/STM32WLxx_HAL_Driver/Inc/stm32wlxx_ll_pwr.h **** }
 499:Drivers/STM32WLxx_HAL_Driver/Inc/stm32wlxx_ll_pwr.h **** 
 500:Drivers/STM32WLxx_HAL_Driver/Inc/stm32wlxx_ll_pwr.h **** /**
 501:Drivers/STM32WLxx_HAL_Driver/Inc/stm32wlxx_ll_pwr.h ****   * @brief  Get flash power-down mode during sleep mode
 502:Drivers/STM32WLxx_HAL_Driver/Inc/stm32wlxx_ll_pwr.h ****   * @rmtoll CR1          FPDS          LL_PWR_GetFlashPowerModeSleep
 503:Drivers/STM32WLxx_HAL_Driver/Inc/stm32wlxx_ll_pwr.h ****   * @retval Returned value can be one of the following values:
 504:Drivers/STM32WLxx_HAL_Driver/Inc/stm32wlxx_ll_pwr.h ****   *         @arg @ref LL_PWR_FLASH_SLEEP_MODE_IDLE
 505:Drivers/STM32WLxx_HAL_Driver/Inc/stm32wlxx_ll_pwr.h ****   *         @arg @ref LL_PWR_FLASH_SLEEP_MODE_POWER_DOWN
 506:Drivers/STM32WLxx_HAL_Driver/Inc/stm32wlxx_ll_pwr.h ****   */
 507:Drivers/STM32WLxx_HAL_Driver/Inc/stm32wlxx_ll_pwr.h **** __STATIC_INLINE uint32_t LL_PWR_GetFlashPowerModeSleep(void)
 508:Drivers/STM32WLxx_HAL_Driver/Inc/stm32wlxx_ll_pwr.h **** {
 509:Drivers/STM32WLxx_HAL_Driver/Inc/stm32wlxx_ll_pwr.h ****   return (uint32_t)(READ_BIT(PWR->CR1, PWR_CR1_FPDS));
 510:Drivers/STM32WLxx_HAL_Driver/Inc/stm32wlxx_ll_pwr.h **** }
 511:Drivers/STM32WLxx_HAL_Driver/Inc/stm32wlxx_ll_pwr.h **** 
 512:Drivers/STM32WLxx_HAL_Driver/Inc/stm32wlxx_ll_pwr.h **** /**
 513:Drivers/STM32WLxx_HAL_Driver/Inc/stm32wlxx_ll_pwr.h ****   * @brief  Enable the Power Voltage Monitoring on a peripheral
 514:Drivers/STM32WLxx_HAL_Driver/Inc/stm32wlxx_ll_pwr.h ****   * @rmtoll CR2          PVME3         LL_PWR_EnablePVM
 515:Drivers/STM32WLxx_HAL_Driver/Inc/stm32wlxx_ll_pwr.h ****   * @param  PeriphVoltage This parameter can be one of the following values:
 516:Drivers/STM32WLxx_HAL_Driver/Inc/stm32wlxx_ll_pwr.h ****   *         @arg @ref LL_PWR_PVM_VDDA_1_62V
 517:Drivers/STM32WLxx_HAL_Driver/Inc/stm32wlxx_ll_pwr.h ****   * @retval None
 518:Drivers/STM32WLxx_HAL_Driver/Inc/stm32wlxx_ll_pwr.h ****   */
 519:Drivers/STM32WLxx_HAL_Driver/Inc/stm32wlxx_ll_pwr.h **** __STATIC_INLINE void LL_PWR_EnablePVM(uint32_t PeriphVoltage)
 520:Drivers/STM32WLxx_HAL_Driver/Inc/stm32wlxx_ll_pwr.h **** {
 521:Drivers/STM32WLxx_HAL_Driver/Inc/stm32wlxx_ll_pwr.h ****   SET_BIT(PWR->CR2, PeriphVoltage);
 522:Drivers/STM32WLxx_HAL_Driver/Inc/stm32wlxx_ll_pwr.h **** }
 523:Drivers/STM32WLxx_HAL_Driver/Inc/stm32wlxx_ll_pwr.h **** 
 524:Drivers/STM32WLxx_HAL_Driver/Inc/stm32wlxx_ll_pwr.h **** /**
 525:Drivers/STM32WLxx_HAL_Driver/Inc/stm32wlxx_ll_pwr.h ****   * @brief  Disable the Power Voltage Monitoring on a peripheral
 526:Drivers/STM32WLxx_HAL_Driver/Inc/stm32wlxx_ll_pwr.h ****   * @rmtoll CR2          PVME3         LL_PWR_DisablePVM
 527:Drivers/STM32WLxx_HAL_Driver/Inc/stm32wlxx_ll_pwr.h ****   * @param  PeriphVoltage This parameter can be one of the following values:
 528:Drivers/STM32WLxx_HAL_Driver/Inc/stm32wlxx_ll_pwr.h ****   *         @arg @ref LL_PWR_PVM_VDDA_1_62V
 529:Drivers/STM32WLxx_HAL_Driver/Inc/stm32wlxx_ll_pwr.h ****   * @retval None
 530:Drivers/STM32WLxx_HAL_Driver/Inc/stm32wlxx_ll_pwr.h ****   */
 531:Drivers/STM32WLxx_HAL_Driver/Inc/stm32wlxx_ll_pwr.h **** __STATIC_INLINE void LL_PWR_DisablePVM(uint32_t PeriphVoltage)
 532:Drivers/STM32WLxx_HAL_Driver/Inc/stm32wlxx_ll_pwr.h **** {
 533:Drivers/STM32WLxx_HAL_Driver/Inc/stm32wlxx_ll_pwr.h ****   CLEAR_BIT(PWR->CR2, PeriphVoltage);
 534:Drivers/STM32WLxx_HAL_Driver/Inc/stm32wlxx_ll_pwr.h **** }
 535:Drivers/STM32WLxx_HAL_Driver/Inc/stm32wlxx_ll_pwr.h **** 
ARM GAS  /tmp/ccyVxTym.s 			page 20


 536:Drivers/STM32WLxx_HAL_Driver/Inc/stm32wlxx_ll_pwr.h **** /**
 537:Drivers/STM32WLxx_HAL_Driver/Inc/stm32wlxx_ll_pwr.h ****   * @brief  Check if Power Voltage Monitoring is enabled on a peripheral
 538:Drivers/STM32WLxx_HAL_Driver/Inc/stm32wlxx_ll_pwr.h ****   * @rmtoll CR2          PVME3         LL_PWR_IsEnabledPVM
 539:Drivers/STM32WLxx_HAL_Driver/Inc/stm32wlxx_ll_pwr.h ****   * @param  PeriphVoltage This parameter can be one of the following values:
 540:Drivers/STM32WLxx_HAL_Driver/Inc/stm32wlxx_ll_pwr.h ****   *         @arg @ref LL_PWR_PVM_VDDA_1_62V
 541:Drivers/STM32WLxx_HAL_Driver/Inc/stm32wlxx_ll_pwr.h ****   * @retval State of bit (1 or 0).
 542:Drivers/STM32WLxx_HAL_Driver/Inc/stm32wlxx_ll_pwr.h ****   */
 543:Drivers/STM32WLxx_HAL_Driver/Inc/stm32wlxx_ll_pwr.h **** __STATIC_INLINE uint32_t LL_PWR_IsEnabledPVM(uint32_t PeriphVoltage)
 544:Drivers/STM32WLxx_HAL_Driver/Inc/stm32wlxx_ll_pwr.h **** {
 545:Drivers/STM32WLxx_HAL_Driver/Inc/stm32wlxx_ll_pwr.h ****   return ((READ_BIT(PWR->CR2, PeriphVoltage) == (PeriphVoltage)) ? 1UL : 0UL);
 546:Drivers/STM32WLxx_HAL_Driver/Inc/stm32wlxx_ll_pwr.h **** }
 547:Drivers/STM32WLxx_HAL_Driver/Inc/stm32wlxx_ll_pwr.h **** 
 548:Drivers/STM32WLxx_HAL_Driver/Inc/stm32wlxx_ll_pwr.h **** /**
 549:Drivers/STM32WLxx_HAL_Driver/Inc/stm32wlxx_ll_pwr.h ****   * @brief  Configure the voltage threshold detected by the Power Voltage Detector
 550:Drivers/STM32WLxx_HAL_Driver/Inc/stm32wlxx_ll_pwr.h ****   * @rmtoll CR2          PLS           LL_PWR_SetPVDLevel
 551:Drivers/STM32WLxx_HAL_Driver/Inc/stm32wlxx_ll_pwr.h ****   * @param  PVDLevel This parameter can be one of the following values:
 552:Drivers/STM32WLxx_HAL_Driver/Inc/stm32wlxx_ll_pwr.h ****   *         @arg @ref LL_PWR_PVDLEVEL_0
 553:Drivers/STM32WLxx_HAL_Driver/Inc/stm32wlxx_ll_pwr.h ****   *         @arg @ref LL_PWR_PVDLEVEL_1
 554:Drivers/STM32WLxx_HAL_Driver/Inc/stm32wlxx_ll_pwr.h ****   *         @arg @ref LL_PWR_PVDLEVEL_2
 555:Drivers/STM32WLxx_HAL_Driver/Inc/stm32wlxx_ll_pwr.h ****   *         @arg @ref LL_PWR_PVDLEVEL_3
 556:Drivers/STM32WLxx_HAL_Driver/Inc/stm32wlxx_ll_pwr.h ****   *         @arg @ref LL_PWR_PVDLEVEL_4
 557:Drivers/STM32WLxx_HAL_Driver/Inc/stm32wlxx_ll_pwr.h ****   *         @arg @ref LL_PWR_PVDLEVEL_5
 558:Drivers/STM32WLxx_HAL_Driver/Inc/stm32wlxx_ll_pwr.h ****   *         @arg @ref LL_PWR_PVDLEVEL_6
 559:Drivers/STM32WLxx_HAL_Driver/Inc/stm32wlxx_ll_pwr.h ****   *         @arg @ref LL_PWR_PVDLEVEL_7
 560:Drivers/STM32WLxx_HAL_Driver/Inc/stm32wlxx_ll_pwr.h ****   * @retval None
 561:Drivers/STM32WLxx_HAL_Driver/Inc/stm32wlxx_ll_pwr.h ****   */
 562:Drivers/STM32WLxx_HAL_Driver/Inc/stm32wlxx_ll_pwr.h **** __STATIC_INLINE void LL_PWR_SetPVDLevel(uint32_t PVDLevel)
 563:Drivers/STM32WLxx_HAL_Driver/Inc/stm32wlxx_ll_pwr.h **** {
 564:Drivers/STM32WLxx_HAL_Driver/Inc/stm32wlxx_ll_pwr.h ****   MODIFY_REG(PWR->CR2, PWR_CR2_PLS, PVDLevel);
 565:Drivers/STM32WLxx_HAL_Driver/Inc/stm32wlxx_ll_pwr.h **** }
 566:Drivers/STM32WLxx_HAL_Driver/Inc/stm32wlxx_ll_pwr.h **** 
 567:Drivers/STM32WLxx_HAL_Driver/Inc/stm32wlxx_ll_pwr.h **** /**
 568:Drivers/STM32WLxx_HAL_Driver/Inc/stm32wlxx_ll_pwr.h ****   * @brief  Get the voltage threshold detection
 569:Drivers/STM32WLxx_HAL_Driver/Inc/stm32wlxx_ll_pwr.h ****   * @rmtoll CR2          PLS           LL_PWR_GetPVDLevel
 570:Drivers/STM32WLxx_HAL_Driver/Inc/stm32wlxx_ll_pwr.h ****   * @retval Returned value can be one of the following values:
 571:Drivers/STM32WLxx_HAL_Driver/Inc/stm32wlxx_ll_pwr.h ****   *         @arg @ref LL_PWR_PVDLEVEL_0
 572:Drivers/STM32WLxx_HAL_Driver/Inc/stm32wlxx_ll_pwr.h ****   *         @arg @ref LL_PWR_PVDLEVEL_1
 573:Drivers/STM32WLxx_HAL_Driver/Inc/stm32wlxx_ll_pwr.h ****   *         @arg @ref LL_PWR_PVDLEVEL_2
 574:Drivers/STM32WLxx_HAL_Driver/Inc/stm32wlxx_ll_pwr.h ****   *         @arg @ref LL_PWR_PVDLEVEL_3
 575:Drivers/STM32WLxx_HAL_Driver/Inc/stm32wlxx_ll_pwr.h ****   *         @arg @ref LL_PWR_PVDLEVEL_4
 576:Drivers/STM32WLxx_HAL_Driver/Inc/stm32wlxx_ll_pwr.h ****   *         @arg @ref LL_PWR_PVDLEVEL_5
 577:Drivers/STM32WLxx_HAL_Driver/Inc/stm32wlxx_ll_pwr.h ****   *         @arg @ref LL_PWR_PVDLEVEL_6
 578:Drivers/STM32WLxx_HAL_Driver/Inc/stm32wlxx_ll_pwr.h ****   *         @arg @ref LL_PWR_PVDLEVEL_7
 579:Drivers/STM32WLxx_HAL_Driver/Inc/stm32wlxx_ll_pwr.h ****   */
 580:Drivers/STM32WLxx_HAL_Driver/Inc/stm32wlxx_ll_pwr.h **** __STATIC_INLINE uint32_t LL_PWR_GetPVDLevel(void)
 581:Drivers/STM32WLxx_HAL_Driver/Inc/stm32wlxx_ll_pwr.h **** {
 582:Drivers/STM32WLxx_HAL_Driver/Inc/stm32wlxx_ll_pwr.h ****   return (uint32_t)(READ_BIT(PWR->CR2, PWR_CR2_PLS));
 583:Drivers/STM32WLxx_HAL_Driver/Inc/stm32wlxx_ll_pwr.h **** }
 584:Drivers/STM32WLxx_HAL_Driver/Inc/stm32wlxx_ll_pwr.h **** 
 585:Drivers/STM32WLxx_HAL_Driver/Inc/stm32wlxx_ll_pwr.h **** /**
 586:Drivers/STM32WLxx_HAL_Driver/Inc/stm32wlxx_ll_pwr.h ****   * @brief  Enable Power Voltage Detector
 587:Drivers/STM32WLxx_HAL_Driver/Inc/stm32wlxx_ll_pwr.h ****   * @rmtoll CR2          PVDE          LL_PWR_EnablePVD
 588:Drivers/STM32WLxx_HAL_Driver/Inc/stm32wlxx_ll_pwr.h ****   * @retval None
 589:Drivers/STM32WLxx_HAL_Driver/Inc/stm32wlxx_ll_pwr.h ****   */
 590:Drivers/STM32WLxx_HAL_Driver/Inc/stm32wlxx_ll_pwr.h **** __STATIC_INLINE void LL_PWR_EnablePVD(void)
 591:Drivers/STM32WLxx_HAL_Driver/Inc/stm32wlxx_ll_pwr.h **** {
 592:Drivers/STM32WLxx_HAL_Driver/Inc/stm32wlxx_ll_pwr.h ****   SET_BIT(PWR->CR2, PWR_CR2_PVDE);
ARM GAS  /tmp/ccyVxTym.s 			page 21


 593:Drivers/STM32WLxx_HAL_Driver/Inc/stm32wlxx_ll_pwr.h **** }
 594:Drivers/STM32WLxx_HAL_Driver/Inc/stm32wlxx_ll_pwr.h **** 
 595:Drivers/STM32WLxx_HAL_Driver/Inc/stm32wlxx_ll_pwr.h **** /**
 596:Drivers/STM32WLxx_HAL_Driver/Inc/stm32wlxx_ll_pwr.h ****   * @brief  Disable Power Voltage Detector
 597:Drivers/STM32WLxx_HAL_Driver/Inc/stm32wlxx_ll_pwr.h ****   * @rmtoll CR2          PVDE          LL_PWR_DisablePVD
 598:Drivers/STM32WLxx_HAL_Driver/Inc/stm32wlxx_ll_pwr.h ****   * @retval None
 599:Drivers/STM32WLxx_HAL_Driver/Inc/stm32wlxx_ll_pwr.h ****   */
 600:Drivers/STM32WLxx_HAL_Driver/Inc/stm32wlxx_ll_pwr.h **** __STATIC_INLINE void LL_PWR_DisablePVD(void)
 601:Drivers/STM32WLxx_HAL_Driver/Inc/stm32wlxx_ll_pwr.h **** {
 602:Drivers/STM32WLxx_HAL_Driver/Inc/stm32wlxx_ll_pwr.h ****   CLEAR_BIT(PWR->CR2, PWR_CR2_PVDE);
 603:Drivers/STM32WLxx_HAL_Driver/Inc/stm32wlxx_ll_pwr.h **** }
 604:Drivers/STM32WLxx_HAL_Driver/Inc/stm32wlxx_ll_pwr.h **** 
 605:Drivers/STM32WLxx_HAL_Driver/Inc/stm32wlxx_ll_pwr.h **** /**
 606:Drivers/STM32WLxx_HAL_Driver/Inc/stm32wlxx_ll_pwr.h ****   * @brief  Check if Power Voltage Detector is enabled
 607:Drivers/STM32WLxx_HAL_Driver/Inc/stm32wlxx_ll_pwr.h ****   * @rmtoll CR2          PVDE          LL_PWR_IsEnabledPVD
 608:Drivers/STM32WLxx_HAL_Driver/Inc/stm32wlxx_ll_pwr.h ****   * @retval State of bit (1 or 0).
 609:Drivers/STM32WLxx_HAL_Driver/Inc/stm32wlxx_ll_pwr.h ****   */
 610:Drivers/STM32WLxx_HAL_Driver/Inc/stm32wlxx_ll_pwr.h **** __STATIC_INLINE uint32_t LL_PWR_IsEnabledPVD(void)
 611:Drivers/STM32WLxx_HAL_Driver/Inc/stm32wlxx_ll_pwr.h **** {
 612:Drivers/STM32WLxx_HAL_Driver/Inc/stm32wlxx_ll_pwr.h ****   return ((READ_BIT(PWR->CR2, PWR_CR2_PVDE) == (PWR_CR2_PVDE)) ? 1UL : 0UL);
 613:Drivers/STM32WLxx_HAL_Driver/Inc/stm32wlxx_ll_pwr.h **** }
 614:Drivers/STM32WLxx_HAL_Driver/Inc/stm32wlxx_ll_pwr.h **** 
 615:Drivers/STM32WLxx_HAL_Driver/Inc/stm32wlxx_ll_pwr.h **** /**
 616:Drivers/STM32WLxx_HAL_Driver/Inc/stm32wlxx_ll_pwr.h ****   * @brief  Set monitoring of supply voltage for radio operating level
 617:Drivers/STM32WLxx_HAL_Driver/Inc/stm32wlxx_ll_pwr.h ****   *         (radio End Of Life), radio must be in active mode.
 618:Drivers/STM32WLxx_HAL_Driver/Inc/stm32wlxx_ll_pwr.h ****   * @rmtoll CR5          RFEOLEN       LL_PWR_SetRadioEOL
 619:Drivers/STM32WLxx_HAL_Driver/Inc/stm32wlxx_ll_pwr.h ****   * @param  RadioEOL This parameter can be one of the following values:
 620:Drivers/STM32WLxx_HAL_Driver/Inc/stm32wlxx_ll_pwr.h ****   *         @arg @ref LL_PWR_RADIO_EOL_DISABLE
 621:Drivers/STM32WLxx_HAL_Driver/Inc/stm32wlxx_ll_pwr.h ****   *         @arg @ref LL_PWR_RADIO_EOL_ENABLE
 622:Drivers/STM32WLxx_HAL_Driver/Inc/stm32wlxx_ll_pwr.h ****   * @retval None
 623:Drivers/STM32WLxx_HAL_Driver/Inc/stm32wlxx_ll_pwr.h ****   */
 624:Drivers/STM32WLxx_HAL_Driver/Inc/stm32wlxx_ll_pwr.h **** __STATIC_INLINE void LL_PWR_SetRadioEOL(uint32_t RadioEOL)
 625:Drivers/STM32WLxx_HAL_Driver/Inc/stm32wlxx_ll_pwr.h **** {
 626:Drivers/STM32WLxx_HAL_Driver/Inc/stm32wlxx_ll_pwr.h ****   MODIFY_REG(PWR->CR5, PWR_CR5_RFEOLEN, RadioEOL);
 627:Drivers/STM32WLxx_HAL_Driver/Inc/stm32wlxx_ll_pwr.h **** }
 628:Drivers/STM32WLxx_HAL_Driver/Inc/stm32wlxx_ll_pwr.h **** 
 629:Drivers/STM32WLxx_HAL_Driver/Inc/stm32wlxx_ll_pwr.h **** /**
 630:Drivers/STM32WLxx_HAL_Driver/Inc/stm32wlxx_ll_pwr.h ****   * @brief  Get monitoring of supply voltage for radio operating level (radio End Of Life)
 631:Drivers/STM32WLxx_HAL_Driver/Inc/stm32wlxx_ll_pwr.h ****   * @rmtoll CR5          RFEOLEN       LL_PWR_GetRadioEOL
 632:Drivers/STM32WLxx_HAL_Driver/Inc/stm32wlxx_ll_pwr.h ****   * @retval Returned value can be one of the following values:
 633:Drivers/STM32WLxx_HAL_Driver/Inc/stm32wlxx_ll_pwr.h ****   *         @arg @ref LL_PWR_RADIO_EOL_DISABLE
 634:Drivers/STM32WLxx_HAL_Driver/Inc/stm32wlxx_ll_pwr.h ****   *         @arg @ref LL_PWR_RADIO_EOL_ENABLE
 635:Drivers/STM32WLxx_HAL_Driver/Inc/stm32wlxx_ll_pwr.h ****   */
 636:Drivers/STM32WLxx_HAL_Driver/Inc/stm32wlxx_ll_pwr.h **** __STATIC_INLINE uint32_t LL_PWR_GetRadioEOL(void)
 637:Drivers/STM32WLxx_HAL_Driver/Inc/stm32wlxx_ll_pwr.h **** {
 638:Drivers/STM32WLxx_HAL_Driver/Inc/stm32wlxx_ll_pwr.h ****   return (uint32_t)(READ_BIT(PWR->CR5, PWR_CR5_RFEOLEN));
 639:Drivers/STM32WLxx_HAL_Driver/Inc/stm32wlxx_ll_pwr.h **** }
 640:Drivers/STM32WLxx_HAL_Driver/Inc/stm32wlxx_ll_pwr.h **** 
 641:Drivers/STM32WLxx_HAL_Driver/Inc/stm32wlxx_ll_pwr.h **** /**
 642:Drivers/STM32WLxx_HAL_Driver/Inc/stm32wlxx_ll_pwr.h ****   * @brief  Enable Internal Wake-up line
 643:Drivers/STM32WLxx_HAL_Driver/Inc/stm32wlxx_ll_pwr.h ****   * @rmtoll CR3          EIWF          LL_PWR_EnableInternWU
 644:Drivers/STM32WLxx_HAL_Driver/Inc/stm32wlxx_ll_pwr.h ****   * @retval None
 645:Drivers/STM32WLxx_HAL_Driver/Inc/stm32wlxx_ll_pwr.h ****   */
 646:Drivers/STM32WLxx_HAL_Driver/Inc/stm32wlxx_ll_pwr.h **** __STATIC_INLINE void LL_PWR_EnableInternWU(void)
 647:Drivers/STM32WLxx_HAL_Driver/Inc/stm32wlxx_ll_pwr.h **** {
 648:Drivers/STM32WLxx_HAL_Driver/Inc/stm32wlxx_ll_pwr.h ****   SET_BIT(PWR->CR3, PWR_CR3_EIWUL);
 649:Drivers/STM32WLxx_HAL_Driver/Inc/stm32wlxx_ll_pwr.h **** }
ARM GAS  /tmp/ccyVxTym.s 			page 22


 650:Drivers/STM32WLxx_HAL_Driver/Inc/stm32wlxx_ll_pwr.h **** 
 651:Drivers/STM32WLxx_HAL_Driver/Inc/stm32wlxx_ll_pwr.h **** /**
 652:Drivers/STM32WLxx_HAL_Driver/Inc/stm32wlxx_ll_pwr.h ****   * @brief  Disable Internal Wake-up line
 653:Drivers/STM32WLxx_HAL_Driver/Inc/stm32wlxx_ll_pwr.h ****   * @rmtoll CR3          EIWF          LL_PWR_DisableInternWU
 654:Drivers/STM32WLxx_HAL_Driver/Inc/stm32wlxx_ll_pwr.h ****   * @retval None
 655:Drivers/STM32WLxx_HAL_Driver/Inc/stm32wlxx_ll_pwr.h ****   */
 656:Drivers/STM32WLxx_HAL_Driver/Inc/stm32wlxx_ll_pwr.h **** __STATIC_INLINE void LL_PWR_DisableInternWU(void)
 657:Drivers/STM32WLxx_HAL_Driver/Inc/stm32wlxx_ll_pwr.h **** {
 658:Drivers/STM32WLxx_HAL_Driver/Inc/stm32wlxx_ll_pwr.h ****   CLEAR_BIT(PWR->CR3, PWR_CR3_EIWUL);
 659:Drivers/STM32WLxx_HAL_Driver/Inc/stm32wlxx_ll_pwr.h **** }
 660:Drivers/STM32WLxx_HAL_Driver/Inc/stm32wlxx_ll_pwr.h **** 
 661:Drivers/STM32WLxx_HAL_Driver/Inc/stm32wlxx_ll_pwr.h **** /**
 662:Drivers/STM32WLxx_HAL_Driver/Inc/stm32wlxx_ll_pwr.h ****   * @brief  Check if Internal Wake-up line is enabled
 663:Drivers/STM32WLxx_HAL_Driver/Inc/stm32wlxx_ll_pwr.h ****   * @rmtoll CR3          EIWF          LL_PWR_IsEnabledInternWU
 664:Drivers/STM32WLxx_HAL_Driver/Inc/stm32wlxx_ll_pwr.h ****   * @retval State of bit (1 or 0).
 665:Drivers/STM32WLxx_HAL_Driver/Inc/stm32wlxx_ll_pwr.h ****   */
 666:Drivers/STM32WLxx_HAL_Driver/Inc/stm32wlxx_ll_pwr.h **** __STATIC_INLINE uint32_t LL_PWR_IsEnabledInternWU(void)
 667:Drivers/STM32WLxx_HAL_Driver/Inc/stm32wlxx_ll_pwr.h **** {
 668:Drivers/STM32WLxx_HAL_Driver/Inc/stm32wlxx_ll_pwr.h ****   return ((READ_BIT(PWR->CR3, PWR_CR3_EIWUL) == (PWR_CR3_EIWUL)) ? 1UL : 0UL);
 669:Drivers/STM32WLxx_HAL_Driver/Inc/stm32wlxx_ll_pwr.h **** }
 670:Drivers/STM32WLxx_HAL_Driver/Inc/stm32wlxx_ll_pwr.h **** 
 671:Drivers/STM32WLxx_HAL_Driver/Inc/stm32wlxx_ll_pwr.h **** /**
 672:Drivers/STM32WLxx_HAL_Driver/Inc/stm32wlxx_ll_pwr.h ****   * @brief  Enable pull-up and pull-down configuration
 673:Drivers/STM32WLxx_HAL_Driver/Inc/stm32wlxx_ll_pwr.h ****   * @rmtoll CR3          APC           LL_PWR_EnablePUPDCfg
 674:Drivers/STM32WLxx_HAL_Driver/Inc/stm32wlxx_ll_pwr.h ****   * @retval None
 675:Drivers/STM32WLxx_HAL_Driver/Inc/stm32wlxx_ll_pwr.h ****   */
 676:Drivers/STM32WLxx_HAL_Driver/Inc/stm32wlxx_ll_pwr.h **** __STATIC_INLINE void LL_PWR_EnablePUPDCfg(void)
 677:Drivers/STM32WLxx_HAL_Driver/Inc/stm32wlxx_ll_pwr.h **** {
 678:Drivers/STM32WLxx_HAL_Driver/Inc/stm32wlxx_ll_pwr.h ****   SET_BIT(PWR->CR3, PWR_CR3_APC);
 679:Drivers/STM32WLxx_HAL_Driver/Inc/stm32wlxx_ll_pwr.h **** }
 680:Drivers/STM32WLxx_HAL_Driver/Inc/stm32wlxx_ll_pwr.h **** 
 681:Drivers/STM32WLxx_HAL_Driver/Inc/stm32wlxx_ll_pwr.h **** /**
 682:Drivers/STM32WLxx_HAL_Driver/Inc/stm32wlxx_ll_pwr.h ****   * @brief  Disable pull-up and pull-down configuration
 683:Drivers/STM32WLxx_HAL_Driver/Inc/stm32wlxx_ll_pwr.h ****   * @rmtoll CR3          APC           LL_PWR_DisablePUPDCfg
 684:Drivers/STM32WLxx_HAL_Driver/Inc/stm32wlxx_ll_pwr.h ****   * @retval None
 685:Drivers/STM32WLxx_HAL_Driver/Inc/stm32wlxx_ll_pwr.h ****   */
 686:Drivers/STM32WLxx_HAL_Driver/Inc/stm32wlxx_ll_pwr.h **** __STATIC_INLINE void LL_PWR_DisablePUPDCfg(void)
 687:Drivers/STM32WLxx_HAL_Driver/Inc/stm32wlxx_ll_pwr.h **** {
 688:Drivers/STM32WLxx_HAL_Driver/Inc/stm32wlxx_ll_pwr.h ****   CLEAR_BIT(PWR->CR3, PWR_CR3_APC);
 689:Drivers/STM32WLxx_HAL_Driver/Inc/stm32wlxx_ll_pwr.h **** }
 690:Drivers/STM32WLxx_HAL_Driver/Inc/stm32wlxx_ll_pwr.h **** 
 691:Drivers/STM32WLxx_HAL_Driver/Inc/stm32wlxx_ll_pwr.h **** /**
 692:Drivers/STM32WLxx_HAL_Driver/Inc/stm32wlxx_ll_pwr.h ****   * @brief  Check if pull-up and pull-down configuration is enabled
 693:Drivers/STM32WLxx_HAL_Driver/Inc/stm32wlxx_ll_pwr.h ****   * @rmtoll CR3          APC           LL_PWR_IsEnabledPUPDCfg
 694:Drivers/STM32WLxx_HAL_Driver/Inc/stm32wlxx_ll_pwr.h ****   * @retval State of bit (1 or 0).
 695:Drivers/STM32WLxx_HAL_Driver/Inc/stm32wlxx_ll_pwr.h ****   */
 696:Drivers/STM32WLxx_HAL_Driver/Inc/stm32wlxx_ll_pwr.h **** __STATIC_INLINE uint32_t LL_PWR_IsEnabledPUPDCfg(void)
 697:Drivers/STM32WLxx_HAL_Driver/Inc/stm32wlxx_ll_pwr.h **** {
 698:Drivers/STM32WLxx_HAL_Driver/Inc/stm32wlxx_ll_pwr.h ****   return ((READ_BIT(PWR->CR3, PWR_CR3_APC) == (PWR_CR3_APC)) ? 1UL : 0UL);
 699:Drivers/STM32WLxx_HAL_Driver/Inc/stm32wlxx_ll_pwr.h **** }
 700:Drivers/STM32WLxx_HAL_Driver/Inc/stm32wlxx_ll_pwr.h **** 
 701:Drivers/STM32WLxx_HAL_Driver/Inc/stm32wlxx_ll_pwr.h **** /**
 702:Drivers/STM32WLxx_HAL_Driver/Inc/stm32wlxx_ll_pwr.h ****   * @brief  Enable SRAM2 content retention in Standby mode
 703:Drivers/STM32WLxx_HAL_Driver/Inc/stm32wlxx_ll_pwr.h ****   * @rmtoll CR3          RRS           LL_PWR_EnableSRAM2Retention
 704:Drivers/STM32WLxx_HAL_Driver/Inc/stm32wlxx_ll_pwr.h ****   * @retval None
 705:Drivers/STM32WLxx_HAL_Driver/Inc/stm32wlxx_ll_pwr.h ****   */
 706:Drivers/STM32WLxx_HAL_Driver/Inc/stm32wlxx_ll_pwr.h **** __STATIC_INLINE void LL_PWR_EnableSRAM2Retention(void)
ARM GAS  /tmp/ccyVxTym.s 			page 23


 707:Drivers/STM32WLxx_HAL_Driver/Inc/stm32wlxx_ll_pwr.h **** {
 708:Drivers/STM32WLxx_HAL_Driver/Inc/stm32wlxx_ll_pwr.h ****   SET_BIT(PWR->CR3, PWR_CR3_RRS);
 709:Drivers/STM32WLxx_HAL_Driver/Inc/stm32wlxx_ll_pwr.h **** }
 710:Drivers/STM32WLxx_HAL_Driver/Inc/stm32wlxx_ll_pwr.h **** 
 711:Drivers/STM32WLxx_HAL_Driver/Inc/stm32wlxx_ll_pwr.h **** /**
 712:Drivers/STM32WLxx_HAL_Driver/Inc/stm32wlxx_ll_pwr.h ****   * @brief  Disable SRAM2 content retention in Standby mode
 713:Drivers/STM32WLxx_HAL_Driver/Inc/stm32wlxx_ll_pwr.h ****   * @rmtoll CR3          RRS           LL_PWR_DisableSRAM2Retention
 714:Drivers/STM32WLxx_HAL_Driver/Inc/stm32wlxx_ll_pwr.h ****   * @retval None
 715:Drivers/STM32WLxx_HAL_Driver/Inc/stm32wlxx_ll_pwr.h ****   */
 716:Drivers/STM32WLxx_HAL_Driver/Inc/stm32wlxx_ll_pwr.h **** __STATIC_INLINE void LL_PWR_DisableSRAM2Retention(void)
 717:Drivers/STM32WLxx_HAL_Driver/Inc/stm32wlxx_ll_pwr.h **** {
 718:Drivers/STM32WLxx_HAL_Driver/Inc/stm32wlxx_ll_pwr.h ****   CLEAR_BIT(PWR->CR3, PWR_CR3_RRS);
 719:Drivers/STM32WLxx_HAL_Driver/Inc/stm32wlxx_ll_pwr.h **** }
 720:Drivers/STM32WLxx_HAL_Driver/Inc/stm32wlxx_ll_pwr.h **** 
 721:Drivers/STM32WLxx_HAL_Driver/Inc/stm32wlxx_ll_pwr.h **** /**
 722:Drivers/STM32WLxx_HAL_Driver/Inc/stm32wlxx_ll_pwr.h ****   * @brief  Check if SRAM2 content retention in Standby mode is enabled
 723:Drivers/STM32WLxx_HAL_Driver/Inc/stm32wlxx_ll_pwr.h ****   * @rmtoll CR3          RRS           LL_PWR_IsEnabledSRAM2Retention
 724:Drivers/STM32WLxx_HAL_Driver/Inc/stm32wlxx_ll_pwr.h ****   * @retval State of bit (1 or 0).
 725:Drivers/STM32WLxx_HAL_Driver/Inc/stm32wlxx_ll_pwr.h ****   */
 726:Drivers/STM32WLxx_HAL_Driver/Inc/stm32wlxx_ll_pwr.h **** __STATIC_INLINE uint32_t LL_PWR_IsEnabledSRAM2Retention(void)
 727:Drivers/STM32WLxx_HAL_Driver/Inc/stm32wlxx_ll_pwr.h **** {
 728:Drivers/STM32WLxx_HAL_Driver/Inc/stm32wlxx_ll_pwr.h ****   return ((READ_BIT(PWR->CR3, PWR_CR3_RRS) == (PWR_CR3_RRS)) ? 1UL : 0UL);
 729:Drivers/STM32WLxx_HAL_Driver/Inc/stm32wlxx_ll_pwr.h **** }
 730:Drivers/STM32WLxx_HAL_Driver/Inc/stm32wlxx_ll_pwr.h **** 
 731:Drivers/STM32WLxx_HAL_Driver/Inc/stm32wlxx_ll_pwr.h **** /**
 732:Drivers/STM32WLxx_HAL_Driver/Inc/stm32wlxx_ll_pwr.h ****   * @brief  Enable wake-up power voltage detection with trigger for CPU1
 733:Drivers/STM32WLxx_HAL_Driver/Inc/stm32wlxx_ll_pwr.h ****   * @note   Wake-up power voltage detection status can be checked
 734:Drivers/STM32WLxx_HAL_Driver/Inc/stm32wlxx_ll_pwr.h ****   *         using function @ref LL_PWR_IsActiveFlag_WPVD().
 735:Drivers/STM32WLxx_HAL_Driver/Inc/stm32wlxx_ll_pwr.h ****   * @rmtoll CR3          EWPVD         LL_PWR_EnableWPVD
 736:Drivers/STM32WLxx_HAL_Driver/Inc/stm32wlxx_ll_pwr.h ****   * @retval None
 737:Drivers/STM32WLxx_HAL_Driver/Inc/stm32wlxx_ll_pwr.h ****   */
 738:Drivers/STM32WLxx_HAL_Driver/Inc/stm32wlxx_ll_pwr.h **** __STATIC_INLINE void LL_PWR_EnableWPVD(void)
 739:Drivers/STM32WLxx_HAL_Driver/Inc/stm32wlxx_ll_pwr.h **** {
 740:Drivers/STM32WLxx_HAL_Driver/Inc/stm32wlxx_ll_pwr.h ****   SET_BIT(PWR->CR3, PWR_CR3_EWPVD);
 741:Drivers/STM32WLxx_HAL_Driver/Inc/stm32wlxx_ll_pwr.h **** }
 742:Drivers/STM32WLxx_HAL_Driver/Inc/stm32wlxx_ll_pwr.h **** 
 743:Drivers/STM32WLxx_HAL_Driver/Inc/stm32wlxx_ll_pwr.h **** /**
 744:Drivers/STM32WLxx_HAL_Driver/Inc/stm32wlxx_ll_pwr.h ****   * @brief  Disable wake-up power voltage detection with trigger for CPU1
 745:Drivers/STM32WLxx_HAL_Driver/Inc/stm32wlxx_ll_pwr.h ****   * @rmtoll CR3          EWPVD         LL_PWR_DisableWPVD
 746:Drivers/STM32WLxx_HAL_Driver/Inc/stm32wlxx_ll_pwr.h ****   * @retval None
 747:Drivers/STM32WLxx_HAL_Driver/Inc/stm32wlxx_ll_pwr.h ****   */
 748:Drivers/STM32WLxx_HAL_Driver/Inc/stm32wlxx_ll_pwr.h **** __STATIC_INLINE void LL_PWR_DisableWPVD(void)
 749:Drivers/STM32WLxx_HAL_Driver/Inc/stm32wlxx_ll_pwr.h **** {
 750:Drivers/STM32WLxx_HAL_Driver/Inc/stm32wlxx_ll_pwr.h ****   CLEAR_BIT(PWR->CR3, PWR_CR3_EWPVD);
 751:Drivers/STM32WLxx_HAL_Driver/Inc/stm32wlxx_ll_pwr.h **** }
 752:Drivers/STM32WLxx_HAL_Driver/Inc/stm32wlxx_ll_pwr.h **** 
 753:Drivers/STM32WLxx_HAL_Driver/Inc/stm32wlxx_ll_pwr.h **** /**
 754:Drivers/STM32WLxx_HAL_Driver/Inc/stm32wlxx_ll_pwr.h ****   * @brief  Check if wake-up power voltage detection is enabled with trigger for CPU1
 755:Drivers/STM32WLxx_HAL_Driver/Inc/stm32wlxx_ll_pwr.h ****   * @rmtoll CR3          EWPVD         LL_PWR_IsEnabledWPVD
 756:Drivers/STM32WLxx_HAL_Driver/Inc/stm32wlxx_ll_pwr.h ****   * @retval State of bit (1 or 0).
 757:Drivers/STM32WLxx_HAL_Driver/Inc/stm32wlxx_ll_pwr.h ****   */
 758:Drivers/STM32WLxx_HAL_Driver/Inc/stm32wlxx_ll_pwr.h **** __STATIC_INLINE uint32_t LL_PWR_IsEnabledWPVD(void)
 759:Drivers/STM32WLxx_HAL_Driver/Inc/stm32wlxx_ll_pwr.h **** {
 760:Drivers/STM32WLxx_HAL_Driver/Inc/stm32wlxx_ll_pwr.h ****   return ((READ_BIT(PWR->CR3, PWR_CR3_EWPVD) == (PWR_CR3_EWPVD)) ? 1UL : 0UL);
 761:Drivers/STM32WLxx_HAL_Driver/Inc/stm32wlxx_ll_pwr.h **** }
 762:Drivers/STM32WLxx_HAL_Driver/Inc/stm32wlxx_ll_pwr.h **** 
 763:Drivers/STM32WLxx_HAL_Driver/Inc/stm32wlxx_ll_pwr.h **** /**
ARM GAS  /tmp/ccyVxTym.s 			page 24


 764:Drivers/STM32WLxx_HAL_Driver/Inc/stm32wlxx_ll_pwr.h ****   * @brief  Enable periodical sampling of supply voltage in Stop and Standby
 765:Drivers/STM32WLxx_HAL_Driver/Inc/stm32wlxx_ll_pwr.h ****   *         modes for detecting condition of PDR and BOR reset.
 766:Drivers/STM32WLxx_HAL_Driver/Inc/stm32wlxx_ll_pwr.h ****   * @note   Caution: When enabled, and if the supply voltage drops below
 767:Drivers/STM32WLxx_HAL_Driver/Inc/stm32wlxx_ll_pwr.h ****   *         the minimum operating condition between two supply voltage samples,
 768:Drivers/STM32WLxx_HAL_Driver/Inc/stm32wlxx_ll_pwr.h ****   *         the reset condition is missed and no reset is generated.
 769:Drivers/STM32WLxx_HAL_Driver/Inc/stm32wlxx_ll_pwr.h ****   * @rmtoll CR3          ULPEN         LL_PWR_EnableBORPVD_ULP
 770:Drivers/STM32WLxx_HAL_Driver/Inc/stm32wlxx_ll_pwr.h ****   * @retval None
 771:Drivers/STM32WLxx_HAL_Driver/Inc/stm32wlxx_ll_pwr.h ****   */
 772:Drivers/STM32WLxx_HAL_Driver/Inc/stm32wlxx_ll_pwr.h **** __STATIC_INLINE void LL_PWR_EnableBORPVD_ULP(void)
 773:Drivers/STM32WLxx_HAL_Driver/Inc/stm32wlxx_ll_pwr.h **** {
 774:Drivers/STM32WLxx_HAL_Driver/Inc/stm32wlxx_ll_pwr.h ****   SET_BIT(PWR->CR3, PWR_CR3_ULPEN);
 775:Drivers/STM32WLxx_HAL_Driver/Inc/stm32wlxx_ll_pwr.h **** }
 776:Drivers/STM32WLxx_HAL_Driver/Inc/stm32wlxx_ll_pwr.h **** 
 777:Drivers/STM32WLxx_HAL_Driver/Inc/stm32wlxx_ll_pwr.h **** /**
 778:Drivers/STM32WLxx_HAL_Driver/Inc/stm32wlxx_ll_pwr.h ****   * @brief  Disable periodical sampling of supply voltage in Stop and Standby
 779:Drivers/STM32WLxx_HAL_Driver/Inc/stm32wlxx_ll_pwr.h ****   *         modes for detecting condition of PDR and BOR reset.
 780:Drivers/STM32WLxx_HAL_Driver/Inc/stm32wlxx_ll_pwr.h ****   * @rmtoll CR3          ULPEN         LL_PWR_DisableBORPVD_ULP
 781:Drivers/STM32WLxx_HAL_Driver/Inc/stm32wlxx_ll_pwr.h ****   * @retval None
 782:Drivers/STM32WLxx_HAL_Driver/Inc/stm32wlxx_ll_pwr.h ****   */
 783:Drivers/STM32WLxx_HAL_Driver/Inc/stm32wlxx_ll_pwr.h **** __STATIC_INLINE void LL_PWR_DisableBORPVD_ULP(void)
 784:Drivers/STM32WLxx_HAL_Driver/Inc/stm32wlxx_ll_pwr.h **** {
 785:Drivers/STM32WLxx_HAL_Driver/Inc/stm32wlxx_ll_pwr.h ****   CLEAR_BIT(PWR->CR3, PWR_CR3_ULPEN);
 786:Drivers/STM32WLxx_HAL_Driver/Inc/stm32wlxx_ll_pwr.h **** }
 787:Drivers/STM32WLxx_HAL_Driver/Inc/stm32wlxx_ll_pwr.h **** 
 788:Drivers/STM32WLxx_HAL_Driver/Inc/stm32wlxx_ll_pwr.h **** /**
 789:Drivers/STM32WLxx_HAL_Driver/Inc/stm32wlxx_ll_pwr.h ****   * @brief  Check if periodical sampling of supply voltage in Stop and Standby
 790:Drivers/STM32WLxx_HAL_Driver/Inc/stm32wlxx_ll_pwr.h ****   *         modes is enabled.
 791:Drivers/STM32WLxx_HAL_Driver/Inc/stm32wlxx_ll_pwr.h ****   * @rmtoll CR3          ULPEN         LL_PWR_IsEnabledBORPVD_ULP
 792:Drivers/STM32WLxx_HAL_Driver/Inc/stm32wlxx_ll_pwr.h ****   * @retval State of bit (1 or 0).
 793:Drivers/STM32WLxx_HAL_Driver/Inc/stm32wlxx_ll_pwr.h ****   */
 794:Drivers/STM32WLxx_HAL_Driver/Inc/stm32wlxx_ll_pwr.h **** __STATIC_INLINE uint32_t LL_PWR_IsEnabledBORPVD_ULP(void)
 795:Drivers/STM32WLxx_HAL_Driver/Inc/stm32wlxx_ll_pwr.h **** {
 796:Drivers/STM32WLxx_HAL_Driver/Inc/stm32wlxx_ll_pwr.h ****   return ((READ_BIT(PWR->CR3, PWR_CR3_ULPEN) == (PWR_CR3_ULPEN)) ? 1UL : 0UL);
 797:Drivers/STM32WLxx_HAL_Driver/Inc/stm32wlxx_ll_pwr.h **** }
 798:Drivers/STM32WLxx_HAL_Driver/Inc/stm32wlxx_ll_pwr.h **** 
 799:Drivers/STM32WLxx_HAL_Driver/Inc/stm32wlxx_ll_pwr.h **** /**
 800:Drivers/STM32WLxx_HAL_Driver/Inc/stm32wlxx_ll_pwr.h ****   * @brief  Enable the WakeUp PINx functionality
 801:Drivers/STM32WLxx_HAL_Driver/Inc/stm32wlxx_ll_pwr.h ****   * @rmtoll CR3          EWUP1         LL_PWR_EnableWakeUpPin\n
 802:Drivers/STM32WLxx_HAL_Driver/Inc/stm32wlxx_ll_pwr.h ****   *         CR3          EWUP2         LL_PWR_EnableWakeUpPin\n
 803:Drivers/STM32WLxx_HAL_Driver/Inc/stm32wlxx_ll_pwr.h ****   *         CR3          EWUP3         LL_PWR_EnableWakeUpPin
 804:Drivers/STM32WLxx_HAL_Driver/Inc/stm32wlxx_ll_pwr.h ****   * @param  WakeUpPin This parameter can be one of the following values:
 805:Drivers/STM32WLxx_HAL_Driver/Inc/stm32wlxx_ll_pwr.h ****   *         @arg @ref LL_PWR_WAKEUP_PIN1
 806:Drivers/STM32WLxx_HAL_Driver/Inc/stm32wlxx_ll_pwr.h ****   *         @arg @ref LL_PWR_WAKEUP_PIN2
 807:Drivers/STM32WLxx_HAL_Driver/Inc/stm32wlxx_ll_pwr.h ****   *         @arg @ref LL_PWR_WAKEUP_PIN3
 808:Drivers/STM32WLxx_HAL_Driver/Inc/stm32wlxx_ll_pwr.h ****   * @retval None
 809:Drivers/STM32WLxx_HAL_Driver/Inc/stm32wlxx_ll_pwr.h ****   */
 810:Drivers/STM32WLxx_HAL_Driver/Inc/stm32wlxx_ll_pwr.h **** __STATIC_INLINE void LL_PWR_EnableWakeUpPin(uint32_t WakeUpPin)
 811:Drivers/STM32WLxx_HAL_Driver/Inc/stm32wlxx_ll_pwr.h **** {
 812:Drivers/STM32WLxx_HAL_Driver/Inc/stm32wlxx_ll_pwr.h ****   SET_BIT(PWR->CR3, WakeUpPin);
 813:Drivers/STM32WLxx_HAL_Driver/Inc/stm32wlxx_ll_pwr.h **** }
 814:Drivers/STM32WLxx_HAL_Driver/Inc/stm32wlxx_ll_pwr.h **** 
 815:Drivers/STM32WLxx_HAL_Driver/Inc/stm32wlxx_ll_pwr.h **** /**
 816:Drivers/STM32WLxx_HAL_Driver/Inc/stm32wlxx_ll_pwr.h ****   * @brief  Disable the WakeUp PINx functionality
 817:Drivers/STM32WLxx_HAL_Driver/Inc/stm32wlxx_ll_pwr.h ****   * @rmtoll CR3          EWUP1         LL_PWR_DisableWakeUpPin\n
 818:Drivers/STM32WLxx_HAL_Driver/Inc/stm32wlxx_ll_pwr.h ****   *         CR3          EWUP2         LL_PWR_DisableWakeUpPin\n
 819:Drivers/STM32WLxx_HAL_Driver/Inc/stm32wlxx_ll_pwr.h ****   *         CR3          EWUP3         LL_PWR_DisableWakeUpPin
 820:Drivers/STM32WLxx_HAL_Driver/Inc/stm32wlxx_ll_pwr.h ****   * @param  WakeUpPin This parameter can be one of the following values:
ARM GAS  /tmp/ccyVxTym.s 			page 25


 821:Drivers/STM32WLxx_HAL_Driver/Inc/stm32wlxx_ll_pwr.h ****   *         @arg @ref LL_PWR_WAKEUP_PIN1
 822:Drivers/STM32WLxx_HAL_Driver/Inc/stm32wlxx_ll_pwr.h ****   *         @arg @ref LL_PWR_WAKEUP_PIN2
 823:Drivers/STM32WLxx_HAL_Driver/Inc/stm32wlxx_ll_pwr.h ****   *         @arg @ref LL_PWR_WAKEUP_PIN3
 824:Drivers/STM32WLxx_HAL_Driver/Inc/stm32wlxx_ll_pwr.h ****   * @retval None
 825:Drivers/STM32WLxx_HAL_Driver/Inc/stm32wlxx_ll_pwr.h ****   */
 826:Drivers/STM32WLxx_HAL_Driver/Inc/stm32wlxx_ll_pwr.h **** __STATIC_INLINE void LL_PWR_DisableWakeUpPin(uint32_t WakeUpPin)
 827:Drivers/STM32WLxx_HAL_Driver/Inc/stm32wlxx_ll_pwr.h **** {
 828:Drivers/STM32WLxx_HAL_Driver/Inc/stm32wlxx_ll_pwr.h ****   CLEAR_BIT(PWR->CR3, WakeUpPin);
 829:Drivers/STM32WLxx_HAL_Driver/Inc/stm32wlxx_ll_pwr.h **** }
 830:Drivers/STM32WLxx_HAL_Driver/Inc/stm32wlxx_ll_pwr.h **** 
 831:Drivers/STM32WLxx_HAL_Driver/Inc/stm32wlxx_ll_pwr.h **** /**
 832:Drivers/STM32WLxx_HAL_Driver/Inc/stm32wlxx_ll_pwr.h ****   * @brief  Check if the WakeUp PINx functionality is enabled
 833:Drivers/STM32WLxx_HAL_Driver/Inc/stm32wlxx_ll_pwr.h ****   * @rmtoll CR3          EWUP1         LL_PWR_IsEnabledWakeUpPin\n
 834:Drivers/STM32WLxx_HAL_Driver/Inc/stm32wlxx_ll_pwr.h ****   *         CR3          EWUP2         LL_PWR_IsEnabledWakeUpPin\n
 835:Drivers/STM32WLxx_HAL_Driver/Inc/stm32wlxx_ll_pwr.h ****   *         CR3          EWUP3         LL_PWR_IsEnabledWakeUpPin
 836:Drivers/STM32WLxx_HAL_Driver/Inc/stm32wlxx_ll_pwr.h ****   * @param  WakeUpPin This parameter can be one of the following values:
 837:Drivers/STM32WLxx_HAL_Driver/Inc/stm32wlxx_ll_pwr.h ****   *         @arg @ref LL_PWR_WAKEUP_PIN1
 838:Drivers/STM32WLxx_HAL_Driver/Inc/stm32wlxx_ll_pwr.h ****   *         @arg @ref LL_PWR_WAKEUP_PIN2
 839:Drivers/STM32WLxx_HAL_Driver/Inc/stm32wlxx_ll_pwr.h ****   *         @arg @ref LL_PWR_WAKEUP_PIN3
 840:Drivers/STM32WLxx_HAL_Driver/Inc/stm32wlxx_ll_pwr.h ****   * @retval State of bit (1 or 0).
 841:Drivers/STM32WLxx_HAL_Driver/Inc/stm32wlxx_ll_pwr.h ****   */
 842:Drivers/STM32WLxx_HAL_Driver/Inc/stm32wlxx_ll_pwr.h **** __STATIC_INLINE uint32_t LL_PWR_IsEnabledWakeUpPin(uint32_t WakeUpPin)
 843:Drivers/STM32WLxx_HAL_Driver/Inc/stm32wlxx_ll_pwr.h **** {
 844:Drivers/STM32WLxx_HAL_Driver/Inc/stm32wlxx_ll_pwr.h ****   return ((READ_BIT(PWR->CR3, WakeUpPin) == (WakeUpPin)) ? 1UL : 0UL);
 845:Drivers/STM32WLxx_HAL_Driver/Inc/stm32wlxx_ll_pwr.h **** }
 846:Drivers/STM32WLxx_HAL_Driver/Inc/stm32wlxx_ll_pwr.h **** 
 847:Drivers/STM32WLxx_HAL_Driver/Inc/stm32wlxx_ll_pwr.h **** /**
 848:Drivers/STM32WLxx_HAL_Driver/Inc/stm32wlxx_ll_pwr.h ****   * @brief  Set the resistor impedance
 849:Drivers/STM32WLxx_HAL_Driver/Inc/stm32wlxx_ll_pwr.h ****   * @rmtoll CR4          VBRS          LL_PWR_SetBattChargResistor
 850:Drivers/STM32WLxx_HAL_Driver/Inc/stm32wlxx_ll_pwr.h ****   * @param  Resistor This parameter can be one of the following values:
 851:Drivers/STM32WLxx_HAL_Driver/Inc/stm32wlxx_ll_pwr.h ****   *         @arg @ref LL_PWR_BATT_CHARG_RESISTOR_5K
 852:Drivers/STM32WLxx_HAL_Driver/Inc/stm32wlxx_ll_pwr.h ****   *         @arg @ref LL_PWR_BATT_CHARGRESISTOR_1_5K
 853:Drivers/STM32WLxx_HAL_Driver/Inc/stm32wlxx_ll_pwr.h ****   * @retval None
 854:Drivers/STM32WLxx_HAL_Driver/Inc/stm32wlxx_ll_pwr.h ****   */
 855:Drivers/STM32WLxx_HAL_Driver/Inc/stm32wlxx_ll_pwr.h **** __STATIC_INLINE void LL_PWR_SetBattChargResistor(uint32_t Resistor)
 856:Drivers/STM32WLxx_HAL_Driver/Inc/stm32wlxx_ll_pwr.h **** {
 857:Drivers/STM32WLxx_HAL_Driver/Inc/stm32wlxx_ll_pwr.h ****   MODIFY_REG(PWR->CR4, PWR_CR4_VBRS, Resistor);
 858:Drivers/STM32WLxx_HAL_Driver/Inc/stm32wlxx_ll_pwr.h **** }
 859:Drivers/STM32WLxx_HAL_Driver/Inc/stm32wlxx_ll_pwr.h **** 
 860:Drivers/STM32WLxx_HAL_Driver/Inc/stm32wlxx_ll_pwr.h **** /**
 861:Drivers/STM32WLxx_HAL_Driver/Inc/stm32wlxx_ll_pwr.h ****   * @brief  Get the resistor impedance
 862:Drivers/STM32WLxx_HAL_Driver/Inc/stm32wlxx_ll_pwr.h ****   * @rmtoll CR4          VBRS          LL_PWR_GetBattChargResistor
 863:Drivers/STM32WLxx_HAL_Driver/Inc/stm32wlxx_ll_pwr.h ****   * @retval Returned value can be one of the following values:
 864:Drivers/STM32WLxx_HAL_Driver/Inc/stm32wlxx_ll_pwr.h ****   *         @arg @ref LL_PWR_BATT_CHARG_RESISTOR_5K
 865:Drivers/STM32WLxx_HAL_Driver/Inc/stm32wlxx_ll_pwr.h ****   *         @arg @ref LL_PWR_BATT_CHARGRESISTOR_1_5K
 866:Drivers/STM32WLxx_HAL_Driver/Inc/stm32wlxx_ll_pwr.h ****   */
 867:Drivers/STM32WLxx_HAL_Driver/Inc/stm32wlxx_ll_pwr.h **** __STATIC_INLINE uint32_t LL_PWR_GetBattChargResistor(void)
 868:Drivers/STM32WLxx_HAL_Driver/Inc/stm32wlxx_ll_pwr.h **** {
 869:Drivers/STM32WLxx_HAL_Driver/Inc/stm32wlxx_ll_pwr.h ****   return (uint32_t)(READ_BIT(PWR->CR4, PWR_CR4_VBRS));
 870:Drivers/STM32WLxx_HAL_Driver/Inc/stm32wlxx_ll_pwr.h **** }
 871:Drivers/STM32WLxx_HAL_Driver/Inc/stm32wlxx_ll_pwr.h **** 
 872:Drivers/STM32WLxx_HAL_Driver/Inc/stm32wlxx_ll_pwr.h **** /**
 873:Drivers/STM32WLxx_HAL_Driver/Inc/stm32wlxx_ll_pwr.h ****   * @brief  Enable battery charging
 874:Drivers/STM32WLxx_HAL_Driver/Inc/stm32wlxx_ll_pwr.h ****   * @rmtoll CR4          VBE           LL_PWR_EnableBatteryCharging
 875:Drivers/STM32WLxx_HAL_Driver/Inc/stm32wlxx_ll_pwr.h ****   * @retval None
 876:Drivers/STM32WLxx_HAL_Driver/Inc/stm32wlxx_ll_pwr.h ****   */
 877:Drivers/STM32WLxx_HAL_Driver/Inc/stm32wlxx_ll_pwr.h **** __STATIC_INLINE void LL_PWR_EnableBatteryCharging(void)
ARM GAS  /tmp/ccyVxTym.s 			page 26


 878:Drivers/STM32WLxx_HAL_Driver/Inc/stm32wlxx_ll_pwr.h **** {
 879:Drivers/STM32WLxx_HAL_Driver/Inc/stm32wlxx_ll_pwr.h ****   SET_BIT(PWR->CR4, PWR_CR4_VBE);
 880:Drivers/STM32WLxx_HAL_Driver/Inc/stm32wlxx_ll_pwr.h **** }
 881:Drivers/STM32WLxx_HAL_Driver/Inc/stm32wlxx_ll_pwr.h **** 
 882:Drivers/STM32WLxx_HAL_Driver/Inc/stm32wlxx_ll_pwr.h **** /**
 883:Drivers/STM32WLxx_HAL_Driver/Inc/stm32wlxx_ll_pwr.h ****   * @brief  Disable battery charging
 884:Drivers/STM32WLxx_HAL_Driver/Inc/stm32wlxx_ll_pwr.h ****   * @rmtoll CR4          VBE           LL_PWR_DisableBatteryCharging
 885:Drivers/STM32WLxx_HAL_Driver/Inc/stm32wlxx_ll_pwr.h ****   * @retval None
 886:Drivers/STM32WLxx_HAL_Driver/Inc/stm32wlxx_ll_pwr.h ****   */
 887:Drivers/STM32WLxx_HAL_Driver/Inc/stm32wlxx_ll_pwr.h **** __STATIC_INLINE void LL_PWR_DisableBatteryCharging(void)
 888:Drivers/STM32WLxx_HAL_Driver/Inc/stm32wlxx_ll_pwr.h **** {
 889:Drivers/STM32WLxx_HAL_Driver/Inc/stm32wlxx_ll_pwr.h ****   CLEAR_BIT(PWR->CR4, PWR_CR4_VBE);
 890:Drivers/STM32WLxx_HAL_Driver/Inc/stm32wlxx_ll_pwr.h **** }
 891:Drivers/STM32WLxx_HAL_Driver/Inc/stm32wlxx_ll_pwr.h **** 
 892:Drivers/STM32WLxx_HAL_Driver/Inc/stm32wlxx_ll_pwr.h **** /**
 893:Drivers/STM32WLxx_HAL_Driver/Inc/stm32wlxx_ll_pwr.h ****   * @brief  Check if battery charging is enabled
 894:Drivers/STM32WLxx_HAL_Driver/Inc/stm32wlxx_ll_pwr.h ****   * @rmtoll CR4          VBE           LL_PWR_IsEnabledBatteryCharging
 895:Drivers/STM32WLxx_HAL_Driver/Inc/stm32wlxx_ll_pwr.h ****   * @retval State of bit (1 or 0).
 896:Drivers/STM32WLxx_HAL_Driver/Inc/stm32wlxx_ll_pwr.h ****   */
 897:Drivers/STM32WLxx_HAL_Driver/Inc/stm32wlxx_ll_pwr.h **** __STATIC_INLINE uint32_t LL_PWR_IsEnabledBatteryCharging(void)
 898:Drivers/STM32WLxx_HAL_Driver/Inc/stm32wlxx_ll_pwr.h **** {
 899:Drivers/STM32WLxx_HAL_Driver/Inc/stm32wlxx_ll_pwr.h ****   return ((READ_BIT(PWR->CR4, PWR_CR4_VBE) == (PWR_CR4_VBE)) ? 1UL : 0UL);
 900:Drivers/STM32WLxx_HAL_Driver/Inc/stm32wlxx_ll_pwr.h **** }
 901:Drivers/STM32WLxx_HAL_Driver/Inc/stm32wlxx_ll_pwr.h **** 
 902:Drivers/STM32WLxx_HAL_Driver/Inc/stm32wlxx_ll_pwr.h **** /**
 903:Drivers/STM32WLxx_HAL_Driver/Inc/stm32wlxx_ll_pwr.h ****   * @brief  Set the Wake-Up pin polarity low for the event detection
 904:Drivers/STM32WLxx_HAL_Driver/Inc/stm32wlxx_ll_pwr.h ****   * @rmtoll CR4          WP1           LL_PWR_SetWakeUpPinPolarityLow\n
 905:Drivers/STM32WLxx_HAL_Driver/Inc/stm32wlxx_ll_pwr.h ****   *         CR4          WP2           LL_PWR_SetWakeUpPinPolarityLow\n
 906:Drivers/STM32WLxx_HAL_Driver/Inc/stm32wlxx_ll_pwr.h ****   *         CR4          WP3           LL_PWR_SetWakeUpPinPolarityLow
 907:Drivers/STM32WLxx_HAL_Driver/Inc/stm32wlxx_ll_pwr.h ****   * @param  WakeUpPin This parameter can be one of the following values:
 908:Drivers/STM32WLxx_HAL_Driver/Inc/stm32wlxx_ll_pwr.h ****   *         @arg @ref LL_PWR_WAKEUP_PIN1
 909:Drivers/STM32WLxx_HAL_Driver/Inc/stm32wlxx_ll_pwr.h ****   *         @arg @ref LL_PWR_WAKEUP_PIN2
 910:Drivers/STM32WLxx_HAL_Driver/Inc/stm32wlxx_ll_pwr.h ****   *         @arg @ref LL_PWR_WAKEUP_PIN3
 911:Drivers/STM32WLxx_HAL_Driver/Inc/stm32wlxx_ll_pwr.h ****   * @retval None
 912:Drivers/STM32WLxx_HAL_Driver/Inc/stm32wlxx_ll_pwr.h ****   */
 913:Drivers/STM32WLxx_HAL_Driver/Inc/stm32wlxx_ll_pwr.h **** __STATIC_INLINE void LL_PWR_SetWakeUpPinPolarityLow(uint32_t WakeUpPin)
 914:Drivers/STM32WLxx_HAL_Driver/Inc/stm32wlxx_ll_pwr.h **** {
 915:Drivers/STM32WLxx_HAL_Driver/Inc/stm32wlxx_ll_pwr.h ****   SET_BIT(PWR->CR4, WakeUpPin);
 916:Drivers/STM32WLxx_HAL_Driver/Inc/stm32wlxx_ll_pwr.h **** }
 917:Drivers/STM32WLxx_HAL_Driver/Inc/stm32wlxx_ll_pwr.h **** 
 918:Drivers/STM32WLxx_HAL_Driver/Inc/stm32wlxx_ll_pwr.h **** /**
 919:Drivers/STM32WLxx_HAL_Driver/Inc/stm32wlxx_ll_pwr.h ****   * @brief  Set the Wake-Up pin polarity high for the event detection
 920:Drivers/STM32WLxx_HAL_Driver/Inc/stm32wlxx_ll_pwr.h ****   * @rmtoll CR4          WP1           LL_PWR_SetWakeUpPinPolarityHigh\n
 921:Drivers/STM32WLxx_HAL_Driver/Inc/stm32wlxx_ll_pwr.h ****   *         CR4          WP2           LL_PWR_SetWakeUpPinPolarityHigh\n
 922:Drivers/STM32WLxx_HAL_Driver/Inc/stm32wlxx_ll_pwr.h ****   *         CR4          WP3           LL_PWR_SetWakeUpPinPolarityHigh
 923:Drivers/STM32WLxx_HAL_Driver/Inc/stm32wlxx_ll_pwr.h ****   * @param  WakeUpPin This parameter can be one of the following values:
 924:Drivers/STM32WLxx_HAL_Driver/Inc/stm32wlxx_ll_pwr.h ****   *         @arg @ref LL_PWR_WAKEUP_PIN1
 925:Drivers/STM32WLxx_HAL_Driver/Inc/stm32wlxx_ll_pwr.h ****   *         @arg @ref LL_PWR_WAKEUP_PIN2
 926:Drivers/STM32WLxx_HAL_Driver/Inc/stm32wlxx_ll_pwr.h ****   *         @arg @ref LL_PWR_WAKEUP_PIN3
 927:Drivers/STM32WLxx_HAL_Driver/Inc/stm32wlxx_ll_pwr.h ****   * @retval None
 928:Drivers/STM32WLxx_HAL_Driver/Inc/stm32wlxx_ll_pwr.h ****   */
 929:Drivers/STM32WLxx_HAL_Driver/Inc/stm32wlxx_ll_pwr.h **** __STATIC_INLINE void LL_PWR_SetWakeUpPinPolarityHigh(uint32_t WakeUpPin)
 930:Drivers/STM32WLxx_HAL_Driver/Inc/stm32wlxx_ll_pwr.h **** {
 931:Drivers/STM32WLxx_HAL_Driver/Inc/stm32wlxx_ll_pwr.h ****   CLEAR_BIT(PWR->CR4, WakeUpPin);
 932:Drivers/STM32WLxx_HAL_Driver/Inc/stm32wlxx_ll_pwr.h **** }
 933:Drivers/STM32WLxx_HAL_Driver/Inc/stm32wlxx_ll_pwr.h **** 
 934:Drivers/STM32WLxx_HAL_Driver/Inc/stm32wlxx_ll_pwr.h **** /**
ARM GAS  /tmp/ccyVxTym.s 			page 27


 935:Drivers/STM32WLxx_HAL_Driver/Inc/stm32wlxx_ll_pwr.h ****   * @brief  Get the Wake-Up pin polarity for the event detection
 936:Drivers/STM32WLxx_HAL_Driver/Inc/stm32wlxx_ll_pwr.h ****   * @rmtoll CR4          WP1           LL_PWR_IsWakeUpPinPolarityLow\n
 937:Drivers/STM32WLxx_HAL_Driver/Inc/stm32wlxx_ll_pwr.h ****   *         CR4          WP2           LL_PWR_IsWakeUpPinPolarityLow\n
 938:Drivers/STM32WLxx_HAL_Driver/Inc/stm32wlxx_ll_pwr.h ****   *         CR4          WP3           LL_PWR_IsWakeUpPinPolarityLow
 939:Drivers/STM32WLxx_HAL_Driver/Inc/stm32wlxx_ll_pwr.h ****   * @param  WakeUpPin This parameter can be one of the following values:
 940:Drivers/STM32WLxx_HAL_Driver/Inc/stm32wlxx_ll_pwr.h ****   *         @arg @ref LL_PWR_WAKEUP_PIN1
 941:Drivers/STM32WLxx_HAL_Driver/Inc/stm32wlxx_ll_pwr.h ****   *         @arg @ref LL_PWR_WAKEUP_PIN2
 942:Drivers/STM32WLxx_HAL_Driver/Inc/stm32wlxx_ll_pwr.h ****   *         @arg @ref LL_PWR_WAKEUP_PIN3
 943:Drivers/STM32WLxx_HAL_Driver/Inc/stm32wlxx_ll_pwr.h ****   * @retval State of bit (1 or 0).
 944:Drivers/STM32WLxx_HAL_Driver/Inc/stm32wlxx_ll_pwr.h ****   */
 945:Drivers/STM32WLxx_HAL_Driver/Inc/stm32wlxx_ll_pwr.h **** __STATIC_INLINE uint32_t LL_PWR_IsWakeUpPinPolarityLow(uint32_t WakeUpPin)
 946:Drivers/STM32WLxx_HAL_Driver/Inc/stm32wlxx_ll_pwr.h **** {
 947:Drivers/STM32WLxx_HAL_Driver/Inc/stm32wlxx_ll_pwr.h ****   return ((READ_BIT(PWR->CR4, WakeUpPin) == (WakeUpPin)) ? 1UL : 0UL);
 948:Drivers/STM32WLxx_HAL_Driver/Inc/stm32wlxx_ll_pwr.h **** }
 949:Drivers/STM32WLxx_HAL_Driver/Inc/stm32wlxx_ll_pwr.h **** 
 950:Drivers/STM32WLxx_HAL_Driver/Inc/stm32wlxx_ll_pwr.h **** /**
 951:Drivers/STM32WLxx_HAL_Driver/Inc/stm32wlxx_ll_pwr.h ****   * @brief  Enable GPIO pull-up state in Standby and Shutdown modes
 952:Drivers/STM32WLxx_HAL_Driver/Inc/stm32wlxx_ll_pwr.h ****   * @note   Some pins are not configurable for pulling in Standby and Shutdown
 953:Drivers/STM32WLxx_HAL_Driver/Inc/stm32wlxx_ll_pwr.h ****   *         modes. Refer to reference manual for available pins and ports.
 954:Drivers/STM32WLxx_HAL_Driver/Inc/stm32wlxx_ll_pwr.h ****   * @rmtoll PUCRA        PU0-15        LL_PWR_EnableGPIOPullUp\n
 955:Drivers/STM32WLxx_HAL_Driver/Inc/stm32wlxx_ll_pwr.h ****   *         PUCRB        PU0-15        LL_PWR_EnableGPIOPullUp\n
 956:Drivers/STM32WLxx_HAL_Driver/Inc/stm32wlxx_ll_pwr.h ****   *         PUCRC        PU0-15        LL_PWR_EnableGPIOPullUp\n
 957:Drivers/STM32WLxx_HAL_Driver/Inc/stm32wlxx_ll_pwr.h ****   *         PUCRH        PU0-15        LL_PWR_EnableGPIOPullUp
 958:Drivers/STM32WLxx_HAL_Driver/Inc/stm32wlxx_ll_pwr.h ****   * @param  GPIO This parameter can be one of the following values:
 959:Drivers/STM32WLxx_HAL_Driver/Inc/stm32wlxx_ll_pwr.h ****   *         @arg @ref LL_PWR_GPIO_A
 960:Drivers/STM32WLxx_HAL_Driver/Inc/stm32wlxx_ll_pwr.h ****   *         @arg @ref LL_PWR_GPIO_B
 961:Drivers/STM32WLxx_HAL_Driver/Inc/stm32wlxx_ll_pwr.h ****   *         @arg @ref LL_PWR_GPIO_C
 962:Drivers/STM32WLxx_HAL_Driver/Inc/stm32wlxx_ll_pwr.h ****   *         @arg @ref LL_PWR_GPIO_H
 963:Drivers/STM32WLxx_HAL_Driver/Inc/stm32wlxx_ll_pwr.h ****   * @param  GPIONumber This parameter can be one of the following values:
 964:Drivers/STM32WLxx_HAL_Driver/Inc/stm32wlxx_ll_pwr.h ****   *         @arg @ref LL_PWR_GPIO_BIT_0
 965:Drivers/STM32WLxx_HAL_Driver/Inc/stm32wlxx_ll_pwr.h ****   *         @arg @ref LL_PWR_GPIO_BIT_1
 966:Drivers/STM32WLxx_HAL_Driver/Inc/stm32wlxx_ll_pwr.h ****   *         @arg @ref LL_PWR_GPIO_BIT_2
 967:Drivers/STM32WLxx_HAL_Driver/Inc/stm32wlxx_ll_pwr.h ****   *         @arg @ref LL_PWR_GPIO_BIT_3
 968:Drivers/STM32WLxx_HAL_Driver/Inc/stm32wlxx_ll_pwr.h ****   *         @arg @ref LL_PWR_GPIO_BIT_4
 969:Drivers/STM32WLxx_HAL_Driver/Inc/stm32wlxx_ll_pwr.h ****   *         @arg @ref LL_PWR_GPIO_BIT_5
 970:Drivers/STM32WLxx_HAL_Driver/Inc/stm32wlxx_ll_pwr.h ****   *         @arg @ref LL_PWR_GPIO_BIT_6
 971:Drivers/STM32WLxx_HAL_Driver/Inc/stm32wlxx_ll_pwr.h ****   *         @arg @ref LL_PWR_GPIO_BIT_7
 972:Drivers/STM32WLxx_HAL_Driver/Inc/stm32wlxx_ll_pwr.h ****   *         @arg @ref LL_PWR_GPIO_BIT_8
 973:Drivers/STM32WLxx_HAL_Driver/Inc/stm32wlxx_ll_pwr.h ****   *         @arg @ref LL_PWR_GPIO_BIT_9
 974:Drivers/STM32WLxx_HAL_Driver/Inc/stm32wlxx_ll_pwr.h ****   *         @arg @ref LL_PWR_GPIO_BIT_10
 975:Drivers/STM32WLxx_HAL_Driver/Inc/stm32wlxx_ll_pwr.h ****   *         @arg @ref LL_PWR_GPIO_BIT_11
 976:Drivers/STM32WLxx_HAL_Driver/Inc/stm32wlxx_ll_pwr.h ****   *         @arg @ref LL_PWR_GPIO_BIT_12
 977:Drivers/STM32WLxx_HAL_Driver/Inc/stm32wlxx_ll_pwr.h ****   *         @arg @ref LL_PWR_GPIO_BIT_13
 978:Drivers/STM32WLxx_HAL_Driver/Inc/stm32wlxx_ll_pwr.h ****   *         @arg @ref LL_PWR_GPIO_BIT_14
 979:Drivers/STM32WLxx_HAL_Driver/Inc/stm32wlxx_ll_pwr.h ****   *         @arg @ref LL_PWR_GPIO_BIT_15
 980:Drivers/STM32WLxx_HAL_Driver/Inc/stm32wlxx_ll_pwr.h ****   * @retval None
 981:Drivers/STM32WLxx_HAL_Driver/Inc/stm32wlxx_ll_pwr.h ****   */
 982:Drivers/STM32WLxx_HAL_Driver/Inc/stm32wlxx_ll_pwr.h **** __STATIC_INLINE void LL_PWR_EnableGPIOPullUp(uint32_t GPIO, uint32_t GPIONumber)
 983:Drivers/STM32WLxx_HAL_Driver/Inc/stm32wlxx_ll_pwr.h **** {
 984:Drivers/STM32WLxx_HAL_Driver/Inc/stm32wlxx_ll_pwr.h ****   SET_BIT(*((__IO uint32_t *)GPIO), GPIONumber);
 985:Drivers/STM32WLxx_HAL_Driver/Inc/stm32wlxx_ll_pwr.h **** }
 986:Drivers/STM32WLxx_HAL_Driver/Inc/stm32wlxx_ll_pwr.h **** 
 987:Drivers/STM32WLxx_HAL_Driver/Inc/stm32wlxx_ll_pwr.h **** /**
 988:Drivers/STM32WLxx_HAL_Driver/Inc/stm32wlxx_ll_pwr.h ****   * @brief  Disable GPIO pull-up state in Standby and Shutdown modes
 989:Drivers/STM32WLxx_HAL_Driver/Inc/stm32wlxx_ll_pwr.h ****   * @note   Some pins are not configurable for pulling in Standby and Shutdown
 990:Drivers/STM32WLxx_HAL_Driver/Inc/stm32wlxx_ll_pwr.h ****   *         modes. Refer to reference manual for available pins and ports.
 991:Drivers/STM32WLxx_HAL_Driver/Inc/stm32wlxx_ll_pwr.h ****   * @rmtoll PUCRA        PU0-15        LL_PWR_DisableGPIOPullUp\n
ARM GAS  /tmp/ccyVxTym.s 			page 28


 992:Drivers/STM32WLxx_HAL_Driver/Inc/stm32wlxx_ll_pwr.h ****   *         PUCRB        PU0-15        LL_PWR_DisableGPIOPullUp\n
 993:Drivers/STM32WLxx_HAL_Driver/Inc/stm32wlxx_ll_pwr.h ****   *         PUCRC        PU0-15        LL_PWR_DisableGPIOPullUp\n
 994:Drivers/STM32WLxx_HAL_Driver/Inc/stm32wlxx_ll_pwr.h ****   *         PUCRH        PU0-15        LL_PWR_DisableGPIOPullUp
 995:Drivers/STM32WLxx_HAL_Driver/Inc/stm32wlxx_ll_pwr.h ****   * @param  GPIO This parameter can be one of the following values:
 996:Drivers/STM32WLxx_HAL_Driver/Inc/stm32wlxx_ll_pwr.h ****   *         @arg @ref LL_PWR_GPIO_A
 997:Drivers/STM32WLxx_HAL_Driver/Inc/stm32wlxx_ll_pwr.h ****   *         @arg @ref LL_PWR_GPIO_B
 998:Drivers/STM32WLxx_HAL_Driver/Inc/stm32wlxx_ll_pwr.h ****   *         @arg @ref LL_PWR_GPIO_C
 999:Drivers/STM32WLxx_HAL_Driver/Inc/stm32wlxx_ll_pwr.h ****   *         @arg @ref LL_PWR_GPIO_H
1000:Drivers/STM32WLxx_HAL_Driver/Inc/stm32wlxx_ll_pwr.h ****   * @param  GPIONumber This parameter can be one of the following values:
1001:Drivers/STM32WLxx_HAL_Driver/Inc/stm32wlxx_ll_pwr.h ****   *         @arg @ref LL_PWR_GPIO_BIT_0
1002:Drivers/STM32WLxx_HAL_Driver/Inc/stm32wlxx_ll_pwr.h ****   *         @arg @ref LL_PWR_GPIO_BIT_1
1003:Drivers/STM32WLxx_HAL_Driver/Inc/stm32wlxx_ll_pwr.h ****   *         @arg @ref LL_PWR_GPIO_BIT_2
1004:Drivers/STM32WLxx_HAL_Driver/Inc/stm32wlxx_ll_pwr.h ****   *         @arg @ref LL_PWR_GPIO_BIT_3
1005:Drivers/STM32WLxx_HAL_Driver/Inc/stm32wlxx_ll_pwr.h ****   *         @arg @ref LL_PWR_GPIO_BIT_4
1006:Drivers/STM32WLxx_HAL_Driver/Inc/stm32wlxx_ll_pwr.h ****   *         @arg @ref LL_PWR_GPIO_BIT_5
1007:Drivers/STM32WLxx_HAL_Driver/Inc/stm32wlxx_ll_pwr.h ****   *         @arg @ref LL_PWR_GPIO_BIT_6
1008:Drivers/STM32WLxx_HAL_Driver/Inc/stm32wlxx_ll_pwr.h ****   *         @arg @ref LL_PWR_GPIO_BIT_7
1009:Drivers/STM32WLxx_HAL_Driver/Inc/stm32wlxx_ll_pwr.h ****   *         @arg @ref LL_PWR_GPIO_BIT_8
1010:Drivers/STM32WLxx_HAL_Driver/Inc/stm32wlxx_ll_pwr.h ****   *         @arg @ref LL_PWR_GPIO_BIT_9
1011:Drivers/STM32WLxx_HAL_Driver/Inc/stm32wlxx_ll_pwr.h ****   *         @arg @ref LL_PWR_GPIO_BIT_10
1012:Drivers/STM32WLxx_HAL_Driver/Inc/stm32wlxx_ll_pwr.h ****   *         @arg @ref LL_PWR_GPIO_BIT_11
1013:Drivers/STM32WLxx_HAL_Driver/Inc/stm32wlxx_ll_pwr.h ****   *         @arg @ref LL_PWR_GPIO_BIT_12
1014:Drivers/STM32WLxx_HAL_Driver/Inc/stm32wlxx_ll_pwr.h ****   *         @arg @ref LL_PWR_GPIO_BIT_13
1015:Drivers/STM32WLxx_HAL_Driver/Inc/stm32wlxx_ll_pwr.h ****   *         @arg @ref LL_PWR_GPIO_BIT_14
1016:Drivers/STM32WLxx_HAL_Driver/Inc/stm32wlxx_ll_pwr.h ****   *         @arg @ref LL_PWR_GPIO_BIT_15
1017:Drivers/STM32WLxx_HAL_Driver/Inc/stm32wlxx_ll_pwr.h ****   * @retval None
1018:Drivers/STM32WLxx_HAL_Driver/Inc/stm32wlxx_ll_pwr.h ****   */
1019:Drivers/STM32WLxx_HAL_Driver/Inc/stm32wlxx_ll_pwr.h **** __STATIC_INLINE void LL_PWR_DisableGPIOPullUp(uint32_t GPIO, uint32_t GPIONumber)
1020:Drivers/STM32WLxx_HAL_Driver/Inc/stm32wlxx_ll_pwr.h **** {
1021:Drivers/STM32WLxx_HAL_Driver/Inc/stm32wlxx_ll_pwr.h ****   CLEAR_BIT(*((__IO uint32_t *)GPIO), GPIONumber);
1022:Drivers/STM32WLxx_HAL_Driver/Inc/stm32wlxx_ll_pwr.h **** }
1023:Drivers/STM32WLxx_HAL_Driver/Inc/stm32wlxx_ll_pwr.h **** 
1024:Drivers/STM32WLxx_HAL_Driver/Inc/stm32wlxx_ll_pwr.h **** /**
1025:Drivers/STM32WLxx_HAL_Driver/Inc/stm32wlxx_ll_pwr.h ****   * @brief  Check if GPIO pull-up state is enabled
1026:Drivers/STM32WLxx_HAL_Driver/Inc/stm32wlxx_ll_pwr.h ****   * @rmtoll PUCRA        PU0-15        LL_PWR_IsEnabledGPIOPullUp\n
1027:Drivers/STM32WLxx_HAL_Driver/Inc/stm32wlxx_ll_pwr.h ****   *         PUCRB        PU0-15        LL_PWR_IsEnabledGPIOPullUp\n
1028:Drivers/STM32WLxx_HAL_Driver/Inc/stm32wlxx_ll_pwr.h ****   *         PUCRC        PU0-15        LL_PWR_IsEnabledGPIOPullUp\n
1029:Drivers/STM32WLxx_HAL_Driver/Inc/stm32wlxx_ll_pwr.h ****   *         PUCRH        PU0-15        LL_PWR_IsEnabledGPIOPullUp
1030:Drivers/STM32WLxx_HAL_Driver/Inc/stm32wlxx_ll_pwr.h ****   * @param  GPIO This parameter can be one of the following values:
1031:Drivers/STM32WLxx_HAL_Driver/Inc/stm32wlxx_ll_pwr.h ****   *         @arg @ref LL_PWR_GPIO_A
1032:Drivers/STM32WLxx_HAL_Driver/Inc/stm32wlxx_ll_pwr.h ****   *         @arg @ref LL_PWR_GPIO_B
1033:Drivers/STM32WLxx_HAL_Driver/Inc/stm32wlxx_ll_pwr.h ****   *         @arg @ref LL_PWR_GPIO_C
1034:Drivers/STM32WLxx_HAL_Driver/Inc/stm32wlxx_ll_pwr.h ****   *         @arg @ref LL_PWR_GPIO_H
1035:Drivers/STM32WLxx_HAL_Driver/Inc/stm32wlxx_ll_pwr.h ****   * @param  GPIONumber This parameter can be one of the following values:
1036:Drivers/STM32WLxx_HAL_Driver/Inc/stm32wlxx_ll_pwr.h ****   *         @arg @ref LL_PWR_GPIO_BIT_0
1037:Drivers/STM32WLxx_HAL_Driver/Inc/stm32wlxx_ll_pwr.h ****   *         @arg @ref LL_PWR_GPIO_BIT_1
1038:Drivers/STM32WLxx_HAL_Driver/Inc/stm32wlxx_ll_pwr.h ****   *         @arg @ref LL_PWR_GPIO_BIT_2
1039:Drivers/STM32WLxx_HAL_Driver/Inc/stm32wlxx_ll_pwr.h ****   *         @arg @ref LL_PWR_GPIO_BIT_3
1040:Drivers/STM32WLxx_HAL_Driver/Inc/stm32wlxx_ll_pwr.h ****   *         @arg @ref LL_PWR_GPIO_BIT_4
1041:Drivers/STM32WLxx_HAL_Driver/Inc/stm32wlxx_ll_pwr.h ****   *         @arg @ref LL_PWR_GPIO_BIT_5
1042:Drivers/STM32WLxx_HAL_Driver/Inc/stm32wlxx_ll_pwr.h ****   *         @arg @ref LL_PWR_GPIO_BIT_6
1043:Drivers/STM32WLxx_HAL_Driver/Inc/stm32wlxx_ll_pwr.h ****   *         @arg @ref LL_PWR_GPIO_BIT_7
1044:Drivers/STM32WLxx_HAL_Driver/Inc/stm32wlxx_ll_pwr.h ****   *         @arg @ref LL_PWR_GPIO_BIT_8
1045:Drivers/STM32WLxx_HAL_Driver/Inc/stm32wlxx_ll_pwr.h ****   *         @arg @ref LL_PWR_GPIO_BIT_9
1046:Drivers/STM32WLxx_HAL_Driver/Inc/stm32wlxx_ll_pwr.h ****   *         @arg @ref LL_PWR_GPIO_BIT_10
1047:Drivers/STM32WLxx_HAL_Driver/Inc/stm32wlxx_ll_pwr.h ****   *         @arg @ref LL_PWR_GPIO_BIT_11
1048:Drivers/STM32WLxx_HAL_Driver/Inc/stm32wlxx_ll_pwr.h ****   *         @arg @ref LL_PWR_GPIO_BIT_12
ARM GAS  /tmp/ccyVxTym.s 			page 29


1049:Drivers/STM32WLxx_HAL_Driver/Inc/stm32wlxx_ll_pwr.h ****   *         @arg @ref LL_PWR_GPIO_BIT_13
1050:Drivers/STM32WLxx_HAL_Driver/Inc/stm32wlxx_ll_pwr.h ****   *         @arg @ref LL_PWR_GPIO_BIT_14
1051:Drivers/STM32WLxx_HAL_Driver/Inc/stm32wlxx_ll_pwr.h ****   *         @arg @ref LL_PWR_GPIO_BIT_15
1052:Drivers/STM32WLxx_HAL_Driver/Inc/stm32wlxx_ll_pwr.h ****   * @retval State of bit (1 or 0).
1053:Drivers/STM32WLxx_HAL_Driver/Inc/stm32wlxx_ll_pwr.h ****   */
1054:Drivers/STM32WLxx_HAL_Driver/Inc/stm32wlxx_ll_pwr.h **** __STATIC_INLINE uint32_t LL_PWR_IsEnabledGPIOPullUp(uint32_t GPIO, uint32_t GPIONumber)
1055:Drivers/STM32WLxx_HAL_Driver/Inc/stm32wlxx_ll_pwr.h **** {
1056:Drivers/STM32WLxx_HAL_Driver/Inc/stm32wlxx_ll_pwr.h ****   return ((READ_BIT(*((__IO uint32_t *)(GPIO)), GPIONumber) == (GPIONumber)) ? 1UL : 0UL);
1057:Drivers/STM32WLxx_HAL_Driver/Inc/stm32wlxx_ll_pwr.h **** }
1058:Drivers/STM32WLxx_HAL_Driver/Inc/stm32wlxx_ll_pwr.h **** 
1059:Drivers/STM32WLxx_HAL_Driver/Inc/stm32wlxx_ll_pwr.h **** /**
1060:Drivers/STM32WLxx_HAL_Driver/Inc/stm32wlxx_ll_pwr.h ****   * @brief  Enable GPIO pull-down state in Standby and Shutdown modes
1061:Drivers/STM32WLxx_HAL_Driver/Inc/stm32wlxx_ll_pwr.h ****   * @note   Some pins are not configurable for pulling in Standby and Shutdown
1062:Drivers/STM32WLxx_HAL_Driver/Inc/stm32wlxx_ll_pwr.h ****   *         modes. Refer to reference manual for available pins and ports.
1063:Drivers/STM32WLxx_HAL_Driver/Inc/stm32wlxx_ll_pwr.h ****   * @rmtoll PDCRA        PD0-15        LL_PWR_EnableGPIOPullDown\n
1064:Drivers/STM32WLxx_HAL_Driver/Inc/stm32wlxx_ll_pwr.h ****   *         PDCRB        PD0-15        LL_PWR_EnableGPIOPullDown\n
1065:Drivers/STM32WLxx_HAL_Driver/Inc/stm32wlxx_ll_pwr.h ****   *         PDCRC        PD0-15        LL_PWR_EnableGPIOPullDown\n
1066:Drivers/STM32WLxx_HAL_Driver/Inc/stm32wlxx_ll_pwr.h ****   *         PDCRH        PD0-15        LL_PWR_EnableGPIOPullDown
1067:Drivers/STM32WLxx_HAL_Driver/Inc/stm32wlxx_ll_pwr.h ****   * @param  GPIO This parameter can be one of the following values:
1068:Drivers/STM32WLxx_HAL_Driver/Inc/stm32wlxx_ll_pwr.h ****   *         @arg @ref LL_PWR_GPIO_A
1069:Drivers/STM32WLxx_HAL_Driver/Inc/stm32wlxx_ll_pwr.h ****   *         @arg @ref LL_PWR_GPIO_B
1070:Drivers/STM32WLxx_HAL_Driver/Inc/stm32wlxx_ll_pwr.h ****   *         @arg @ref LL_PWR_GPIO_C
1071:Drivers/STM32WLxx_HAL_Driver/Inc/stm32wlxx_ll_pwr.h ****   *         @arg @ref LL_PWR_GPIO_H
1072:Drivers/STM32WLxx_HAL_Driver/Inc/stm32wlxx_ll_pwr.h ****   * @param  GPIONumber This parameter can be one of the following values:
1073:Drivers/STM32WLxx_HAL_Driver/Inc/stm32wlxx_ll_pwr.h ****   *         @arg @ref LL_PWR_GPIO_BIT_0
1074:Drivers/STM32WLxx_HAL_Driver/Inc/stm32wlxx_ll_pwr.h ****   *         @arg @ref LL_PWR_GPIO_BIT_1
1075:Drivers/STM32WLxx_HAL_Driver/Inc/stm32wlxx_ll_pwr.h ****   *         @arg @ref LL_PWR_GPIO_BIT_2
1076:Drivers/STM32WLxx_HAL_Driver/Inc/stm32wlxx_ll_pwr.h ****   *         @arg @ref LL_PWR_GPIO_BIT_3
1077:Drivers/STM32WLxx_HAL_Driver/Inc/stm32wlxx_ll_pwr.h ****   *         @arg @ref LL_PWR_GPIO_BIT_4
1078:Drivers/STM32WLxx_HAL_Driver/Inc/stm32wlxx_ll_pwr.h ****   *         @arg @ref LL_PWR_GPIO_BIT_5
1079:Drivers/STM32WLxx_HAL_Driver/Inc/stm32wlxx_ll_pwr.h ****   *         @arg @ref LL_PWR_GPIO_BIT_6
1080:Drivers/STM32WLxx_HAL_Driver/Inc/stm32wlxx_ll_pwr.h ****   *         @arg @ref LL_PWR_GPIO_BIT_7
1081:Drivers/STM32WLxx_HAL_Driver/Inc/stm32wlxx_ll_pwr.h ****   *         @arg @ref LL_PWR_GPIO_BIT_8
1082:Drivers/STM32WLxx_HAL_Driver/Inc/stm32wlxx_ll_pwr.h ****   *         @arg @ref LL_PWR_GPIO_BIT_9
1083:Drivers/STM32WLxx_HAL_Driver/Inc/stm32wlxx_ll_pwr.h ****   *         @arg @ref LL_PWR_GPIO_BIT_10
1084:Drivers/STM32WLxx_HAL_Driver/Inc/stm32wlxx_ll_pwr.h ****   *         @arg @ref LL_PWR_GPIO_BIT_11
1085:Drivers/STM32WLxx_HAL_Driver/Inc/stm32wlxx_ll_pwr.h ****   *         @arg @ref LL_PWR_GPIO_BIT_12
1086:Drivers/STM32WLxx_HAL_Driver/Inc/stm32wlxx_ll_pwr.h ****   *         @arg @ref LL_PWR_GPIO_BIT_13
1087:Drivers/STM32WLxx_HAL_Driver/Inc/stm32wlxx_ll_pwr.h ****   *         @arg @ref LL_PWR_GPIO_BIT_14
1088:Drivers/STM32WLxx_HAL_Driver/Inc/stm32wlxx_ll_pwr.h ****   *         @arg @ref LL_PWR_GPIO_BIT_15
1089:Drivers/STM32WLxx_HAL_Driver/Inc/stm32wlxx_ll_pwr.h ****   * @retval None
1090:Drivers/STM32WLxx_HAL_Driver/Inc/stm32wlxx_ll_pwr.h ****   */
1091:Drivers/STM32WLxx_HAL_Driver/Inc/stm32wlxx_ll_pwr.h **** __STATIC_INLINE void LL_PWR_EnableGPIOPullDown(uint32_t GPIO, uint32_t GPIONumber)
1092:Drivers/STM32WLxx_HAL_Driver/Inc/stm32wlxx_ll_pwr.h **** {
1093:Drivers/STM32WLxx_HAL_Driver/Inc/stm32wlxx_ll_pwr.h ****   SET_BIT(*((__IO uint32_t *)(GPIO + 4U)), GPIONumber);
1094:Drivers/STM32WLxx_HAL_Driver/Inc/stm32wlxx_ll_pwr.h **** }
1095:Drivers/STM32WLxx_HAL_Driver/Inc/stm32wlxx_ll_pwr.h **** 
1096:Drivers/STM32WLxx_HAL_Driver/Inc/stm32wlxx_ll_pwr.h **** /**
1097:Drivers/STM32WLxx_HAL_Driver/Inc/stm32wlxx_ll_pwr.h ****   * @brief  Disable GPIO pull-down state in Standby and Shutdown modes
1098:Drivers/STM32WLxx_HAL_Driver/Inc/stm32wlxx_ll_pwr.h ****   * @note   Some pins are not configurable for pulling in Standby and Shutdown
1099:Drivers/STM32WLxx_HAL_Driver/Inc/stm32wlxx_ll_pwr.h ****   *         modes. Refer to reference manual for available pins and ports.
1100:Drivers/STM32WLxx_HAL_Driver/Inc/stm32wlxx_ll_pwr.h ****   * @rmtoll PDCRA        PD0-15        LL_PWR_DisableGPIOPullDown\n
1101:Drivers/STM32WLxx_HAL_Driver/Inc/stm32wlxx_ll_pwr.h ****   *         PDCRB        PD0-15        LL_PWR_DisableGPIOPullDown\n
1102:Drivers/STM32WLxx_HAL_Driver/Inc/stm32wlxx_ll_pwr.h ****   *         PDCRC        PD0-15        LL_PWR_DisableGPIOPullDown\n
1103:Drivers/STM32WLxx_HAL_Driver/Inc/stm32wlxx_ll_pwr.h ****   *         PDCRH        PD0-15        LL_PWR_DisableGPIOPullDown
1104:Drivers/STM32WLxx_HAL_Driver/Inc/stm32wlxx_ll_pwr.h ****   * @param  GPIO This parameter can be one of the following values:
1105:Drivers/STM32WLxx_HAL_Driver/Inc/stm32wlxx_ll_pwr.h ****   *         @arg @ref LL_PWR_GPIO_A
ARM GAS  /tmp/ccyVxTym.s 			page 30


1106:Drivers/STM32WLxx_HAL_Driver/Inc/stm32wlxx_ll_pwr.h ****   *         @arg @ref LL_PWR_GPIO_B
1107:Drivers/STM32WLxx_HAL_Driver/Inc/stm32wlxx_ll_pwr.h ****   *         @arg @ref LL_PWR_GPIO_C
1108:Drivers/STM32WLxx_HAL_Driver/Inc/stm32wlxx_ll_pwr.h ****   *         @arg @ref LL_PWR_GPIO_H
1109:Drivers/STM32WLxx_HAL_Driver/Inc/stm32wlxx_ll_pwr.h ****   * @param  GPIONumber This parameter can be one of the following values:
1110:Drivers/STM32WLxx_HAL_Driver/Inc/stm32wlxx_ll_pwr.h ****   *         @arg @ref LL_PWR_GPIO_BIT_0
1111:Drivers/STM32WLxx_HAL_Driver/Inc/stm32wlxx_ll_pwr.h ****   *         @arg @ref LL_PWR_GPIO_BIT_1
1112:Drivers/STM32WLxx_HAL_Driver/Inc/stm32wlxx_ll_pwr.h ****   *         @arg @ref LL_PWR_GPIO_BIT_2
1113:Drivers/STM32WLxx_HAL_Driver/Inc/stm32wlxx_ll_pwr.h ****   *         @arg @ref LL_PWR_GPIO_BIT_3
1114:Drivers/STM32WLxx_HAL_Driver/Inc/stm32wlxx_ll_pwr.h ****   *         @arg @ref LL_PWR_GPIO_BIT_4
1115:Drivers/STM32WLxx_HAL_Driver/Inc/stm32wlxx_ll_pwr.h ****   *         @arg @ref LL_PWR_GPIO_BIT_5
1116:Drivers/STM32WLxx_HAL_Driver/Inc/stm32wlxx_ll_pwr.h ****   *         @arg @ref LL_PWR_GPIO_BIT_6
1117:Drivers/STM32WLxx_HAL_Driver/Inc/stm32wlxx_ll_pwr.h ****   *         @arg @ref LL_PWR_GPIO_BIT_7
1118:Drivers/STM32WLxx_HAL_Driver/Inc/stm32wlxx_ll_pwr.h ****   *         @arg @ref LL_PWR_GPIO_BIT_8
1119:Drivers/STM32WLxx_HAL_Driver/Inc/stm32wlxx_ll_pwr.h ****   *         @arg @ref LL_PWR_GPIO_BIT_9
1120:Drivers/STM32WLxx_HAL_Driver/Inc/stm32wlxx_ll_pwr.h ****   *         @arg @ref LL_PWR_GPIO_BIT_10
1121:Drivers/STM32WLxx_HAL_Driver/Inc/stm32wlxx_ll_pwr.h ****   *         @arg @ref LL_PWR_GPIO_BIT_11
1122:Drivers/STM32WLxx_HAL_Driver/Inc/stm32wlxx_ll_pwr.h ****   *         @arg @ref LL_PWR_GPIO_BIT_12
1123:Drivers/STM32WLxx_HAL_Driver/Inc/stm32wlxx_ll_pwr.h ****   *         @arg @ref LL_PWR_GPIO_BIT_13
1124:Drivers/STM32WLxx_HAL_Driver/Inc/stm32wlxx_ll_pwr.h ****   *         @arg @ref LL_PWR_GPIO_BIT_14
1125:Drivers/STM32WLxx_HAL_Driver/Inc/stm32wlxx_ll_pwr.h ****   *         @arg @ref LL_PWR_GPIO_BIT_15
1126:Drivers/STM32WLxx_HAL_Driver/Inc/stm32wlxx_ll_pwr.h ****   * @retval None
1127:Drivers/STM32WLxx_HAL_Driver/Inc/stm32wlxx_ll_pwr.h ****   */
1128:Drivers/STM32WLxx_HAL_Driver/Inc/stm32wlxx_ll_pwr.h **** __STATIC_INLINE void LL_PWR_DisableGPIOPullDown(uint32_t GPIO, uint32_t GPIONumber)
1129:Drivers/STM32WLxx_HAL_Driver/Inc/stm32wlxx_ll_pwr.h **** {
1130:Drivers/STM32WLxx_HAL_Driver/Inc/stm32wlxx_ll_pwr.h ****   CLEAR_BIT(*((__IO uint32_t *)(GPIO + 4U)), GPIONumber);
1131:Drivers/STM32WLxx_HAL_Driver/Inc/stm32wlxx_ll_pwr.h **** }
1132:Drivers/STM32WLxx_HAL_Driver/Inc/stm32wlxx_ll_pwr.h **** 
1133:Drivers/STM32WLxx_HAL_Driver/Inc/stm32wlxx_ll_pwr.h **** /**
1134:Drivers/STM32WLxx_HAL_Driver/Inc/stm32wlxx_ll_pwr.h ****   * @brief  Check if GPIO pull-down state is enabled
1135:Drivers/STM32WLxx_HAL_Driver/Inc/stm32wlxx_ll_pwr.h ****   * @rmtoll PDCRA        PD0-15        LL_PWR_IsEnabledGPIOPullDown\n
1136:Drivers/STM32WLxx_HAL_Driver/Inc/stm32wlxx_ll_pwr.h ****   *         PDCRB        PD0-15        LL_PWR_IsEnabledGPIOPullDown\n
1137:Drivers/STM32WLxx_HAL_Driver/Inc/stm32wlxx_ll_pwr.h ****   *         PDCRC        PD0-15        LL_PWR_IsEnabledGPIOPullDown\n
1138:Drivers/STM32WLxx_HAL_Driver/Inc/stm32wlxx_ll_pwr.h ****   *         PDCRH        PD0-15        LL_PWR_IsEnabledGPIOPullDown
1139:Drivers/STM32WLxx_HAL_Driver/Inc/stm32wlxx_ll_pwr.h ****   * @param  GPIO This parameter can be one of the following values:
1140:Drivers/STM32WLxx_HAL_Driver/Inc/stm32wlxx_ll_pwr.h ****   *         @arg @ref LL_PWR_GPIO_A
1141:Drivers/STM32WLxx_HAL_Driver/Inc/stm32wlxx_ll_pwr.h ****   *         @arg @ref LL_PWR_GPIO_B
1142:Drivers/STM32WLxx_HAL_Driver/Inc/stm32wlxx_ll_pwr.h ****   *         @arg @ref LL_PWR_GPIO_C
1143:Drivers/STM32WLxx_HAL_Driver/Inc/stm32wlxx_ll_pwr.h ****   *         @arg @ref LL_PWR_GPIO_H
1144:Drivers/STM32WLxx_HAL_Driver/Inc/stm32wlxx_ll_pwr.h ****   * @param  GPIONumber This parameter can be one of the following values:
1145:Drivers/STM32WLxx_HAL_Driver/Inc/stm32wlxx_ll_pwr.h ****   *         @arg @ref LL_PWR_GPIO_BIT_0
1146:Drivers/STM32WLxx_HAL_Driver/Inc/stm32wlxx_ll_pwr.h ****   *         @arg @ref LL_PWR_GPIO_BIT_1
1147:Drivers/STM32WLxx_HAL_Driver/Inc/stm32wlxx_ll_pwr.h ****   *         @arg @ref LL_PWR_GPIO_BIT_2
1148:Drivers/STM32WLxx_HAL_Driver/Inc/stm32wlxx_ll_pwr.h ****   *         @arg @ref LL_PWR_GPIO_BIT_3
1149:Drivers/STM32WLxx_HAL_Driver/Inc/stm32wlxx_ll_pwr.h ****   *         @arg @ref LL_PWR_GPIO_BIT_4
1150:Drivers/STM32WLxx_HAL_Driver/Inc/stm32wlxx_ll_pwr.h ****   *         @arg @ref LL_PWR_GPIO_BIT_5
1151:Drivers/STM32WLxx_HAL_Driver/Inc/stm32wlxx_ll_pwr.h ****   *         @arg @ref LL_PWR_GPIO_BIT_6
1152:Drivers/STM32WLxx_HAL_Driver/Inc/stm32wlxx_ll_pwr.h ****   *         @arg @ref LL_PWR_GPIO_BIT_7
1153:Drivers/STM32WLxx_HAL_Driver/Inc/stm32wlxx_ll_pwr.h ****   *         @arg @ref LL_PWR_GPIO_BIT_8
1154:Drivers/STM32WLxx_HAL_Driver/Inc/stm32wlxx_ll_pwr.h ****   *         @arg @ref LL_PWR_GPIO_BIT_9
1155:Drivers/STM32WLxx_HAL_Driver/Inc/stm32wlxx_ll_pwr.h ****   *         @arg @ref LL_PWR_GPIO_BIT_10
1156:Drivers/STM32WLxx_HAL_Driver/Inc/stm32wlxx_ll_pwr.h ****   *         @arg @ref LL_PWR_GPIO_BIT_11
1157:Drivers/STM32WLxx_HAL_Driver/Inc/stm32wlxx_ll_pwr.h ****   *         @arg @ref LL_PWR_GPIO_BIT_12
1158:Drivers/STM32WLxx_HAL_Driver/Inc/stm32wlxx_ll_pwr.h ****   *         @arg @ref LL_PWR_GPIO_BIT_13
1159:Drivers/STM32WLxx_HAL_Driver/Inc/stm32wlxx_ll_pwr.h ****   *         @arg @ref LL_PWR_GPIO_BIT_14
1160:Drivers/STM32WLxx_HAL_Driver/Inc/stm32wlxx_ll_pwr.h ****   *         @arg @ref LL_PWR_GPIO_BIT_15
1161:Drivers/STM32WLxx_HAL_Driver/Inc/stm32wlxx_ll_pwr.h ****   * @retval State of bit (1 or 0).
1162:Drivers/STM32WLxx_HAL_Driver/Inc/stm32wlxx_ll_pwr.h ****   */
ARM GAS  /tmp/ccyVxTym.s 			page 31


1163:Drivers/STM32WLxx_HAL_Driver/Inc/stm32wlxx_ll_pwr.h **** __STATIC_INLINE uint32_t LL_PWR_IsEnabledGPIOPullDown(uint32_t GPIO, uint32_t GPIONumber)
1164:Drivers/STM32WLxx_HAL_Driver/Inc/stm32wlxx_ll_pwr.h **** {
1165:Drivers/STM32WLxx_HAL_Driver/Inc/stm32wlxx_ll_pwr.h ****   return ((READ_BIT(*((__IO uint32_t *)(GPIO + 4U)), GPIONumber) == (GPIONumber)) ? 1UL : 0UL);
1166:Drivers/STM32WLxx_HAL_Driver/Inc/stm32wlxx_ll_pwr.h **** }
1167:Drivers/STM32WLxx_HAL_Driver/Inc/stm32wlxx_ll_pwr.h **** 
1168:Drivers/STM32WLxx_HAL_Driver/Inc/stm32wlxx_ll_pwr.h **** /**
1169:Drivers/STM32WLxx_HAL_Driver/Inc/stm32wlxx_ll_pwr.h ****   * @}
1170:Drivers/STM32WLxx_HAL_Driver/Inc/stm32wlxx_ll_pwr.h ****   */
1171:Drivers/STM32WLxx_HAL_Driver/Inc/stm32wlxx_ll_pwr.h **** 
1172:Drivers/STM32WLxx_HAL_Driver/Inc/stm32wlxx_ll_pwr.h **** /** @defgroup PWR_LL_EF_Configuration_SMPS Configuration of SMPS
1173:Drivers/STM32WLxx_HAL_Driver/Inc/stm32wlxx_ll_pwr.h ****   * @{
1174:Drivers/STM32WLxx_HAL_Driver/Inc/stm32wlxx_ll_pwr.h ****   */
1175:Drivers/STM32WLxx_HAL_Driver/Inc/stm32wlxx_ll_pwr.h **** 
1176:Drivers/STM32WLxx_HAL_Driver/Inc/stm32wlxx_ll_pwr.h **** /**
1177:Drivers/STM32WLxx_HAL_Driver/Inc/stm32wlxx_ll_pwr.h ****   * @brief  Set SMPS operating mode
1178:Drivers/STM32WLxx_HAL_Driver/Inc/stm32wlxx_ll_pwr.h ****   * @note   In case of a board without SMPS coil mounted, SMPS should not be activated.
1179:Drivers/STM32WLxx_HAL_Driver/Inc/stm32wlxx_ll_pwr.h ****   * @rmtoll CR5          SMPSEN        LL_PWR_SMPS_SetMode
1180:Drivers/STM32WLxx_HAL_Driver/Inc/stm32wlxx_ll_pwr.h ****   * @param  OperatingMode This parameter can be one of the following values:
1181:Drivers/STM32WLxx_HAL_Driver/Inc/stm32wlxx_ll_pwr.h ****   *         @arg @ref LL_PWR_SMPS_BYPASS
1182:Drivers/STM32WLxx_HAL_Driver/Inc/stm32wlxx_ll_pwr.h ****   *         @arg @ref LL_PWR_SMPS_STEP_DOWN
1183:Drivers/STM32WLxx_HAL_Driver/Inc/stm32wlxx_ll_pwr.h ****   * @retval None
1184:Drivers/STM32WLxx_HAL_Driver/Inc/stm32wlxx_ll_pwr.h ****   */
1185:Drivers/STM32WLxx_HAL_Driver/Inc/stm32wlxx_ll_pwr.h **** __STATIC_INLINE void LL_PWR_SMPS_SetMode(uint32_t OperatingMode)
1186:Drivers/STM32WLxx_HAL_Driver/Inc/stm32wlxx_ll_pwr.h **** {
1187:Drivers/STM32WLxx_HAL_Driver/Inc/stm32wlxx_ll_pwr.h ****   MODIFY_REG(PWR->CR5, PWR_CR5_SMPSEN, OperatingMode);
1188:Drivers/STM32WLxx_HAL_Driver/Inc/stm32wlxx_ll_pwr.h **** }
1189:Drivers/STM32WLxx_HAL_Driver/Inc/stm32wlxx_ll_pwr.h **** 
1190:Drivers/STM32WLxx_HAL_Driver/Inc/stm32wlxx_ll_pwr.h **** /**
1191:Drivers/STM32WLxx_HAL_Driver/Inc/stm32wlxx_ll_pwr.h ****   * @brief  Get SMPS operating mode
1192:Drivers/STM32WLxx_HAL_Driver/Inc/stm32wlxx_ll_pwr.h ****   * @rmtoll CR5          SMPSEN        LL_PWR_SMPS_GetMode
1193:Drivers/STM32WLxx_HAL_Driver/Inc/stm32wlxx_ll_pwr.h ****   * @retval Returned value can be one of the following values:
1194:Drivers/STM32WLxx_HAL_Driver/Inc/stm32wlxx_ll_pwr.h ****   *         @arg @ref LL_PWR_SMPS_BYPASS
1195:Drivers/STM32WLxx_HAL_Driver/Inc/stm32wlxx_ll_pwr.h ****   *         @arg @ref LL_PWR_SMPS_STEP_DOWN
1196:Drivers/STM32WLxx_HAL_Driver/Inc/stm32wlxx_ll_pwr.h ****   */
1197:Drivers/STM32WLxx_HAL_Driver/Inc/stm32wlxx_ll_pwr.h **** __STATIC_INLINE uint32_t LL_PWR_SMPS_GetMode(void)
1198:Drivers/STM32WLxx_HAL_Driver/Inc/stm32wlxx_ll_pwr.h **** {
1199:Drivers/STM32WLxx_HAL_Driver/Inc/stm32wlxx_ll_pwr.h ****   return (uint32_t)(READ_BIT(PWR->CR5, PWR_CR5_SMPSEN));
1200:Drivers/STM32WLxx_HAL_Driver/Inc/stm32wlxx_ll_pwr.h **** }
1201:Drivers/STM32WLxx_HAL_Driver/Inc/stm32wlxx_ll_pwr.h **** 
1202:Drivers/STM32WLxx_HAL_Driver/Inc/stm32wlxx_ll_pwr.h **** /**
1203:Drivers/STM32WLxx_HAL_Driver/Inc/stm32wlxx_ll_pwr.h ****   * @brief  Get SMPS effective operating mode
1204:Drivers/STM32WLxx_HAL_Driver/Inc/stm32wlxx_ll_pwr.h ****   * @note   SMPS operating mode can be changed by hardware, therefore
1205:Drivers/STM32WLxx_HAL_Driver/Inc/stm32wlxx_ll_pwr.h ****   *         requested operating mode can differ from effective low power mode.
1206:Drivers/STM32WLxx_HAL_Driver/Inc/stm32wlxx_ll_pwr.h ****   *         - dependency SubGhz Radio IP: can switch SMPS on for radio activity.
1207:Drivers/STM32WLxx_HAL_Driver/Inc/stm32wlxx_ll_pwr.h ****   * @note   In case of a board without SMPS coil mounted, SMPS should not be activated
1208:Drivers/STM32WLxx_HAL_Driver/Inc/stm32wlxx_ll_pwr.h ****   *         and this function is not relevant.
1209:Drivers/STM32WLxx_HAL_Driver/Inc/stm32wlxx_ll_pwr.h ****   * @rmtoll SR2          SMPSRDY       LL_PWR_SMPS_GetEffectiveMode
1210:Drivers/STM32WLxx_HAL_Driver/Inc/stm32wlxx_ll_pwr.h ****   * @retval Returned value can be one of the following values:
1211:Drivers/STM32WLxx_HAL_Driver/Inc/stm32wlxx_ll_pwr.h ****   *         @arg @ref LL_PWR_SMPS_BYPASS
1212:Drivers/STM32WLxx_HAL_Driver/Inc/stm32wlxx_ll_pwr.h ****   *         @arg @ref LL_PWR_SMPS_STEP_DOWN
1213:Drivers/STM32WLxx_HAL_Driver/Inc/stm32wlxx_ll_pwr.h ****   */
1214:Drivers/STM32WLxx_HAL_Driver/Inc/stm32wlxx_ll_pwr.h **** __STATIC_INLINE uint32_t LL_PWR_SMPS_GetEffectiveMode(void)
1215:Drivers/STM32WLxx_HAL_Driver/Inc/stm32wlxx_ll_pwr.h **** {
1216:Drivers/STM32WLxx_HAL_Driver/Inc/stm32wlxx_ll_pwr.h ****   /* Return a value corresponding to definition of literals                   */
1217:Drivers/STM32WLxx_HAL_Driver/Inc/stm32wlxx_ll_pwr.h ****   /* LL_PWR_SMPS_BYPASS or LL_PWR_SMPS_STEP_DOWN.                             */
1218:Drivers/STM32WLxx_HAL_Driver/Inc/stm32wlxx_ll_pwr.h ****   return (uint32_t)(READ_BIT(PWR->SR2, PWR_SR2_SMPSRDY) << (PWR_CR5_SMPSEN_Pos - PWR_SR2_SMPSRDY_Po
1219:Drivers/STM32WLxx_HAL_Driver/Inc/stm32wlxx_ll_pwr.h **** }
ARM GAS  /tmp/ccyVxTym.s 			page 32


1220:Drivers/STM32WLxx_HAL_Driver/Inc/stm32wlxx_ll_pwr.h **** 
1221:Drivers/STM32WLxx_HAL_Driver/Inc/stm32wlxx_ll_pwr.h **** /**
1222:Drivers/STM32WLxx_HAL_Driver/Inc/stm32wlxx_ll_pwr.h ****   * @brief  SMPS step down converter enable
1223:Drivers/STM32WLxx_HAL_Driver/Inc/stm32wlxx_ll_pwr.h ****   * @note   This function can be used for specific usage of the SMPS,
1224:Drivers/STM32WLxx_HAL_Driver/Inc/stm32wlxx_ll_pwr.h ****   *         for general usage of the SMPS the function
1225:Drivers/STM32WLxx_HAL_Driver/Inc/stm32wlxx_ll_pwr.h ****   *         @ref LL_PWR_SMPS_SetMode() should be used instead.
1226:Drivers/STM32WLxx_HAL_Driver/Inc/stm32wlxx_ll_pwr.h ****   * @rmtoll CR5          SMPSEN        LL_PWR_SMPS_Enable
1227:Drivers/STM32WLxx_HAL_Driver/Inc/stm32wlxx_ll_pwr.h ****   * @retval None
1228:Drivers/STM32WLxx_HAL_Driver/Inc/stm32wlxx_ll_pwr.h ****   */
1229:Drivers/STM32WLxx_HAL_Driver/Inc/stm32wlxx_ll_pwr.h **** __STATIC_INLINE void LL_PWR_SMPS_Enable(void)
1230:Drivers/STM32WLxx_HAL_Driver/Inc/stm32wlxx_ll_pwr.h **** {
1231:Drivers/STM32WLxx_HAL_Driver/Inc/stm32wlxx_ll_pwr.h ****   SET_BIT(PWR->CR5, PWR_CR5_SMPSEN);
1232:Drivers/STM32WLxx_HAL_Driver/Inc/stm32wlxx_ll_pwr.h **** }
1233:Drivers/STM32WLxx_HAL_Driver/Inc/stm32wlxx_ll_pwr.h **** 
1234:Drivers/STM32WLxx_HAL_Driver/Inc/stm32wlxx_ll_pwr.h **** /**
1235:Drivers/STM32WLxx_HAL_Driver/Inc/stm32wlxx_ll_pwr.h ****   * @brief  SMPS step down converter enable
1236:Drivers/STM32WLxx_HAL_Driver/Inc/stm32wlxx_ll_pwr.h ****   * @note   This function can be used for specific usage of the SMPS,
1237:Drivers/STM32WLxx_HAL_Driver/Inc/stm32wlxx_ll_pwr.h ****   *         for general usage of the SMPS the function
1238:Drivers/STM32WLxx_HAL_Driver/Inc/stm32wlxx_ll_pwr.h ****   *         @ref LL_PWR_SMPS_SetMode() should be used instead.
1239:Drivers/STM32WLxx_HAL_Driver/Inc/stm32wlxx_ll_pwr.h ****   * @rmtoll CR5          SMPSEN        LL_PWR_SMPS_Disable
1240:Drivers/STM32WLxx_HAL_Driver/Inc/stm32wlxx_ll_pwr.h ****   * @retval None
1241:Drivers/STM32WLxx_HAL_Driver/Inc/stm32wlxx_ll_pwr.h ****   */
1242:Drivers/STM32WLxx_HAL_Driver/Inc/stm32wlxx_ll_pwr.h **** __STATIC_INLINE void LL_PWR_SMPS_Disable(void)
1243:Drivers/STM32WLxx_HAL_Driver/Inc/stm32wlxx_ll_pwr.h **** {
1244:Drivers/STM32WLxx_HAL_Driver/Inc/stm32wlxx_ll_pwr.h ****   CLEAR_BIT(PWR->CR5, PWR_CR5_SMPSEN);
1245:Drivers/STM32WLxx_HAL_Driver/Inc/stm32wlxx_ll_pwr.h **** }
1246:Drivers/STM32WLxx_HAL_Driver/Inc/stm32wlxx_ll_pwr.h **** 
1247:Drivers/STM32WLxx_HAL_Driver/Inc/stm32wlxx_ll_pwr.h **** /**
1248:Drivers/STM32WLxx_HAL_Driver/Inc/stm32wlxx_ll_pwr.h ****   * @brief  Check if the SMPS step down converter is enabled
1249:Drivers/STM32WLxx_HAL_Driver/Inc/stm32wlxx_ll_pwr.h ****   * @rmtoll CR5          SMPSEN        LL_PWR_SMPS_IsEnabled
1250:Drivers/STM32WLxx_HAL_Driver/Inc/stm32wlxx_ll_pwr.h ****   * @retval State of bit (1 or 0).
1251:Drivers/STM32WLxx_HAL_Driver/Inc/stm32wlxx_ll_pwr.h ****   */
1252:Drivers/STM32WLxx_HAL_Driver/Inc/stm32wlxx_ll_pwr.h **** __STATIC_INLINE uint32_t LL_PWR_SMPS_IsEnabled(void)
1253:Drivers/STM32WLxx_HAL_Driver/Inc/stm32wlxx_ll_pwr.h **** {
1254:Drivers/STM32WLxx_HAL_Driver/Inc/stm32wlxx_ll_pwr.h ****   return ((READ_BIT(PWR->CR5, PWR_CR5_SMPSEN) == (PWR_CR5_SMPSEN)) ? 1UL : 0UL);
1255:Drivers/STM32WLxx_HAL_Driver/Inc/stm32wlxx_ll_pwr.h **** }
1256:Drivers/STM32WLxx_HAL_Driver/Inc/stm32wlxx_ll_pwr.h **** 
1257:Drivers/STM32WLxx_HAL_Driver/Inc/stm32wlxx_ll_pwr.h **** /**
1258:Drivers/STM32WLxx_HAL_Driver/Inc/stm32wlxx_ll_pwr.h ****   * @}
1259:Drivers/STM32WLxx_HAL_Driver/Inc/stm32wlxx_ll_pwr.h ****   */
1260:Drivers/STM32WLxx_HAL_Driver/Inc/stm32wlxx_ll_pwr.h **** 
1261:Drivers/STM32WLxx_HAL_Driver/Inc/stm32wlxx_ll_pwr.h **** /** @defgroup PWR_LL_EF_Configuration_Radio Configuration of radio
1262:Drivers/STM32WLxx_HAL_Driver/Inc/stm32wlxx_ll_pwr.h ****   * @{
1263:Drivers/STM32WLxx_HAL_Driver/Inc/stm32wlxx_ll_pwr.h ****   */
1264:Drivers/STM32WLxx_HAL_Driver/Inc/stm32wlxx_ll_pwr.h **** 
1265:Drivers/STM32WLxx_HAL_Driver/Inc/stm32wlxx_ll_pwr.h **** /**
1266:Drivers/STM32WLxx_HAL_Driver/Inc/stm32wlxx_ll_pwr.h ****   * @brief  Set radio busy signal polarity
1267:Drivers/STM32WLxx_HAL_Driver/Inc/stm32wlxx_ll_pwr.h ****   * @rmtoll CR4          RFBUSYP       LL_PWR_SetRadioBusyPolarity
1268:Drivers/STM32WLxx_HAL_Driver/Inc/stm32wlxx_ll_pwr.h ****   * @param  RadioBusyPolarity This parameter can be one of the following values:
1269:Drivers/STM32WLxx_HAL_Driver/Inc/stm32wlxx_ll_pwr.h ****   *         @arg @ref LL_PWR_RADIO_BUSY_POLARITY_RISING
1270:Drivers/STM32WLxx_HAL_Driver/Inc/stm32wlxx_ll_pwr.h ****   *         @arg @ref LL_PWR_RADIO_BUSY_POLARITY_FALLING
1271:Drivers/STM32WLxx_HAL_Driver/Inc/stm32wlxx_ll_pwr.h ****   * @retval None
1272:Drivers/STM32WLxx_HAL_Driver/Inc/stm32wlxx_ll_pwr.h ****   */
1273:Drivers/STM32WLxx_HAL_Driver/Inc/stm32wlxx_ll_pwr.h **** __STATIC_INLINE void LL_PWR_SetRadioBusyPolarity(uint32_t RadioBusyPolarity)
 322              		.loc 2 1273 22 view .LVU59
 323              	.LBB43:
1274:Drivers/STM32WLxx_HAL_Driver/Inc/stm32wlxx_ll_pwr.h **** {
ARM GAS  /tmp/ccyVxTym.s 			page 33


1275:Drivers/STM32WLxx_HAL_Driver/Inc/stm32wlxx_ll_pwr.h ****   MODIFY_REG(PWR->CR4, PWR_CR4_WRFBUSYP, RadioBusyPolarity);
 324              		.loc 2 1275 3 view .LVU60
 325 0000 034A     		ldr	r2, .L29
 326 0002 D368     		ldr	r3, [r2, #12]
 327 0004 23F40063 		bic	r3, r3, #2048
 328 0008 1843     		orrs	r0, r0, r3
 329              	.LVL15:
 330              		.loc 2 1275 3 is_stmt 0 view .LVU61
 331 000a D060     		str	r0, [r2, #12]
 332              	.LVL16:
 333              		.loc 2 1275 3 view .LVU62
 334              	.LBE43:
 335              	.LBE42:
 220:Drivers/STM32WLxx_HAL_Driver/Src/stm32wlxx_hal_pwr_ex.c **** }
 336              		.loc 1 220 1 view .LVU63
 337 000c 7047     		bx	lr
 338              	.L30:
 339 000e 00BF     		.align	2
 340              	.L29:
 341 0010 00040058 		.word	1476396032
 342              		.cfi_endproc
 343              	.LFE967:
 345              		.section	.text.HAL_PWREx_SetRadioBusyTrigger,"ax",%progbits
 346              		.align	1
 347              		.global	HAL_PWREx_SetRadioBusyTrigger
 348              		.syntax unified
 349              		.thumb
 350              		.thumb_func
 351              		.fpu softvfp
 353              	HAL_PWREx_SetRadioBusyTrigger:
 354              	.LVL17:
 355              	.LFB968:
 221:Drivers/STM32WLxx_HAL_Driver/Src/stm32wlxx_hal_pwr_ex.c **** 
 222:Drivers/STM32WLxx_HAL_Driver/Src/stm32wlxx_hal_pwr_ex.c **** /**
 223:Drivers/STM32WLxx_HAL_Driver/Src/stm32wlxx_hal_pwr_ex.c ****   * @brief  Set radio busy trigger action: wake-up from low-power mode Standby,
 224:Drivers/STM32WLxx_HAL_Driver/Src/stm32wlxx_hal_pwr_ex.c ****   *         interruption.
 225:Drivers/STM32WLxx_HAL_Driver/Src/stm32wlxx_hal_pwr_ex.c ****   * @note   Signal polarity can be configured using function
 226:Drivers/STM32WLxx_HAL_Driver/Src/stm32wlxx_hal_pwr_ex.c ****   *         @ref HAL_PWREx_SetRadioBusyPolarity().
 227:Drivers/STM32WLxx_HAL_Driver/Src/stm32wlxx_hal_pwr_ex.c ****   * @param  RadioBusyTrigger This parameter can be one of the following values:
 228:Drivers/STM32WLxx_HAL_Driver/Src/stm32wlxx_hal_pwr_ex.c ****   *         @arg @ref PWR_RADIO_BUSY_TRIGGER_NONE
 229:Drivers/STM32WLxx_HAL_Driver/Src/stm32wlxx_hal_pwr_ex.c ****   *         @arg @ref PWR_RADIO_BUSY_TRIGGER_WU_IT
 230:Drivers/STM32WLxx_HAL_Driver/Src/stm32wlxx_hal_pwr_ex.c ****   * @retval None
 231:Drivers/STM32WLxx_HAL_Driver/Src/stm32wlxx_hal_pwr_ex.c ****   */
 232:Drivers/STM32WLxx_HAL_Driver/Src/stm32wlxx_hal_pwr_ex.c **** void HAL_PWREx_SetRadioBusyTrigger(uint32_t RadioBusyTrigger)
 233:Drivers/STM32WLxx_HAL_Driver/Src/stm32wlxx_hal_pwr_ex.c **** {
 356              		.loc 1 233 1 is_stmt 1 view -0
 357              		.cfi_startproc
 358              		@ args = 0, pretend = 0, frame = 0
 359              		@ frame_needed = 0, uses_anonymous_args = 0
 360              		@ link register save eliminated.
 234:Drivers/STM32WLxx_HAL_Driver/Src/stm32wlxx_hal_pwr_ex.c ****   /* Check the parameters */
 235:Drivers/STM32WLxx_HAL_Driver/Src/stm32wlxx_hal_pwr_ex.c ****   assert_param(IS_PWR_RADIO_BUSY_TRIGGER(RadioBusyTrigger));
 361              		.loc 1 235 3 view .LVU65
 236:Drivers/STM32WLxx_HAL_Driver/Src/stm32wlxx_hal_pwr_ex.c **** 
 237:Drivers/STM32WLxx_HAL_Driver/Src/stm32wlxx_hal_pwr_ex.c **** #ifdef CORE_CM0PLUS
 238:Drivers/STM32WLxx_HAL_Driver/Src/stm32wlxx_hal_pwr_ex.c ****   LL_C2_PWR_SetRadioBusyTrigger(RadioBusyTrigger);
 239:Drivers/STM32WLxx_HAL_Driver/Src/stm32wlxx_hal_pwr_ex.c **** #else
ARM GAS  /tmp/ccyVxTym.s 			page 34


 240:Drivers/STM32WLxx_HAL_Driver/Src/stm32wlxx_hal_pwr_ex.c ****   LL_PWR_SetRadioBusyTrigger(RadioBusyTrigger);
 362              		.loc 1 240 3 view .LVU66
 363              	.LBB44:
 364              	.LBI44:
1276:Drivers/STM32WLxx_HAL_Driver/Inc/stm32wlxx_ll_pwr.h **** }
1277:Drivers/STM32WLxx_HAL_Driver/Inc/stm32wlxx_ll_pwr.h **** 
1278:Drivers/STM32WLxx_HAL_Driver/Inc/stm32wlxx_ll_pwr.h **** /**
1279:Drivers/STM32WLxx_HAL_Driver/Inc/stm32wlxx_ll_pwr.h ****   * @brief  Get radio busy signal polarity
1280:Drivers/STM32WLxx_HAL_Driver/Inc/stm32wlxx_ll_pwr.h ****   * @rmtoll CR4          RFBUSYP       LL_PWR_GetRadioBusyPolarity
1281:Drivers/STM32WLxx_HAL_Driver/Inc/stm32wlxx_ll_pwr.h ****   * @retval Returned value can be one of the following values:
1282:Drivers/STM32WLxx_HAL_Driver/Inc/stm32wlxx_ll_pwr.h ****   *         @arg @ref LL_PWR_RADIO_BUSY_POLARITY_RISING
1283:Drivers/STM32WLxx_HAL_Driver/Inc/stm32wlxx_ll_pwr.h ****   *         @arg @ref LL_PWR_RADIO_BUSY_POLARITY_FALLING
1284:Drivers/STM32WLxx_HAL_Driver/Inc/stm32wlxx_ll_pwr.h ****   */
1285:Drivers/STM32WLxx_HAL_Driver/Inc/stm32wlxx_ll_pwr.h **** __STATIC_INLINE uint32_t LL_PWR_GetRadioBusyPolarity(void)
1286:Drivers/STM32WLxx_HAL_Driver/Inc/stm32wlxx_ll_pwr.h **** {
1287:Drivers/STM32WLxx_HAL_Driver/Inc/stm32wlxx_ll_pwr.h ****   return (uint32_t)(READ_BIT(PWR->CR4, PWR_CR4_WRFBUSYP));
1288:Drivers/STM32WLxx_HAL_Driver/Inc/stm32wlxx_ll_pwr.h **** }
1289:Drivers/STM32WLxx_HAL_Driver/Inc/stm32wlxx_ll_pwr.h **** 
1290:Drivers/STM32WLxx_HAL_Driver/Inc/stm32wlxx_ll_pwr.h **** /**
1291:Drivers/STM32WLxx_HAL_Driver/Inc/stm32wlxx_ll_pwr.h ****   * @brief  Set radio busy trigger action for CPU1: wake-up from low-power mode
1292:Drivers/STM32WLxx_HAL_Driver/Inc/stm32wlxx_ll_pwr.h ****   *         Standby.
1293:Drivers/STM32WLxx_HAL_Driver/Inc/stm32wlxx_ll_pwr.h ****   * @note   Signal polarity can be configured using function
1294:Drivers/STM32WLxx_HAL_Driver/Inc/stm32wlxx_ll_pwr.h ****   *         @ref LL_PWR_SetRadioBusyPolarity().
1295:Drivers/STM32WLxx_HAL_Driver/Inc/stm32wlxx_ll_pwr.h ****   * @rmtoll CR3          ERFBUSY       LL_PWR_SetRadioBusyTrigger
1296:Drivers/STM32WLxx_HAL_Driver/Inc/stm32wlxx_ll_pwr.h ****   * @param  RadioBusyTrigger This parameter can be one of the following values:
1297:Drivers/STM32WLxx_HAL_Driver/Inc/stm32wlxx_ll_pwr.h ****   *         @arg @ref LL_PWR_RADIO_BUSY_TRIGGER_NONE
1298:Drivers/STM32WLxx_HAL_Driver/Inc/stm32wlxx_ll_pwr.h ****   *         @arg @ref LL_PWR_RADIO_BUSY_TRIGGER_WU_IT
1299:Drivers/STM32WLxx_HAL_Driver/Inc/stm32wlxx_ll_pwr.h ****   * @retval None
1300:Drivers/STM32WLxx_HAL_Driver/Inc/stm32wlxx_ll_pwr.h ****   */
1301:Drivers/STM32WLxx_HAL_Driver/Inc/stm32wlxx_ll_pwr.h **** __STATIC_INLINE void LL_PWR_SetRadioBusyTrigger(uint32_t RadioBusyTrigger)
 365              		.loc 2 1301 22 view .LVU67
 366              	.LBB45:
1302:Drivers/STM32WLxx_HAL_Driver/Inc/stm32wlxx_ll_pwr.h **** {
1303:Drivers/STM32WLxx_HAL_Driver/Inc/stm32wlxx_ll_pwr.h ****   MODIFY_REG(PWR->CR3, PWR_CR3_EWRFBUSY, RadioBusyTrigger);
 367              		.loc 2 1303 3 view .LVU68
 368 0000 034A     		ldr	r2, .L32
 369 0002 9368     		ldr	r3, [r2, #8]
 370 0004 23F40063 		bic	r3, r3, #2048
 371 0008 1843     		orrs	r0, r0, r3
 372              	.LVL18:
 373              		.loc 2 1303 3 is_stmt 0 view .LVU69
 374 000a 9060     		str	r0, [r2, #8]
 375              	.LVL19:
 376              		.loc 2 1303 3 view .LVU70
 377              	.LBE45:
 378              	.LBE44:
 241:Drivers/STM32WLxx_HAL_Driver/Src/stm32wlxx_hal_pwr_ex.c **** #endif
 242:Drivers/STM32WLxx_HAL_Driver/Src/stm32wlxx_hal_pwr_ex.c **** }
 379              		.loc 1 242 1 view .LVU71
 380 000c 7047     		bx	lr
 381              	.L33:
 382 000e 00BF     		.align	2
 383              	.L32:
 384 0010 00040058 		.word	1476396032
 385              		.cfi_endproc
 386              	.LFE968:
 388              		.section	.text.HAL_PWREx_SetRadioIRQTrigger,"ax",%progbits
ARM GAS  /tmp/ccyVxTym.s 			page 35


 389              		.align	1
 390              		.global	HAL_PWREx_SetRadioIRQTrigger
 391              		.syntax unified
 392              		.thumb
 393              		.thumb_func
 394              		.fpu softvfp
 396              	HAL_PWREx_SetRadioIRQTrigger:
 397              	.LVL20:
 398              	.LFB969:
 243:Drivers/STM32WLxx_HAL_Driver/Src/stm32wlxx_hal_pwr_ex.c **** 
 244:Drivers/STM32WLxx_HAL_Driver/Src/stm32wlxx_hal_pwr_ex.c **** /**
 245:Drivers/STM32WLxx_HAL_Driver/Src/stm32wlxx_hal_pwr_ex.c ****   * @brief  Set radio IRQ trigger action: wake-up from low-power mode Standby,
 246:Drivers/STM32WLxx_HAL_Driver/Src/stm32wlxx_hal_pwr_ex.c ****   *         interruption.
 247:Drivers/STM32WLxx_HAL_Driver/Src/stm32wlxx_hal_pwr_ex.c ****   * @param  RadioIRQTrigger This parameter can be one of the following values:
 248:Drivers/STM32WLxx_HAL_Driver/Src/stm32wlxx_hal_pwr_ex.c ****   *         @arg @ref PWR_RADIO_IRQ_TRIGGER_NONE
 249:Drivers/STM32WLxx_HAL_Driver/Src/stm32wlxx_hal_pwr_ex.c ****   *         @arg @ref PWR_RADIO_IRQ_TRIGGER_WU_IT
 250:Drivers/STM32WLxx_HAL_Driver/Src/stm32wlxx_hal_pwr_ex.c ****   * @retval None
 251:Drivers/STM32WLxx_HAL_Driver/Src/stm32wlxx_hal_pwr_ex.c ****   */
 252:Drivers/STM32WLxx_HAL_Driver/Src/stm32wlxx_hal_pwr_ex.c **** void HAL_PWREx_SetRadioIRQTrigger(uint32_t RadioIRQTrigger)
 253:Drivers/STM32WLxx_HAL_Driver/Src/stm32wlxx_hal_pwr_ex.c **** {
 399              		.loc 1 253 1 is_stmt 1 view -0
 400              		.cfi_startproc
 401              		@ args = 0, pretend = 0, frame = 0
 402              		@ frame_needed = 0, uses_anonymous_args = 0
 403              		@ link register save eliminated.
 254:Drivers/STM32WLxx_HAL_Driver/Src/stm32wlxx_hal_pwr_ex.c ****   /* Check the parameters */
 255:Drivers/STM32WLxx_HAL_Driver/Src/stm32wlxx_hal_pwr_ex.c ****   assert_param(IS_RADIO_IRQ_TRIGGER(RadioIRQTrigger));
 404              		.loc 1 255 3 view .LVU73
 256:Drivers/STM32WLxx_HAL_Driver/Src/stm32wlxx_hal_pwr_ex.c **** 
 257:Drivers/STM32WLxx_HAL_Driver/Src/stm32wlxx_hal_pwr_ex.c **** #ifdef CORE_CM0PLUS
 258:Drivers/STM32WLxx_HAL_Driver/Src/stm32wlxx_hal_pwr_ex.c ****   LL_C2_PWR_SetRadioIRQTrigger(RadioIRQTrigger);
 259:Drivers/STM32WLxx_HAL_Driver/Src/stm32wlxx_hal_pwr_ex.c **** #else
 260:Drivers/STM32WLxx_HAL_Driver/Src/stm32wlxx_hal_pwr_ex.c ****   LL_PWR_SetRadioIRQTrigger(RadioIRQTrigger);
 405              		.loc 1 260 3 view .LVU74
 406              	.LBB46:
 407              	.LBI46:
1304:Drivers/STM32WLxx_HAL_Driver/Inc/stm32wlxx_ll_pwr.h **** }
1305:Drivers/STM32WLxx_HAL_Driver/Inc/stm32wlxx_ll_pwr.h **** 
1306:Drivers/STM32WLxx_HAL_Driver/Inc/stm32wlxx_ll_pwr.h **** /**
1307:Drivers/STM32WLxx_HAL_Driver/Inc/stm32wlxx_ll_pwr.h ****   * @brief  Get radio busy trigger action for CPU1: wake-up from low-power mode
1308:Drivers/STM32WLxx_HAL_Driver/Inc/stm32wlxx_ll_pwr.h ****   *         Standby.
1309:Drivers/STM32WLxx_HAL_Driver/Inc/stm32wlxx_ll_pwr.h ****   * @rmtoll CR3          ERFBUSY       LL_PWR_GetRadioBusyTrigger
1310:Drivers/STM32WLxx_HAL_Driver/Inc/stm32wlxx_ll_pwr.h ****   * @retval Returned value can be one of the following values:
1311:Drivers/STM32WLxx_HAL_Driver/Inc/stm32wlxx_ll_pwr.h ****   *         @arg @ref LL_PWR_RADIO_BUSY_TRIGGER_NONE
1312:Drivers/STM32WLxx_HAL_Driver/Inc/stm32wlxx_ll_pwr.h ****   *         @arg @ref LL_PWR_RADIO_BUSY_TRIGGER_WU_IT
1313:Drivers/STM32WLxx_HAL_Driver/Inc/stm32wlxx_ll_pwr.h ****   */
1314:Drivers/STM32WLxx_HAL_Driver/Inc/stm32wlxx_ll_pwr.h **** __STATIC_INLINE uint32_t LL_PWR_GetRadioBusyTrigger(void)
1315:Drivers/STM32WLxx_HAL_Driver/Inc/stm32wlxx_ll_pwr.h **** {
1316:Drivers/STM32WLxx_HAL_Driver/Inc/stm32wlxx_ll_pwr.h ****   return (uint32_t)(READ_BIT(PWR->CR3, PWR_CR3_EWRFBUSY));
1317:Drivers/STM32WLxx_HAL_Driver/Inc/stm32wlxx_ll_pwr.h **** }
1318:Drivers/STM32WLxx_HAL_Driver/Inc/stm32wlxx_ll_pwr.h **** 
1319:Drivers/STM32WLxx_HAL_Driver/Inc/stm32wlxx_ll_pwr.h **** /**
1320:Drivers/STM32WLxx_HAL_Driver/Inc/stm32wlxx_ll_pwr.h ****   * @brief  Set radio IRQ trigger action for CPU1: wake-up from low-power mode
1321:Drivers/STM32WLxx_HAL_Driver/Inc/stm32wlxx_ll_pwr.h ****   *         Standby.
1322:Drivers/STM32WLxx_HAL_Driver/Inc/stm32wlxx_ll_pwr.h ****   * @rmtoll CR3          ERFIRQ        LL_PWR_SetRadioIRQTrigger
1323:Drivers/STM32WLxx_HAL_Driver/Inc/stm32wlxx_ll_pwr.h ****   * @param  RadioIRQTrigger This parameter can be one of the following values:
1324:Drivers/STM32WLxx_HAL_Driver/Inc/stm32wlxx_ll_pwr.h ****   *         @arg @ref LL_PWR_RADIO_IRQ_TRIGGER_NONE
ARM GAS  /tmp/ccyVxTym.s 			page 36


1325:Drivers/STM32WLxx_HAL_Driver/Inc/stm32wlxx_ll_pwr.h ****   *         @arg @ref LL_PWR_RADIO_IRQ_TRIGGER_WU_IT
1326:Drivers/STM32WLxx_HAL_Driver/Inc/stm32wlxx_ll_pwr.h ****   * @retval None
1327:Drivers/STM32WLxx_HAL_Driver/Inc/stm32wlxx_ll_pwr.h ****   */
1328:Drivers/STM32WLxx_HAL_Driver/Inc/stm32wlxx_ll_pwr.h **** __STATIC_INLINE void LL_PWR_SetRadioIRQTrigger(uint32_t RadioIRQTrigger)
 408              		.loc 2 1328 22 view .LVU75
 409              	.LBB47:
1329:Drivers/STM32WLxx_HAL_Driver/Inc/stm32wlxx_ll_pwr.h **** {
1330:Drivers/STM32WLxx_HAL_Driver/Inc/stm32wlxx_ll_pwr.h ****   MODIFY_REG(PWR->CR3, PWR_CR3_EWRFIRQ, RadioIRQTrigger);
 410              		.loc 2 1330 3 view .LVU76
 411 0000 034A     		ldr	r2, .L35
 412 0002 9368     		ldr	r3, [r2, #8]
 413 0004 23F40053 		bic	r3, r3, #8192
 414 0008 1843     		orrs	r0, r0, r3
 415              	.LVL21:
 416              		.loc 2 1330 3 is_stmt 0 view .LVU77
 417 000a 9060     		str	r0, [r2, #8]
 418              	.LVL22:
 419              		.loc 2 1330 3 view .LVU78
 420              	.LBE47:
 421              	.LBE46:
 261:Drivers/STM32WLxx_HAL_Driver/Src/stm32wlxx_hal_pwr_ex.c **** #endif
 262:Drivers/STM32WLxx_HAL_Driver/Src/stm32wlxx_hal_pwr_ex.c **** }
 422              		.loc 1 262 1 view .LVU79
 423 000c 7047     		bx	lr
 424              	.L36:
 425 000e 00BF     		.align	2
 426              	.L35:
 427 0010 00040058 		.word	1476396032
 428              		.cfi_endproc
 429              	.LFE969:
 431              		.section	.text.HAL_PWREx_EnableHOLDC2IT,"ax",%progbits
 432              		.align	1
 433              		.global	HAL_PWREx_EnableHOLDC2IT
 434              		.syntax unified
 435              		.thumb
 436              		.thumb_func
 437              		.fpu softvfp
 439              	HAL_PWREx_EnableHOLDC2IT:
 440              	.LFB970:
 263:Drivers/STM32WLxx_HAL_Driver/Src/stm32wlxx_hal_pwr_ex.c **** 
 264:Drivers/STM32WLxx_HAL_Driver/Src/stm32wlxx_hal_pwr_ex.c **** #if defined(DUAL_CORE)
 265:Drivers/STM32WLxx_HAL_Driver/Src/stm32wlxx_hal_pwr_ex.c **** /**
 266:Drivers/STM32WLxx_HAL_Driver/Src/stm32wlxx_hal_pwr_ex.c ****   * @brief Enable CPU2 on-Hold interrupt.
 267:Drivers/STM32WLxx_HAL_Driver/Src/stm32wlxx_hal_pwr_ex.c ****   * @retval None
 268:Drivers/STM32WLxx_HAL_Driver/Src/stm32wlxx_hal_pwr_ex.c ****   */
 269:Drivers/STM32WLxx_HAL_Driver/Src/stm32wlxx_hal_pwr_ex.c **** void HAL_PWREx_EnableHOLDC2IT(void)
 270:Drivers/STM32WLxx_HAL_Driver/Src/stm32wlxx_hal_pwr_ex.c **** {
 441              		.loc 1 270 1 is_stmt 1 view -0
 442              		.cfi_startproc
 443              		@ args = 0, pretend = 0, frame = 0
 444              		@ frame_needed = 0, uses_anonymous_args = 0
 445              		@ link register save eliminated.
 271:Drivers/STM32WLxx_HAL_Driver/Src/stm32wlxx_hal_pwr_ex.c ****   SET_BIT(PWR->CR3, PWR_CR3_EC2H);
 446              		.loc 1 271 3 view .LVU81
 447 0000 024A     		ldr	r2, .L38
 448 0002 9368     		ldr	r3, [r2, #8]
 449 0004 43F48043 		orr	r3, r3, #16384
ARM GAS  /tmp/ccyVxTym.s 			page 37


 450 0008 9360     		str	r3, [r2, #8]
 272:Drivers/STM32WLxx_HAL_Driver/Src/stm32wlxx_hal_pwr_ex.c **** }
 451              		.loc 1 272 1 is_stmt 0 view .LVU82
 452 000a 7047     		bx	lr
 453              	.L39:
 454              		.align	2
 455              	.L38:
 456 000c 00040058 		.word	1476396032
 457              		.cfi_endproc
 458              	.LFE970:
 460              		.section	.text.HAL_PWREx_DisableHOLDC2IT,"ax",%progbits
 461              		.align	1
 462              		.global	HAL_PWREx_DisableHOLDC2IT
 463              		.syntax unified
 464              		.thumb
 465              		.thumb_func
 466              		.fpu softvfp
 468              	HAL_PWREx_DisableHOLDC2IT:
 469              	.LFB971:
 273:Drivers/STM32WLxx_HAL_Driver/Src/stm32wlxx_hal_pwr_ex.c **** 
 274:Drivers/STM32WLxx_HAL_Driver/Src/stm32wlxx_hal_pwr_ex.c **** /**
 275:Drivers/STM32WLxx_HAL_Driver/Src/stm32wlxx_hal_pwr_ex.c ****   * @brief Disable CPU2 on-Hold interrupt.
 276:Drivers/STM32WLxx_HAL_Driver/Src/stm32wlxx_hal_pwr_ex.c ****   * @retval None
 277:Drivers/STM32WLxx_HAL_Driver/Src/stm32wlxx_hal_pwr_ex.c ****   */
 278:Drivers/STM32WLxx_HAL_Driver/Src/stm32wlxx_hal_pwr_ex.c **** void HAL_PWREx_DisableHOLDC2IT(void)
 279:Drivers/STM32WLxx_HAL_Driver/Src/stm32wlxx_hal_pwr_ex.c **** {
 470              		.loc 1 279 1 is_stmt 1 view -0
 471              		.cfi_startproc
 472              		@ args = 0, pretend = 0, frame = 0
 473              		@ frame_needed = 0, uses_anonymous_args = 0
 474              		@ link register save eliminated.
 280:Drivers/STM32WLxx_HAL_Driver/Src/stm32wlxx_hal_pwr_ex.c ****   CLEAR_BIT(PWR->CR3, PWR_CR3_EC2H);
 475              		.loc 1 280 3 view .LVU84
 476 0000 024A     		ldr	r2, .L41
 477 0002 9368     		ldr	r3, [r2, #8]
 478 0004 23F48043 		bic	r3, r3, #16384
 479 0008 9360     		str	r3, [r2, #8]
 281:Drivers/STM32WLxx_HAL_Driver/Src/stm32wlxx_hal_pwr_ex.c **** }
 480              		.loc 1 281 1 is_stmt 0 view .LVU85
 481 000a 7047     		bx	lr
 482              	.L42:
 483              		.align	2
 484              	.L41:
 485 000c 00040058 		.word	1476396032
 486              		.cfi_endproc
 487              	.LFE971:
 489              		.section	.text.HAL_PWREx_EnableGPIOPullUp,"ax",%progbits
 490              		.align	1
 491              		.global	HAL_PWREx_EnableGPIOPullUp
 492              		.syntax unified
 493              		.thumb
 494              		.thumb_func
 495              		.fpu softvfp
 497              	HAL_PWREx_EnableGPIOPullUp:
 498              	.LVL23:
 499              	.LFB972:
 282:Drivers/STM32WLxx_HAL_Driver/Src/stm32wlxx_hal_pwr_ex.c **** #endif
ARM GAS  /tmp/ccyVxTym.s 			page 38


 283:Drivers/STM32WLxx_HAL_Driver/Src/stm32wlxx_hal_pwr_ex.c **** 
 284:Drivers/STM32WLxx_HAL_Driver/Src/stm32wlxx_hal_pwr_ex.c **** /****************************************************************************/
 285:Drivers/STM32WLxx_HAL_Driver/Src/stm32wlxx_hal_pwr_ex.c **** 
 286:Drivers/STM32WLxx_HAL_Driver/Src/stm32wlxx_hal_pwr_ex.c **** /**
 287:Drivers/STM32WLxx_HAL_Driver/Src/stm32wlxx_hal_pwr_ex.c ****   * @brief Enable GPIO pull-up state in Standby and Shutdown modes.
 288:Drivers/STM32WLxx_HAL_Driver/Src/stm32wlxx_hal_pwr_ex.c ****   * @note  Set the relevant PUy bits of PWR_PUCRx register to configure the I/O in
 289:Drivers/STM32WLxx_HAL_Driver/Src/stm32wlxx_hal_pwr_ex.c ****   *        pull-up state in Standby and Shutdown modes.
 290:Drivers/STM32WLxx_HAL_Driver/Src/stm32wlxx_hal_pwr_ex.c ****   * @note  This state is effective in Standby and Shutdown modes only if APC bit
 291:Drivers/STM32WLxx_HAL_Driver/Src/stm32wlxx_hal_pwr_ex.c ****   *        is set through HAL_PWREx_EnablePullUpPullDownConfig() API.
 292:Drivers/STM32WLxx_HAL_Driver/Src/stm32wlxx_hal_pwr_ex.c ****   * @note  The configuration is lost when exiting the Shutdown mode due to the
 293:Drivers/STM32WLxx_HAL_Driver/Src/stm32wlxx_hal_pwr_ex.c ****   *        power-on reset, maintained when exiting the Standby mode.
 294:Drivers/STM32WLxx_HAL_Driver/Src/stm32wlxx_hal_pwr_ex.c ****   * @note  To avoid any conflict at Standby and Shutdown modes exits, the corresponding
 295:Drivers/STM32WLxx_HAL_Driver/Src/stm32wlxx_hal_pwr_ex.c ****   *        PDy bit of PWR_PDCRx register is cleared unless it is reserved.
 296:Drivers/STM32WLxx_HAL_Driver/Src/stm32wlxx_hal_pwr_ex.c ****   * @note  Even if a PUy bit to set is reserved, the other PUy bits entered as input
 297:Drivers/STM32WLxx_HAL_Driver/Src/stm32wlxx_hal_pwr_ex.c ****   *        parameter at the same time are set.
 298:Drivers/STM32WLxx_HAL_Driver/Src/stm32wlxx_hal_pwr_ex.c ****   * @param GPIO Specify the IO port. This parameter can be PWR_GPIO_A, ..., PWR_GPIO_H
 299:Drivers/STM32WLxx_HAL_Driver/Src/stm32wlxx_hal_pwr_ex.c ****   *         to select the GPIO peripheral.
 300:Drivers/STM32WLxx_HAL_Driver/Src/stm32wlxx_hal_pwr_ex.c ****   * @param GPIONumber Specify the I/O pins numbers.
 301:Drivers/STM32WLxx_HAL_Driver/Src/stm32wlxx_hal_pwr_ex.c ****   *         This parameter can be one of the following values:
 302:Drivers/STM32WLxx_HAL_Driver/Src/stm32wlxx_hal_pwr_ex.c ****   *         PWR_GPIO_BIT_0, ..., PWR_GPIO_BIT_15 (except for PORTH where less
 303:Drivers/STM32WLxx_HAL_Driver/Src/stm32wlxx_hal_pwr_ex.c ****   *         I/O pins are available) or the logical OR of several of them to set
 304:Drivers/STM32WLxx_HAL_Driver/Src/stm32wlxx_hal_pwr_ex.c ****   *         several bits for a given port in a single API call.
 305:Drivers/STM32WLxx_HAL_Driver/Src/stm32wlxx_hal_pwr_ex.c ****   * @retval HAL Status
 306:Drivers/STM32WLxx_HAL_Driver/Src/stm32wlxx_hal_pwr_ex.c ****   */
 307:Drivers/STM32WLxx_HAL_Driver/Src/stm32wlxx_hal_pwr_ex.c **** HAL_StatusTypeDef HAL_PWREx_EnableGPIOPullUp(uint32_t GPIO, uint32_t GPIONumber)
 308:Drivers/STM32WLxx_HAL_Driver/Src/stm32wlxx_hal_pwr_ex.c **** {
 500              		.loc 1 308 1 is_stmt 1 view -0
 501              		.cfi_startproc
 502              		@ args = 0, pretend = 0, frame = 0
 503              		@ frame_needed = 0, uses_anonymous_args = 0
 504              		@ link register save eliminated.
 309:Drivers/STM32WLxx_HAL_Driver/Src/stm32wlxx_hal_pwr_ex.c ****   HAL_StatusTypeDef status = HAL_OK;
 505              		.loc 1 309 3 view .LVU87
 310:Drivers/STM32WLxx_HAL_Driver/Src/stm32wlxx_hal_pwr_ex.c **** 
 311:Drivers/STM32WLxx_HAL_Driver/Src/stm32wlxx_hal_pwr_ex.c ****   assert_param(IS_PWR_GPIO(GPIO));
 506              		.loc 1 311 3 view .LVU88
 312:Drivers/STM32WLxx_HAL_Driver/Src/stm32wlxx_hal_pwr_ex.c ****   assert_param(IS_PWR_GPIO_BIT_NUMBER(GPIONumber));
 507              		.loc 1 312 3 view .LVU89
 313:Drivers/STM32WLxx_HAL_Driver/Src/stm32wlxx_hal_pwr_ex.c **** 
 314:Drivers/STM32WLxx_HAL_Driver/Src/stm32wlxx_hal_pwr_ex.c ****   switch (GPIO)
 508              		.loc 1 314 3 view .LVU90
 509 0000 0728     		cmp	r0, #7
 510 0002 33D8     		bhi	.L50
 511 0004 DFE800F0 		tbb	[pc, r0]
 512              	.L46:
 513 0008 04       		.byte	(.L49-.L46)/2
 514 0009 0E       		.byte	(.L48-.L46)/2
 515 000a 18       		.byte	(.L47-.L46)/2
 516 000b 32       		.byte	(.L50-.L46)/2
 517 000c 32       		.byte	(.L50-.L46)/2
 518 000d 32       		.byte	(.L50-.L46)/2
 519 000e 32       		.byte	(.L50-.L46)/2
 520 000f 26       		.byte	(.L45-.L46)/2
 521              		.p2align 1
 522              	.L49:
 315:Drivers/STM32WLxx_HAL_Driver/Src/stm32wlxx_hal_pwr_ex.c ****   {
 316:Drivers/STM32WLxx_HAL_Driver/Src/stm32wlxx_hal_pwr_ex.c ****     case PWR_GPIO_A:
ARM GAS  /tmp/ccyVxTym.s 			page 39


 317:Drivers/STM32WLxx_HAL_Driver/Src/stm32wlxx_hal_pwr_ex.c ****       SET_BIT(PWR->PUCRA, GPIONumber);
 523              		.loc 1 317 7 view .LVU91
 524 0010 174B     		ldr	r3, .L51
 525 0012 1A6A     		ldr	r2, [r3, #32]
 526 0014 0A43     		orrs	r2, r2, r1
 527 0016 1A62     		str	r2, [r3, #32]
 318:Drivers/STM32WLxx_HAL_Driver/Src/stm32wlxx_hal_pwr_ex.c ****       CLEAR_BIT(PWR->PDCRA, GPIONumber);
 528              		.loc 1 318 7 view .LVU92
 529 0018 5A6A     		ldr	r2, [r3, #36]
 530 001a 22EA0101 		bic	r1, r2, r1
 531              	.LVL24:
 532              		.loc 1 318 7 is_stmt 0 view .LVU93
 533 001e 5962     		str	r1, [r3, #36]
 319:Drivers/STM32WLxx_HAL_Driver/Src/stm32wlxx_hal_pwr_ex.c ****       break;
 534              		.loc 1 319 7 is_stmt 1 view .LVU94
 309:Drivers/STM32WLxx_HAL_Driver/Src/stm32wlxx_hal_pwr_ex.c **** 
 535              		.loc 1 309 21 is_stmt 0 view .LVU95
 536 0020 0020     		movs	r0, #0
 537              	.LVL25:
 538              		.loc 1 319 7 view .LVU96
 539 0022 7047     		bx	lr
 540              	.LVL26:
 541              	.L48:
 320:Drivers/STM32WLxx_HAL_Driver/Src/stm32wlxx_hal_pwr_ex.c ****     case PWR_GPIO_B:
 321:Drivers/STM32WLxx_HAL_Driver/Src/stm32wlxx_hal_pwr_ex.c ****       SET_BIT(PWR->PUCRB, GPIONumber);
 542              		.loc 1 321 7 is_stmt 1 view .LVU97
 543 0024 124B     		ldr	r3, .L51
 544 0026 9A6A     		ldr	r2, [r3, #40]
 545 0028 0A43     		orrs	r2, r2, r1
 546 002a 9A62     		str	r2, [r3, #40]
 322:Drivers/STM32WLxx_HAL_Driver/Src/stm32wlxx_hal_pwr_ex.c ****       CLEAR_BIT(PWR->PDCRB, GPIONumber);
 547              		.loc 1 322 7 view .LVU98
 548 002c DA6A     		ldr	r2, [r3, #44]
 549 002e 22EA0101 		bic	r1, r2, r1
 550              	.LVL27:
 551              		.loc 1 322 7 is_stmt 0 view .LVU99
 552 0032 D962     		str	r1, [r3, #44]
 323:Drivers/STM32WLxx_HAL_Driver/Src/stm32wlxx_hal_pwr_ex.c ****       break;
 553              		.loc 1 323 7 is_stmt 1 view .LVU100
 309:Drivers/STM32WLxx_HAL_Driver/Src/stm32wlxx_hal_pwr_ex.c **** 
 554              		.loc 1 309 21 is_stmt 0 view .LVU101
 555 0034 0020     		movs	r0, #0
 556              	.LVL28:
 557              		.loc 1 323 7 view .LVU102
 558 0036 7047     		bx	lr
 559              	.LVL29:
 560              	.L47:
 324:Drivers/STM32WLxx_HAL_Driver/Src/stm32wlxx_hal_pwr_ex.c ****     case PWR_GPIO_C:
 325:Drivers/STM32WLxx_HAL_Driver/Src/stm32wlxx_hal_pwr_ex.c ****       SET_BIT(PWR->PUCRC, (GPIONumber & PWR_PORTC_AVAILABLE_PINS));
 561              		.loc 1 325 7 is_stmt 1 view .LVU103
 562 0038 0D4B     		ldr	r3, .L51
 563 003a 1A6B     		ldr	r2, [r3, #48]
 564 003c 21F4FC51 		bic	r1, r1, #8064
 565              	.LVL30:
 566              		.loc 1 325 7 is_stmt 0 view .LVU104
 567 0040 0904     		lsls	r1, r1, #16
 568 0042 090C     		lsrs	r1, r1, #16
ARM GAS  /tmp/ccyVxTym.s 			page 40


 569 0044 0A43     		orrs	r2, r2, r1
 570 0046 1A63     		str	r2, [r3, #48]
 326:Drivers/STM32WLxx_HAL_Driver/Src/stm32wlxx_hal_pwr_ex.c ****       CLEAR_BIT(PWR->PDCRC, (GPIONumber & PWR_PORTC_AVAILABLE_PINS));
 571              		.loc 1 326 7 is_stmt 1 view .LVU105
 572 0048 5A6B     		ldr	r2, [r3, #52]
 573 004a 22EA0101 		bic	r1, r2, r1
 574 004e 5963     		str	r1, [r3, #52]
 327:Drivers/STM32WLxx_HAL_Driver/Src/stm32wlxx_hal_pwr_ex.c ****       break;
 575              		.loc 1 327 7 view .LVU106
 309:Drivers/STM32WLxx_HAL_Driver/Src/stm32wlxx_hal_pwr_ex.c **** 
 576              		.loc 1 309 21 is_stmt 0 view .LVU107
 577 0050 0020     		movs	r0, #0
 578              	.LVL31:
 579              		.loc 1 327 7 view .LVU108
 580 0052 7047     		bx	lr
 581              	.LVL32:
 582              	.L45:
 328:Drivers/STM32WLxx_HAL_Driver/Src/stm32wlxx_hal_pwr_ex.c ****     case PWR_GPIO_H:
 329:Drivers/STM32WLxx_HAL_Driver/Src/stm32wlxx_hal_pwr_ex.c ****       SET_BIT(PWR->PUCRH, (GPIONumber & PWR_PORTH_AVAILABLE_PINS));
 583              		.loc 1 329 7 is_stmt 1 view .LVU109
 584 0054 064B     		ldr	r3, .L51
 585 0056 9A6D     		ldr	r2, [r3, #88]
 586 0058 01F00801 		and	r1, r1, #8
 587              	.LVL33:
 588              		.loc 1 329 7 is_stmt 0 view .LVU110
 589 005c 0A43     		orrs	r2, r2, r1
 590 005e 9A65     		str	r2, [r3, #88]
 330:Drivers/STM32WLxx_HAL_Driver/Src/stm32wlxx_hal_pwr_ex.c ****       CLEAR_BIT(PWR->PDCRH, (GPIONumber & PWR_PORTH_AVAILABLE_PINS));
 591              		.loc 1 330 7 is_stmt 1 view .LVU111
 592 0060 DA6D     		ldr	r2, [r3, #92]
 593 0062 22EA0101 		bic	r1, r2, r1
 594 0066 D965     		str	r1, [r3, #92]
 331:Drivers/STM32WLxx_HAL_Driver/Src/stm32wlxx_hal_pwr_ex.c ****       break;
 595              		.loc 1 331 7 view .LVU112
 309:Drivers/STM32WLxx_HAL_Driver/Src/stm32wlxx_hal_pwr_ex.c **** 
 596              		.loc 1 309 21 is_stmt 0 view .LVU113
 597 0068 0020     		movs	r0, #0
 598              	.LVL34:
 599              		.loc 1 331 7 view .LVU114
 600 006a 7047     		bx	lr
 601              	.LVL35:
 602              	.L50:
 314:Drivers/STM32WLxx_HAL_Driver/Src/stm32wlxx_hal_pwr_ex.c ****   {
 603              		.loc 1 314 3 view .LVU115
 604 006c 0120     		movs	r0, #1
 605              	.LVL36:
 332:Drivers/STM32WLxx_HAL_Driver/Src/stm32wlxx_hal_pwr_ex.c ****     default:
 333:Drivers/STM32WLxx_HAL_Driver/Src/stm32wlxx_hal_pwr_ex.c ****       status = HAL_ERROR;
 334:Drivers/STM32WLxx_HAL_Driver/Src/stm32wlxx_hal_pwr_ex.c ****       break;
 335:Drivers/STM32WLxx_HAL_Driver/Src/stm32wlxx_hal_pwr_ex.c ****   }
 336:Drivers/STM32WLxx_HAL_Driver/Src/stm32wlxx_hal_pwr_ex.c **** 
 337:Drivers/STM32WLxx_HAL_Driver/Src/stm32wlxx_hal_pwr_ex.c ****   return status;
 606              		.loc 1 337 3 is_stmt 1 view .LVU116
 338:Drivers/STM32WLxx_HAL_Driver/Src/stm32wlxx_hal_pwr_ex.c **** }
 607              		.loc 1 338 1 is_stmt 0 view .LVU117
 608 006e 7047     		bx	lr
 609              	.L52:
ARM GAS  /tmp/ccyVxTym.s 			page 41


 610              		.align	2
 611              	.L51:
 612 0070 00040058 		.word	1476396032
 613              		.cfi_endproc
 614              	.LFE972:
 616              		.section	.text.HAL_PWREx_DisableGPIOPullUp,"ax",%progbits
 617              		.align	1
 618              		.global	HAL_PWREx_DisableGPIOPullUp
 619              		.syntax unified
 620              		.thumb
 621              		.thumb_func
 622              		.fpu softvfp
 624              	HAL_PWREx_DisableGPIOPullUp:
 625              	.LVL37:
 626              	.LFB973:
 339:Drivers/STM32WLxx_HAL_Driver/Src/stm32wlxx_hal_pwr_ex.c **** 
 340:Drivers/STM32WLxx_HAL_Driver/Src/stm32wlxx_hal_pwr_ex.c **** /**
 341:Drivers/STM32WLxx_HAL_Driver/Src/stm32wlxx_hal_pwr_ex.c ****   * @brief Disable GPIO pull-up state in Standby mode and Shutdown modes.
 342:Drivers/STM32WLxx_HAL_Driver/Src/stm32wlxx_hal_pwr_ex.c ****   * @note  Reset the relevant PUy bits of PWR_PUCRx register used to configure the I/O
 343:Drivers/STM32WLxx_HAL_Driver/Src/stm32wlxx_hal_pwr_ex.c ****   *        in pull-up state in Standby and Shutdown modes.
 344:Drivers/STM32WLxx_HAL_Driver/Src/stm32wlxx_hal_pwr_ex.c ****   * @note  Even if a PUy bit to reset is reserved, the other PUy bits entered as input
 345:Drivers/STM32WLxx_HAL_Driver/Src/stm32wlxx_hal_pwr_ex.c ****   *        parameter at the same time are reset.
 346:Drivers/STM32WLxx_HAL_Driver/Src/stm32wlxx_hal_pwr_ex.c ****   * @param GPIO Specifies the IO port. This parameter can be PWR_GPIO_A, ..., PWR_GPIO_H
 347:Drivers/STM32WLxx_HAL_Driver/Src/stm32wlxx_hal_pwr_ex.c ****   *         to select the GPIO peripheral.
 348:Drivers/STM32WLxx_HAL_Driver/Src/stm32wlxx_hal_pwr_ex.c ****   * @param GPIONumber Specify the I/O pins numbers.
 349:Drivers/STM32WLxx_HAL_Driver/Src/stm32wlxx_hal_pwr_ex.c ****   *         This parameter can be one of the following values:
 350:Drivers/STM32WLxx_HAL_Driver/Src/stm32wlxx_hal_pwr_ex.c ****   *         PWR_GPIO_BIT_0, ..., PWR_GPIO_BIT_15 (except for PORTH where less
 351:Drivers/STM32WLxx_HAL_Driver/Src/stm32wlxx_hal_pwr_ex.c ****   *         I/O pins are available) or the logical OR of several of them to reset
 352:Drivers/STM32WLxx_HAL_Driver/Src/stm32wlxx_hal_pwr_ex.c ****   *         several bits for a given port in a single API call.
 353:Drivers/STM32WLxx_HAL_Driver/Src/stm32wlxx_hal_pwr_ex.c ****   * @retval HAL Status
 354:Drivers/STM32WLxx_HAL_Driver/Src/stm32wlxx_hal_pwr_ex.c ****   */
 355:Drivers/STM32WLxx_HAL_Driver/Src/stm32wlxx_hal_pwr_ex.c **** HAL_StatusTypeDef HAL_PWREx_DisableGPIOPullUp(uint32_t GPIO, uint32_t GPIONumber)
 356:Drivers/STM32WLxx_HAL_Driver/Src/stm32wlxx_hal_pwr_ex.c **** {
 627              		.loc 1 356 1 is_stmt 1 view -0
 628              		.cfi_startproc
 629              		@ args = 0, pretend = 0, frame = 0
 630              		@ frame_needed = 0, uses_anonymous_args = 0
 631              		@ link register save eliminated.
 357:Drivers/STM32WLxx_HAL_Driver/Src/stm32wlxx_hal_pwr_ex.c ****   HAL_StatusTypeDef status = HAL_OK;
 632              		.loc 1 357 3 view .LVU119
 358:Drivers/STM32WLxx_HAL_Driver/Src/stm32wlxx_hal_pwr_ex.c **** 
 359:Drivers/STM32WLxx_HAL_Driver/Src/stm32wlxx_hal_pwr_ex.c ****   assert_param(IS_PWR_GPIO(GPIO));
 633              		.loc 1 359 3 view .LVU120
 360:Drivers/STM32WLxx_HAL_Driver/Src/stm32wlxx_hal_pwr_ex.c ****   assert_param(IS_PWR_GPIO_BIT_NUMBER(GPIONumber));
 634              		.loc 1 360 3 view .LVU121
 361:Drivers/STM32WLxx_HAL_Driver/Src/stm32wlxx_hal_pwr_ex.c **** 
 362:Drivers/STM32WLxx_HAL_Driver/Src/stm32wlxx_hal_pwr_ex.c ****   switch (GPIO)
 635              		.loc 1 362 3 view .LVU122
 636 0000 0728     		cmp	r0, #7
 637 0002 27D8     		bhi	.L60
 638 0004 DFE800F0 		tbb	[pc, r0]
 639              	.L56:
 640 0008 04       		.byte	(.L59-.L56)/2
 641 0009 0B       		.byte	(.L58-.L56)/2
 642 000a 12       		.byte	(.L57-.L56)/2
 643 000b 26       		.byte	(.L60-.L56)/2
 644 000c 26       		.byte	(.L60-.L56)/2
ARM GAS  /tmp/ccyVxTym.s 			page 42


 645 000d 26       		.byte	(.L60-.L56)/2
 646 000e 26       		.byte	(.L60-.L56)/2
 647 000f 1D       		.byte	(.L55-.L56)/2
 648              		.p2align 1
 649              	.L59:
 363:Drivers/STM32WLxx_HAL_Driver/Src/stm32wlxx_hal_pwr_ex.c ****   {
 364:Drivers/STM32WLxx_HAL_Driver/Src/stm32wlxx_hal_pwr_ex.c ****     case PWR_GPIO_A:
 365:Drivers/STM32WLxx_HAL_Driver/Src/stm32wlxx_hal_pwr_ex.c ****       CLEAR_BIT(PWR->PUCRA, GPIONumber);
 650              		.loc 1 365 7 view .LVU123
 651 0010 114A     		ldr	r2, .L61
 652 0012 136A     		ldr	r3, [r2, #32]
 653 0014 23EA0101 		bic	r1, r3, r1
 654              	.LVL38:
 655              		.loc 1 365 7 is_stmt 0 view .LVU124
 656 0018 1162     		str	r1, [r2, #32]
 366:Drivers/STM32WLxx_HAL_Driver/Src/stm32wlxx_hal_pwr_ex.c ****       break;
 657              		.loc 1 366 7 is_stmt 1 view .LVU125
 357:Drivers/STM32WLxx_HAL_Driver/Src/stm32wlxx_hal_pwr_ex.c **** 
 658              		.loc 1 357 21 is_stmt 0 view .LVU126
 659 001a 0020     		movs	r0, #0
 660              	.LVL39:
 661              		.loc 1 366 7 view .LVU127
 662 001c 7047     		bx	lr
 663              	.LVL40:
 664              	.L58:
 367:Drivers/STM32WLxx_HAL_Driver/Src/stm32wlxx_hal_pwr_ex.c ****     case PWR_GPIO_B:
 368:Drivers/STM32WLxx_HAL_Driver/Src/stm32wlxx_hal_pwr_ex.c ****       CLEAR_BIT(PWR->PUCRB, GPIONumber);
 665              		.loc 1 368 7 is_stmt 1 view .LVU128
 666 001e 0E4A     		ldr	r2, .L61
 667 0020 936A     		ldr	r3, [r2, #40]
 668 0022 23EA0101 		bic	r1, r3, r1
 669              	.LVL41:
 670              		.loc 1 368 7 is_stmt 0 view .LVU129
 671 0026 9162     		str	r1, [r2, #40]
 369:Drivers/STM32WLxx_HAL_Driver/Src/stm32wlxx_hal_pwr_ex.c ****       break;
 672              		.loc 1 369 7 is_stmt 1 view .LVU130
 357:Drivers/STM32WLxx_HAL_Driver/Src/stm32wlxx_hal_pwr_ex.c **** 
 673              		.loc 1 357 21 is_stmt 0 view .LVU131
 674 0028 0020     		movs	r0, #0
 675              	.LVL42:
 676              		.loc 1 369 7 view .LVU132
 677 002a 7047     		bx	lr
 678              	.LVL43:
 679              	.L57:
 370:Drivers/STM32WLxx_HAL_Driver/Src/stm32wlxx_hal_pwr_ex.c ****     case PWR_GPIO_C:
 371:Drivers/STM32WLxx_HAL_Driver/Src/stm32wlxx_hal_pwr_ex.c ****       CLEAR_BIT(PWR->PUCRC, (GPIONumber & PWR_PORTC_AVAILABLE_PINS));
 680              		.loc 1 371 7 is_stmt 1 view .LVU133
 681 002c 0A4A     		ldr	r2, .L61
 682 002e 136B     		ldr	r3, [r2, #48]
 683 0030 21F4FC51 		bic	r1, r1, #8064
 684              	.LVL44:
 685              		.loc 1 371 7 is_stmt 0 view .LVU134
 686 0034 0904     		lsls	r1, r1, #16
 687 0036 090C     		lsrs	r1, r1, #16
 688 0038 23EA0101 		bic	r1, r3, r1
 689 003c 1163     		str	r1, [r2, #48]
 372:Drivers/STM32WLxx_HAL_Driver/Src/stm32wlxx_hal_pwr_ex.c ****       break;
ARM GAS  /tmp/ccyVxTym.s 			page 43


 690              		.loc 1 372 7 is_stmt 1 view .LVU135
 357:Drivers/STM32WLxx_HAL_Driver/Src/stm32wlxx_hal_pwr_ex.c **** 
 691              		.loc 1 357 21 is_stmt 0 view .LVU136
 692 003e 0020     		movs	r0, #0
 693              	.LVL45:
 694              		.loc 1 372 7 view .LVU137
 695 0040 7047     		bx	lr
 696              	.LVL46:
 697              	.L55:
 373:Drivers/STM32WLxx_HAL_Driver/Src/stm32wlxx_hal_pwr_ex.c ****     case PWR_GPIO_H:
 374:Drivers/STM32WLxx_HAL_Driver/Src/stm32wlxx_hal_pwr_ex.c ****       CLEAR_BIT(PWR->PUCRH, (GPIONumber & PWR_PORTH_AVAILABLE_PINS));
 698              		.loc 1 374 7 is_stmt 1 view .LVU138
 699 0042 054A     		ldr	r2, .L61
 700 0044 936D     		ldr	r3, [r2, #88]
 701 0046 01F00801 		and	r1, r1, #8
 702              	.LVL47:
 703              		.loc 1 374 7 is_stmt 0 view .LVU139
 704 004a 23EA0101 		bic	r1, r3, r1
 705 004e 9165     		str	r1, [r2, #88]
 375:Drivers/STM32WLxx_HAL_Driver/Src/stm32wlxx_hal_pwr_ex.c ****       break;
 706              		.loc 1 375 7 is_stmt 1 view .LVU140
 357:Drivers/STM32WLxx_HAL_Driver/Src/stm32wlxx_hal_pwr_ex.c **** 
 707              		.loc 1 357 21 is_stmt 0 view .LVU141
 708 0050 0020     		movs	r0, #0
 709              	.LVL48:
 710              		.loc 1 375 7 view .LVU142
 711 0052 7047     		bx	lr
 712              	.LVL49:
 713              	.L60:
 362:Drivers/STM32WLxx_HAL_Driver/Src/stm32wlxx_hal_pwr_ex.c ****   {
 714              		.loc 1 362 3 view .LVU143
 715 0054 0120     		movs	r0, #1
 716              	.LVL50:
 376:Drivers/STM32WLxx_HAL_Driver/Src/stm32wlxx_hal_pwr_ex.c ****     default:
 377:Drivers/STM32WLxx_HAL_Driver/Src/stm32wlxx_hal_pwr_ex.c ****       status = HAL_ERROR;
 378:Drivers/STM32WLxx_HAL_Driver/Src/stm32wlxx_hal_pwr_ex.c ****       break;
 379:Drivers/STM32WLxx_HAL_Driver/Src/stm32wlxx_hal_pwr_ex.c ****   }
 380:Drivers/STM32WLxx_HAL_Driver/Src/stm32wlxx_hal_pwr_ex.c **** 
 381:Drivers/STM32WLxx_HAL_Driver/Src/stm32wlxx_hal_pwr_ex.c ****   return status;
 717              		.loc 1 381 3 is_stmt 1 view .LVU144
 382:Drivers/STM32WLxx_HAL_Driver/Src/stm32wlxx_hal_pwr_ex.c **** }
 718              		.loc 1 382 1 is_stmt 0 view .LVU145
 719 0056 7047     		bx	lr
 720              	.L62:
 721              		.align	2
 722              	.L61:
 723 0058 00040058 		.word	1476396032
 724              		.cfi_endproc
 725              	.LFE973:
 727              		.section	.text.HAL_PWREx_EnableGPIOPullDown,"ax",%progbits
 728              		.align	1
 729              		.global	HAL_PWREx_EnableGPIOPullDown
 730              		.syntax unified
 731              		.thumb
 732              		.thumb_func
 733              		.fpu softvfp
 735              	HAL_PWREx_EnableGPIOPullDown:
ARM GAS  /tmp/ccyVxTym.s 			page 44


 736              	.LVL51:
 737              	.LFB974:
 383:Drivers/STM32WLxx_HAL_Driver/Src/stm32wlxx_hal_pwr_ex.c **** 
 384:Drivers/STM32WLxx_HAL_Driver/Src/stm32wlxx_hal_pwr_ex.c **** /**
 385:Drivers/STM32WLxx_HAL_Driver/Src/stm32wlxx_hal_pwr_ex.c ****   * @brief Enable GPIO pull-down state in Standby and Shutdown modes.
 386:Drivers/STM32WLxx_HAL_Driver/Src/stm32wlxx_hal_pwr_ex.c ****   * @note  Set the relevant PDy bits of PWR_PDCRx register to configure the I/O in
 387:Drivers/STM32WLxx_HAL_Driver/Src/stm32wlxx_hal_pwr_ex.c ****   *        pull-down state in Standby and Shutdown modes.
 388:Drivers/STM32WLxx_HAL_Driver/Src/stm32wlxx_hal_pwr_ex.c ****   * @note  This state is effective in Standby and Shutdown modes only if APC bit
 389:Drivers/STM32WLxx_HAL_Driver/Src/stm32wlxx_hal_pwr_ex.c ****   *        is set through HAL_PWREx_EnablePullUpPullDownConfig() API.
 390:Drivers/STM32WLxx_HAL_Driver/Src/stm32wlxx_hal_pwr_ex.c ****   * @note  The configuration is lost when exiting the Shutdown mode due to the
 391:Drivers/STM32WLxx_HAL_Driver/Src/stm32wlxx_hal_pwr_ex.c ****   *        power-on reset, maintained when exiting the Standby mode.
 392:Drivers/STM32WLxx_HAL_Driver/Src/stm32wlxx_hal_pwr_ex.c ****   * @note  To avoid any conflict at Standby and Shutdown modes exits, the corresponding
 393:Drivers/STM32WLxx_HAL_Driver/Src/stm32wlxx_hal_pwr_ex.c ****   *        PUy bit of PWR_PUCRx register is cleared unless it is reserved.
 394:Drivers/STM32WLxx_HAL_Driver/Src/stm32wlxx_hal_pwr_ex.c ****   * @note  Even if a PDy bit to set is reserved, the other PDy bits entered as input
 395:Drivers/STM32WLxx_HAL_Driver/Src/stm32wlxx_hal_pwr_ex.c ****   *        parameter at the same time are set.
 396:Drivers/STM32WLxx_HAL_Driver/Src/stm32wlxx_hal_pwr_ex.c ****   * @param GPIO Specify the IO port. This parameter can be PWR_GPIO_A..PWR_GPIO_H
 397:Drivers/STM32WLxx_HAL_Driver/Src/stm32wlxx_hal_pwr_ex.c ****   *         to select the GPIO peripheral.
 398:Drivers/STM32WLxx_HAL_Driver/Src/stm32wlxx_hal_pwr_ex.c ****   * @param GPIONumber Specify the I/O pins numbers.
 399:Drivers/STM32WLxx_HAL_Driver/Src/stm32wlxx_hal_pwr_ex.c ****   *         This parameter can be one of the following values:
 400:Drivers/STM32WLxx_HAL_Driver/Src/stm32wlxx_hal_pwr_ex.c ****   *         PWR_GPIO_BIT_0, ..., PWR_GPIO_BIT_15 (except for PORTH where less
 401:Drivers/STM32WLxx_HAL_Driver/Src/stm32wlxx_hal_pwr_ex.c ****   *         I/O pins are available) or the logical OR of several of them to set
 402:Drivers/STM32WLxx_HAL_Driver/Src/stm32wlxx_hal_pwr_ex.c ****   *         several bits for a given port in a single API call.
 403:Drivers/STM32WLxx_HAL_Driver/Src/stm32wlxx_hal_pwr_ex.c ****   * @retval HAL Status
 404:Drivers/STM32WLxx_HAL_Driver/Src/stm32wlxx_hal_pwr_ex.c ****   */
 405:Drivers/STM32WLxx_HAL_Driver/Src/stm32wlxx_hal_pwr_ex.c **** HAL_StatusTypeDef HAL_PWREx_EnableGPIOPullDown(uint32_t GPIO, uint32_t GPIONumber)
 406:Drivers/STM32WLxx_HAL_Driver/Src/stm32wlxx_hal_pwr_ex.c **** {
 738              		.loc 1 406 1 is_stmt 1 view -0
 739              		.cfi_startproc
 740              		@ args = 0, pretend = 0, frame = 0
 741              		@ frame_needed = 0, uses_anonymous_args = 0
 742              		@ link register save eliminated.
 407:Drivers/STM32WLxx_HAL_Driver/Src/stm32wlxx_hal_pwr_ex.c ****   HAL_StatusTypeDef status = HAL_OK;
 743              		.loc 1 407 3 view .LVU147
 408:Drivers/STM32WLxx_HAL_Driver/Src/stm32wlxx_hal_pwr_ex.c **** 
 409:Drivers/STM32WLxx_HAL_Driver/Src/stm32wlxx_hal_pwr_ex.c ****   assert_param(IS_PWR_GPIO(GPIO));
 744              		.loc 1 409 3 view .LVU148
 410:Drivers/STM32WLxx_HAL_Driver/Src/stm32wlxx_hal_pwr_ex.c ****   assert_param(IS_PWR_GPIO_BIT_NUMBER(GPIONumber));
 745              		.loc 1 410 3 view .LVU149
 411:Drivers/STM32WLxx_HAL_Driver/Src/stm32wlxx_hal_pwr_ex.c **** 
 412:Drivers/STM32WLxx_HAL_Driver/Src/stm32wlxx_hal_pwr_ex.c ****   switch (GPIO)
 746              		.loc 1 412 3 view .LVU150
 747 0000 0728     		cmp	r0, #7
 748 0002 33D8     		bhi	.L70
 749 0004 DFE800F0 		tbb	[pc, r0]
 750              	.L66:
 751 0008 04       		.byte	(.L69-.L66)/2
 752 0009 0E       		.byte	(.L68-.L66)/2
 753 000a 18       		.byte	(.L67-.L66)/2
 754 000b 32       		.byte	(.L70-.L66)/2
 755 000c 32       		.byte	(.L70-.L66)/2
 756 000d 32       		.byte	(.L70-.L66)/2
 757 000e 32       		.byte	(.L70-.L66)/2
 758 000f 26       		.byte	(.L65-.L66)/2
 759              		.p2align 1
 760              	.L69:
 413:Drivers/STM32WLxx_HAL_Driver/Src/stm32wlxx_hal_pwr_ex.c ****   {
 414:Drivers/STM32WLxx_HAL_Driver/Src/stm32wlxx_hal_pwr_ex.c ****     case PWR_GPIO_A:
ARM GAS  /tmp/ccyVxTym.s 			page 45


 415:Drivers/STM32WLxx_HAL_Driver/Src/stm32wlxx_hal_pwr_ex.c ****       SET_BIT(PWR->PDCRA, GPIONumber);
 761              		.loc 1 415 7 view .LVU151
 762 0010 174B     		ldr	r3, .L71
 763 0012 5A6A     		ldr	r2, [r3, #36]
 764 0014 0A43     		orrs	r2, r2, r1
 765 0016 5A62     		str	r2, [r3, #36]
 416:Drivers/STM32WLxx_HAL_Driver/Src/stm32wlxx_hal_pwr_ex.c ****       CLEAR_BIT(PWR->PUCRA, GPIONumber);
 766              		.loc 1 416 7 view .LVU152
 767 0018 1A6A     		ldr	r2, [r3, #32]
 768 001a 22EA0101 		bic	r1, r2, r1
 769              	.LVL52:
 770              		.loc 1 416 7 is_stmt 0 view .LVU153
 771 001e 1962     		str	r1, [r3, #32]
 417:Drivers/STM32WLxx_HAL_Driver/Src/stm32wlxx_hal_pwr_ex.c ****       break;
 772              		.loc 1 417 7 is_stmt 1 view .LVU154
 407:Drivers/STM32WLxx_HAL_Driver/Src/stm32wlxx_hal_pwr_ex.c **** 
 773              		.loc 1 407 21 is_stmt 0 view .LVU155
 774 0020 0020     		movs	r0, #0
 775              	.LVL53:
 776              		.loc 1 417 7 view .LVU156
 777 0022 7047     		bx	lr
 778              	.LVL54:
 779              	.L68:
 418:Drivers/STM32WLxx_HAL_Driver/Src/stm32wlxx_hal_pwr_ex.c ****     case PWR_GPIO_B:
 419:Drivers/STM32WLxx_HAL_Driver/Src/stm32wlxx_hal_pwr_ex.c ****       SET_BIT(PWR->PDCRB, GPIONumber);
 780              		.loc 1 419 7 is_stmt 1 view .LVU157
 781 0024 124B     		ldr	r3, .L71
 782 0026 DA6A     		ldr	r2, [r3, #44]
 783 0028 0A43     		orrs	r2, r2, r1
 784 002a DA62     		str	r2, [r3, #44]
 420:Drivers/STM32WLxx_HAL_Driver/Src/stm32wlxx_hal_pwr_ex.c ****       CLEAR_BIT(PWR->PUCRB, GPIONumber);
 785              		.loc 1 420 7 view .LVU158
 786 002c 9A6A     		ldr	r2, [r3, #40]
 787 002e 22EA0101 		bic	r1, r2, r1
 788              	.LVL55:
 789              		.loc 1 420 7 is_stmt 0 view .LVU159
 790 0032 9962     		str	r1, [r3, #40]
 421:Drivers/STM32WLxx_HAL_Driver/Src/stm32wlxx_hal_pwr_ex.c ****       break;
 791              		.loc 1 421 7 is_stmt 1 view .LVU160
 407:Drivers/STM32WLxx_HAL_Driver/Src/stm32wlxx_hal_pwr_ex.c **** 
 792              		.loc 1 407 21 is_stmt 0 view .LVU161
 793 0034 0020     		movs	r0, #0
 794              	.LVL56:
 795              		.loc 1 421 7 view .LVU162
 796 0036 7047     		bx	lr
 797              	.LVL57:
 798              	.L67:
 422:Drivers/STM32WLxx_HAL_Driver/Src/stm32wlxx_hal_pwr_ex.c ****     case PWR_GPIO_C:
 423:Drivers/STM32WLxx_HAL_Driver/Src/stm32wlxx_hal_pwr_ex.c ****       SET_BIT(PWR->PDCRC, (GPIONumber & PWR_PORTC_AVAILABLE_PINS));
 799              		.loc 1 423 7 is_stmt 1 view .LVU163
 800 0038 0D4B     		ldr	r3, .L71
 801 003a 5A6B     		ldr	r2, [r3, #52]
 802 003c 21F4FC51 		bic	r1, r1, #8064
 803              	.LVL58:
 804              		.loc 1 423 7 is_stmt 0 view .LVU164
 805 0040 0904     		lsls	r1, r1, #16
 806 0042 090C     		lsrs	r1, r1, #16
ARM GAS  /tmp/ccyVxTym.s 			page 46


 807 0044 0A43     		orrs	r2, r2, r1
 808 0046 5A63     		str	r2, [r3, #52]
 424:Drivers/STM32WLxx_HAL_Driver/Src/stm32wlxx_hal_pwr_ex.c ****       CLEAR_BIT(PWR->PUCRC, (GPIONumber & PWR_PORTC_AVAILABLE_PINS));
 809              		.loc 1 424 7 is_stmt 1 view .LVU165
 810 0048 1A6B     		ldr	r2, [r3, #48]
 811 004a 22EA0101 		bic	r1, r2, r1
 812 004e 1963     		str	r1, [r3, #48]
 425:Drivers/STM32WLxx_HAL_Driver/Src/stm32wlxx_hal_pwr_ex.c ****       break;
 813              		.loc 1 425 7 view .LVU166
 407:Drivers/STM32WLxx_HAL_Driver/Src/stm32wlxx_hal_pwr_ex.c **** 
 814              		.loc 1 407 21 is_stmt 0 view .LVU167
 815 0050 0020     		movs	r0, #0
 816              	.LVL59:
 817              		.loc 1 425 7 view .LVU168
 818 0052 7047     		bx	lr
 819              	.LVL60:
 820              	.L65:
 426:Drivers/STM32WLxx_HAL_Driver/Src/stm32wlxx_hal_pwr_ex.c ****     case PWR_GPIO_H:
 427:Drivers/STM32WLxx_HAL_Driver/Src/stm32wlxx_hal_pwr_ex.c ****       SET_BIT(PWR->PDCRH, (GPIONumber & PWR_PORTH_AVAILABLE_PINS));
 821              		.loc 1 427 7 is_stmt 1 view .LVU169
 822 0054 064B     		ldr	r3, .L71
 823 0056 DA6D     		ldr	r2, [r3, #92]
 824 0058 01F00801 		and	r1, r1, #8
 825              	.LVL61:
 826              		.loc 1 427 7 is_stmt 0 view .LVU170
 827 005c 0A43     		orrs	r2, r2, r1
 828 005e DA65     		str	r2, [r3, #92]
 428:Drivers/STM32WLxx_HAL_Driver/Src/stm32wlxx_hal_pwr_ex.c ****       CLEAR_BIT(PWR->PUCRH, (GPIONumber & PWR_PORTH_AVAILABLE_PINS));
 829              		.loc 1 428 7 is_stmt 1 view .LVU171
 830 0060 9A6D     		ldr	r2, [r3, #88]
 831 0062 22EA0101 		bic	r1, r2, r1
 832 0066 9965     		str	r1, [r3, #88]
 429:Drivers/STM32WLxx_HAL_Driver/Src/stm32wlxx_hal_pwr_ex.c ****       break;
 833              		.loc 1 429 7 view .LVU172
 407:Drivers/STM32WLxx_HAL_Driver/Src/stm32wlxx_hal_pwr_ex.c **** 
 834              		.loc 1 407 21 is_stmt 0 view .LVU173
 835 0068 0020     		movs	r0, #0
 836              	.LVL62:
 837              		.loc 1 429 7 view .LVU174
 838 006a 7047     		bx	lr
 839              	.LVL63:
 840              	.L70:
 412:Drivers/STM32WLxx_HAL_Driver/Src/stm32wlxx_hal_pwr_ex.c ****   {
 841              		.loc 1 412 3 view .LVU175
 842 006c 0120     		movs	r0, #1
 843              	.LVL64:
 430:Drivers/STM32WLxx_HAL_Driver/Src/stm32wlxx_hal_pwr_ex.c ****     default:
 431:Drivers/STM32WLxx_HAL_Driver/Src/stm32wlxx_hal_pwr_ex.c ****       status = HAL_ERROR;
 432:Drivers/STM32WLxx_HAL_Driver/Src/stm32wlxx_hal_pwr_ex.c ****       break;
 433:Drivers/STM32WLxx_HAL_Driver/Src/stm32wlxx_hal_pwr_ex.c ****   }
 434:Drivers/STM32WLxx_HAL_Driver/Src/stm32wlxx_hal_pwr_ex.c **** 
 435:Drivers/STM32WLxx_HAL_Driver/Src/stm32wlxx_hal_pwr_ex.c ****   return status;
 844              		.loc 1 435 3 is_stmt 1 view .LVU176
 436:Drivers/STM32WLxx_HAL_Driver/Src/stm32wlxx_hal_pwr_ex.c **** }
 845              		.loc 1 436 1 is_stmt 0 view .LVU177
 846 006e 7047     		bx	lr
 847              	.L72:
ARM GAS  /tmp/ccyVxTym.s 			page 47


 848              		.align	2
 849              	.L71:
 850 0070 00040058 		.word	1476396032
 851              		.cfi_endproc
 852              	.LFE974:
 854              		.section	.text.HAL_PWREx_DisableGPIOPullDown,"ax",%progbits
 855              		.align	1
 856              		.global	HAL_PWREx_DisableGPIOPullDown
 857              		.syntax unified
 858              		.thumb
 859              		.thumb_func
 860              		.fpu softvfp
 862              	HAL_PWREx_DisableGPIOPullDown:
 863              	.LVL65:
 864              	.LFB975:
 437:Drivers/STM32WLxx_HAL_Driver/Src/stm32wlxx_hal_pwr_ex.c **** 
 438:Drivers/STM32WLxx_HAL_Driver/Src/stm32wlxx_hal_pwr_ex.c **** /**
 439:Drivers/STM32WLxx_HAL_Driver/Src/stm32wlxx_hal_pwr_ex.c ****   * @brief Disable GPIO pull-down state in Standby and Shutdown modes.
 440:Drivers/STM32WLxx_HAL_Driver/Src/stm32wlxx_hal_pwr_ex.c ****   * @note  Reset the relevant PDy bits of PWR_PDCRx register used to configure the I/O
 441:Drivers/STM32WLxx_HAL_Driver/Src/stm32wlxx_hal_pwr_ex.c ****   *        in pull-down state in Standby and Shutdown modes.
 442:Drivers/STM32WLxx_HAL_Driver/Src/stm32wlxx_hal_pwr_ex.c ****   * @note  Even if a PDy bit to reset is reserved, the other PDy bits entered as input
 443:Drivers/STM32WLxx_HAL_Driver/Src/stm32wlxx_hal_pwr_ex.c ****   *        parameter at the same time are reset.
 444:Drivers/STM32WLxx_HAL_Driver/Src/stm32wlxx_hal_pwr_ex.c ****   * @param GPIO Specifies the IO port. This parameter can be PWR_GPIO_A..PWR_GPIO_H
 445:Drivers/STM32WLxx_HAL_Driver/Src/stm32wlxx_hal_pwr_ex.c ****   *         to select the GPIO peripheral.
 446:Drivers/STM32WLxx_HAL_Driver/Src/stm32wlxx_hal_pwr_ex.c ****   * @param GPIONumber Specify the I/O pins numbers.
 447:Drivers/STM32WLxx_HAL_Driver/Src/stm32wlxx_hal_pwr_ex.c ****   *         This parameter can be one of the following values:
 448:Drivers/STM32WLxx_HAL_Driver/Src/stm32wlxx_hal_pwr_ex.c ****   *         PWR_GPIO_BIT_0, ..., PWR_GPIO_BIT_15 (except for PORTH where less
 449:Drivers/STM32WLxx_HAL_Driver/Src/stm32wlxx_hal_pwr_ex.c ****   *         I/O pins are available) or the logical OR of several of them to reset
 450:Drivers/STM32WLxx_HAL_Driver/Src/stm32wlxx_hal_pwr_ex.c ****   *         several bits for a given port in a single API call.
 451:Drivers/STM32WLxx_HAL_Driver/Src/stm32wlxx_hal_pwr_ex.c ****   * @retval HAL Status
 452:Drivers/STM32WLxx_HAL_Driver/Src/stm32wlxx_hal_pwr_ex.c ****   */
 453:Drivers/STM32WLxx_HAL_Driver/Src/stm32wlxx_hal_pwr_ex.c **** HAL_StatusTypeDef HAL_PWREx_DisableGPIOPullDown(uint32_t GPIO, uint32_t GPIONumber)
 454:Drivers/STM32WLxx_HAL_Driver/Src/stm32wlxx_hal_pwr_ex.c **** {
 865              		.loc 1 454 1 is_stmt 1 view -0
 866              		.cfi_startproc
 867              		@ args = 0, pretend = 0, frame = 0
 868              		@ frame_needed = 0, uses_anonymous_args = 0
 869              		@ link register save eliminated.
 455:Drivers/STM32WLxx_HAL_Driver/Src/stm32wlxx_hal_pwr_ex.c ****   HAL_StatusTypeDef status = HAL_OK;
 870              		.loc 1 455 3 view .LVU179
 456:Drivers/STM32WLxx_HAL_Driver/Src/stm32wlxx_hal_pwr_ex.c **** 
 457:Drivers/STM32WLxx_HAL_Driver/Src/stm32wlxx_hal_pwr_ex.c ****   assert_param(IS_PWR_GPIO(GPIO));
 871              		.loc 1 457 3 view .LVU180
 458:Drivers/STM32WLxx_HAL_Driver/Src/stm32wlxx_hal_pwr_ex.c ****   assert_param(IS_PWR_GPIO_BIT_NUMBER(GPIONumber));
 872              		.loc 1 458 3 view .LVU181
 459:Drivers/STM32WLxx_HAL_Driver/Src/stm32wlxx_hal_pwr_ex.c **** 
 460:Drivers/STM32WLxx_HAL_Driver/Src/stm32wlxx_hal_pwr_ex.c ****   switch (GPIO)
 873              		.loc 1 460 3 view .LVU182
 874 0000 0728     		cmp	r0, #7
 875 0002 27D8     		bhi	.L80
 876 0004 DFE800F0 		tbb	[pc, r0]
 877              	.L76:
 878 0008 04       		.byte	(.L79-.L76)/2
 879 0009 0B       		.byte	(.L78-.L76)/2
 880 000a 12       		.byte	(.L77-.L76)/2
 881 000b 26       		.byte	(.L80-.L76)/2
 882 000c 26       		.byte	(.L80-.L76)/2
ARM GAS  /tmp/ccyVxTym.s 			page 48


 883 000d 26       		.byte	(.L80-.L76)/2
 884 000e 26       		.byte	(.L80-.L76)/2
 885 000f 1D       		.byte	(.L75-.L76)/2
 886              		.p2align 1
 887              	.L79:
 461:Drivers/STM32WLxx_HAL_Driver/Src/stm32wlxx_hal_pwr_ex.c ****   {
 462:Drivers/STM32WLxx_HAL_Driver/Src/stm32wlxx_hal_pwr_ex.c ****     case PWR_GPIO_A:
 463:Drivers/STM32WLxx_HAL_Driver/Src/stm32wlxx_hal_pwr_ex.c ****       CLEAR_BIT(PWR->PDCRA, GPIONumber);
 888              		.loc 1 463 7 view .LVU183
 889 0010 114A     		ldr	r2, .L81
 890 0012 536A     		ldr	r3, [r2, #36]
 891 0014 23EA0101 		bic	r1, r3, r1
 892              	.LVL66:
 893              		.loc 1 463 7 is_stmt 0 view .LVU184
 894 0018 5162     		str	r1, [r2, #36]
 464:Drivers/STM32WLxx_HAL_Driver/Src/stm32wlxx_hal_pwr_ex.c ****       break;
 895              		.loc 1 464 7 is_stmt 1 view .LVU185
 455:Drivers/STM32WLxx_HAL_Driver/Src/stm32wlxx_hal_pwr_ex.c **** 
 896              		.loc 1 455 21 is_stmt 0 view .LVU186
 897 001a 0020     		movs	r0, #0
 898              	.LVL67:
 899              		.loc 1 464 7 view .LVU187
 900 001c 7047     		bx	lr
 901              	.LVL68:
 902              	.L78:
 465:Drivers/STM32WLxx_HAL_Driver/Src/stm32wlxx_hal_pwr_ex.c ****     case PWR_GPIO_B:
 466:Drivers/STM32WLxx_HAL_Driver/Src/stm32wlxx_hal_pwr_ex.c ****       CLEAR_BIT(PWR->PDCRB, GPIONumber);
 903              		.loc 1 466 7 is_stmt 1 view .LVU188
 904 001e 0E4A     		ldr	r2, .L81
 905 0020 D36A     		ldr	r3, [r2, #44]
 906 0022 23EA0101 		bic	r1, r3, r1
 907              	.LVL69:
 908              		.loc 1 466 7 is_stmt 0 view .LVU189
 909 0026 D162     		str	r1, [r2, #44]
 467:Drivers/STM32WLxx_HAL_Driver/Src/stm32wlxx_hal_pwr_ex.c ****       break;
 910              		.loc 1 467 7 is_stmt 1 view .LVU190
 455:Drivers/STM32WLxx_HAL_Driver/Src/stm32wlxx_hal_pwr_ex.c **** 
 911              		.loc 1 455 21 is_stmt 0 view .LVU191
 912 0028 0020     		movs	r0, #0
 913              	.LVL70:
 914              		.loc 1 467 7 view .LVU192
 915 002a 7047     		bx	lr
 916              	.LVL71:
 917              	.L77:
 468:Drivers/STM32WLxx_HAL_Driver/Src/stm32wlxx_hal_pwr_ex.c ****     case PWR_GPIO_C:
 469:Drivers/STM32WLxx_HAL_Driver/Src/stm32wlxx_hal_pwr_ex.c ****       CLEAR_BIT(PWR->PDCRC, (GPIONumber & PWR_PORTC_AVAILABLE_PINS));
 918              		.loc 1 469 7 is_stmt 1 view .LVU193
 919 002c 0A4A     		ldr	r2, .L81
 920 002e 536B     		ldr	r3, [r2, #52]
 921 0030 21F4FC51 		bic	r1, r1, #8064
 922              	.LVL72:
 923              		.loc 1 469 7 is_stmt 0 view .LVU194
 924 0034 0904     		lsls	r1, r1, #16
 925 0036 090C     		lsrs	r1, r1, #16
 926 0038 23EA0101 		bic	r1, r3, r1
 927 003c 5163     		str	r1, [r2, #52]
 470:Drivers/STM32WLxx_HAL_Driver/Src/stm32wlxx_hal_pwr_ex.c ****       break;
ARM GAS  /tmp/ccyVxTym.s 			page 49


 928              		.loc 1 470 7 is_stmt 1 view .LVU195
 455:Drivers/STM32WLxx_HAL_Driver/Src/stm32wlxx_hal_pwr_ex.c **** 
 929              		.loc 1 455 21 is_stmt 0 view .LVU196
 930 003e 0020     		movs	r0, #0
 931              	.LVL73:
 932              		.loc 1 470 7 view .LVU197
 933 0040 7047     		bx	lr
 934              	.LVL74:
 935              	.L75:
 471:Drivers/STM32WLxx_HAL_Driver/Src/stm32wlxx_hal_pwr_ex.c ****     case PWR_GPIO_H:
 472:Drivers/STM32WLxx_HAL_Driver/Src/stm32wlxx_hal_pwr_ex.c ****       CLEAR_BIT(PWR->PDCRH, (GPIONumber & PWR_PORTH_AVAILABLE_PINS));
 936              		.loc 1 472 7 is_stmt 1 view .LVU198
 937 0042 054A     		ldr	r2, .L81
 938 0044 D36D     		ldr	r3, [r2, #92]
 939 0046 01F00801 		and	r1, r1, #8
 940              	.LVL75:
 941              		.loc 1 472 7 is_stmt 0 view .LVU199
 942 004a 23EA0101 		bic	r1, r3, r1
 943 004e D165     		str	r1, [r2, #92]
 473:Drivers/STM32WLxx_HAL_Driver/Src/stm32wlxx_hal_pwr_ex.c ****       break;
 944              		.loc 1 473 7 is_stmt 1 view .LVU200
 455:Drivers/STM32WLxx_HAL_Driver/Src/stm32wlxx_hal_pwr_ex.c **** 
 945              		.loc 1 455 21 is_stmt 0 view .LVU201
 946 0050 0020     		movs	r0, #0
 947              	.LVL76:
 948              		.loc 1 473 7 view .LVU202
 949 0052 7047     		bx	lr
 950              	.LVL77:
 951              	.L80:
 460:Drivers/STM32WLxx_HAL_Driver/Src/stm32wlxx_hal_pwr_ex.c ****   {
 952              		.loc 1 460 3 view .LVU203
 953 0054 0120     		movs	r0, #1
 954              	.LVL78:
 474:Drivers/STM32WLxx_HAL_Driver/Src/stm32wlxx_hal_pwr_ex.c ****     default:
 475:Drivers/STM32WLxx_HAL_Driver/Src/stm32wlxx_hal_pwr_ex.c ****       status = HAL_ERROR;
 476:Drivers/STM32WLxx_HAL_Driver/Src/stm32wlxx_hal_pwr_ex.c ****       break;
 477:Drivers/STM32WLxx_HAL_Driver/Src/stm32wlxx_hal_pwr_ex.c ****   }
 478:Drivers/STM32WLxx_HAL_Driver/Src/stm32wlxx_hal_pwr_ex.c **** 
 479:Drivers/STM32WLxx_HAL_Driver/Src/stm32wlxx_hal_pwr_ex.c ****   return status;
 955              		.loc 1 479 3 is_stmt 1 view .LVU204
 480:Drivers/STM32WLxx_HAL_Driver/Src/stm32wlxx_hal_pwr_ex.c **** }
 956              		.loc 1 480 1 is_stmt 0 view .LVU205
 957 0056 7047     		bx	lr
 958              	.L82:
 959              		.align	2
 960              	.L81:
 961 0058 00040058 		.word	1476396032
 962              		.cfi_endproc
 963              	.LFE975:
 965              		.section	.text.HAL_PWREx_EnablePullUpPullDownConfig,"ax",%progbits
 966              		.align	1
 967              		.global	HAL_PWREx_EnablePullUpPullDownConfig
 968              		.syntax unified
 969              		.thumb
 970              		.thumb_func
 971              		.fpu softvfp
 973              	HAL_PWREx_EnablePullUpPullDownConfig:
ARM GAS  /tmp/ccyVxTym.s 			page 50


 974              	.LFB976:
 481:Drivers/STM32WLxx_HAL_Driver/Src/stm32wlxx_hal_pwr_ex.c **** 
 482:Drivers/STM32WLxx_HAL_Driver/Src/stm32wlxx_hal_pwr_ex.c **** /**
 483:Drivers/STM32WLxx_HAL_Driver/Src/stm32wlxx_hal_pwr_ex.c ****   * @brief Enable pull-up and pull-down configuration.
 484:Drivers/STM32WLxx_HAL_Driver/Src/stm32wlxx_hal_pwr_ex.c ****   * @note  When APC bit is set, the I/O pull-up and pull-down configurations defined in
 485:Drivers/STM32WLxx_HAL_Driver/Src/stm32wlxx_hal_pwr_ex.c ****   *        PWR_PUCRx and PWR_PDCRx registers are applied in Standby and Shutdown modes.
 486:Drivers/STM32WLxx_HAL_Driver/Src/stm32wlxx_hal_pwr_ex.c ****   * @note  Pull-up set by PUy bit of PWR_PUCRx register is not activated if the corresponding
 487:Drivers/STM32WLxx_HAL_Driver/Src/stm32wlxx_hal_pwr_ex.c ****   *        PDy bit of PWR_PDCRx register is also set (pull-down configuration priority is higher).
 488:Drivers/STM32WLxx_HAL_Driver/Src/stm32wlxx_hal_pwr_ex.c ****   *        HAL_PWREx_EnableGPIOPullUp() and HAL_PWREx_EnableGPIOPullDown() API's ensure there
 489:Drivers/STM32WLxx_HAL_Driver/Src/stm32wlxx_hal_pwr_ex.c ****   *        is no conflict when setting PUy or PDy bit.
 490:Drivers/STM32WLxx_HAL_Driver/Src/stm32wlxx_hal_pwr_ex.c ****   * @retval None
 491:Drivers/STM32WLxx_HAL_Driver/Src/stm32wlxx_hal_pwr_ex.c ****   */
 492:Drivers/STM32WLxx_HAL_Driver/Src/stm32wlxx_hal_pwr_ex.c **** void HAL_PWREx_EnablePullUpPullDownConfig(void)
 493:Drivers/STM32WLxx_HAL_Driver/Src/stm32wlxx_hal_pwr_ex.c **** {
 975              		.loc 1 493 1 is_stmt 1 view -0
 976              		.cfi_startproc
 977              		@ args = 0, pretend = 0, frame = 0
 978              		@ frame_needed = 0, uses_anonymous_args = 0
 979              		@ link register save eliminated.
 494:Drivers/STM32WLxx_HAL_Driver/Src/stm32wlxx_hal_pwr_ex.c **** #ifdef CORE_CM0PLUS
 495:Drivers/STM32WLxx_HAL_Driver/Src/stm32wlxx_hal_pwr_ex.c ****   SET_BIT(PWR->C2CR3, PWR_C2CR3_APC);
 496:Drivers/STM32WLxx_HAL_Driver/Src/stm32wlxx_hal_pwr_ex.c **** #else
 497:Drivers/STM32WLxx_HAL_Driver/Src/stm32wlxx_hal_pwr_ex.c ****   SET_BIT(PWR->CR3, PWR_CR3_APC);
 980              		.loc 1 497 3 view .LVU207
 981 0000 024A     		ldr	r2, .L84
 982 0002 9368     		ldr	r3, [r2, #8]
 983 0004 43F48063 		orr	r3, r3, #1024
 984 0008 9360     		str	r3, [r2, #8]
 498:Drivers/STM32WLxx_HAL_Driver/Src/stm32wlxx_hal_pwr_ex.c **** #endif
 499:Drivers/STM32WLxx_HAL_Driver/Src/stm32wlxx_hal_pwr_ex.c **** }
 985              		.loc 1 499 1 is_stmt 0 view .LVU208
 986 000a 7047     		bx	lr
 987              	.L85:
 988              		.align	2
 989              	.L84:
 990 000c 00040058 		.word	1476396032
 991              		.cfi_endproc
 992              	.LFE976:
 994              		.section	.text.HAL_PWREx_DisablePullUpPullDownConfig,"ax",%progbits
 995              		.align	1
 996              		.global	HAL_PWREx_DisablePullUpPullDownConfig
 997              		.syntax unified
 998              		.thumb
 999              		.thumb_func
 1000              		.fpu softvfp
 1002              	HAL_PWREx_DisablePullUpPullDownConfig:
 1003              	.LFB977:
 500:Drivers/STM32WLxx_HAL_Driver/Src/stm32wlxx_hal_pwr_ex.c **** 
 501:Drivers/STM32WLxx_HAL_Driver/Src/stm32wlxx_hal_pwr_ex.c **** /**
 502:Drivers/STM32WLxx_HAL_Driver/Src/stm32wlxx_hal_pwr_ex.c ****   * @brief Disable pull-up and pull-down configuration.
 503:Drivers/STM32WLxx_HAL_Driver/Src/stm32wlxx_hal_pwr_ex.c ****   * @note  When APC bit is cleared, the I/O pull-up and pull-down configurations defined in
 504:Drivers/STM32WLxx_HAL_Driver/Src/stm32wlxx_hal_pwr_ex.c ****   *        PWR_PUCRx and PWR_PDCRx registers are not applied in Standby and Shutdown modes.
 505:Drivers/STM32WLxx_HAL_Driver/Src/stm32wlxx_hal_pwr_ex.c ****   * @retval None
 506:Drivers/STM32WLxx_HAL_Driver/Src/stm32wlxx_hal_pwr_ex.c ****   */
 507:Drivers/STM32WLxx_HAL_Driver/Src/stm32wlxx_hal_pwr_ex.c **** void HAL_PWREx_DisablePullUpPullDownConfig(void)
 508:Drivers/STM32WLxx_HAL_Driver/Src/stm32wlxx_hal_pwr_ex.c **** {
 1004              		.loc 1 508 1 is_stmt 1 view -0
ARM GAS  /tmp/ccyVxTym.s 			page 51


 1005              		.cfi_startproc
 1006              		@ args = 0, pretend = 0, frame = 0
 1007              		@ frame_needed = 0, uses_anonymous_args = 0
 1008              		@ link register save eliminated.
 509:Drivers/STM32WLxx_HAL_Driver/Src/stm32wlxx_hal_pwr_ex.c **** #ifdef CORE_CM0PLUS
 510:Drivers/STM32WLxx_HAL_Driver/Src/stm32wlxx_hal_pwr_ex.c ****   CLEAR_BIT(PWR->C2CR3, PWR_C2CR3_APC);
 511:Drivers/STM32WLxx_HAL_Driver/Src/stm32wlxx_hal_pwr_ex.c **** #else
 512:Drivers/STM32WLxx_HAL_Driver/Src/stm32wlxx_hal_pwr_ex.c ****   CLEAR_BIT(PWR->CR3, PWR_CR3_APC);
 1009              		.loc 1 512 3 view .LVU210
 1010 0000 024A     		ldr	r2, .L87
 1011 0002 9368     		ldr	r3, [r2, #8]
 1012 0004 23F48063 		bic	r3, r3, #1024
 1013 0008 9360     		str	r3, [r2, #8]
 513:Drivers/STM32WLxx_HAL_Driver/Src/stm32wlxx_hal_pwr_ex.c **** #endif
 514:Drivers/STM32WLxx_HAL_Driver/Src/stm32wlxx_hal_pwr_ex.c **** }
 1014              		.loc 1 514 1 is_stmt 0 view .LVU211
 1015 000a 7047     		bx	lr
 1016              	.L88:
 1017              		.align	2
 1018              	.L87:
 1019 000c 00040058 		.word	1476396032
 1020              		.cfi_endproc
 1021              	.LFE977:
 1023              		.section	.text.HAL_PWREx_HoldCore,"ax",%progbits
 1024              		.align	1
 1025              		.global	HAL_PWREx_HoldCore
 1026              		.syntax unified
 1027              		.thumb
 1028              		.thumb_func
 1029              		.fpu softvfp
 1031              	HAL_PWREx_HoldCore:
 1032              	.LVL79:
 1033              	.LFB978:
 515:Drivers/STM32WLxx_HAL_Driver/Src/stm32wlxx_hal_pwr_ex.c **** 
 516:Drivers/STM32WLxx_HAL_Driver/Src/stm32wlxx_hal_pwr_ex.c **** /****************************************************************************/
 517:Drivers/STM32WLxx_HAL_Driver/Src/stm32wlxx_hal_pwr_ex.c **** 
 518:Drivers/STM32WLxx_HAL_Driver/Src/stm32wlxx_hal_pwr_ex.c **** #if defined(DUAL_CORE)
 519:Drivers/STM32WLxx_HAL_Driver/Src/stm32wlxx_hal_pwr_ex.c **** /**
 520:Drivers/STM32WLxx_HAL_Driver/Src/stm32wlxx_hal_pwr_ex.c ****   * @brief  Hold CPU and allocated peripherals after reset or wakeup from Stop or Standby.
 521:Drivers/STM32WLxx_HAL_Driver/Src/stm32wlxx_hal_pwr_ex.c ****   * @param  CPU Specifies the core to be held.
 522:Drivers/STM32WLxx_HAL_Driver/Src/stm32wlxx_hal_pwr_ex.c ****   *             This parameter can be one of the following values:
 523:Drivers/STM32WLxx_HAL_Driver/Src/stm32wlxx_hal_pwr_ex.c ****   *             @arg PWR_CORE_CPU2: Hold CPU2.
 524:Drivers/STM32WLxx_HAL_Driver/Src/stm32wlxx_hal_pwr_ex.c ****   * @note   Hold CPU2 with CPU1 as master by default.
 525:Drivers/STM32WLxx_HAL_Driver/Src/stm32wlxx_hal_pwr_ex.c ****   * @retval None
 526:Drivers/STM32WLxx_HAL_Driver/Src/stm32wlxx_hal_pwr_ex.c ****   */
 527:Drivers/STM32WLxx_HAL_Driver/Src/stm32wlxx_hal_pwr_ex.c **** void HAL_PWREx_HoldCore(uint32_t CPU)
 528:Drivers/STM32WLxx_HAL_Driver/Src/stm32wlxx_hal_pwr_ex.c **** {
 1034              		.loc 1 528 1 is_stmt 1 view -0
 1035              		.cfi_startproc
 1036              		@ args = 0, pretend = 0, frame = 0
 1037              		@ frame_needed = 0, uses_anonymous_args = 0
 1038              		@ link register save eliminated.
 529:Drivers/STM32WLxx_HAL_Driver/Src/stm32wlxx_hal_pwr_ex.c ****   /* Check the parameters */
 530:Drivers/STM32WLxx_HAL_Driver/Src/stm32wlxx_hal_pwr_ex.c ****   assert_param(IS_PWR_CORE_HOLD_RELEASE(CPU));
 1039              		.loc 1 530 3 view .LVU213
 531:Drivers/STM32WLxx_HAL_Driver/Src/stm32wlxx_hal_pwr_ex.c **** 
 532:Drivers/STM32WLxx_HAL_Driver/Src/stm32wlxx_hal_pwr_ex.c ****   LL_PWR_DisableBootC2();
ARM GAS  /tmp/ccyVxTym.s 			page 52


 1040              		.loc 1 532 3 view .LVU214
 1041              	.LBB48:
 1042              	.LBI48:
1331:Drivers/STM32WLxx_HAL_Driver/Inc/stm32wlxx_ll_pwr.h **** }
1332:Drivers/STM32WLxx_HAL_Driver/Inc/stm32wlxx_ll_pwr.h **** 
1333:Drivers/STM32WLxx_HAL_Driver/Inc/stm32wlxx_ll_pwr.h **** /**
1334:Drivers/STM32WLxx_HAL_Driver/Inc/stm32wlxx_ll_pwr.h ****   * @brief  Get radio IRQ trigger action for CPU1: wake-up from low-power mode
1335:Drivers/STM32WLxx_HAL_Driver/Inc/stm32wlxx_ll_pwr.h ****   *         Standby.
1336:Drivers/STM32WLxx_HAL_Driver/Inc/stm32wlxx_ll_pwr.h ****   * @rmtoll CR3          ERFIRQ        LL_PWR_GetRadioIRQTrigger
1337:Drivers/STM32WLxx_HAL_Driver/Inc/stm32wlxx_ll_pwr.h ****   * @retval Returned value can be one of the following values:
1338:Drivers/STM32WLxx_HAL_Driver/Inc/stm32wlxx_ll_pwr.h ****   *         @arg @ref LL_PWR_RADIO_IRQ_TRIGGER_NONE
1339:Drivers/STM32WLxx_HAL_Driver/Inc/stm32wlxx_ll_pwr.h ****   *         @arg @ref LL_PWR_RADIO_IRQ_TRIGGER_WU_IT
1340:Drivers/STM32WLxx_HAL_Driver/Inc/stm32wlxx_ll_pwr.h ****   */
1341:Drivers/STM32WLxx_HAL_Driver/Inc/stm32wlxx_ll_pwr.h **** __STATIC_INLINE uint32_t LL_PWR_GetRadioIRQTrigger(void)
1342:Drivers/STM32WLxx_HAL_Driver/Inc/stm32wlxx_ll_pwr.h **** {
1343:Drivers/STM32WLxx_HAL_Driver/Inc/stm32wlxx_ll_pwr.h ****   return (uint32_t)(READ_BIT(PWR->CR3, PWR_CR3_EWRFIRQ));
1344:Drivers/STM32WLxx_HAL_Driver/Inc/stm32wlxx_ll_pwr.h **** }
1345:Drivers/STM32WLxx_HAL_Driver/Inc/stm32wlxx_ll_pwr.h **** 
1346:Drivers/STM32WLxx_HAL_Driver/Inc/stm32wlxx_ll_pwr.h **** /**
1347:Drivers/STM32WLxx_HAL_Driver/Inc/stm32wlxx_ll_pwr.h ****   * @brief  Set sub-GHz radio SPI NSS control source
1348:Drivers/STM32WLxx_HAL_Driver/Inc/stm32wlxx_ll_pwr.h ****   * @rmtoll CR1          SUBGHZSPINSSSEL LL_PWR_SetSUBGHZSPI_NSSSource
1349:Drivers/STM32WLxx_HAL_Driver/Inc/stm32wlxx_ll_pwr.h ****   * @param  RadioSPI_NSSSource This parameter can be one of the following values:
1350:Drivers/STM32WLxx_HAL_Driver/Inc/stm32wlxx_ll_pwr.h ****   *         @arg @ref LL_PWR_SUBGHZSPI_NSS_SRC_SW
1351:Drivers/STM32WLxx_HAL_Driver/Inc/stm32wlxx_ll_pwr.h ****   *         @arg @ref LL_PWR_SUBGHZSPI_NSS_SRC_LPTIM3
1352:Drivers/STM32WLxx_HAL_Driver/Inc/stm32wlxx_ll_pwr.h ****   * @retval None
1353:Drivers/STM32WLxx_HAL_Driver/Inc/stm32wlxx_ll_pwr.h ****   */
1354:Drivers/STM32WLxx_HAL_Driver/Inc/stm32wlxx_ll_pwr.h **** __STATIC_INLINE void LL_PWR_SetSUBGHZSPI_NSSSource(uint32_t RadioSPI_NSSSource)
1355:Drivers/STM32WLxx_HAL_Driver/Inc/stm32wlxx_ll_pwr.h **** {
1356:Drivers/STM32WLxx_HAL_Driver/Inc/stm32wlxx_ll_pwr.h ****   MODIFY_REG(PWR->CR1, PWR_CR1_SUBGHZSPINSSSEL, RadioSPI_NSSSource);
1357:Drivers/STM32WLxx_HAL_Driver/Inc/stm32wlxx_ll_pwr.h **** }
1358:Drivers/STM32WLxx_HAL_Driver/Inc/stm32wlxx_ll_pwr.h **** 
1359:Drivers/STM32WLxx_HAL_Driver/Inc/stm32wlxx_ll_pwr.h **** /**
1360:Drivers/STM32WLxx_HAL_Driver/Inc/stm32wlxx_ll_pwr.h ****   * @brief  Get sub-GHz radio SPI NSS control source
1361:Drivers/STM32WLxx_HAL_Driver/Inc/stm32wlxx_ll_pwr.h ****   * @rmtoll CR1          SUBGHZSPINSSSEL LL_PWR_GetSUBGHZSPI_NSSSource
1362:Drivers/STM32WLxx_HAL_Driver/Inc/stm32wlxx_ll_pwr.h ****   * @retval Returned value can be one of the following values:
1363:Drivers/STM32WLxx_HAL_Driver/Inc/stm32wlxx_ll_pwr.h ****   *         @arg @ref LL_PWR_SUBGHZSPI_NSS_SRC_SW
1364:Drivers/STM32WLxx_HAL_Driver/Inc/stm32wlxx_ll_pwr.h ****   *         @arg @ref LL_PWR_SUBGHZSPI_NSS_SRC_LPTIM3
1365:Drivers/STM32WLxx_HAL_Driver/Inc/stm32wlxx_ll_pwr.h ****   */
1366:Drivers/STM32WLxx_HAL_Driver/Inc/stm32wlxx_ll_pwr.h **** __STATIC_INLINE uint32_t LL_PWR_GetSUBGHZSPI_NSSSource(void)
1367:Drivers/STM32WLxx_HAL_Driver/Inc/stm32wlxx_ll_pwr.h **** {
1368:Drivers/STM32WLxx_HAL_Driver/Inc/stm32wlxx_ll_pwr.h ****   return (uint32_t)(READ_BIT(PWR->CR1, PWR_CR1_SUBGHZSPINSSSEL));
1369:Drivers/STM32WLxx_HAL_Driver/Inc/stm32wlxx_ll_pwr.h **** }
1370:Drivers/STM32WLxx_HAL_Driver/Inc/stm32wlxx_ll_pwr.h **** 
1371:Drivers/STM32WLxx_HAL_Driver/Inc/stm32wlxx_ll_pwr.h **** /**
1372:Drivers/STM32WLxx_HAL_Driver/Inc/stm32wlxx_ll_pwr.h ****   * @brief  Set sub-GHz radio SPI NSS at logical level high.
1373:Drivers/STM32WLxx_HAL_Driver/Inc/stm32wlxx_ll_pwr.h ****   * @rmtoll SUBGHZSPICR  NSS           LL_PWR_UnselectSUBGHZSPI_NSS
1374:Drivers/STM32WLxx_HAL_Driver/Inc/stm32wlxx_ll_pwr.h ****   * @retval None
1375:Drivers/STM32WLxx_HAL_Driver/Inc/stm32wlxx_ll_pwr.h ****   */
1376:Drivers/STM32WLxx_HAL_Driver/Inc/stm32wlxx_ll_pwr.h **** __STATIC_INLINE void LL_PWR_UnselectSUBGHZSPI_NSS(void)
1377:Drivers/STM32WLxx_HAL_Driver/Inc/stm32wlxx_ll_pwr.h **** {
1378:Drivers/STM32WLxx_HAL_Driver/Inc/stm32wlxx_ll_pwr.h ****   SET_BIT(PWR->SUBGHZSPICR, PWR_SUBGHZSPICR_NSS);
1379:Drivers/STM32WLxx_HAL_Driver/Inc/stm32wlxx_ll_pwr.h **** }
1380:Drivers/STM32WLxx_HAL_Driver/Inc/stm32wlxx_ll_pwr.h **** 
1381:Drivers/STM32WLxx_HAL_Driver/Inc/stm32wlxx_ll_pwr.h **** /**
1382:Drivers/STM32WLxx_HAL_Driver/Inc/stm32wlxx_ll_pwr.h ****   * @brief  Set sub-GHz radio SPI NSS at logical level low.
1383:Drivers/STM32WLxx_HAL_Driver/Inc/stm32wlxx_ll_pwr.h ****   * @rmtoll SUBGHZSPICR  NSS           LL_PWR_SelectSUBGHZSPI_NSS
1384:Drivers/STM32WLxx_HAL_Driver/Inc/stm32wlxx_ll_pwr.h ****   * @retval None
ARM GAS  /tmp/ccyVxTym.s 			page 53


1385:Drivers/STM32WLxx_HAL_Driver/Inc/stm32wlxx_ll_pwr.h ****   */
1386:Drivers/STM32WLxx_HAL_Driver/Inc/stm32wlxx_ll_pwr.h **** __STATIC_INLINE void LL_PWR_SelectSUBGHZSPI_NSS(void)
1387:Drivers/STM32WLxx_HAL_Driver/Inc/stm32wlxx_ll_pwr.h **** {
1388:Drivers/STM32WLxx_HAL_Driver/Inc/stm32wlxx_ll_pwr.h ****   CLEAR_BIT(PWR->SUBGHZSPICR, PWR_SUBGHZSPICR_NSS);
1389:Drivers/STM32WLxx_HAL_Driver/Inc/stm32wlxx_ll_pwr.h **** }
1390:Drivers/STM32WLxx_HAL_Driver/Inc/stm32wlxx_ll_pwr.h **** 
1391:Drivers/STM32WLxx_HAL_Driver/Inc/stm32wlxx_ll_pwr.h **** /**
1392:Drivers/STM32WLxx_HAL_Driver/Inc/stm32wlxx_ll_pwr.h ****   * @brief  Check whether sub-GHz radio SPI NSS is at logical level high or low.
1393:Drivers/STM32WLxx_HAL_Driver/Inc/stm32wlxx_ll_pwr.h ****   * @rmtoll SUBGHZSPICR  NSS           LL_PWR_IsSUBGHZSPI_NSS_Selected
1394:Drivers/STM32WLxx_HAL_Driver/Inc/stm32wlxx_ll_pwr.h ****   * @retval State of bit (1 for SUBGHZSPI_NSS selected or 0 for SUBGHZSPI_NSS unselected).
1395:Drivers/STM32WLxx_HAL_Driver/Inc/stm32wlxx_ll_pwr.h ****   */
1396:Drivers/STM32WLxx_HAL_Driver/Inc/stm32wlxx_ll_pwr.h **** __STATIC_INLINE uint32_t LL_PWR_IsSUBGHZSPI_NSS_Selected(void)
1397:Drivers/STM32WLxx_HAL_Driver/Inc/stm32wlxx_ll_pwr.h **** {
1398:Drivers/STM32WLxx_HAL_Driver/Inc/stm32wlxx_ll_pwr.h ****   return ((READ_BIT(PWR->SUBGHZSPICR, PWR_SUBGHZSPICR_NSS) != (PWR_SUBGHZSPICR_NSS)) ? 1UL : 0UL);
1399:Drivers/STM32WLxx_HAL_Driver/Inc/stm32wlxx_ll_pwr.h **** }
1400:Drivers/STM32WLxx_HAL_Driver/Inc/stm32wlxx_ll_pwr.h **** 
1401:Drivers/STM32WLxx_HAL_Driver/Inc/stm32wlxx_ll_pwr.h **** /**
1402:Drivers/STM32WLxx_HAL_Driver/Inc/stm32wlxx_ll_pwr.h ****   * @}
1403:Drivers/STM32WLxx_HAL_Driver/Inc/stm32wlxx_ll_pwr.h ****   */
1404:Drivers/STM32WLxx_HAL_Driver/Inc/stm32wlxx_ll_pwr.h **** 
1405:Drivers/STM32WLxx_HAL_Driver/Inc/stm32wlxx_ll_pwr.h **** #if defined(DUAL_CORE)
1406:Drivers/STM32WLxx_HAL_Driver/Inc/stm32wlxx_ll_pwr.h **** /** @defgroup PWR_LL_EF_Configuration_Radio_CPU2 Configuration of radio for CPU2
1407:Drivers/STM32WLxx_HAL_Driver/Inc/stm32wlxx_ll_pwr.h ****   * @{
1408:Drivers/STM32WLxx_HAL_Driver/Inc/stm32wlxx_ll_pwr.h ****   */
1409:Drivers/STM32WLxx_HAL_Driver/Inc/stm32wlxx_ll_pwr.h **** 
1410:Drivers/STM32WLxx_HAL_Driver/Inc/stm32wlxx_ll_pwr.h **** /**
1411:Drivers/STM32WLxx_HAL_Driver/Inc/stm32wlxx_ll_pwr.h ****   * @brief  Set radio busy trigger action for CPU2: wake-up from low-power mode,
1412:Drivers/STM32WLxx_HAL_Driver/Inc/stm32wlxx_ll_pwr.h ****   *         interruption.
1413:Drivers/STM32WLxx_HAL_Driver/Inc/stm32wlxx_ll_pwr.h ****   * @note   Signal polarity can be configured using function
1414:Drivers/STM32WLxx_HAL_Driver/Inc/stm32wlxx_ll_pwr.h ****   *         @ref LL_PWR_SetRadioBusyPolarity().
1415:Drivers/STM32WLxx_HAL_Driver/Inc/stm32wlxx_ll_pwr.h ****   * @rmtoll C2CR3        ERFBUSY       LL_C2_PWR_SetRadioBusyTrigger
1416:Drivers/STM32WLxx_HAL_Driver/Inc/stm32wlxx_ll_pwr.h ****   * @param  RadioBusyTrigger This parameter can be one of the following values:
1417:Drivers/STM32WLxx_HAL_Driver/Inc/stm32wlxx_ll_pwr.h ****   *         @arg @ref LL_PWR_RADIO_BUSY_TRIGGER_NONE
1418:Drivers/STM32WLxx_HAL_Driver/Inc/stm32wlxx_ll_pwr.h ****   *         @arg @ref LL_PWR_RADIO_BUSY_TRIGGER_WU_IT
1419:Drivers/STM32WLxx_HAL_Driver/Inc/stm32wlxx_ll_pwr.h ****   * @retval None
1420:Drivers/STM32WLxx_HAL_Driver/Inc/stm32wlxx_ll_pwr.h ****   */
1421:Drivers/STM32WLxx_HAL_Driver/Inc/stm32wlxx_ll_pwr.h **** __STATIC_INLINE void LL_C2_PWR_SetRadioBusyTrigger(uint32_t RadioBusyTrigger)
1422:Drivers/STM32WLxx_HAL_Driver/Inc/stm32wlxx_ll_pwr.h **** {
1423:Drivers/STM32WLxx_HAL_Driver/Inc/stm32wlxx_ll_pwr.h ****   MODIFY_REG(PWR->C2CR3, PWR_C2CR3_EWRFBUSY, RadioBusyTrigger);
1424:Drivers/STM32WLxx_HAL_Driver/Inc/stm32wlxx_ll_pwr.h **** }
1425:Drivers/STM32WLxx_HAL_Driver/Inc/stm32wlxx_ll_pwr.h **** 
1426:Drivers/STM32WLxx_HAL_Driver/Inc/stm32wlxx_ll_pwr.h **** /**
1427:Drivers/STM32WLxx_HAL_Driver/Inc/stm32wlxx_ll_pwr.h ****   * @brief  Get radio busy trigger action for CPU2: wake-up from low-power mode,
1428:Drivers/STM32WLxx_HAL_Driver/Inc/stm32wlxx_ll_pwr.h ****   *         interruption.
1429:Drivers/STM32WLxx_HAL_Driver/Inc/stm32wlxx_ll_pwr.h ****   * @rmtoll C2CR3        ERFBUSY       LL_C2_PWR_GetRadioBusyTrigger
1430:Drivers/STM32WLxx_HAL_Driver/Inc/stm32wlxx_ll_pwr.h ****   * @retval Returned value can be one of the following values:
1431:Drivers/STM32WLxx_HAL_Driver/Inc/stm32wlxx_ll_pwr.h ****   *         @arg @ref LL_PWR_RADIO_BUSY_TRIGGER_NONE
1432:Drivers/STM32WLxx_HAL_Driver/Inc/stm32wlxx_ll_pwr.h ****   *         @arg @ref LL_PWR_RADIO_BUSY_TRIGGER_WU_IT
1433:Drivers/STM32WLxx_HAL_Driver/Inc/stm32wlxx_ll_pwr.h ****   */
1434:Drivers/STM32WLxx_HAL_Driver/Inc/stm32wlxx_ll_pwr.h **** __STATIC_INLINE uint32_t LL_C2_PWR_GetRadioBusyTrigger(void)
1435:Drivers/STM32WLxx_HAL_Driver/Inc/stm32wlxx_ll_pwr.h **** {
1436:Drivers/STM32WLxx_HAL_Driver/Inc/stm32wlxx_ll_pwr.h ****   /* Note: Bit shift performed for literals to be generic between CPU1 and CPU2 */
1437:Drivers/STM32WLxx_HAL_Driver/Inc/stm32wlxx_ll_pwr.h ****   return (uint32_t)(READ_BIT(PWR->C2CR3, PWR_C2CR3_EWRFBUSY));
1438:Drivers/STM32WLxx_HAL_Driver/Inc/stm32wlxx_ll_pwr.h **** }
1439:Drivers/STM32WLxx_HAL_Driver/Inc/stm32wlxx_ll_pwr.h **** 
1440:Drivers/STM32WLxx_HAL_Driver/Inc/stm32wlxx_ll_pwr.h **** /**
1441:Drivers/STM32WLxx_HAL_Driver/Inc/stm32wlxx_ll_pwr.h ****   * @brief  Set radio IRQ trigger action for CPU2: wake-up from low-power mode,
ARM GAS  /tmp/ccyVxTym.s 			page 54


1442:Drivers/STM32WLxx_HAL_Driver/Inc/stm32wlxx_ll_pwr.h ****   *         interruption.
1443:Drivers/STM32WLxx_HAL_Driver/Inc/stm32wlxx_ll_pwr.h ****   * @rmtoll C2CR3        ERFIRQ        LL_C2_PWR_SetRadioIRQTrigger
1444:Drivers/STM32WLxx_HAL_Driver/Inc/stm32wlxx_ll_pwr.h ****   * @param  RadioIRQTrigger This parameter can be one of the following values:
1445:Drivers/STM32WLxx_HAL_Driver/Inc/stm32wlxx_ll_pwr.h ****   *         @arg @ref LL_PWR_RADIO_IRQ_TRIGGER_NONE
1446:Drivers/STM32WLxx_HAL_Driver/Inc/stm32wlxx_ll_pwr.h ****   *         @arg @ref LL_PWR_RADIO_IRQ_TRIGGER_WU_IT
1447:Drivers/STM32WLxx_HAL_Driver/Inc/stm32wlxx_ll_pwr.h ****   * @retval None
1448:Drivers/STM32WLxx_HAL_Driver/Inc/stm32wlxx_ll_pwr.h ****   */
1449:Drivers/STM32WLxx_HAL_Driver/Inc/stm32wlxx_ll_pwr.h **** __STATIC_INLINE void LL_C2_PWR_SetRadioIRQTrigger(uint32_t RadioIRQTrigger)
1450:Drivers/STM32WLxx_HAL_Driver/Inc/stm32wlxx_ll_pwr.h **** {
1451:Drivers/STM32WLxx_HAL_Driver/Inc/stm32wlxx_ll_pwr.h ****   MODIFY_REG(PWR->C2CR3, PWR_C2CR3_EWRFIRQ, RadioIRQTrigger);
1452:Drivers/STM32WLxx_HAL_Driver/Inc/stm32wlxx_ll_pwr.h **** }
1453:Drivers/STM32WLxx_HAL_Driver/Inc/stm32wlxx_ll_pwr.h **** 
1454:Drivers/STM32WLxx_HAL_Driver/Inc/stm32wlxx_ll_pwr.h **** /**
1455:Drivers/STM32WLxx_HAL_Driver/Inc/stm32wlxx_ll_pwr.h ****   * @brief  Get radio IRQ trigger action for CPU2: wake-up from low-power mode,
1456:Drivers/STM32WLxx_HAL_Driver/Inc/stm32wlxx_ll_pwr.h ****   *         interruption.
1457:Drivers/STM32WLxx_HAL_Driver/Inc/stm32wlxx_ll_pwr.h ****   * @rmtoll C2CR3        ERFIRQ        LL_C2_PWR_GetRadioIRQTrigger
1458:Drivers/STM32WLxx_HAL_Driver/Inc/stm32wlxx_ll_pwr.h ****   * @retval Returned value can be one of the following values:
1459:Drivers/STM32WLxx_HAL_Driver/Inc/stm32wlxx_ll_pwr.h ****   *         @arg @ref LL_PWR_RADIO_IRQ_TRIGGER_NONE
1460:Drivers/STM32WLxx_HAL_Driver/Inc/stm32wlxx_ll_pwr.h ****   *         @arg @ref LL_PWR_RADIO_IRQ_TRIGGER_WU_IT
1461:Drivers/STM32WLxx_HAL_Driver/Inc/stm32wlxx_ll_pwr.h ****   */
1462:Drivers/STM32WLxx_HAL_Driver/Inc/stm32wlxx_ll_pwr.h **** __STATIC_INLINE uint32_t LL_C2_PWR_GetRadioIRQTrigger(void)
1463:Drivers/STM32WLxx_HAL_Driver/Inc/stm32wlxx_ll_pwr.h **** {
1464:Drivers/STM32WLxx_HAL_Driver/Inc/stm32wlxx_ll_pwr.h ****   return (uint32_t)(READ_BIT(PWR->C2CR3, PWR_C2CR3_EWRFIRQ));
1465:Drivers/STM32WLxx_HAL_Driver/Inc/stm32wlxx_ll_pwr.h **** }
1466:Drivers/STM32WLxx_HAL_Driver/Inc/stm32wlxx_ll_pwr.h **** 
1467:Drivers/STM32WLxx_HAL_Driver/Inc/stm32wlxx_ll_pwr.h **** /**
1468:Drivers/STM32WLxx_HAL_Driver/Inc/stm32wlxx_ll_pwr.h ****   * @}
1469:Drivers/STM32WLxx_HAL_Driver/Inc/stm32wlxx_ll_pwr.h ****   */
1470:Drivers/STM32WLxx_HAL_Driver/Inc/stm32wlxx_ll_pwr.h **** 
1471:Drivers/STM32WLxx_HAL_Driver/Inc/stm32wlxx_ll_pwr.h **** /** @defgroup PWR_LL_EF_Configuration_Multicore Configuration of multicore, intended to be executed
1472:Drivers/STM32WLxx_HAL_Driver/Inc/stm32wlxx_ll_pwr.h ****   * @{
1473:Drivers/STM32WLxx_HAL_Driver/Inc/stm32wlxx_ll_pwr.h ****   */
1474:Drivers/STM32WLxx_HAL_Driver/Inc/stm32wlxx_ll_pwr.h **** 
1475:Drivers/STM32WLxx_HAL_Driver/Inc/stm32wlxx_ll_pwr.h **** /**
1476:Drivers/STM32WLxx_HAL_Driver/Inc/stm32wlxx_ll_pwr.h ****   * @brief  Boot CPU2 after reset or wakeup from Stop or Standby modes.
1477:Drivers/STM32WLxx_HAL_Driver/Inc/stm32wlxx_ll_pwr.h ****   * @note   CPU2 can boot from configuration of this function or from
1478:Drivers/STM32WLxx_HAL_Driver/Inc/stm32wlxx_ll_pwr.h ****   *         an illegal access. For information of boot source,
1479:Drivers/STM32WLxx_HAL_Driver/Inc/stm32wlxx_ll_pwr.h ****   *         refer to function @ref LL_PWR_IsActiveFlag_C2BOOTS().
1480:Drivers/STM32WLxx_HAL_Driver/Inc/stm32wlxx_ll_pwr.h ****   * @rmtoll CR4          C2BOOT        LL_PWR_EnableBootC2
1481:Drivers/STM32WLxx_HAL_Driver/Inc/stm32wlxx_ll_pwr.h ****   * @retval None
1482:Drivers/STM32WLxx_HAL_Driver/Inc/stm32wlxx_ll_pwr.h ****   */
1483:Drivers/STM32WLxx_HAL_Driver/Inc/stm32wlxx_ll_pwr.h **** __STATIC_INLINE void LL_PWR_EnableBootC2(void)
1484:Drivers/STM32WLxx_HAL_Driver/Inc/stm32wlxx_ll_pwr.h **** {
1485:Drivers/STM32WLxx_HAL_Driver/Inc/stm32wlxx_ll_pwr.h ****   SET_BIT(PWR->CR4, PWR_CR4_C2BOOT);
1486:Drivers/STM32WLxx_HAL_Driver/Inc/stm32wlxx_ll_pwr.h **** }
1487:Drivers/STM32WLxx_HAL_Driver/Inc/stm32wlxx_ll_pwr.h **** 
1488:Drivers/STM32WLxx_HAL_Driver/Inc/stm32wlxx_ll_pwr.h **** /**
1489:Drivers/STM32WLxx_HAL_Driver/Inc/stm32wlxx_ll_pwr.h ****   * @brief  Do not allow CPU2 to boot after reset or wakeup from Stop or Standby
1490:Drivers/STM32WLxx_HAL_Driver/Inc/stm32wlxx_ll_pwr.h ****   *         modes.
1491:Drivers/STM32WLxx_HAL_Driver/Inc/stm32wlxx_ll_pwr.h ****   * @rmtoll CR4          C2BOOT        LL_PWR_DisableBootC2
1492:Drivers/STM32WLxx_HAL_Driver/Inc/stm32wlxx_ll_pwr.h ****   * @retval None
1493:Drivers/STM32WLxx_HAL_Driver/Inc/stm32wlxx_ll_pwr.h ****   */
1494:Drivers/STM32WLxx_HAL_Driver/Inc/stm32wlxx_ll_pwr.h **** __STATIC_INLINE void LL_PWR_DisableBootC2(void)
 1043              		.loc 2 1494 22 view .LVU215
 1044              	.LBB49:
1495:Drivers/STM32WLxx_HAL_Driver/Inc/stm32wlxx_ll_pwr.h **** {
1496:Drivers/STM32WLxx_HAL_Driver/Inc/stm32wlxx_ll_pwr.h ****   CLEAR_BIT(PWR->CR4, PWR_CR4_C2BOOT);
ARM GAS  /tmp/ccyVxTym.s 			page 55


 1045              		.loc 2 1496 3 view .LVU216
 1046 0000 024A     		ldr	r2, .L90
 1047 0002 D368     		ldr	r3, [r2, #12]
 1048 0004 23F40043 		bic	r3, r3, #32768
 1049 0008 D360     		str	r3, [r2, #12]
 1050              	.LBE49:
 1051              	.LBE48:
 533:Drivers/STM32WLxx_HAL_Driver/Src/stm32wlxx_hal_pwr_ex.c **** }
 1052              		.loc 1 533 1 is_stmt 0 view .LVU217
 1053 000a 7047     		bx	lr
 1054              	.L91:
 1055              		.align	2
 1056              	.L90:
 1057 000c 00040058 		.word	1476396032
 1058              		.cfi_endproc
 1059              	.LFE978:
 1061              		.section	.text.HAL_PWREx_ReleaseCore,"ax",%progbits
 1062              		.align	1
 1063              		.global	HAL_PWREx_ReleaseCore
 1064              		.syntax unified
 1065              		.thumb
 1066              		.thumb_func
 1067              		.fpu softvfp
 1069              	HAL_PWREx_ReleaseCore:
 1070              	.LVL80:
 1071              	.LFB979:
 534:Drivers/STM32WLxx_HAL_Driver/Src/stm32wlxx_hal_pwr_ex.c **** 
 535:Drivers/STM32WLxx_HAL_Driver/Src/stm32wlxx_hal_pwr_ex.c **** /**
 536:Drivers/STM32WLxx_HAL_Driver/Src/stm32wlxx_hal_pwr_ex.c ****   * @brief  Release CPU and allocated peripherals after reset or wakeup from Stop or Standby.
 537:Drivers/STM32WLxx_HAL_Driver/Src/stm32wlxx_hal_pwr_ex.c ****   * @param  CPU Specifies the core to be released.
 538:Drivers/STM32WLxx_HAL_Driver/Src/stm32wlxx_hal_pwr_ex.c ****   *             This parameter can be one of the following values:
 539:Drivers/STM32WLxx_HAL_Driver/Src/stm32wlxx_hal_pwr_ex.c ****   *             @arg PWR_CORE_CPU2: Release the CPU2 from holding.
 540:Drivers/STM32WLxx_HAL_Driver/Src/stm32wlxx_hal_pwr_ex.c ****   * @retval None
 541:Drivers/STM32WLxx_HAL_Driver/Src/stm32wlxx_hal_pwr_ex.c ****   */
 542:Drivers/STM32WLxx_HAL_Driver/Src/stm32wlxx_hal_pwr_ex.c **** void HAL_PWREx_ReleaseCore(uint32_t CPU)
 543:Drivers/STM32WLxx_HAL_Driver/Src/stm32wlxx_hal_pwr_ex.c **** {
 1072              		.loc 1 543 1 is_stmt 1 view -0
 1073              		.cfi_startproc
 1074              		@ args = 0, pretend = 0, frame = 0
 1075              		@ frame_needed = 0, uses_anonymous_args = 0
 1076              		@ link register save eliminated.
 544:Drivers/STM32WLxx_HAL_Driver/Src/stm32wlxx_hal_pwr_ex.c ****   /* Check the parameters */
 545:Drivers/STM32WLxx_HAL_Driver/Src/stm32wlxx_hal_pwr_ex.c ****   assert_param(IS_PWR_CORE_HOLD_RELEASE(CPU));
 1077              		.loc 1 545 3 view .LVU219
 546:Drivers/STM32WLxx_HAL_Driver/Src/stm32wlxx_hal_pwr_ex.c **** 
 547:Drivers/STM32WLxx_HAL_Driver/Src/stm32wlxx_hal_pwr_ex.c ****   LL_PWR_EnableBootC2();
 1078              		.loc 1 547 3 view .LVU220
 1079              	.LBB50:
 1080              	.LBI50:
1483:Drivers/STM32WLxx_HAL_Driver/Inc/stm32wlxx_ll_pwr.h **** {
 1081              		.loc 2 1483 22 view .LVU221
 1082              	.LBB51:
1485:Drivers/STM32WLxx_HAL_Driver/Inc/stm32wlxx_ll_pwr.h **** }
 1083              		.loc 2 1485 3 view .LVU222
 1084 0000 024A     		ldr	r2, .L93
 1085 0002 D368     		ldr	r3, [r2, #12]
 1086 0004 43F40043 		orr	r3, r3, #32768
ARM GAS  /tmp/ccyVxTym.s 			page 56


 1087 0008 D360     		str	r3, [r2, #12]
 1088              	.LBE51:
 1089              	.LBE50:
 548:Drivers/STM32WLxx_HAL_Driver/Src/stm32wlxx_hal_pwr_ex.c **** }
 1090              		.loc 1 548 1 is_stmt 0 view .LVU223
 1091 000a 7047     		bx	lr
 1092              	.L94:
 1093              		.align	2
 1094              	.L93:
 1095 000c 00040058 		.word	1476396032
 1096              		.cfi_endproc
 1097              	.LFE979:
 1099              		.section	.text.HAL_PWREx_EnableSRAMRetention,"ax",%progbits
 1100              		.align	1
 1101              		.global	HAL_PWREx_EnableSRAMRetention
 1102              		.syntax unified
 1103              		.thumb
 1104              		.thumb_func
 1105              		.fpu softvfp
 1107              	HAL_PWREx_EnableSRAMRetention:
 1108              	.LFB980:
 549:Drivers/STM32WLxx_HAL_Driver/Src/stm32wlxx_hal_pwr_ex.c **** 
 550:Drivers/STM32WLxx_HAL_Driver/Src/stm32wlxx_hal_pwr_ex.c **** /****************************************************************************/
 551:Drivers/STM32WLxx_HAL_Driver/Src/stm32wlxx_hal_pwr_ex.c **** #ifdef CORE_CM0PLUS
 552:Drivers/STM32WLxx_HAL_Driver/Src/stm32wlxx_hal_pwr_ex.c **** /**
 553:Drivers/STM32WLxx_HAL_Driver/Src/stm32wlxx_hal_pwr_ex.c ****   * @brief  Enable CPU2 wake-up from low-power mode on illegal access occurrence
 554:Drivers/STM32WLxx_HAL_Driver/Src/stm32wlxx_hal_pwr_ex.c ****   * @note   Can be configured from CPU2 only
 555:Drivers/STM32WLxx_HAL_Driver/Src/stm32wlxx_hal_pwr_ex.c ****   * @retval None
 556:Drivers/STM32WLxx_HAL_Driver/Src/stm32wlxx_hal_pwr_ex.c ****   */
 557:Drivers/STM32WLxx_HAL_Driver/Src/stm32wlxx_hal_pwr_ex.c **** void HAL_PWREx_EnableWakeUp_ILAC(void)
 558:Drivers/STM32WLxx_HAL_Driver/Src/stm32wlxx_hal_pwr_ex.c **** {
 559:Drivers/STM32WLxx_HAL_Driver/Src/stm32wlxx_hal_pwr_ex.c ****   LL_PWR_C2_EnableWakeUp_ILAC();
 560:Drivers/STM32WLxx_HAL_Driver/Src/stm32wlxx_hal_pwr_ex.c **** }
 561:Drivers/STM32WLxx_HAL_Driver/Src/stm32wlxx_hal_pwr_ex.c **** 
 562:Drivers/STM32WLxx_HAL_Driver/Src/stm32wlxx_hal_pwr_ex.c **** /**
 563:Drivers/STM32WLxx_HAL_Driver/Src/stm32wlxx_hal_pwr_ex.c ****   * @brief  Disable CPU2 wake-up from low-power mode on illegal access occurrence
 564:Drivers/STM32WLxx_HAL_Driver/Src/stm32wlxx_hal_pwr_ex.c ****   * @note   Can be configured from CPU2 only
 565:Drivers/STM32WLxx_HAL_Driver/Src/stm32wlxx_hal_pwr_ex.c ****   * @retval None
 566:Drivers/STM32WLxx_HAL_Driver/Src/stm32wlxx_hal_pwr_ex.c ****   */
 567:Drivers/STM32WLxx_HAL_Driver/Src/stm32wlxx_hal_pwr_ex.c **** void HAL_PWREx_DisableWakeUp_ILAC(void)
 568:Drivers/STM32WLxx_HAL_Driver/Src/stm32wlxx_hal_pwr_ex.c **** {
 569:Drivers/STM32WLxx_HAL_Driver/Src/stm32wlxx_hal_pwr_ex.c ****   LL_PWR_C2_DisableWakeUp_ILAC();
 570:Drivers/STM32WLxx_HAL_Driver/Src/stm32wlxx_hal_pwr_ex.c **** }
 571:Drivers/STM32WLxx_HAL_Driver/Src/stm32wlxx_hal_pwr_ex.c **** 
 572:Drivers/STM32WLxx_HAL_Driver/Src/stm32wlxx_hal_pwr_ex.c **** /**
 573:Drivers/STM32WLxx_HAL_Driver/Src/stm32wlxx_hal_pwr_ex.c ****   * @brief  Check if bit to wake-up CPU2 from low-power mode on illegal access
 574:Drivers/STM32WLxx_HAL_Driver/Src/stm32wlxx_hal_pwr_ex.c ****   *         occurrence is set
 575:Drivers/STM32WLxx_HAL_Driver/Src/stm32wlxx_hal_pwr_ex.c ****   * @note   Can be used from CPU2 only
 576:Drivers/STM32WLxx_HAL_Driver/Src/stm32wlxx_hal_pwr_ex.c ****   * @retval State of bit (1 or 0)
 577:Drivers/STM32WLxx_HAL_Driver/Src/stm32wlxx_hal_pwr_ex.c ****   */
 578:Drivers/STM32WLxx_HAL_Driver/Src/stm32wlxx_hal_pwr_ex.c **** uint32_t HAL_PWREx_IsEnabledWakeUp_ILAC(void)
 579:Drivers/STM32WLxx_HAL_Driver/Src/stm32wlxx_hal_pwr_ex.c **** {
 580:Drivers/STM32WLxx_HAL_Driver/Src/stm32wlxx_hal_pwr_ex.c ****   return LL_PWR_C2_IsEnabledWakeUp_ILAC();
 581:Drivers/STM32WLxx_HAL_Driver/Src/stm32wlxx_hal_pwr_ex.c **** }
