ARM GAS  /tmp/ccLDT2f3.s 			page 1


   1              		.cpu cortex-m4
   2              		.eabi_attribute 20, 1
   3              		.eabi_attribute 21, 1
   4              		.eabi_attribute 23, 3
   5              		.eabi_attribute 24, 1
   6              		.eabi_attribute 25, 1
   7              		.eabi_attribute 26, 1
   8              		.eabi_attribute 30, 1
   9              		.eabi_attribute 34, 1
  10              		.eabi_attribute 18, 4
  11              		.file	"stm32_lpm_if.c"
  12              		.text
  13              	.Ltext0:
  14              		.cfi_sections	.debug_frame
  15              		.section	.text.PWR_EnterOffMode,"ax",%progbits
  16              		.align	1
  17              		.global	PWR_EnterOffMode
  18              		.arch armv7e-m
  19              		.syntax unified
  20              		.thumb
  21              		.thumb_func
  22              		.fpu softvfp
  24              	PWR_EnterOffMode:
  25              	.LFB1093:
  26              		.file 1 "Core/Src/stm32_lpm_if.c"
   1:Core/Src/stm32_lpm_if.c **** /* USER CODE BEGIN Header */
   2:Core/Src/stm32_lpm_if.c **** /**
   3:Core/Src/stm32_lpm_if.c ****   ******************************************************************************
   4:Core/Src/stm32_lpm_if.c ****   * @file    stm32_lpm_if.c
   5:Core/Src/stm32_lpm_if.c ****   * @author  MCD Application Team
   6:Core/Src/stm32_lpm_if.c ****   * @brief   Low layer function to enter/exit low power modes (stop, sleep)
   7:Core/Src/stm32_lpm_if.c ****   ******************************************************************************
   8:Core/Src/stm32_lpm_if.c ****   * @attention
   9:Core/Src/stm32_lpm_if.c ****   *
  10:Core/Src/stm32_lpm_if.c ****   * Copyright (c) 2022 STMicroelectronics.
  11:Core/Src/stm32_lpm_if.c ****   * All rights reserved.
  12:Core/Src/stm32_lpm_if.c ****   *
  13:Core/Src/stm32_lpm_if.c ****   * This software is licensed under terms that can be found in the LICENSE file
  14:Core/Src/stm32_lpm_if.c ****   * in the root directory of this software component.
  15:Core/Src/stm32_lpm_if.c ****   * If no LICENSE file comes with this software, it is provided AS-IS.
  16:Core/Src/stm32_lpm_if.c ****   *
  17:Core/Src/stm32_lpm_if.c ****   ******************************************************************************
  18:Core/Src/stm32_lpm_if.c ****   */
  19:Core/Src/stm32_lpm_if.c **** /* USER CODE END Header */
  20:Core/Src/stm32_lpm_if.c **** 
  21:Core/Src/stm32_lpm_if.c **** /* Includes ------------------------------------------------------------------*/
  22:Core/Src/stm32_lpm_if.c **** #include "stm32_lpm.h"
  23:Core/Src/stm32_lpm_if.c **** #include "stm32_lpm_if.h"
  24:Core/Src/stm32_lpm_if.c **** 
  25:Core/Src/stm32_lpm_if.c **** /* USER CODE BEGIN Includes */
  26:Core/Src/stm32_lpm_if.c **** #include "usart.h"
  27:Core/Src/stm32_lpm_if.c **** /* USER CODE END Includes */
  28:Core/Src/stm32_lpm_if.c **** 
  29:Core/Src/stm32_lpm_if.c **** /* External variables ---------------------------------------------------------*/
  30:Core/Src/stm32_lpm_if.c **** /* USER CODE BEGIN EV */
  31:Core/Src/stm32_lpm_if.c **** 
  32:Core/Src/stm32_lpm_if.c **** /* USER CODE END EV */
ARM GAS  /tmp/ccLDT2f3.s 			page 2


  33:Core/Src/stm32_lpm_if.c **** 
  34:Core/Src/stm32_lpm_if.c **** /* Private typedef -----------------------------------------------------------*/
  35:Core/Src/stm32_lpm_if.c **** /**
  36:Core/Src/stm32_lpm_if.c ****   * @brief Power driver callbacks handler
  37:Core/Src/stm32_lpm_if.c ****   */
  38:Core/Src/stm32_lpm_if.c **** const struct UTIL_LPM_Driver_s UTIL_PowerDriver =
  39:Core/Src/stm32_lpm_if.c **** {
  40:Core/Src/stm32_lpm_if.c ****   PWR_EnterSleepMode,
  41:Core/Src/stm32_lpm_if.c ****   PWR_ExitSleepMode,
  42:Core/Src/stm32_lpm_if.c **** 
  43:Core/Src/stm32_lpm_if.c ****   PWR_EnterStopMode,
  44:Core/Src/stm32_lpm_if.c ****   PWR_ExitStopMode,
  45:Core/Src/stm32_lpm_if.c **** 
  46:Core/Src/stm32_lpm_if.c ****   PWR_EnterOffMode,
  47:Core/Src/stm32_lpm_if.c ****   PWR_ExitOffMode,
  48:Core/Src/stm32_lpm_if.c **** };
  49:Core/Src/stm32_lpm_if.c **** 
  50:Core/Src/stm32_lpm_if.c **** /* USER CODE BEGIN PTD */
  51:Core/Src/stm32_lpm_if.c **** 
  52:Core/Src/stm32_lpm_if.c **** /* USER CODE END PTD */
  53:Core/Src/stm32_lpm_if.c **** 
  54:Core/Src/stm32_lpm_if.c **** /* Private define ------------------------------------------------------------*/
  55:Core/Src/stm32_lpm_if.c **** /* USER CODE BEGIN PD */
  56:Core/Src/stm32_lpm_if.c **** 
  57:Core/Src/stm32_lpm_if.c **** /* USER CODE END PD */
  58:Core/Src/stm32_lpm_if.c **** 
  59:Core/Src/stm32_lpm_if.c **** /* Private macro -------------------------------------------------------------*/
  60:Core/Src/stm32_lpm_if.c **** /* USER CODE BEGIN PM */
  61:Core/Src/stm32_lpm_if.c **** 
  62:Core/Src/stm32_lpm_if.c **** /* USER CODE END PM */
  63:Core/Src/stm32_lpm_if.c **** 
  64:Core/Src/stm32_lpm_if.c **** /* Private variables ---------------------------------------------------------*/
  65:Core/Src/stm32_lpm_if.c **** /* USER CODE BEGIN PV */
  66:Core/Src/stm32_lpm_if.c **** 
  67:Core/Src/stm32_lpm_if.c **** /* USER CODE END PV */
  68:Core/Src/stm32_lpm_if.c **** 
  69:Core/Src/stm32_lpm_if.c **** /* Private function prototypes -----------------------------------------------*/
  70:Core/Src/stm32_lpm_if.c **** /* USER CODE BEGIN PFP */
  71:Core/Src/stm32_lpm_if.c **** 
  72:Core/Src/stm32_lpm_if.c **** /* USER CODE END PFP */
  73:Core/Src/stm32_lpm_if.c **** 
  74:Core/Src/stm32_lpm_if.c **** /* Exported functions --------------------------------------------------------*/
  75:Core/Src/stm32_lpm_if.c **** 
  76:Core/Src/stm32_lpm_if.c **** void PWR_EnterOffMode(void)
  77:Core/Src/stm32_lpm_if.c **** {
  27              		.loc 1 77 1 view -0
  28              		.cfi_startproc
  29              		@ args = 0, pretend = 0, frame = 0
  30              		@ frame_needed = 0, uses_anonymous_args = 0
  31              		@ link register save eliminated.
  78:Core/Src/stm32_lpm_if.c ****   /* USER CODE BEGIN EnterOffMode_1 */
  79:Core/Src/stm32_lpm_if.c **** 
  80:Core/Src/stm32_lpm_if.c ****   /* USER CODE END EnterOffMode_1 */
  81:Core/Src/stm32_lpm_if.c **** }
  32              		.loc 1 81 1 view .LVU1
  33 0000 7047     		bx	lr
  34              		.cfi_endproc
ARM GAS  /tmp/ccLDT2f3.s 			page 3


  35              	.LFE1093:
  37              		.section	.text.PWR_ExitOffMode,"ax",%progbits
  38              		.align	1
  39              		.global	PWR_ExitOffMode
  40              		.syntax unified
  41              		.thumb
  42              		.thumb_func
  43              		.fpu softvfp
  45              	PWR_ExitOffMode:
  46              	.LFB1094:
  82:Core/Src/stm32_lpm_if.c **** 
  83:Core/Src/stm32_lpm_if.c **** void PWR_ExitOffMode(void)
  84:Core/Src/stm32_lpm_if.c **** {
  47              		.loc 1 84 1 view -0
  48              		.cfi_startproc
  49              		@ args = 0, pretend = 0, frame = 0
  50              		@ frame_needed = 0, uses_anonymous_args = 0
  51              		@ link register save eliminated.
  85:Core/Src/stm32_lpm_if.c ****   /* USER CODE BEGIN ExitOffMode_1 */
  86:Core/Src/stm32_lpm_if.c **** 
  87:Core/Src/stm32_lpm_if.c ****   /* USER CODE END ExitOffMode_1 */
  88:Core/Src/stm32_lpm_if.c **** }
  52              		.loc 1 88 1 view .LVU3
  53 0000 7047     		bx	lr
  54              		.cfi_endproc
  55              	.LFE1094:
  57              		.section	.text.PWR_EnterStopMode,"ax",%progbits
  58              		.align	1
  59              		.global	PWR_EnterStopMode
  60              		.syntax unified
  61              		.thumb
  62              		.thumb_func
  63              		.fpu softvfp
  65              	PWR_EnterStopMode:
  66              	.LFB1095:
  89:Core/Src/stm32_lpm_if.c **** 
  90:Core/Src/stm32_lpm_if.c **** void PWR_EnterStopMode(void)
  91:Core/Src/stm32_lpm_if.c **** {
  67              		.loc 1 91 1 view -0
  68              		.cfi_startproc
  69              		@ args = 0, pretend = 0, frame = 0
  70              		@ frame_needed = 0, uses_anonymous_args = 0
  71              		@ link register save eliminated.
  92:Core/Src/stm32_lpm_if.c ****   /* USER CODE BEGIN EnterStopMode_1 */
  93:Core/Src/stm32_lpm_if.c **** 
  94:Core/Src/stm32_lpm_if.c ****   /* USER CODE END EnterStopMode_1 */
  95:Core/Src/stm32_lpm_if.c **** }
  72              		.loc 1 95 1 view .LVU5
  73 0000 7047     		bx	lr
  74              		.cfi_endproc
  75              	.LFE1095:
  77              		.section	.text.PWR_ExitStopMode,"ax",%progbits
  78              		.align	1
  79              		.global	PWR_ExitStopMode
  80              		.syntax unified
  81              		.thumb
  82              		.thumb_func
ARM GAS  /tmp/ccLDT2f3.s 			page 4


  83              		.fpu softvfp
  85              	PWR_ExitStopMode:
  86              	.LFB1096:
  96:Core/Src/stm32_lpm_if.c **** 
  97:Core/Src/stm32_lpm_if.c **** void PWR_ExitStopMode(void)
  98:Core/Src/stm32_lpm_if.c **** {
  87              		.loc 1 98 1 view -0
  88              		.cfi_startproc
  89              		@ args = 0, pretend = 0, frame = 0
  90              		@ frame_needed = 0, uses_anonymous_args = 0
  91              		@ link register save eliminated.
  99:Core/Src/stm32_lpm_if.c ****   /* USER CODE BEGIN ExitStopMode_1 */
 100:Core/Src/stm32_lpm_if.c **** 
 101:Core/Src/stm32_lpm_if.c ****   /* USER CODE END ExitStopMode_1 */
 102:Core/Src/stm32_lpm_if.c **** }
  92              		.loc 1 102 1 view .LVU7
  93 0000 7047     		bx	lr
  94              		.cfi_endproc
  95              	.LFE1096:
  97              		.section	.text.PWR_EnterSleepMode,"ax",%progbits
  98              		.align	1
  99              		.global	PWR_EnterSleepMode
 100              		.syntax unified
 101              		.thumb
 102              		.thumb_func
 103              		.fpu softvfp
 105              	PWR_EnterSleepMode:
 106              	.LFB1097:
 103:Core/Src/stm32_lpm_if.c **** 
 104:Core/Src/stm32_lpm_if.c **** void PWR_EnterSleepMode(void)
 105:Core/Src/stm32_lpm_if.c **** {
 107              		.loc 1 105 1 view -0
 108              		.cfi_startproc
 109              		@ args = 0, pretend = 0, frame = 0
 110              		@ frame_needed = 0, uses_anonymous_args = 0
 111              		@ link register save eliminated.
 106:Core/Src/stm32_lpm_if.c ****   /* USER CODE BEGIN EnterSleepMode_1 */
 107:Core/Src/stm32_lpm_if.c **** 
 108:Core/Src/stm32_lpm_if.c ****   /* USER CODE END EnterSleepMode_1 */
 109:Core/Src/stm32_lpm_if.c **** }
 112              		.loc 1 109 1 view .LVU9
 113 0000 7047     		bx	lr
 114              		.cfi_endproc
 115              	.LFE1097:
 117              		.section	.text.PWR_ExitSleepMode,"ax",%progbits
 118              		.align	1
 119              		.global	PWR_ExitSleepMode
 120              		.syntax unified
 121              		.thumb
 122              		.thumb_func
 123              		.fpu softvfp
 125              	PWR_ExitSleepMode:
 126              	.LFB1098:
 110:Core/Src/stm32_lpm_if.c **** 
 111:Core/Src/stm32_lpm_if.c **** void PWR_ExitSleepMode(void)
 112:Core/Src/stm32_lpm_if.c **** {
 127              		.loc 1 112 1 view -0
ARM GAS  /tmp/ccLDT2f3.s 			page 5


 128              		.cfi_startproc
 129              		@ args = 0, pretend = 0, frame = 0
 130              		@ frame_needed = 0, uses_anonymous_args = 0
 131              		@ link register save eliminated.
 113:Core/Src/stm32_lpm_if.c ****   /* USER CODE BEGIN ExitSleepMode_1 */
 114:Core/Src/stm32_lpm_if.c **** 
 115:Core/Src/stm32_lpm_if.c ****   /* USER CODE END ExitSleepMode_1 */
 116:Core/Src/stm32_lpm_if.c **** }
 132              		.loc 1 116 1 view .LVU11
 133 0000 7047     		bx	lr
 134              		.cfi_endproc
 135              	.LFE1098:
 137              		.global	UTIL_PowerDriver
 138              		.section	.rodata.UTIL_PowerDriver,"a"
 139              		.align	2
 142              	UTIL_PowerDriver:
 143 0000 00000000 		.word	PWR_EnterSleepMode
 144 0004 00000000 		.word	PWR_ExitSleepMode
 145 0008 00000000 		.word	PWR_EnterStopMode
 146 000c 00000000 		.word	PWR_ExitStopMode
 147 0010 00000000 		.word	PWR_EnterOffMode
 148 0014 00000000 		.word	PWR_ExitOffMode
 149              		.text
 150              	.Letext0:
 151              		.file 2 "/home/eatkinso/Downloads/gcc-arm-none-eabi-10.3-2021.07/gcc-arm-none-eabi-10.3-2021.07/ar
 152              		.file 3 "/home/eatkinso/Downloads/gcc-arm-none-eabi-10.3-2021.07/gcc-arm-none-eabi-10.3-2021.07/ar
 153              		.file 4 "Utilities/lpm/tiny_lpm/stm32_lpm.h"
 154              		.file 5 "Drivers/STM32WLxx_HAL_Driver/Inc/stm32wlxx_ll_dma.h"
ARM GAS  /tmp/ccLDT2f3.s 			page 6

