ARM GAS  /tmp/ccIwanil.s 			page 1


   1              		.cpu cortex-m4
   2              		.eabi_attribute 20, 1
   3              		.eabi_attribute 21, 1
   4              		.eabi_attribute 23, 3
   5              		.eabi_attribute 24, 1
   6              		.eabi_attribute 25, 1
   7              		.eabi_attribute 26, 1
   8              		.eabi_attribute 30, 1
   9              		.eabi_attribute 34, 1
  10              		.eabi_attribute 18, 4
  11              		.file	"timer_if.c"
  12              		.text
  13              	.Ltext0:
  14              		.cfi_sections	.debug_frame
  15              		.section	.text.TIMER_IF_Init,"ax",%progbits
  16              		.align	1
  17              		.global	TIMER_IF_Init
  18              		.arch armv7e-m
  19              		.syntax unified
  20              		.thumb
  21              		.thumb_func
  22              		.fpu softvfp
  24              	TIMER_IF_Init:
  25              	.LFB104:
  26              		.file 1 "Core/Src/timer_if.c"
   1:Core/Src/timer_if.c **** /* USER CODE BEGIN Header */
   2:Core/Src/timer_if.c **** /**
   3:Core/Src/timer_if.c ****   ******************************************************************************
   4:Core/Src/timer_if.c ****   * @file    timer_if.c
   5:Core/Src/timer_if.c ****   * @author  MCD Application Team
   6:Core/Src/timer_if.c ****   * @brief   Configure RTC Alarm, Tick and Calendar manager
   7:Core/Src/timer_if.c ****   ******************************************************************************
   8:Core/Src/timer_if.c ****   * @attention
   9:Core/Src/timer_if.c ****   *
  10:Core/Src/timer_if.c ****   * Copyright (c) 2022 STMicroelectronics.
  11:Core/Src/timer_if.c ****   * All rights reserved.
  12:Core/Src/timer_if.c ****   *
  13:Core/Src/timer_if.c ****   * This software is licensed under terms that can be found in the LICENSE file
  14:Core/Src/timer_if.c ****   * in the root directory of this software component.
  15:Core/Src/timer_if.c ****   * If no LICENSE file comes with this software, it is provided AS-IS.
  16:Core/Src/timer_if.c ****   *
  17:Core/Src/timer_if.c ****   ******************************************************************************
  18:Core/Src/timer_if.c ****   */
  19:Core/Src/timer_if.c **** /* USER CODE END Header */
  20:Core/Src/timer_if.c **** 
  21:Core/Src/timer_if.c **** /* Includes ------------------------------------------------------------------*/
  22:Core/Src/timer_if.c **** #include <math.h>
  23:Core/Src/timer_if.c **** #include "timer_if.h"
  24:Core/Src/timer_if.c **** 
  25:Core/Src/timer_if.c **** /* USER CODE BEGIN Includes */
  26:Core/Src/timer_if.c **** #include "timer.h"
  27:Core/Src/timer_if.c **** /* USER CODE END Includes */
  28:Core/Src/timer_if.c **** 
  29:Core/Src/timer_if.c **** /* External variables ---------------------------------------------------------*/
  30:Core/Src/timer_if.c **** 
  31:Core/Src/timer_if.c **** /**
  32:Core/Src/timer_if.c ****   * @brief Timer driver callbacks handler
ARM GAS  /tmp/ccIwanil.s 			page 2


  33:Core/Src/timer_if.c ****   */
  34:Core/Src/timer_if.c **** const UTIL_TIMER_Driver_s UTIL_TimerDriver =
  35:Core/Src/timer_if.c **** {
  36:Core/Src/timer_if.c ****   TIMER_IF_Init,
  37:Core/Src/timer_if.c ****   NULL,
  38:Core/Src/timer_if.c **** 
  39:Core/Src/timer_if.c ****   TIMER_IF_StartTimer,
  40:Core/Src/timer_if.c ****   TIMER_IF_StopTimer,
  41:Core/Src/timer_if.c **** 
  42:Core/Src/timer_if.c ****   TIMER_IF_SetTimerContext,
  43:Core/Src/timer_if.c ****   TIMER_IF_GetTimerContext,
  44:Core/Src/timer_if.c **** 
  45:Core/Src/timer_if.c ****   TIMER_IF_GetTimerElapsedTime,
  46:Core/Src/timer_if.c ****   TIMER_IF_GetTimerValue,
  47:Core/Src/timer_if.c ****   TIMER_IF_GetMinimumTimeout,
  48:Core/Src/timer_if.c **** 
  49:Core/Src/timer_if.c ****   TIMER_IF_Convert_ms2Tick,
  50:Core/Src/timer_if.c ****   TIMER_IF_Convert_Tick2ms,
  51:Core/Src/timer_if.c **** };
  52:Core/Src/timer_if.c **** 
  53:Core/Src/timer_if.c **** /**
  54:Core/Src/timer_if.c ****   * @brief SysTime driver callbacks handler
  55:Core/Src/timer_if.c ****   */
  56:Core/Src/timer_if.c **** const UTIL_SYSTIM_Driver_s UTIL_SYSTIMDriver =
  57:Core/Src/timer_if.c **** {
  58:Core/Src/timer_if.c ****   TIMER_IF_BkUp_Write_Seconds,
  59:Core/Src/timer_if.c ****   TIMER_IF_BkUp_Read_Seconds,
  60:Core/Src/timer_if.c ****   TIMER_IF_BkUp_Write_SubSeconds,
  61:Core/Src/timer_if.c ****   TIMER_IF_BkUp_Read_SubSeconds,
  62:Core/Src/timer_if.c ****   TIMER_IF_GetTime,
  63:Core/Src/timer_if.c **** };
  64:Core/Src/timer_if.c **** 
  65:Core/Src/timer_if.c **** /* USER CODE BEGIN EV */
  66:Core/Src/timer_if.c **** 
  67:Core/Src/timer_if.c **** /* USER CODE END EV */
  68:Core/Src/timer_if.c **** 
  69:Core/Src/timer_if.c **** /* Private typedef -----------------------------------------------------------*/
  70:Core/Src/timer_if.c **** /* USER CODE BEGIN PTD */
  71:Core/Src/timer_if.c **** 
  72:Core/Src/timer_if.c **** /* USER CODE END PTD */
  73:Core/Src/timer_if.c **** 
  74:Core/Src/timer_if.c **** /* Private define ------------------------------------------------------------*/
  75:Core/Src/timer_if.c **** /* USER CODE BEGIN PD */
  76:Core/Src/timer_if.c **** 
  77:Core/Src/timer_if.c **** /* USER CODE END PD */
  78:Core/Src/timer_if.c **** 
  79:Core/Src/timer_if.c **** /* Private macro -------------------------------------------------------------*/
  80:Core/Src/timer_if.c **** /* USER CODE BEGIN PM */
  81:Core/Src/timer_if.c **** 
  82:Core/Src/timer_if.c **** /* USER CODE END PM */
  83:Core/Src/timer_if.c **** 
  84:Core/Src/timer_if.c **** /* Private variables ---------------------------------------------------------*/
  85:Core/Src/timer_if.c **** /**
  86:Core/Src/timer_if.c ****   * @brief RtcTimerContext
  87:Core/Src/timer_if.c ****   */
  88:Core/Src/timer_if.c **** static uint32_t RtcTimerContext = 0;
  89:Core/Src/timer_if.c **** 
ARM GAS  /tmp/ccIwanil.s 			page 3


  90:Core/Src/timer_if.c **** /* USER CODE BEGIN PV */
  91:Core/Src/timer_if.c **** 
  92:Core/Src/timer_if.c **** /* USER CODE END PV */
  93:Core/Src/timer_if.c **** 
  94:Core/Src/timer_if.c **** /* Private function prototypes -----------------------------------------------*/
  95:Core/Src/timer_if.c **** /* USER CODE BEGIN PFP */
  96:Core/Src/timer_if.c **** 
  97:Core/Src/timer_if.c **** /* USER CODE END PFP */
  98:Core/Src/timer_if.c **** 
  99:Core/Src/timer_if.c **** /* Exported functions ---------------------------------------------------------*/
 100:Core/Src/timer_if.c **** UTIL_TIMER_Status_t TIMER_IF_Init(void)
 101:Core/Src/timer_if.c **** {
  27              		.loc 1 101 1 view -0
  28              		.cfi_startproc
  29              		@ args = 0, pretend = 0, frame = 0
  30              		@ frame_needed = 0, uses_anonymous_args = 0
  31              		@ link register save eliminated.
 102:Core/Src/timer_if.c ****   UTIL_TIMER_Status_t ret = UTIL_TIMER_OK;
  32              		.loc 1 102 3 view .LVU1
  33              	.LVL0:
 103:Core/Src/timer_if.c ****   /* USER CODE BEGIN TIMER_IF_Init */
 104:Core/Src/timer_if.c **** 
 105:Core/Src/timer_if.c ****   /* USER CODE END TIMER_IF_Init */
 106:Core/Src/timer_if.c ****   return ret;
  34              		.loc 1 106 3 view .LVU2
 107:Core/Src/timer_if.c **** }
  35              		.loc 1 107 1 is_stmt 0 view .LVU3
  36 0000 0020     		movs	r0, #0
  37 0002 7047     		bx	lr
  38              		.cfi_endproc
  39              	.LFE104:
  41              		.section	.text.TIMER_IF_StartTimer,"ax",%progbits
  42              		.align	1
  43              		.global	TIMER_IF_StartTimer
  44              		.syntax unified
  45              		.thumb
  46              		.thumb_func
  47              		.fpu softvfp
  49              	TIMER_IF_StartTimer:
  50              	.LVL1:
  51              	.LFB105:
 108:Core/Src/timer_if.c **** 
 109:Core/Src/timer_if.c **** UTIL_TIMER_Status_t TIMER_IF_StartTimer(uint32_t timeout)
 110:Core/Src/timer_if.c **** {
  52              		.loc 1 110 1 is_stmt 1 view -0
  53              		.cfi_startproc
  54              		@ args = 0, pretend = 0, frame = 0
  55              		@ frame_needed = 0, uses_anonymous_args = 0
  56              		@ link register save eliminated.
 111:Core/Src/timer_if.c ****   UTIL_TIMER_Status_t ret = UTIL_TIMER_OK;
  57              		.loc 1 111 3 view .LVU5
 112:Core/Src/timer_if.c ****   /* USER CODE BEGIN TIMER_IF_StartTimer */
 113:Core/Src/timer_if.c **** 
 114:Core/Src/timer_if.c ****   /* USER CODE END TIMER_IF_StartTimer */
 115:Core/Src/timer_if.c ****   return ret;
  58              		.loc 1 115 3 view .LVU6
 116:Core/Src/timer_if.c **** }
ARM GAS  /tmp/ccIwanil.s 			page 4


  59              		.loc 1 116 1 is_stmt 0 view .LVU7
  60 0000 0020     		movs	r0, #0
  61              	.LVL2:
  62              		.loc 1 116 1 view .LVU8
  63 0002 7047     		bx	lr
  64              		.cfi_endproc
  65              	.LFE105:
  67              		.section	.text.TIMER_IF_StopTimer,"ax",%progbits
  68              		.align	1
  69              		.global	TIMER_IF_StopTimer
  70              		.syntax unified
  71              		.thumb
  72              		.thumb_func
  73              		.fpu softvfp
  75              	TIMER_IF_StopTimer:
  76              	.LFB106:
 117:Core/Src/timer_if.c **** 
 118:Core/Src/timer_if.c **** UTIL_TIMER_Status_t TIMER_IF_StopTimer(void)
 119:Core/Src/timer_if.c **** {
  77              		.loc 1 119 1 is_stmt 1 view -0
  78              		.cfi_startproc
  79              		@ args = 0, pretend = 0, frame = 0
  80              		@ frame_needed = 0, uses_anonymous_args = 0
  81              		@ link register save eliminated.
 120:Core/Src/timer_if.c ****   UTIL_TIMER_Status_t ret = UTIL_TIMER_OK;
  82              		.loc 1 120 3 view .LVU10
  83              	.LVL3:
 121:Core/Src/timer_if.c ****   /* USER CODE BEGIN TIMER_IF_StopTimer */
 122:Core/Src/timer_if.c **** 
 123:Core/Src/timer_if.c ****   /* USER CODE END TIMER_IF_StopTimer */
 124:Core/Src/timer_if.c ****   return ret;
  84              		.loc 1 124 3 view .LVU11
 125:Core/Src/timer_if.c **** }
  85              		.loc 1 125 1 is_stmt 0 view .LVU12
  86 0000 0020     		movs	r0, #0
  87 0002 7047     		bx	lr
  88              		.cfi_endproc
  89              	.LFE106:
  91              		.section	.text.TIMER_IF_SetTimerContext,"ax",%progbits
  92              		.align	1
  93              		.global	TIMER_IF_SetTimerContext
  94              		.syntax unified
  95              		.thumb
  96              		.thumb_func
  97              		.fpu softvfp
  99              	TIMER_IF_SetTimerContext:
 100              	.LFB107:
 126:Core/Src/timer_if.c **** 
 127:Core/Src/timer_if.c **** uint32_t TIMER_IF_SetTimerContext(void)
 128:Core/Src/timer_if.c **** {
 101              		.loc 1 128 1 is_stmt 1 view -0
 102              		.cfi_startproc
 103              		@ args = 0, pretend = 0, frame = 0
 104              		@ frame_needed = 0, uses_anonymous_args = 0
 105              		@ link register save eliminated.
 129:Core/Src/timer_if.c ****   /* USER CODE BEGIN TIMER_IF_SetTimerContext */
 130:Core/Src/timer_if.c **** 
ARM GAS  /tmp/ccIwanil.s 			page 5


 131:Core/Src/timer_if.c ****   /* USER CODE END TIMER_IF_SetTimerContext */
 132:Core/Src/timer_if.c **** 
 133:Core/Src/timer_if.c ****   /*return time context*/
 134:Core/Src/timer_if.c ****   return RtcTimerContext;
 106              		.loc 1 134 3 view .LVU14
 135:Core/Src/timer_if.c **** }
 107              		.loc 1 135 1 is_stmt 0 view .LVU15
 108 0000 0020     		movs	r0, #0
 109 0002 7047     		bx	lr
 110              		.cfi_endproc
 111              	.LFE107:
 113              		.section	.text.TIMER_IF_GetTimerContext,"ax",%progbits
 114              		.align	1
 115              		.global	TIMER_IF_GetTimerContext
 116              		.syntax unified
 117              		.thumb
 118              		.thumb_func
 119              		.fpu softvfp
 121              	TIMER_IF_GetTimerContext:
 122              	.LFB108:
 136:Core/Src/timer_if.c **** 
 137:Core/Src/timer_if.c **** uint32_t TIMER_IF_GetTimerContext(void)
 138:Core/Src/timer_if.c **** {
 123              		.loc 1 138 1 is_stmt 1 view -0
 124              		.cfi_startproc
 125              		@ args = 0, pretend = 0, frame = 0
 126              		@ frame_needed = 0, uses_anonymous_args = 0
 127              		@ link register save eliminated.
 139:Core/Src/timer_if.c ****   /* USER CODE BEGIN TIMER_IF_GetTimerContext */
 140:Core/Src/timer_if.c **** 
 141:Core/Src/timer_if.c ****   /* USER CODE END TIMER_IF_GetTimerContext */
 142:Core/Src/timer_if.c **** 
 143:Core/Src/timer_if.c ****   /*return time context*/
 144:Core/Src/timer_if.c ****   return RtcTimerContext;
 128              		.loc 1 144 3 view .LVU17
 145:Core/Src/timer_if.c **** }
 129              		.loc 1 145 1 is_stmt 0 view .LVU18
 130 0000 0020     		movs	r0, #0
 131 0002 7047     		bx	lr
 132              		.cfi_endproc
 133              	.LFE108:
 135              		.section	.text.TIMER_IF_GetTimerElapsedTime,"ax",%progbits
 136              		.align	1
 137              		.global	TIMER_IF_GetTimerElapsedTime
 138              		.syntax unified
 139              		.thumb
 140              		.thumb_func
 141              		.fpu softvfp
 143              	TIMER_IF_GetTimerElapsedTime:
 144              	.LFB109:
 146:Core/Src/timer_if.c **** 
 147:Core/Src/timer_if.c **** uint32_t TIMER_IF_GetTimerElapsedTime(void)
 148:Core/Src/timer_if.c **** {
 145              		.loc 1 148 1 is_stmt 1 view -0
 146              		.cfi_startproc
 147              		@ args = 0, pretend = 0, frame = 0
 148              		@ frame_needed = 0, uses_anonymous_args = 0
ARM GAS  /tmp/ccIwanil.s 			page 6


 149              		@ link register save eliminated.
 149:Core/Src/timer_if.c ****   uint32_t ret = 0;
 150              		.loc 1 149 3 view .LVU20
 151              	.LVL4:
 150:Core/Src/timer_if.c ****   /* USER CODE BEGIN TIMER_IF_GetTimerElapsedTime */
 151:Core/Src/timer_if.c **** 
 152:Core/Src/timer_if.c ****   /* USER CODE END TIMER_IF_GetTimerElapsedTime */
 153:Core/Src/timer_if.c ****   return ret;
 152              		.loc 1 153 3 view .LVU21
 154:Core/Src/timer_if.c **** }
 153              		.loc 1 154 1 is_stmt 0 view .LVU22
 154 0000 0020     		movs	r0, #0
 155 0002 7047     		bx	lr
 156              		.cfi_endproc
 157              	.LFE109:
 159              		.section	.text.TIMER_IF_GetTimerValue,"ax",%progbits
 160              		.align	1
 161              		.global	TIMER_IF_GetTimerValue
 162              		.syntax unified
 163              		.thumb
 164              		.thumb_func
 165              		.fpu softvfp
 167              	TIMER_IF_GetTimerValue:
 168              	.LFB110:
 155:Core/Src/timer_if.c **** 
 156:Core/Src/timer_if.c **** uint32_t TIMER_IF_GetTimerValue(void)
 157:Core/Src/timer_if.c **** {
 169              		.loc 1 157 1 is_stmt 1 view -0
 170              		.cfi_startproc
 171              		@ args = 0, pretend = 0, frame = 0
 172              		@ frame_needed = 0, uses_anonymous_args = 0
 173              		@ link register save eliminated.
 158:Core/Src/timer_if.c ****   uint32_t ret = 0;
 174              		.loc 1 158 3 view .LVU24
 175              	.LVL5:
 159:Core/Src/timer_if.c ****   /* USER CODE BEGIN TIMER_IF_GetTimerValue */
 160:Core/Src/timer_if.c **** 
 161:Core/Src/timer_if.c ****   /* USER CODE END TIMER_IF_GetTimerValue */
 162:Core/Src/timer_if.c ****   return ret;
 176              		.loc 1 162 3 view .LVU25
 163:Core/Src/timer_if.c **** }
 177              		.loc 1 163 1 is_stmt 0 view .LVU26
 178 0000 0020     		movs	r0, #0
 179 0002 7047     		bx	lr
 180              		.cfi_endproc
 181              	.LFE110:
 183              		.section	.text.TIMER_IF_GetMinimumTimeout,"ax",%progbits
 184              		.align	1
 185              		.global	TIMER_IF_GetMinimumTimeout
 186              		.syntax unified
 187              		.thumb
 188              		.thumb_func
 189              		.fpu softvfp
 191              	TIMER_IF_GetMinimumTimeout:
 192              	.LFB111:
 164:Core/Src/timer_if.c **** 
 165:Core/Src/timer_if.c **** uint32_t TIMER_IF_GetMinimumTimeout(void)
ARM GAS  /tmp/ccIwanil.s 			page 7


 166:Core/Src/timer_if.c **** {
 193              		.loc 1 166 1 is_stmt 1 view -0
 194              		.cfi_startproc
 195              		@ args = 0, pretend = 0, frame = 0
 196              		@ frame_needed = 0, uses_anonymous_args = 0
 197              		@ link register save eliminated.
 167:Core/Src/timer_if.c ****   uint32_t ret = 0;
 198              		.loc 1 167 3 view .LVU28
 199              	.LVL6:
 168:Core/Src/timer_if.c ****   /* USER CODE BEGIN TIMER_IF_GetMinimumTimeout */
 169:Core/Src/timer_if.c **** 
 170:Core/Src/timer_if.c ****   /* USER CODE END TIMER_IF_GetMinimumTimeout */
 171:Core/Src/timer_if.c ****   return ret;
 200              		.loc 1 171 3 view .LVU29
 172:Core/Src/timer_if.c **** }
 201              		.loc 1 172 1 is_stmt 0 view .LVU30
 202 0000 0020     		movs	r0, #0
 203 0002 7047     		bx	lr
 204              		.cfi_endproc
 205              	.LFE111:
 207              		.section	.text.TIMER_IF_Convert_ms2Tick,"ax",%progbits
 208              		.align	1
 209              		.global	TIMER_IF_Convert_ms2Tick
 210              		.syntax unified
 211              		.thumb
 212              		.thumb_func
 213              		.fpu softvfp
 215              	TIMER_IF_Convert_ms2Tick:
 216              	.LVL7:
 217              	.LFB112:
 173:Core/Src/timer_if.c **** 
 174:Core/Src/timer_if.c **** uint32_t TIMER_IF_Convert_ms2Tick(uint32_t timeMilliSec)
 175:Core/Src/timer_if.c **** {
 218              		.loc 1 175 1 is_stmt 1 view -0
 219              		.cfi_startproc
 220              		@ args = 0, pretend = 0, frame = 0
 221              		@ frame_needed = 0, uses_anonymous_args = 0
 222              		@ link register save eliminated.
 176:Core/Src/timer_if.c ****   uint32_t ret = 0;
 223              		.loc 1 176 3 view .LVU32
 177:Core/Src/timer_if.c ****   /* USER CODE BEGIN TIMER_IF_Convert_ms2Tick */
 178:Core/Src/timer_if.c **** 
 179:Core/Src/timer_if.c ****   /* USER CODE END TIMER_IF_Convert_ms2Tick */
 180:Core/Src/timer_if.c ****   return ret;
 224              		.loc 1 180 3 view .LVU33
 181:Core/Src/timer_if.c **** }
 225              		.loc 1 181 1 is_stmt 0 view .LVU34
 226 0000 0020     		movs	r0, #0
 227              	.LVL8:
 228              		.loc 1 181 1 view .LVU35
 229 0002 7047     		bx	lr
 230              		.cfi_endproc
 231              	.LFE112:
 233              		.section	.text.TIMER_IF_Convert_Tick2ms,"ax",%progbits
 234              		.align	1
 235              		.global	TIMER_IF_Convert_Tick2ms
 236              		.syntax unified
ARM GAS  /tmp/ccIwanil.s 			page 8


 237              		.thumb
 238              		.thumb_func
 239              		.fpu softvfp
 241              	TIMER_IF_Convert_Tick2ms:
 242              	.LVL9:
 243              	.LFB113:
 182:Core/Src/timer_if.c **** 
 183:Core/Src/timer_if.c **** uint32_t TIMER_IF_Convert_Tick2ms(uint32_t tick)
 184:Core/Src/timer_if.c **** {
 244              		.loc 1 184 1 is_stmt 1 view -0
 245              		.cfi_startproc
 246              		@ args = 0, pretend = 0, frame = 0
 247              		@ frame_needed = 0, uses_anonymous_args = 0
 248              		@ link register save eliminated.
 185:Core/Src/timer_if.c ****   uint32_t ret = 0;
 249              		.loc 1 185 3 view .LVU37
 186:Core/Src/timer_if.c ****   /* USER CODE BEGIN TIMER_IF_Convert_Tick2ms */
 187:Core/Src/timer_if.c **** 
 188:Core/Src/timer_if.c ****   /* USER CODE END TIMER_IF_Convert_Tick2ms */
 189:Core/Src/timer_if.c ****   return ret;
 250              		.loc 1 189 3 view .LVU38
 190:Core/Src/timer_if.c **** }
 251              		.loc 1 190 1 is_stmt 0 view .LVU39
 252 0000 0020     		movs	r0, #0
 253              	.LVL10:
 254              		.loc 1 190 1 view .LVU40
 255 0002 7047     		bx	lr
 256              		.cfi_endproc
 257              	.LFE113:
 259              		.section	.text.TIMER_IF_GetTime,"ax",%progbits
 260              		.align	1
 261              		.global	TIMER_IF_GetTime
 262              		.syntax unified
 263              		.thumb
 264              		.thumb_func
 265              		.fpu softvfp
 267              	TIMER_IF_GetTime:
 268              	.LVL11:
 269              	.LFB115:
 191:Core/Src/timer_if.c **** 
 192:Core/Src/timer_if.c **** void TIMER_IF_DelayMs(uint32_t delay)
 193:Core/Src/timer_if.c **** {
 194:Core/Src/timer_if.c ****   /* USER CODE BEGIN TIMER_IF_DelayMs */
 195:Core/Src/timer_if.c **** 
 196:Core/Src/timer_if.c ****   /* USER CODE END TIMER_IF_DelayMs */
 197:Core/Src/timer_if.c **** }
 198:Core/Src/timer_if.c **** 
 199:Core/Src/timer_if.c **** uint32_t TIMER_IF_GetTime(uint16_t *mSeconds)
 200:Core/Src/timer_if.c **** {
 270              		.loc 1 200 1 is_stmt 1 view -0
 271              		.cfi_startproc
 272              		@ args = 0, pretend = 0, frame = 0
 273              		@ frame_needed = 0, uses_anonymous_args = 0
 274              		@ link register save eliminated.
 201:Core/Src/timer_if.c ****   uint32_t seconds = 0;
 275              		.loc 1 201 3 view .LVU42
 202:Core/Src/timer_if.c ****   /* USER CODE BEGIN TIMER_IF_GetTime */
ARM GAS  /tmp/ccIwanil.s 			page 9


 203:Core/Src/timer_if.c **** 
 204:Core/Src/timer_if.c ****   /* USER CODE END TIMER_IF_GetTime */
 205:Core/Src/timer_if.c ****   return seconds;
 276              		.loc 1 205 3 view .LVU43
 206:Core/Src/timer_if.c **** }
 277              		.loc 1 206 1 is_stmt 0 view .LVU44
 278 0000 0020     		movs	r0, #0
 279              	.LVL12:
 280              		.loc 1 206 1 view .LVU45
 281 0002 7047     		bx	lr
 282              		.cfi_endproc
 283              	.LFE115:
 285              		.section	.text.TIMER_IF_BkUp_Write_Seconds,"ax",%progbits
 286              		.align	1
 287              		.global	TIMER_IF_BkUp_Write_Seconds
 288              		.syntax unified
 289              		.thumb
 290              		.thumb_func
 291              		.fpu softvfp
 293              	TIMER_IF_BkUp_Write_Seconds:
 294              	.LVL13:
 295              	.LFB116:
 207:Core/Src/timer_if.c **** 
 208:Core/Src/timer_if.c **** void TIMER_IF_BkUp_Write_Seconds(uint32_t Seconds)
 209:Core/Src/timer_if.c **** {
 296              		.loc 1 209 1 is_stmt 1 view -0
 297              		.cfi_startproc
 298              		@ args = 0, pretend = 0, frame = 0
 299              		@ frame_needed = 0, uses_anonymous_args = 0
 300              		@ link register save eliminated.
 210:Core/Src/timer_if.c ****   /* USER CODE BEGIN TIMER_IF_BkUp_Write_Seconds */
 211:Core/Src/timer_if.c **** 
 212:Core/Src/timer_if.c ****   /* USER CODE END TIMER_IF_BkUp_Write_Seconds */
 213:Core/Src/timer_if.c **** }
 301              		.loc 1 213 1 view .LVU47
 302 0000 7047     		bx	lr
 303              		.cfi_endproc
 304              	.LFE116:
 306              		.section	.text.TIMER_IF_BkUp_Write_SubSeconds,"ax",%progbits
 307              		.align	1
 308              		.global	TIMER_IF_BkUp_Write_SubSeconds
 309              		.syntax unified
 310              		.thumb
 311              		.thumb_func
 312              		.fpu softvfp
 314              	TIMER_IF_BkUp_Write_SubSeconds:
 315              	.LVL14:
 316              	.LFB117:
 214:Core/Src/timer_if.c **** 
 215:Core/Src/timer_if.c **** void TIMER_IF_BkUp_Write_SubSeconds(uint32_t SubSeconds)
 216:Core/Src/timer_if.c **** {
 317              		.loc 1 216 1 view -0
 318              		.cfi_startproc
 319              		@ args = 0, pretend = 0, frame = 0
 320              		@ frame_needed = 0, uses_anonymous_args = 0
 321              		@ link register save eliminated.
 217:Core/Src/timer_if.c ****   /* USER CODE BEGIN TIMER_IF_BkUp_Write_SubSeconds */
ARM GAS  /tmp/ccIwanil.s 			page 10


 218:Core/Src/timer_if.c **** 
 219:Core/Src/timer_if.c ****   /* USER CODE END TIMER_IF_BkUp_Write_SubSeconds */
 220:Core/Src/timer_if.c **** }
 322              		.loc 1 220 1 view .LVU49
 323 0000 7047     		bx	lr
 324              		.cfi_endproc
 325              	.LFE117:
 327              		.section	.text.TIMER_IF_BkUp_Read_Seconds,"ax",%progbits
 328              		.align	1
 329              		.global	TIMER_IF_BkUp_Read_Seconds
 330              		.syntax unified
 331              		.thumb
 332              		.thumb_func
 333              		.fpu softvfp
 335              	TIMER_IF_BkUp_Read_Seconds:
 336              	.LFB118:
 221:Core/Src/timer_if.c **** 
 222:Core/Src/timer_if.c **** uint32_t TIMER_IF_BkUp_Read_Seconds(void)
 223:Core/Src/timer_if.c **** {
 337              		.loc 1 223 1 view -0
 338              		.cfi_startproc
 339              		@ args = 0, pretend = 0, frame = 0
 340              		@ frame_needed = 0, uses_anonymous_args = 0
 341              		@ link register save eliminated.
 224:Core/Src/timer_if.c ****   uint32_t ret = 0;
 342              		.loc 1 224 3 view .LVU51
 343              	.LVL15:
 225:Core/Src/timer_if.c ****   /* USER CODE BEGIN TIMER_IF_BkUp_Read_Seconds */
 226:Core/Src/timer_if.c **** 
 227:Core/Src/timer_if.c ****   /* USER CODE END TIMER_IF_BkUp_Read_Seconds */
 228:Core/Src/timer_if.c ****   return ret;
 344              		.loc 1 228 3 view .LVU52
 229:Core/Src/timer_if.c **** }
 345              		.loc 1 229 1 is_stmt 0 view .LVU53
 346 0000 0020     		movs	r0, #0
 347 0002 7047     		bx	lr
 348              		.cfi_endproc
 349              	.LFE118:
 351              		.section	.text.TIMER_IF_BkUp_Read_SubSeconds,"ax",%progbits
 352              		.align	1
 353              		.global	TIMER_IF_BkUp_Read_SubSeconds
 354              		.syntax unified
 355              		.thumb
 356              		.thumb_func
 357              		.fpu softvfp
 359              	TIMER_IF_BkUp_Read_SubSeconds:
 360              	.LFB119:
 230:Core/Src/timer_if.c **** 
 231:Core/Src/timer_if.c **** uint32_t TIMER_IF_BkUp_Read_SubSeconds(void)
 232:Core/Src/timer_if.c **** {
 361              		.loc 1 232 1 is_stmt 1 view -0
 362              		.cfi_startproc
 363              		@ args = 0, pretend = 0, frame = 0
 364              		@ frame_needed = 0, uses_anonymous_args = 0
 365              		@ link register save eliminated.
 233:Core/Src/timer_if.c ****   uint32_t ret = 0;
 366              		.loc 1 233 3 view .LVU55
ARM GAS  /tmp/ccIwanil.s 			page 11


 367              	.LVL16:
 234:Core/Src/timer_if.c ****   /* USER CODE BEGIN TIMER_IF_BkUp_Read_SubSeconds */
 235:Core/Src/timer_if.c **** 
 236:Core/Src/timer_if.c ****   /* USER CODE END TIMER_IF_BkUp_Read_SubSeconds */
 237:Core/Src/timer_if.c ****   return ret;
 368              		.loc 1 237 3 view .LVU56
 238:Core/Src/timer_if.c **** }
 369              		.loc 1 238 1 is_stmt 0 view .LVU57
 370 0000 0020     		movs	r0, #0
 371 0002 7047     		bx	lr
 372              		.cfi_endproc
 373              	.LFE119:
 375              		.section	.text.TIMER_IF_DelayMs,"ax",%progbits
 376              		.align	1
 377              		.global	TIMER_IF_DelayMs
 378              		.syntax unified
 379              		.thumb
 380              		.thumb_func
 381              		.fpu softvfp
 383              	TIMER_IF_DelayMs:
 384              	.LVL17:
 385              	.LFB114:
 193:Core/Src/timer_if.c ****   /* USER CODE BEGIN TIMER_IF_DelayMs */
 386              		.loc 1 193 1 is_stmt 1 view -0
 387              		.cfi_startproc
 388              		@ args = 0, pretend = 0, frame = 0
 389              		@ frame_needed = 0, uses_anonymous_args = 0
 390              		@ link register save eliminated.
 197:Core/Src/timer_if.c **** 
 391              		.loc 1 197 1 view .LVU59
 392 0000 7047     		bx	lr
 393              		.cfi_endproc
 394              	.LFE114:
 396              		.global	UTIL_SYSTIMDriver
 397              		.global	UTIL_TimerDriver
 398              		.section	.rodata.UTIL_SYSTIMDriver,"a"
 399              		.align	2
 402              	UTIL_SYSTIMDriver:
 403 0000 00000000 		.word	TIMER_IF_BkUp_Write_Seconds
 404 0004 00000000 		.word	TIMER_IF_BkUp_Read_Seconds
 405 0008 00000000 		.word	TIMER_IF_BkUp_Write_SubSeconds
 406 000c 00000000 		.word	TIMER_IF_BkUp_Read_SubSeconds
 407 0010 00000000 		.word	TIMER_IF_GetTime
 408              		.section	.rodata.UTIL_TimerDriver,"a"
 409              		.align	2
 412              	UTIL_TimerDriver:
 413 0000 00000000 		.word	TIMER_IF_Init
 414 0004 00000000 		.word	0
 415 0008 00000000 		.word	TIMER_IF_StartTimer
 416 000c 00000000 		.word	TIMER_IF_StopTimer
 417 0010 00000000 		.word	TIMER_IF_SetTimerContext
 418 0014 00000000 		.word	TIMER_IF_GetTimerContext
 419 0018 00000000 		.word	TIMER_IF_GetTimerElapsedTime
 420 001c 00000000 		.word	TIMER_IF_GetTimerValue
 421 0020 00000000 		.word	TIMER_IF_GetMinimumTimeout
 422 0024 00000000 		.word	TIMER_IF_Convert_ms2Tick
 423 0028 00000000 		.word	TIMER_IF_Convert_Tick2ms
ARM GAS  /tmp/ccIwanil.s 			page 12


 424              		.text
 425              	.Letext0:
 426              		.file 2 "/home/eatkinso/Downloads/gcc-arm-none-eabi-10.3-2021.07/gcc-arm-none-eabi-10.3-2021.07/ar
 427              		.file 3 "/home/eatkinso/Downloads/gcc-arm-none-eabi-10.3-2021.07/gcc-arm-none-eabi-10.3-2021.07/ar
 428              		.file 4 "Utilities/timer/stm32_timer.h"
 429              		.file 5 "Utilities/misc/stm32_systime.h"
ARM GAS  /tmp/ccIwanil.s 			page 13

